ARM GAS  C:\Users\rober\AppData\Local\Temp\ccmFVXL7.s 			page 1


   1              		.syntax unified
   2              		.cpu cortex-m4
   3              		.eabi_attribute 27, 1
   4              		.fpu fpv4-sp-d16
   5              		.eabi_attribute 20, 1
   6              		.eabi_attribute 21, 1
   7              		.eabi_attribute 23, 3
   8              		.eabi_attribute 24, 1
   9              		.eabi_attribute 25, 1
  10              		.eabi_attribute 26, 1
  11              		.eabi_attribute 30, 6
  12              		.eabi_attribute 34, 1
  13              		.eabi_attribute 18, 4
  14              		.thumb
  15              		.syntax unified
  16              		.file	"cy_ipc_config.c"
  17              		.text
  18              	.Ltext0:
  19              		.cfi_sections	.debug_frame
  20              		.section	.text.Cy_IPC_SystemSemaInit,"ax",%progbits
  21              		.align	2
  22              		.global	Cy_IPC_SystemSemaInit
  23              		.thumb
  24              		.thumb_func
  25              		.type	Cy_IPC_SystemSemaInit, %function
  26              	Cy_IPC_SystemSemaInit:
  27              	.LFB147:
  28              		.file 1 "cy_ipc_config.c"
   1:cy_ipc_config.c **** /***************************************************************************//**
   2:cy_ipc_config.c **** * \file cy_ipc_config.c
   3:cy_ipc_config.c **** * \version 1.20
   4:cy_ipc_config.c **** *
   5:cy_ipc_config.c **** *  Description:
   6:cy_ipc_config.c **** *  This C file is not intended to be part of the IPC driver. It is the code
   7:cy_ipc_config.c **** *  required to configure the device specific IPC channels for semaphores
   8:cy_ipc_config.c **** *  and pipes.
   9:cy_ipc_config.c **** *
  10:cy_ipc_config.c **** ********************************************************************************
  11:cy_ipc_config.c **** * Copyright 2016-2018, Cypress Semiconductor Corporation.  All rights reserved.
  12:cy_ipc_config.c **** * You may use this file only in accordance with the license, terms, conditions,
  13:cy_ipc_config.c **** * disclaimers, and limitations in the end user license agreement accompanying
  14:cy_ipc_config.c **** * the software package with which this file was provided.
  15:cy_ipc_config.c **** *******************************************************************************/
  16:cy_ipc_config.c **** 
  17:cy_ipc_config.c **** #include "ipc/cy_ipc_drv.h"
  18:cy_ipc_config.c **** #include "ipc/cy_ipc_pipe.h"
  19:cy_ipc_config.c **** #include "ipc/cy_ipc_sema.h"
  20:cy_ipc_config.c **** 
  21:cy_ipc_config.c **** #include "cy_ipc_config.h"
  22:cy_ipc_config.c **** 
  23:cy_ipc_config.c **** #if (CY_IPC_CYPIPE_ENABLE)
  24:cy_ipc_config.c **** static void Cy_IPC_SystemPipeIsr(void);
  25:cy_ipc_config.c **** 
  26:cy_ipc_config.c **** #define CY_CYPIPE_DEFAULT_CONFIG    \
  27:cy_ipc_config.c **** {\
  28:cy_ipc_config.c ****     /* .ep0ConfigData */ {\
  29:cy_ipc_config.c ****         /* .ipcNotifierNumber    */  CY_IPC_INTR_CYPIPE_EP0,\
ARM GAS  C:\Users\rober\AppData\Local\Temp\ccmFVXL7.s 			page 2


  30:cy_ipc_config.c ****         /* .ipcNotifierPriority  */  CY_IPC_INTR_CYPIPE_PRIOR_EP0,\
  31:cy_ipc_config.c ****         /* .ipcNotifierMuxNumber */  CY_IPC_INTR_CYPIPE_MUX_EP0,\
  32:cy_ipc_config.c ****         /* .epAddress            */  CY_IPC_EP_CYPIPE_CM0_ADDR,\
  33:cy_ipc_config.c ****         /* .epConfig             */  CY_IPC_CYPIPE_CONFIG_EP0\
  34:cy_ipc_config.c ****     },\
  35:cy_ipc_config.c ****     /* .ep1ConfigData */ {\
  36:cy_ipc_config.c ****         /* .ipcNotifierNumber    */  CY_IPC_INTR_CYPIPE_EP1,\
  37:cy_ipc_config.c ****         /* .ipcNotifierPriority  */  CY_IPC_INTR_CYPIPE_PRIOR_EP1,\
  38:cy_ipc_config.c ****         /* .ipcNotifierMuxNumber */  0u,\
  39:cy_ipc_config.c ****         /* .epAddress            */  CY_IPC_EP_CYPIPE_CM4_ADDR,\
  40:cy_ipc_config.c ****         /* .epConfig             */  CY_IPC_CYPIPE_CONFIG_EP1\
  41:cy_ipc_config.c ****     },\
  42:cy_ipc_config.c ****     /* .endpointClientsCount     */  CY_IPC_CYPIPE_CLIENT_CNT,\
  43:cy_ipc_config.c ****     /* .endpointsCallbacksArray  */  cy_ipc_pipe_sysCbArray,\
  44:cy_ipc_config.c ****     /* .userPipeIsrHandler       */  &Cy_IPC_SystemPipeIsr\
  45:cy_ipc_config.c **** }
  46:cy_ipc_config.c **** #endif /* CY_IPC_CYPIPE_ENABLE */
  47:cy_ipc_config.c **** 
  48:cy_ipc_config.c **** /*******************************************************************************
  49:cy_ipc_config.c **** * Function Name: Cy_IPC_SystemSemaInit
  50:cy_ipc_config.c **** ****************************************************************************//**
  51:cy_ipc_config.c **** *
  52:cy_ipc_config.c **** * Initializes the system semaphores. The system semaphores are used by Flash.
  53:cy_ipc_config.c **** *
  54:cy_ipc_config.c **** * This function is called in the SystemInit() function. If the default startup
  55:cy_ipc_config.c **** * file is not used, or SystemInit() is not called in your project,
  56:cy_ipc_config.c **** * call the following three functions prior to executing any flash or EmEEPROM
  57:cy_ipc_config.c **** * write or erase operation:
  58:cy_ipc_config.c **** *  -# Cy_IPC_SystemSemaInit()
  59:cy_ipc_config.c **** *  -# Cy_IPC_SystemPipeInit()
  60:cy_ipc_config.c **** *  -# Cy_Flash_Init()
  61:cy_ipc_config.c **** *
  62:cy_ipc_config.c **** *******************************************************************************/
  63:cy_ipc_config.c **** void Cy_IPC_SystemSemaInit(void)
  64:cy_ipc_config.c **** {
  29              		.loc 1 64 0
  30              		.cfi_startproc
  31              		@ args = 0, pretend = 0, frame = 0
  32              		@ frame_needed = 1, uses_anonymous_args = 0
  33 0000 80B5     		push	{r7, lr}
  34              		.cfi_def_cfa_offset 8
  35              		.cfi_offset 7, -8
  36              		.cfi_offset 14, -4
  37 0002 00AF     		add	r7, sp, #0
  38              		.cfi_def_cfa_register 7
  65:cy_ipc_config.c **** /* Create array used for semaphores */
  66:cy_ipc_config.c **** #if ((CY_CPU_CORTEX_M0P) || !(__CM0P_PRESENT))
  67:cy_ipc_config.c ****     static uint32_t ipcSemaArray[CY_IPC_SEMA_COUNT / CY_IPC_SEMA_PER_WORD];
  68:cy_ipc_config.c ****     (void) Cy_IPC_Sema_Init(CY_IPC_CHAN_SEMA, CY_IPC_SEMA_COUNT, ipcSemaArray);
  69:cy_ipc_config.c **** #else
  70:cy_ipc_config.c ****     (void) Cy_IPC_Sema_Init(CY_IPC_CHAN_SEMA, 0ul, NULL);
  39              		.loc 1 70 0
  40 0004 0022     		movs	r2, #0
  41 0006 0021     		movs	r1, #0
  42 0008 0420     		movs	r0, #4
  43 000a FFF7FEFF 		bl	Cy_IPC_Sema_Init
  71:cy_ipc_config.c **** #endif
ARM GAS  C:\Users\rober\AppData\Local\Temp\ccmFVXL7.s 			page 3


  72:cy_ipc_config.c **** }
  44              		.loc 1 72 0
  45 000e 00BF     		nop
  46 0010 80BD     		pop	{r7, pc}
  47              		.cfi_endproc
  48              	.LFE147:
  49              		.size	Cy_IPC_SystemSemaInit, .-Cy_IPC_SystemSemaInit
  50 0012 00BF     		.section	.text.Cy_IPC_SystemPipeInit,"ax",%progbits
  51              		.align	2
  52              		.global	Cy_IPC_SystemPipeInit
  53              		.thumb
  54              		.thumb_func
  55              		.type	Cy_IPC_SystemPipeInit, %function
  56              	Cy_IPC_SystemPipeInit:
  57              	.LFB148:
  73:cy_ipc_config.c **** 
  74:cy_ipc_config.c **** /*******************************************************************************
  75:cy_ipc_config.c **** * Function Name: Cy_IPC_SystemPipeInit
  76:cy_ipc_config.c **** ****************************************************************************//**
  77:cy_ipc_config.c **** *
  78:cy_ipc_config.c **** * Initializes the system pipes. The system pipes are used by BLE and Flash.
  79:cy_ipc_config.c **** * \note The function should be called on all CPUs.
  80:cy_ipc_config.c **** *
  81:cy_ipc_config.c **** * This function is called in the SystemInit() function. If the default startup
  82:cy_ipc_config.c **** * file is not used, or SystemInit() is not called in your project,
  83:cy_ipc_config.c **** * call the following three functions prior to executing any flash or EmEEPROM
  84:cy_ipc_config.c **** * write or erase operation:
  85:cy_ipc_config.c **** *  -# Cy_IPC_SystemSemaInit()
  86:cy_ipc_config.c **** *  -# Cy_IPC_SystemPipeInit()
  87:cy_ipc_config.c **** *  -# Cy_Flash_Init()
  88:cy_ipc_config.c **** *
  89:cy_ipc_config.c **** * Also this function is called to support BLE host/controller communication.
  90:cy_ipc_config.c **** *
  91:cy_ipc_config.c **** *******************************************************************************/
  92:cy_ipc_config.c **** void Cy_IPC_SystemPipeInit(void)
  93:cy_ipc_config.c **** {
  58              		.loc 1 93 0
  59              		.cfi_startproc
  60              		@ args = 0, pretend = 0, frame = 8
  61              		@ frame_needed = 1, uses_anonymous_args = 0
  62 0000 80B5     		push	{r7, lr}
  63              		.cfi_def_cfa_offset 8
  64              		.cfi_offset 7, -8
  65              		.cfi_offset 14, -4
  66 0002 82B0     		sub	sp, sp, #8
  67              		.cfi_def_cfa_offset 16
  68 0004 00AF     		add	r7, sp, #0
  69              		.cfi_def_cfa_register 7
  94:cy_ipc_config.c ****     /* Create an array of endpoint structures */
  95:cy_ipc_config.c ****     static cy_stc_ipc_pipe_ep_t cy_ipc_pipe_sysEpArray[CY_IPC_MAX_ENDPOINTS];
  96:cy_ipc_config.c **** 
  97:cy_ipc_config.c ****     Cy_IPC_Pipe_Config(cy_ipc_pipe_sysEpArray);
  70              		.loc 1 97 0
  71 0006 0848     		ldr	r0, .L3
  72 0008 FFF7FEFF 		bl	Cy_IPC_Pipe_Config
  98:cy_ipc_config.c **** 
  99:cy_ipc_config.c **** #if (CY_IPC_CYPIPE_ENABLE)
ARM GAS  C:\Users\rober\AppData\Local\Temp\ccmFVXL7.s 			page 4


 100:cy_ipc_config.c ****     uint32_t intr;
 101:cy_ipc_config.c **** 
 102:cy_ipc_config.c ****     static cy_ipc_pipe_callback_ptr_t cy_ipc_pipe_sysCbArray[CY_IPC_CYPIPE_CLIENT_CNT];
 103:cy_ipc_config.c **** 
 104:cy_ipc_config.c ****     static const cy_stc_ipc_pipe_config_t systemPipeConfig = CY_CYPIPE_DEFAULT_CONFIG;
 105:cy_ipc_config.c **** 
 106:cy_ipc_config.c ****     intr = Cy_SysLib_EnterCriticalSection();
  73              		.loc 1 106 0
  74 000c FFF7FEFF 		bl	Cy_SysLib_EnterCriticalSection
  75 0010 7860     		str	r0, [r7, #4]
 107:cy_ipc_config.c **** 
 108:cy_ipc_config.c ****     Cy_IPC_Pipe_Init(&systemPipeConfig);
  76              		.loc 1 108 0
  77 0012 0648     		ldr	r0, .L3+4
  78 0014 FFF7FEFF 		bl	Cy_IPC_Pipe_Init
 109:cy_ipc_config.c **** 
 110:cy_ipc_config.c ****     Cy_SysLib_ExitCriticalSection(intr);
  79              		.loc 1 110 0
  80 0018 7868     		ldr	r0, [r7, #4]
  81 001a FFF7FEFF 		bl	Cy_SysLib_ExitCriticalSection
 111:cy_ipc_config.c **** #endif /* CY_IPC_CYPIPE_ENABLE */
 112:cy_ipc_config.c **** }
  82              		.loc 1 112 0
  83 001e 00BF     		nop
  84 0020 0837     		adds	r7, r7, #8
  85              		.cfi_def_cfa_offset 8
  86 0022 BD46     		mov	sp, r7
  87              		.cfi_def_cfa_register 13
  88              		@ sp needed
  89 0024 80BD     		pop	{r7, pc}
  90              	.L4:
  91 0026 00BF     		.align	2
  92              	.L3:
  93 0028 00000000 		.word	cy_ipc_pipe_sysEpArray.9973
  94 002c 00000000 		.word	systemPipeConfig.9976
  95              		.cfi_endproc
  96              	.LFE148:
  97              		.size	Cy_IPC_SystemPipeInit, .-Cy_IPC_SystemPipeInit
  98              		.section	.text.Cy_IPC_SystemPipeIsr,"ax",%progbits
  99              		.align	2
 100              		.thumb
 101              		.thumb_func
 102              		.type	Cy_IPC_SystemPipeIsr, %function
 103              	Cy_IPC_SystemPipeIsr:
 104              	.LFB149:
 113:cy_ipc_config.c **** 
 114:cy_ipc_config.c **** #if (CY_IPC_CYPIPE_ENABLE)
 115:cy_ipc_config.c **** /*******************************************************************************
 116:cy_ipc_config.c **** * Function Name: Cy_IPC_SystemPipeIsr
 117:cy_ipc_config.c **** ****************************************************************************//**
 118:cy_ipc_config.c **** *
 119:cy_ipc_config.c **** * This is the interrupt service routine for the system pipe.
 120:cy_ipc_config.c **** *
 121:cy_ipc_config.c **** *******************************************************************************/
 122:cy_ipc_config.c **** static void Cy_IPC_SystemPipeIsr(void)
 123:cy_ipc_config.c **** {
 105              		.loc 1 123 0
ARM GAS  C:\Users\rober\AppData\Local\Temp\ccmFVXL7.s 			page 5


 106              		.cfi_startproc
 107              		@ args = 0, pretend = 0, frame = 0
 108              		@ frame_needed = 1, uses_anonymous_args = 0
 109 0000 80B5     		push	{r7, lr}
 110              		.cfi_def_cfa_offset 8
 111              		.cfi_offset 7, -8
 112              		.cfi_offset 14, -4
 113 0002 00AF     		add	r7, sp, #0
 114              		.cfi_def_cfa_register 7
 124:cy_ipc_config.c ****     Cy_IPC_Pipe_ExecuteCallback(CY_IPC_EP_CYPIPE_ADDR);
 115              		.loc 1 124 0
 116 0004 0120     		movs	r0, #1
 117 0006 FFF7FEFF 		bl	Cy_IPC_Pipe_ExecuteCallback
 125:cy_ipc_config.c **** }
 118              		.loc 1 125 0
 119 000a 00BF     		nop
 120 000c 80BD     		pop	{r7, pc}
 121              		.cfi_endproc
 122              	.LFE149:
 123              		.size	Cy_IPC_SystemPipeIsr, .-Cy_IPC_SystemPipeIsr
 124 000e 00BF     		.bss
 125              		.align	2
 126              	cy_ipc_pipe_sysEpArray.9973:
 127 0000 00000000 		.space	352
 127      00000000 
 127      00000000 
 127      00000000 
 127      00000000 
 128              		.section	.rodata
 129              		.align	2
 130              		.type	systemPipeConfig.9976, %object
 131              		.size	systemPipeConfig.9976, 52
 132              	systemPipeConfig.9976:
 133 0000 03000000 		.word	3
 134 0004 01000000 		.word	1
 135 0008 01000000 		.word	1
 136 000c 00000000 		.word	0
 137 0010 05036000 		.word	6292229
 138 0014 04000000 		.word	4
 139 0018 01000000 		.word	1
 140 001c 00000000 		.word	0
 141 0020 01000000 		.word	1
 142 0024 06046000 		.word	6292486
 143 0028 08000000 		.word	8
 144 002c 60010000 		.word	cy_ipc_pipe_sysCbArray.9975
 145 0030 00000000 		.word	Cy_IPC_SystemPipeIsr
 146              		.bss
 147              		.align	2
 148              	cy_ipc_pipe_sysCbArray.9975:
 149 0160 00000000 		.space	32
 149      00000000 
 149      00000000 
 149      00000000 
 149      00000000 
 150              		.text
 151              	.Letext0:
 152              		.file 2 "c:\\program files (x86)\\cypress\\psoc creator\\4.2\\psoc creator\\import\\gnu\\arm\\5.4.
ARM GAS  C:\Users\rober\AppData\Local\Temp\ccmFVXL7.s 			page 6


 153              		.file 3 "c:\\program files (x86)\\cypress\\psoc creator\\4.2\\psoc creator\\import\\gnu\\arm\\5.4.
 154              		.file 4 "Generated_Source\\PSoC6\\pdl\\devices/psoc6/psoc63/include/cy8c6347bzi_bld53.h"
 155              		.file 5 "Generated_Source\\PSoC6\\pdl\\devices/psoc6/ip/cyip_ipc.h"
 156              		.file 6 "Generated_Source\\PSoC6\\pdl\\drivers/peripheral/syslib/cy_syslib.h"
 157              		.file 7 "Generated_Source\\PSoC6\\pdl\\drivers/peripheral/ipc/cy_ipc_pipe.h"
 158              		.file 8 "Generated_Source\\PSoC6\\pdl\\cmsis/include/core_cm4.h"