ARM GAS  C:\Users\rober\AppData\Local\Temp\ccEZp8H3.s 			page 1


   1              		.syntax unified
   2              		.cpu cortex-m4
   3              		.eabi_attribute 27, 1
   4              		.fpu fpv4-sp-d16
   5              		.eabi_attribute 20, 1
   6              		.eabi_attribute 21, 1
   7              		.eabi_attribute 23, 3
   8              		.eabi_attribute 24, 1
   9              		.eabi_attribute 25, 1
  10              		.eabi_attribute 26, 1
  11              		.eabi_attribute 30, 6
  12              		.eabi_attribute 34, 1
  13              		.eabi_attribute 18, 4
  14              		.thumb
  15              		.syntax unified
  16              		.file	"cy_tcpwm_pwm.c"
  17              		.text
  18              	.Ltext0:
  19              		.cfi_sections	.debug_frame
  20              		.section	.text.Cy_TCPWM_PWM_Init,"ax",%progbits
  21              		.align	2
  22              		.global	Cy_TCPWM_PWM_Init
  23              		.thumb
  24              		.thumb_func
  25              		.type	Cy_TCPWM_PWM_Init, %function
  26              	Cy_TCPWM_PWM_Init:
  27              	.LFB152:
  28              		.file 1 "Generated_Source\\PSoC6\\pdl\\drivers\\peripheral\\tcpwm\\cy_tcpwm_pwm.c"
   1:Generated_Source\PSoC6\pdl\drivers\peripheral\tcpwm/cy_tcpwm_pwm.c **** /***************************************************************************//**
   2:Generated_Source\PSoC6\pdl\drivers\peripheral\tcpwm/cy_tcpwm_pwm.c **** * \file cy_tcpwm_pwm.c
   3:Generated_Source\PSoC6\pdl\drivers\peripheral\tcpwm/cy_tcpwm_pwm.c **** * \version 1.0.1
   4:Generated_Source\PSoC6\pdl\drivers\peripheral\tcpwm/cy_tcpwm_pwm.c **** *
   5:Generated_Source\PSoC6\pdl\drivers\peripheral\tcpwm/cy_tcpwm_pwm.c **** * \brief
   6:Generated_Source\PSoC6\pdl\drivers\peripheral\tcpwm/cy_tcpwm_pwm.c **** *  The source file of the tcpwm driver.
   7:Generated_Source\PSoC6\pdl\drivers\peripheral\tcpwm/cy_tcpwm_pwm.c **** *
   8:Generated_Source\PSoC6\pdl\drivers\peripheral\tcpwm/cy_tcpwm_pwm.c **** ********************************************************************************
   9:Generated_Source\PSoC6\pdl\drivers\peripheral\tcpwm/cy_tcpwm_pwm.c **** * \copyright
  10:Generated_Source\PSoC6\pdl\drivers\peripheral\tcpwm/cy_tcpwm_pwm.c **** * Copyright 2016-2018, Cypress Semiconductor Corporation.  All rights reserved.
  11:Generated_Source\PSoC6\pdl\drivers\peripheral\tcpwm/cy_tcpwm_pwm.c **** * You may use this file only in accordance with the license, terms, conditions,
  12:Generated_Source\PSoC6\pdl\drivers\peripheral\tcpwm/cy_tcpwm_pwm.c **** * disclaimers, and limitations in the end user license agreement accompanying
  13:Generated_Source\PSoC6\pdl\drivers\peripheral\tcpwm/cy_tcpwm_pwm.c **** * the software package with which this file was provided.
  14:Generated_Source\PSoC6\pdl\drivers\peripheral\tcpwm/cy_tcpwm_pwm.c **** *******************************************************************************/
  15:Generated_Source\PSoC6\pdl\drivers\peripheral\tcpwm/cy_tcpwm_pwm.c **** 
  16:Generated_Source\PSoC6\pdl\drivers\peripheral\tcpwm/cy_tcpwm_pwm.c **** #include "cy_tcpwm_pwm.h"
  17:Generated_Source\PSoC6\pdl\drivers\peripheral\tcpwm/cy_tcpwm_pwm.c **** 
  18:Generated_Source\PSoC6\pdl\drivers\peripheral\tcpwm/cy_tcpwm_pwm.c **** #if defined(__cplusplus)
  19:Generated_Source\PSoC6\pdl\drivers\peripheral\tcpwm/cy_tcpwm_pwm.c **** extern "C" {
  20:Generated_Source\PSoC6\pdl\drivers\peripheral\tcpwm/cy_tcpwm_pwm.c **** #endif
  21:Generated_Source\PSoC6\pdl\drivers\peripheral\tcpwm/cy_tcpwm_pwm.c **** 
  22:Generated_Source\PSoC6\pdl\drivers\peripheral\tcpwm/cy_tcpwm_pwm.c **** 
  23:Generated_Source\PSoC6\pdl\drivers\peripheral\tcpwm/cy_tcpwm_pwm.c **** /*******************************************************************************
  24:Generated_Source\PSoC6\pdl\drivers\peripheral\tcpwm/cy_tcpwm_pwm.c **** * Function Name: Cy_TCPWM_PWM_Init
  25:Generated_Source\PSoC6\pdl\drivers\peripheral\tcpwm/cy_tcpwm_pwm.c **** ****************************************************************************//**
  26:Generated_Source\PSoC6\pdl\drivers\peripheral\tcpwm/cy_tcpwm_pwm.c **** *
  27:Generated_Source\PSoC6\pdl\drivers\peripheral\tcpwm/cy_tcpwm_pwm.c **** * Initializes the counter in the TCPWM block for the PWM operation.
  28:Generated_Source\PSoC6\pdl\drivers\peripheral\tcpwm/cy_tcpwm_pwm.c **** *
  29:Generated_Source\PSoC6\pdl\drivers\peripheral\tcpwm/cy_tcpwm_pwm.c **** * \param base
ARM GAS  C:\Users\rober\AppData\Local\Temp\ccEZp8H3.s 			page 2


  30:Generated_Source\PSoC6\pdl\drivers\peripheral\tcpwm/cy_tcpwm_pwm.c **** * The pointer to a TCPWM instance.
  31:Generated_Source\PSoC6\pdl\drivers\peripheral\tcpwm/cy_tcpwm_pwm.c **** *
  32:Generated_Source\PSoC6\pdl\drivers\peripheral\tcpwm/cy_tcpwm_pwm.c **** * \param cntNum
  33:Generated_Source\PSoC6\pdl\drivers\peripheral\tcpwm/cy_tcpwm_pwm.c **** * The Counter instance number in the selected TCPWM.
  34:Generated_Source\PSoC6\pdl\drivers\peripheral\tcpwm/cy_tcpwm_pwm.c **** *
  35:Generated_Source\PSoC6\pdl\drivers\peripheral\tcpwm/cy_tcpwm_pwm.c **** * \param config
  36:Generated_Source\PSoC6\pdl\drivers\peripheral\tcpwm/cy_tcpwm_pwm.c **** * The pointer to a configuration structure. See \ref cy_stc_tcpwm_pwm_config_t.
  37:Generated_Source\PSoC6\pdl\drivers\peripheral\tcpwm/cy_tcpwm_pwm.c **** *
  38:Generated_Source\PSoC6\pdl\drivers\peripheral\tcpwm/cy_tcpwm_pwm.c **** * \return error / status code. See \ref cy_en_tcpwm_status_t.
  39:Generated_Source\PSoC6\pdl\drivers\peripheral\tcpwm/cy_tcpwm_pwm.c **** *
  40:Generated_Source\PSoC6\pdl\drivers\peripheral\tcpwm/cy_tcpwm_pwm.c **** * \funcusage
  41:Generated_Source\PSoC6\pdl\drivers\peripheral\tcpwm/cy_tcpwm_pwm.c **** * \snippet tcpwm/tcpwm_v1_0_pwm_sut_01.cydsn/main_cm4.c snippet_Cy_TCPWM_PWM_Config
  42:Generated_Source\PSoC6\pdl\drivers\peripheral\tcpwm/cy_tcpwm_pwm.c **** * \snippet tcpwm/tcpwm_v1_0_pwm_sut_01.cydsn/main_cm4.c snippet_Cy_TCPWM_PWM_Init
  43:Generated_Source\PSoC6\pdl\drivers\peripheral\tcpwm/cy_tcpwm_pwm.c **** *
  44:Generated_Source\PSoC6\pdl\drivers\peripheral\tcpwm/cy_tcpwm_pwm.c **** *******************************************************************************/
  45:Generated_Source\PSoC6\pdl\drivers\peripheral\tcpwm/cy_tcpwm_pwm.c **** cy_en_tcpwm_status_t Cy_TCPWM_PWM_Init(TCPWM_Type *base, uint32_t cntNum,  cy_stc_tcpwm_pwm_config_
  46:Generated_Source\PSoC6\pdl\drivers\peripheral\tcpwm/cy_tcpwm_pwm.c **** {
  29              		.loc 1 46 0
  30              		.cfi_startproc
  31              		@ args = 0, pretend = 0, frame = 24
  32              		@ frame_needed = 1, uses_anonymous_args = 0
  33              		@ link register save eliminated.
  34 0000 80B4     		push	{r7}
  35              		.cfi_def_cfa_offset 4
  36              		.cfi_offset 7, -4
  37 0002 87B0     		sub	sp, sp, #28
  38              		.cfi_def_cfa_offset 32
  39 0004 00AF     		add	r7, sp, #0
  40              		.cfi_def_cfa_register 7
  41 0006 F860     		str	r0, [r7, #12]
  42 0008 B960     		str	r1, [r7, #8]
  43 000a 7A60     		str	r2, [r7, #4]
  47:Generated_Source\PSoC6\pdl\drivers\peripheral\tcpwm/cy_tcpwm_pwm.c ****     cy_en_tcpwm_status_t status = CY_TCPWM_BAD_PARAM;
  44              		.loc 1 47 0
  45 000c 8D4B     		ldr	r3, .L15
  46 000e 7B61     		str	r3, [r7, #20]
  48:Generated_Source\PSoC6\pdl\drivers\peripheral\tcpwm/cy_tcpwm_pwm.c **** 
  49:Generated_Source\PSoC6\pdl\drivers\peripheral\tcpwm/cy_tcpwm_pwm.c ****     if ((NULL != base) && (NULL != config))
  47              		.loc 1 49 0
  48 0010 FB68     		ldr	r3, [r7, #12]
  49 0012 002B     		cmp	r3, #0
  50 0014 00F00F81 		beq	.L2
  51              		.loc 1 49 0 is_stmt 0 discriminator 1
  52 0018 7B68     		ldr	r3, [r7, #4]
  53 001a 002B     		cmp	r3, #0
  54 001c 00F00B81 		beq	.L2
  50:Generated_Source\PSoC6\pdl\drivers\peripheral\tcpwm/cy_tcpwm_pwm.c ****     {
  51:Generated_Source\PSoC6\pdl\drivers\peripheral\tcpwm/cy_tcpwm_pwm.c ****         base->CNT[cntNum].CTRL = ((config->enableCompareSwap ? TCPWM_CNT_CTRL_AUTO_RELOAD_CC_Msk : 
  55              		.loc 1 51 0 is_stmt 1
  56 0020 7B68     		ldr	r3, [r7, #4]
  57 0022 93F82830 		ldrb	r3, [r3, #40]	@ zero_extendqisi2
  58 0026 002B     		cmp	r3, #0
  59 0028 01D0     		beq	.L3
  60              		.loc 1 51 0 is_stmt 0 discriminator 1
  61 002a 0122     		movs	r2, #1
  62 002c 00E0     		b	.L4
  63              	.L3:
ARM GAS  C:\Users\rober\AppData\Local\Temp\ccEZp8H3.s 			page 3


  64              		.loc 1 51 0 discriminator 2
  65 002e 0022     		movs	r2, #0
  66              	.L4:
  52:Generated_Source\PSoC6\pdl\drivers\peripheral\tcpwm/cy_tcpwm_pwm.c ****                                   (config->enablePeriodSwap ? TCPWM_CNT_CTRL_AUTO_RELOAD_PERIOD_Msk
  67              		.loc 1 52 0 is_stmt 1
  68 0030 7B68     		ldr	r3, [r7, #4]
  69 0032 1B7F     		ldrb	r3, [r3, #28]	@ zero_extendqisi2
  70 0034 002B     		cmp	r3, #0
  71 0036 01D0     		beq	.L5
  72              		.loc 1 52 0 is_stmt 0 discriminator 1
  73 0038 0223     		movs	r3, #2
  74 003a 00E0     		b	.L6
  75              	.L5:
  76              		.loc 1 52 0 discriminator 2
  77 003c 0023     		movs	r3, #0
  78              	.L6:
  51:Generated_Source\PSoC6\pdl\drivers\peripheral\tcpwm/cy_tcpwm_pwm.c ****                                   (config->enablePeriodSwap ? TCPWM_CNT_CTRL_AUTO_RELOAD_PERIOD_Msk
  79              		.loc 1 51 0 is_stmt 1
  80 003e 1A43     		orrs	r2, r2, r3
  53:Generated_Source\PSoC6\pdl\drivers\peripheral\tcpwm/cy_tcpwm_pwm.c ****                                   _VAL2FLD(TCPWM_CNT_CTRL_ONE_SHOT, config->runMode) |
  81              		.loc 1 53 0
  82 0040 7B68     		ldr	r3, [r7, #4]
  83 0042 1B69     		ldr	r3, [r3, #16]
  84 0044 9B04     		lsls	r3, r3, #18
  85 0046 03F48023 		and	r3, r3, #262144
  52:Generated_Source\PSoC6\pdl\drivers\peripheral\tcpwm/cy_tcpwm_pwm.c ****                                   (config->enablePeriodSwap ? TCPWM_CNT_CTRL_AUTO_RELOAD_PERIOD_Msk
  86              		.loc 1 52 0
  87 004a 1A43     		orrs	r2, r2, r3
  54:Generated_Source\PSoC6\pdl\drivers\peripheral\tcpwm/cy_tcpwm_pwm.c ****                                   _VAL2FLD(TCPWM_CNT_CTRL_UP_DOWN_MODE, config->pwmAlignment) |
  88              		.loc 1 54 0
  89 004c 7B68     		ldr	r3, [r7, #4]
  90 004e 9B68     		ldr	r3, [r3, #8]
  91 0050 1B04     		lsls	r3, r3, #16
  92 0052 03F44033 		and	r3, r3, #196608
  53:Generated_Source\PSoC6\pdl\drivers\peripheral\tcpwm/cy_tcpwm_pwm.c ****                                   _VAL2FLD(TCPWM_CNT_CTRL_ONE_SHOT, config->runMode) |
  93              		.loc 1 53 0
  94 0056 1A43     		orrs	r2, r2, r3
  55:Generated_Source\PSoC6\pdl\drivers\peripheral\tcpwm/cy_tcpwm_pwm.c ****                                   _VAL2FLD(TCPWM_CNT_CTRL_MODE, config->pwmMode) |
  95              		.loc 1 55 0
  96 0058 7B68     		ldr	r3, [r7, #4]
  97 005a 1B68     		ldr	r3, [r3]
  98 005c 1B06     		lsls	r3, r3, #24
  99 005e 03F0E063 		and	r3, r3, #117440512
  54:Generated_Source\PSoC6\pdl\drivers\peripheral\tcpwm/cy_tcpwm_pwm.c ****                                   _VAL2FLD(TCPWM_CNT_CTRL_UP_DOWN_MODE, config->pwmAlignment) |
 100              		.loc 1 54 0
 101 0062 1A43     		orrs	r2, r2, r3
  56:Generated_Source\PSoC6\pdl\drivers\peripheral\tcpwm/cy_tcpwm_pwm.c ****                                   _VAL2FLD(TCPWM_CNT_CTRL_QUADRATURE_MODE,
 102              		.loc 1 56 0
 103 0064 7B68     		ldr	r3, [r7, #4]
 104 0066 196B     		ldr	r1, [r3, #48]
 105 0068 7B68     		ldr	r3, [r7, #4]
 106 006a 5B6B     		ldr	r3, [r3, #52]
 107 006c 5B00     		lsls	r3, r3, #1
 108 006e 0B43     		orrs	r3, r3, r1
 109 0070 1B05     		lsls	r3, r3, #20
 110 0072 03F44013 		and	r3, r3, #3145728
  55:Generated_Source\PSoC6\pdl\drivers\peripheral\tcpwm/cy_tcpwm_pwm.c ****                                   _VAL2FLD(TCPWM_CNT_CTRL_MODE, config->pwmMode) |
ARM GAS  C:\Users\rober\AppData\Local\Temp\ccEZp8H3.s 			page 4


 111              		.loc 1 55 0
 112 0076 1A43     		orrs	r2, r2, r3
  57:Generated_Source\PSoC6\pdl\drivers\peripheral\tcpwm/cy_tcpwm_pwm.c ****                                            (config->invertPWMOut | (config->invertPWMOutN << 1U))) 
  58:Generated_Source\PSoC6\pdl\drivers\peripheral\tcpwm/cy_tcpwm_pwm.c ****                                   (config->killMode << CY_TCPWM_PWM_CTRL_SYNC_KILL_OR_STOP_ON_KILL_
 113              		.loc 1 58 0
 114 0078 7B68     		ldr	r3, [r7, #4]
 115 007a 9B6B     		ldr	r3, [r3, #56]
 116 007c 9B00     		lsls	r3, r3, #2
  57:Generated_Source\PSoC6\pdl\drivers\peripheral\tcpwm/cy_tcpwm_pwm.c ****                                            (config->invertPWMOut | (config->invertPWMOutN << 1U))) 
 117              		.loc 1 57 0
 118 007e 1A43     		orrs	r2, r2, r3
  59:Generated_Source\PSoC6\pdl\drivers\peripheral\tcpwm/cy_tcpwm_pwm.c ****                                   _VAL2FLD(TCPWM_CNT_CTRL_GENERIC, ((CY_TCPWM_PWM_MODE_DEADTIME == 
 119              		.loc 1 59 0
 120 0080 7B68     		ldr	r3, [r7, #4]
 121 0082 1B68     		ldr	r3, [r3]
 122 0084 052B     		cmp	r3, #5
 123 0086 04D1     		bne	.L7
 124              		.loc 1 59 0 is_stmt 0 discriminator 1
 125 0088 7B68     		ldr	r3, [r7, #4]
 126 008a DB68     		ldr	r3, [r3, #12]
 127 008c 1B02     		lsls	r3, r3, #8
 128 008e 9BB2     		uxth	r3, r3
 129 0090 03E0     		b	.L8
 130              	.L7:
 131              		.loc 1 59 0 discriminator 2
 132 0092 7B68     		ldr	r3, [r7, #4]
 133 0094 5B68     		ldr	r3, [r3, #4]
 134 0096 1B02     		lsls	r3, r3, #8
 135 0098 9BB2     		uxth	r3, r3
 136              	.L8:
  58:Generated_Source\PSoC6\pdl\drivers\peripheral\tcpwm/cy_tcpwm_pwm.c ****                                   _VAL2FLD(TCPWM_CNT_CTRL_GENERIC, ((CY_TCPWM_PWM_MODE_DEADTIME == 
 137              		.loc 1 58 0 is_stmt 1
 138 009a 1A43     		orrs	r2, r2, r3
  51:Generated_Source\PSoC6\pdl\drivers\peripheral\tcpwm/cy_tcpwm_pwm.c ****                                   (config->enablePeriodSwap ? TCPWM_CNT_CTRL_AUTO_RELOAD_PERIOD_Msk
 139              		.loc 1 51 0
 140 009c F968     		ldr	r1, [r7, #12]
 141 009e BB68     		ldr	r3, [r7, #8]
 142 00a0 0433     		adds	r3, r3, #4
 143 00a2 9B01     		lsls	r3, r3, #6
 144 00a4 0B44     		add	r3, r3, r1
 145 00a6 1A60     		str	r2, [r3]
  60:Generated_Source\PSoC6\pdl\drivers\peripheral\tcpwm/cy_tcpwm_pwm.c ****                                                                      config->deadTimeClocks : confi
  61:Generated_Source\PSoC6\pdl\drivers\peripheral\tcpwm/cy_tcpwm_pwm.c **** 
  62:Generated_Source\PSoC6\pdl\drivers\peripheral\tcpwm/cy_tcpwm_pwm.c ****         if (CY_TCPWM_PWM_MODE_PSEUDORANDOM == config->pwmMode)
 146              		.loc 1 62 0
 147 00a8 7B68     		ldr	r3, [r7, #4]
 148 00aa 1B68     		ldr	r3, [r3]
 149 00ac 062B     		cmp	r3, #6
 150 00ae 10D1     		bne	.L9
  63:Generated_Source\PSoC6\pdl\drivers\peripheral\tcpwm/cy_tcpwm_pwm.c ****         {
  64:Generated_Source\PSoC6\pdl\drivers\peripheral\tcpwm/cy_tcpwm_pwm.c ****             base->CNT[cntNum].COUNTER = CY_TCPWM_CNT_UP_DOWN_INIT_VAL;
 151              		.loc 1 64 0
 152 00b0 FA68     		ldr	r2, [r7, #12]
 153 00b2 BB68     		ldr	r3, [r7, #8]
 154 00b4 9B01     		lsls	r3, r3, #6
 155 00b6 1344     		add	r3, r3, r2
 156 00b8 03F58473 		add	r3, r3, #264
ARM GAS  C:\Users\rober\AppData\Local\Temp\ccEZp8H3.s 			page 5


 157 00bc 0122     		movs	r2, #1
 158 00be 1A60     		str	r2, [r3]
  65:Generated_Source\PSoC6\pdl\drivers\peripheral\tcpwm/cy_tcpwm_pwm.c ****             base->CNT[cntNum].TR_CTRL2 = CY_TCPWM_PWM_MODE_PR;
 159              		.loc 1 65 0
 160 00c0 FA68     		ldr	r2, [r7, #12]
 161 00c2 BB68     		ldr	r3, [r7, #8]
 162 00c4 9B01     		lsls	r3, r3, #6
 163 00c6 1344     		add	r3, r3, r2
 164 00c8 03F59473 		add	r3, r3, #296
 165 00cc 3F22     		movs	r2, #63
 166 00ce 1A60     		str	r2, [r3]
 167 00d0 3AE0     		b	.L10
 168              	.L9:
  66:Generated_Source\PSoC6\pdl\drivers\peripheral\tcpwm/cy_tcpwm_pwm.c ****         }
  67:Generated_Source\PSoC6\pdl\drivers\peripheral\tcpwm/cy_tcpwm_pwm.c ****         else
  68:Generated_Source\PSoC6\pdl\drivers\peripheral\tcpwm/cy_tcpwm_pwm.c ****         {
  69:Generated_Source\PSoC6\pdl\drivers\peripheral\tcpwm/cy_tcpwm_pwm.c ****             if (CY_TCPWM_PWM_LEFT_ALIGN == config->pwmAlignment)
 169              		.loc 1 69 0
 170 00d2 7B68     		ldr	r3, [r7, #4]
 171 00d4 9B68     		ldr	r3, [r3, #8]
 172 00d6 002B     		cmp	r3, #0
 173 00d8 10D1     		bne	.L11
  70:Generated_Source\PSoC6\pdl\drivers\peripheral\tcpwm/cy_tcpwm_pwm.c ****             {
  71:Generated_Source\PSoC6\pdl\drivers\peripheral\tcpwm/cy_tcpwm_pwm.c ****                 base->CNT[cntNum].COUNTER = CY_TCPWM_CNT_UP_INIT_VAL;
 174              		.loc 1 71 0
 175 00da FA68     		ldr	r2, [r7, #12]
 176 00dc BB68     		ldr	r3, [r7, #8]
 177 00de 9B01     		lsls	r3, r3, #6
 178 00e0 1344     		add	r3, r3, r2
 179 00e2 03F58473 		add	r3, r3, #264
 180 00e6 0022     		movs	r2, #0
 181 00e8 1A60     		str	r2, [r3]
  72:Generated_Source\PSoC6\pdl\drivers\peripheral\tcpwm/cy_tcpwm_pwm.c ****                 base->CNT[cntNum].TR_CTRL2 = CY_TCPWM_PWM_MODE_LEFT;
 182              		.loc 1 72 0
 183 00ea FA68     		ldr	r2, [r7, #12]
 184 00ec BB68     		ldr	r3, [r7, #8]
 185 00ee 9B01     		lsls	r3, r3, #6
 186 00f0 1344     		add	r3, r3, r2
 187 00f2 03F59473 		add	r3, r3, #296
 188 00f6 3122     		movs	r2, #49
 189 00f8 1A60     		str	r2, [r3]
 190 00fa 25E0     		b	.L10
 191              	.L11:
  73:Generated_Source\PSoC6\pdl\drivers\peripheral\tcpwm/cy_tcpwm_pwm.c ****             }
  74:Generated_Source\PSoC6\pdl\drivers\peripheral\tcpwm/cy_tcpwm_pwm.c ****             else if (CY_TCPWM_PWM_RIGHT_ALIGN == config->pwmAlignment)
 192              		.loc 1 74 0
 193 00fc 7B68     		ldr	r3, [r7, #4]
 194 00fe 9B68     		ldr	r3, [r3, #8]
 195 0100 012B     		cmp	r3, #1
 196 0102 11D1     		bne	.L12
  75:Generated_Source\PSoC6\pdl\drivers\peripheral\tcpwm/cy_tcpwm_pwm.c ****             {
  76:Generated_Source\PSoC6\pdl\drivers\peripheral\tcpwm/cy_tcpwm_pwm.c ****                 base->CNT[cntNum].COUNTER = config->period0;
 197              		.loc 1 76 0
 198 0104 7B68     		ldr	r3, [r7, #4]
 199 0106 5A69     		ldr	r2, [r3, #20]
 200 0108 F968     		ldr	r1, [r7, #12]
 201 010a BB68     		ldr	r3, [r7, #8]
ARM GAS  C:\Users\rober\AppData\Local\Temp\ccEZp8H3.s 			page 6


 202 010c 9B01     		lsls	r3, r3, #6
 203 010e 0B44     		add	r3, r3, r1
 204 0110 03F58473 		add	r3, r3, #264
 205 0114 1A60     		str	r2, [r3]
  77:Generated_Source\PSoC6\pdl\drivers\peripheral\tcpwm/cy_tcpwm_pwm.c ****                 base->CNT[cntNum].TR_CTRL2 = CY_TCPWM_PWM_MODE_RIGHT;
 206              		.loc 1 77 0
 207 0116 FA68     		ldr	r2, [r7, #12]
 208 0118 BB68     		ldr	r3, [r7, #8]
 209 011a 9B01     		lsls	r3, r3, #6
 210 011c 1344     		add	r3, r3, r2
 211 011e 03F59473 		add	r3, r3, #296
 212 0122 1C22     		movs	r2, #28
 213 0124 1A60     		str	r2, [r3]
 214 0126 0FE0     		b	.L10
 215              	.L12:
  78:Generated_Source\PSoC6\pdl\drivers\peripheral\tcpwm/cy_tcpwm_pwm.c ****             }
  79:Generated_Source\PSoC6\pdl\drivers\peripheral\tcpwm/cy_tcpwm_pwm.c ****             else
  80:Generated_Source\PSoC6\pdl\drivers\peripheral\tcpwm/cy_tcpwm_pwm.c ****             {
  81:Generated_Source\PSoC6\pdl\drivers\peripheral\tcpwm/cy_tcpwm_pwm.c ****                 base->CNT[cntNum].COUNTER = CY_TCPWM_CNT_UP_DOWN_INIT_VAL;
 216              		.loc 1 81 0
 217 0128 FA68     		ldr	r2, [r7, #12]
 218 012a BB68     		ldr	r3, [r7, #8]
 219 012c 9B01     		lsls	r3, r3, #6
 220 012e 1344     		add	r3, r3, r2
 221 0130 03F58473 		add	r3, r3, #264
 222 0134 0122     		movs	r2, #1
 223 0136 1A60     		str	r2, [r3]
  82:Generated_Source\PSoC6\pdl\drivers\peripheral\tcpwm/cy_tcpwm_pwm.c ****                 base->CNT[cntNum].TR_CTRL2 = CY_TCPWM_PWM_MODE_CNTR_OR_ASYMM;
 224              		.loc 1 82 0
 225 0138 FA68     		ldr	r2, [r7, #12]
 226 013a BB68     		ldr	r3, [r7, #8]
 227 013c 9B01     		lsls	r3, r3, #6
 228 013e 1344     		add	r3, r3, r2
 229 0140 03F59473 		add	r3, r3, #296
 230 0144 1222     		movs	r2, #18
 231 0146 1A60     		str	r2, [r3]
 232              	.L10:
  83:Generated_Source\PSoC6\pdl\drivers\peripheral\tcpwm/cy_tcpwm_pwm.c ****             }
  84:Generated_Source\PSoC6\pdl\drivers\peripheral\tcpwm/cy_tcpwm_pwm.c ****         }
  85:Generated_Source\PSoC6\pdl\drivers\peripheral\tcpwm/cy_tcpwm_pwm.c **** 
  86:Generated_Source\PSoC6\pdl\drivers\peripheral\tcpwm/cy_tcpwm_pwm.c ****         base->CNT[cntNum].CC = config->compare0;
 233              		.loc 1 86 0
 234 0148 7B68     		ldr	r3, [r7, #4]
 235 014a 1A6A     		ldr	r2, [r3, #32]
 236 014c F968     		ldr	r1, [r7, #12]
 237 014e BB68     		ldr	r3, [r7, #8]
 238 0150 9B01     		lsls	r3, r3, #6
 239 0152 0B44     		add	r3, r3, r1
 240 0154 03F58673 		add	r3, r3, #268
 241 0158 1A60     		str	r2, [r3]
  87:Generated_Source\PSoC6\pdl\drivers\peripheral\tcpwm/cy_tcpwm_pwm.c ****         base->CNT[cntNum].CC_BUFF = config->compare1;
 242              		.loc 1 87 0
 243 015a 7B68     		ldr	r3, [r7, #4]
 244 015c 5A6A     		ldr	r2, [r3, #36]
 245 015e F968     		ldr	r1, [r7, #12]
 246 0160 BB68     		ldr	r3, [r7, #8]
 247 0162 9B01     		lsls	r3, r3, #6
ARM GAS  C:\Users\rober\AppData\Local\Temp\ccEZp8H3.s 			page 7


 248 0164 0B44     		add	r3, r3, r1
 249 0166 03F58873 		add	r3, r3, #272
 250 016a 1A60     		str	r2, [r3]
  88:Generated_Source\PSoC6\pdl\drivers\peripheral\tcpwm/cy_tcpwm_pwm.c ****         base->CNT[cntNum].PERIOD = config->period0;
 251              		.loc 1 88 0
 252 016c 7B68     		ldr	r3, [r7, #4]
 253 016e 5A69     		ldr	r2, [r3, #20]
 254 0170 F968     		ldr	r1, [r7, #12]
 255 0172 BB68     		ldr	r3, [r7, #8]
 256 0174 9B01     		lsls	r3, r3, #6
 257 0176 0B44     		add	r3, r3, r1
 258 0178 03F58A73 		add	r3, r3, #276
 259 017c 1A60     		str	r2, [r3]
  89:Generated_Source\PSoC6\pdl\drivers\peripheral\tcpwm/cy_tcpwm_pwm.c ****         base->CNT[cntNum].PERIOD_BUFF = config->period1;
 260              		.loc 1 89 0
 261 017e 7B68     		ldr	r3, [r7, #4]
 262 0180 9A69     		ldr	r2, [r3, #24]
 263 0182 F968     		ldr	r1, [r7, #12]
 264 0184 BB68     		ldr	r3, [r7, #8]
 265 0186 9B01     		lsls	r3, r3, #6
 266 0188 0B44     		add	r3, r3, r1
 267 018a 03F58C73 		add	r3, r3, #280
 268 018e 1A60     		str	r2, [r3]
  90:Generated_Source\PSoC6\pdl\drivers\peripheral\tcpwm/cy_tcpwm_pwm.c **** 
  91:Generated_Source\PSoC6\pdl\drivers\peripheral\tcpwm/cy_tcpwm_pwm.c ****         if (CY_TCPWM_INPUT_CREATOR != config->countInput)
 269              		.loc 1 91 0
 270 0190 7B68     		ldr	r3, [r7, #4]
 271 0192 1B6E     		ldr	r3, [r3, #96]
 272 0194 B3F1FF3F 		cmp	r3, #-1
 273 0198 20D0     		beq	.L13
  92:Generated_Source\PSoC6\pdl\drivers\peripheral\tcpwm/cy_tcpwm_pwm.c ****         {
  93:Generated_Source\PSoC6\pdl\drivers\peripheral\tcpwm/cy_tcpwm_pwm.c ****             base->CNT[cntNum].TR_CTRL0 = (_VAL2FLD(TCPWM_CNT_TR_CTRL0_CAPTURE_SEL, config->swapInpu
 274              		.loc 1 93 0
 275 019a 7B68     		ldr	r3, [r7, #4]
 276 019c 1B6C     		ldr	r3, [r3, #64]
 277 019e 03F00F02 		and	r2, r3, #15
  94:Generated_Source\PSoC6\pdl\drivers\peripheral\tcpwm/cy_tcpwm_pwm.c ****                                           _VAL2FLD(TCPWM_CNT_TR_CTRL0_RELOAD_SEL, config->reloadInp
 278              		.loc 1 94 0
 279 01a2 7B68     		ldr	r3, [r7, #4]
 280 01a4 9B6C     		ldr	r3, [r3, #72]
 281 01a6 1B02     		lsls	r3, r3, #8
 282 01a8 03F47063 		and	r3, r3, #3840
  93:Generated_Source\PSoC6\pdl\drivers\peripheral\tcpwm/cy_tcpwm_pwm.c ****                                           _VAL2FLD(TCPWM_CNT_TR_CTRL0_RELOAD_SEL, config->reloadInp
 283              		.loc 1 93 0
 284 01ac 1A43     		orrs	r2, r2, r3
  95:Generated_Source\PSoC6\pdl\drivers\peripheral\tcpwm/cy_tcpwm_pwm.c ****                                           _VAL2FLD(TCPWM_CNT_TR_CTRL0_START_SEL, config->startInput
 285              		.loc 1 95 0
 286 01ae 7B68     		ldr	r3, [r7, #4]
 287 01b0 1B6D     		ldr	r3, [r3, #80]
 288 01b2 1B04     		lsls	r3, r3, #16
 289 01b4 03F47023 		and	r3, r3, #983040
  94:Generated_Source\PSoC6\pdl\drivers\peripheral\tcpwm/cy_tcpwm_pwm.c ****                                           _VAL2FLD(TCPWM_CNT_TR_CTRL0_RELOAD_SEL, config->reloadInp
 290              		.loc 1 94 0
 291 01b8 1A43     		orrs	r2, r2, r3
  96:Generated_Source\PSoC6\pdl\drivers\peripheral\tcpwm/cy_tcpwm_pwm.c ****                                           _VAL2FLD(TCPWM_CNT_TR_CTRL0_STOP_SEL, config->killInput) 
 292              		.loc 1 96 0
 293 01ba 7B68     		ldr	r3, [r7, #4]
ARM GAS  C:\Users\rober\AppData\Local\Temp\ccEZp8H3.s 			page 8


 294 01bc 9B6D     		ldr	r3, [r3, #88]
 295 01be 1B03     		lsls	r3, r3, #12
 296 01c0 9BB2     		uxth	r3, r3
  95:Generated_Source\PSoC6\pdl\drivers\peripheral\tcpwm/cy_tcpwm_pwm.c ****                                           _VAL2FLD(TCPWM_CNT_TR_CTRL0_START_SEL, config->startInput
 297              		.loc 1 95 0
 298 01c2 1A43     		orrs	r2, r2, r3
  97:Generated_Source\PSoC6\pdl\drivers\peripheral\tcpwm/cy_tcpwm_pwm.c ****                                           _VAL2FLD(TCPWM_CNT_TR_CTRL0_COUNT_SEL, config->countInput
 299              		.loc 1 97 0
 300 01c4 7B68     		ldr	r3, [r7, #4]
 301 01c6 1B6E     		ldr	r3, [r3, #96]
 302 01c8 1B01     		lsls	r3, r3, #4
 303 01ca DBB2     		uxtb	r3, r3
  96:Generated_Source\PSoC6\pdl\drivers\peripheral\tcpwm/cy_tcpwm_pwm.c ****                                           _VAL2FLD(TCPWM_CNT_TR_CTRL0_STOP_SEL, config->killInput) 
 304              		.loc 1 96 0
 305 01cc 1A43     		orrs	r2, r2, r3
  93:Generated_Source\PSoC6\pdl\drivers\peripheral\tcpwm/cy_tcpwm_pwm.c ****                                           _VAL2FLD(TCPWM_CNT_TR_CTRL0_RELOAD_SEL, config->reloadInp
 306              		.loc 1 93 0
 307 01ce F968     		ldr	r1, [r7, #12]
 308 01d0 BB68     		ldr	r3, [r7, #8]
 309 01d2 9B01     		lsls	r3, r3, #6
 310 01d4 0B44     		add	r3, r3, r1
 311 01d6 03F59073 		add	r3, r3, #288
 312 01da 1A60     		str	r2, [r3]
 313              	.L13:
  98:Generated_Source\PSoC6\pdl\drivers\peripheral\tcpwm/cy_tcpwm_pwm.c ****         }
  99:Generated_Source\PSoC6\pdl\drivers\peripheral\tcpwm/cy_tcpwm_pwm.c ****         
 100:Generated_Source\PSoC6\pdl\drivers\peripheral\tcpwm/cy_tcpwm_pwm.c ****         base->CNT[cntNum].TR_CTRL1 = (_VAL2FLD(TCPWM_CNT_TR_CTRL1_CAPTURE_EDGE, config->swapInputMo
 314              		.loc 1 100 0
 315 01dc 7B68     		ldr	r3, [r7, #4]
 316 01de DB6B     		ldr	r3, [r3, #60]
 317 01e0 03F00302 		and	r2, r3, #3
 101:Generated_Source\PSoC6\pdl\drivers\peripheral\tcpwm/cy_tcpwm_pwm.c ****                                       _VAL2FLD(TCPWM_CNT_TR_CTRL1_RELOAD_EDGE, config->reloadInputM
 318              		.loc 1 101 0
 319 01e4 7B68     		ldr	r3, [r7, #4]
 320 01e6 5B6C     		ldr	r3, [r3, #68]
 321 01e8 1B01     		lsls	r3, r3, #4
 322 01ea 03F03003 		and	r3, r3, #48
 100:Generated_Source\PSoC6\pdl\drivers\peripheral\tcpwm/cy_tcpwm_pwm.c ****                                       _VAL2FLD(TCPWM_CNT_TR_CTRL1_RELOAD_EDGE, config->reloadInputM
 323              		.loc 1 100 0
 324 01ee 1A43     		orrs	r2, r2, r3
 102:Generated_Source\PSoC6\pdl\drivers\peripheral\tcpwm/cy_tcpwm_pwm.c ****                                       _VAL2FLD(TCPWM_CNT_TR_CTRL1_START_EDGE, config->startInputMod
 325              		.loc 1 102 0
 326 01f0 7B68     		ldr	r3, [r7, #4]
 327 01f2 DB6C     		ldr	r3, [r3, #76]
 328 01f4 1B02     		lsls	r3, r3, #8
 329 01f6 03F44073 		and	r3, r3, #768
 101:Generated_Source\PSoC6\pdl\drivers\peripheral\tcpwm/cy_tcpwm_pwm.c ****                                       _VAL2FLD(TCPWM_CNT_TR_CTRL1_RELOAD_EDGE, config->reloadInputM
 330              		.loc 1 101 0
 331 01fa 1A43     		orrs	r2, r2, r3
 103:Generated_Source\PSoC6\pdl\drivers\peripheral\tcpwm/cy_tcpwm_pwm.c ****                                       _VAL2FLD(TCPWM_CNT_TR_CTRL1_STOP_EDGE, config->killInputMode)
 332              		.loc 1 103 0
 333 01fc 7B68     		ldr	r3, [r7, #4]
 334 01fe 5B6D     		ldr	r3, [r3, #84]
 335 0200 9B01     		lsls	r3, r3, #6
 336 0202 DBB2     		uxtb	r3, r3
 102:Generated_Source\PSoC6\pdl\drivers\peripheral\tcpwm/cy_tcpwm_pwm.c ****                                       _VAL2FLD(TCPWM_CNT_TR_CTRL1_START_EDGE, config->startInputMod
 337              		.loc 1 102 0
ARM GAS  C:\Users\rober\AppData\Local\Temp\ccEZp8H3.s 			page 9


 338 0204 1A43     		orrs	r2, r2, r3
 104:Generated_Source\PSoC6\pdl\drivers\peripheral\tcpwm/cy_tcpwm_pwm.c ****                                       _VAL2FLD(TCPWM_CNT_TR_CTRL1_COUNT_EDGE, config->countInputMod
 339              		.loc 1 104 0
 340 0206 7B68     		ldr	r3, [r7, #4]
 341 0208 DB6D     		ldr	r3, [r3, #92]
 342 020a 9B00     		lsls	r3, r3, #2
 343 020c 03F00C03 		and	r3, r3, #12
 103:Generated_Source\PSoC6\pdl\drivers\peripheral\tcpwm/cy_tcpwm_pwm.c ****                                       _VAL2FLD(TCPWM_CNT_TR_CTRL1_STOP_EDGE, config->killInputMode)
 344              		.loc 1 103 0
 345 0210 1A43     		orrs	r2, r2, r3
 100:Generated_Source\PSoC6\pdl\drivers\peripheral\tcpwm/cy_tcpwm_pwm.c ****                                       _VAL2FLD(TCPWM_CNT_TR_CTRL1_RELOAD_EDGE, config->reloadInputM
 346              		.loc 1 100 0
 347 0212 F968     		ldr	r1, [r7, #12]
 348 0214 BB68     		ldr	r3, [r7, #8]
 349 0216 9B01     		lsls	r3, r3, #6
 350 0218 0B44     		add	r3, r3, r1
 351 021a 03F59273 		add	r3, r3, #292
 352 021e 1A60     		str	r2, [r3]
 105:Generated_Source\PSoC6\pdl\drivers\peripheral\tcpwm/cy_tcpwm_pwm.c **** 
 106:Generated_Source\PSoC6\pdl\drivers\peripheral\tcpwm/cy_tcpwm_pwm.c ****         base->CNT[cntNum].INTR_MASK = config->interruptSources;
 353              		.loc 1 106 0
 354 0220 7B68     		ldr	r3, [r7, #4]
 355 0222 DA6A     		ldr	r2, [r3, #44]
 356 0224 F968     		ldr	r1, [r7, #12]
 357 0226 BB68     		ldr	r3, [r7, #8]
 358 0228 9B01     		lsls	r3, r3, #6
 359 022a 0B44     		add	r3, r3, r1
 360 022c 03F59C73 		add	r3, r3, #312
 361 0230 1A60     		str	r2, [r3]
 107:Generated_Source\PSoC6\pdl\drivers\peripheral\tcpwm/cy_tcpwm_pwm.c **** 
 108:Generated_Source\PSoC6\pdl\drivers\peripheral\tcpwm/cy_tcpwm_pwm.c ****         status = CY_TCPWM_SUCCESS;
 362              		.loc 1 108 0
 363 0232 0023     		movs	r3, #0
 364 0234 7B61     		str	r3, [r7, #20]
 365              	.L2:
 109:Generated_Source\PSoC6\pdl\drivers\peripheral\tcpwm/cy_tcpwm_pwm.c ****     }
 110:Generated_Source\PSoC6\pdl\drivers\peripheral\tcpwm/cy_tcpwm_pwm.c **** 
 111:Generated_Source\PSoC6\pdl\drivers\peripheral\tcpwm/cy_tcpwm_pwm.c ****     return(status);
 366              		.loc 1 111 0
 367 0236 7B69     		ldr	r3, [r7, #20]
 112:Generated_Source\PSoC6\pdl\drivers\peripheral\tcpwm/cy_tcpwm_pwm.c **** }
 368              		.loc 1 112 0
 369 0238 1846     		mov	r0, r3
 370 023a 1C37     		adds	r7, r7, #28
 371              		.cfi_def_cfa_offset 4
 372 023c BD46     		mov	sp, r7
 373              		.cfi_def_cfa_register 13
 374              		@ sp needed
 375 023e 5DF8047B 		ldr	r7, [sp], #4
 376              		.cfi_restore 7
 377              		.cfi_def_cfa_offset 0
 378 0242 7047     		bx	lr
 379              	.L16:
 380              		.align	2
 381              	.L15:
 382 0244 0100B600 		.word	11927553
 383              		.cfi_endproc
ARM GAS  C:\Users\rober\AppData\Local\Temp\ccEZp8H3.s 			page 10


 384              	.LFE152:
 385              		.size	Cy_TCPWM_PWM_Init, .-Cy_TCPWM_PWM_Init
 386              		.section	.text.Cy_TCPWM_PWM_DeInit,"ax",%progbits
 387              		.align	2
 388              		.global	Cy_TCPWM_PWM_DeInit
 389              		.thumb
 390              		.thumb_func
 391              		.type	Cy_TCPWM_PWM_DeInit, %function
 392              	Cy_TCPWM_PWM_DeInit:
 393              	.LFB153:
 113:Generated_Source\PSoC6\pdl\drivers\peripheral\tcpwm/cy_tcpwm_pwm.c **** 
 114:Generated_Source\PSoC6\pdl\drivers\peripheral\tcpwm/cy_tcpwm_pwm.c **** /*******************************************************************************
 115:Generated_Source\PSoC6\pdl\drivers\peripheral\tcpwm/cy_tcpwm_pwm.c **** * Function Name: Cy_TCPWM_PWM_DeInit
 116:Generated_Source\PSoC6\pdl\drivers\peripheral\tcpwm/cy_tcpwm_pwm.c **** ****************************************************************************//**
 117:Generated_Source\PSoC6\pdl\drivers\peripheral\tcpwm/cy_tcpwm_pwm.c **** *
 118:Generated_Source\PSoC6\pdl\drivers\peripheral\tcpwm/cy_tcpwm_pwm.c **** * De-initializes the counter in the TCPWM block, returns register values to 
 119:Generated_Source\PSoC6\pdl\drivers\peripheral\tcpwm/cy_tcpwm_pwm.c **** * default.
 120:Generated_Source\PSoC6\pdl\drivers\peripheral\tcpwm/cy_tcpwm_pwm.c **** *
 121:Generated_Source\PSoC6\pdl\drivers\peripheral\tcpwm/cy_tcpwm_pwm.c **** * \param base
 122:Generated_Source\PSoC6\pdl\drivers\peripheral\tcpwm/cy_tcpwm_pwm.c **** * The pointer to a TCPWM instance.
 123:Generated_Source\PSoC6\pdl\drivers\peripheral\tcpwm/cy_tcpwm_pwm.c **** *
 124:Generated_Source\PSoC6\pdl\drivers\peripheral\tcpwm/cy_tcpwm_pwm.c **** * \param cntNum
 125:Generated_Source\PSoC6\pdl\drivers\peripheral\tcpwm/cy_tcpwm_pwm.c **** * The Counter instance number in the selected TCPWM.
 126:Generated_Source\PSoC6\pdl\drivers\peripheral\tcpwm/cy_tcpwm_pwm.c **** *
 127:Generated_Source\PSoC6\pdl\drivers\peripheral\tcpwm/cy_tcpwm_pwm.c **** * \param config
 128:Generated_Source\PSoC6\pdl\drivers\peripheral\tcpwm/cy_tcpwm_pwm.c **** * The pointer to a configuration structure. See \ref cy_stc_tcpwm_pwm_config_t.
 129:Generated_Source\PSoC6\pdl\drivers\peripheral\tcpwm/cy_tcpwm_pwm.c **** *
 130:Generated_Source\PSoC6\pdl\drivers\peripheral\tcpwm/cy_tcpwm_pwm.c **** * \funcusage
 131:Generated_Source\PSoC6\pdl\drivers\peripheral\tcpwm/cy_tcpwm_pwm.c **** * \snippet tcpwm/tcpwm_v1_0_pwm_sut_01.cydsn/main_cm4.c snippet_Cy_TCPWM_PWM_DeInit
 132:Generated_Source\PSoC6\pdl\drivers\peripheral\tcpwm/cy_tcpwm_pwm.c **** *
 133:Generated_Source\PSoC6\pdl\drivers\peripheral\tcpwm/cy_tcpwm_pwm.c **** *******************************************************************************/
 134:Generated_Source\PSoC6\pdl\drivers\peripheral\tcpwm/cy_tcpwm_pwm.c **** void Cy_TCPWM_PWM_DeInit(TCPWM_Type *base, uint32_t cntNum, cy_stc_tcpwm_pwm_config_t const *config
 135:Generated_Source\PSoC6\pdl\drivers\peripheral\tcpwm/cy_tcpwm_pwm.c **** {
 394              		.loc 1 135 0
 395              		.cfi_startproc
 396              		@ args = 0, pretend = 0, frame = 16
 397              		@ frame_needed = 1, uses_anonymous_args = 0
 398              		@ link register save eliminated.
 399 0000 80B4     		push	{r7}
 400              		.cfi_def_cfa_offset 4
 401              		.cfi_offset 7, -4
 402 0002 85B0     		sub	sp, sp, #20
 403              		.cfi_def_cfa_offset 24
 404 0004 00AF     		add	r7, sp, #0
 405              		.cfi_def_cfa_register 7
 406 0006 F860     		str	r0, [r7, #12]
 407 0008 B960     		str	r1, [r7, #8]
 408 000a 7A60     		str	r2, [r7, #4]
 136:Generated_Source\PSoC6\pdl\drivers\peripheral\tcpwm/cy_tcpwm_pwm.c ****     base->CNT[cntNum].CTRL = CY_TCPWM_CNT_CTRL_DEFAULT;
 409              		.loc 1 136 0
 410 000c FA68     		ldr	r2, [r7, #12]
 411 000e BB68     		ldr	r3, [r7, #8]
 412 0010 0433     		adds	r3, r3, #4
 413 0012 9B01     		lsls	r3, r3, #6
 414 0014 1344     		add	r3, r3, r2
 415 0016 0022     		movs	r2, #0
 416 0018 1A60     		str	r2, [r3]
ARM GAS  C:\Users\rober\AppData\Local\Temp\ccEZp8H3.s 			page 11


 137:Generated_Source\PSoC6\pdl\drivers\peripheral\tcpwm/cy_tcpwm_pwm.c ****     base->CNT[cntNum].COUNTER = CY_TCPWM_CNT_COUNTER_DEFAULT;
 417              		.loc 1 137 0
 418 001a FA68     		ldr	r2, [r7, #12]
 419 001c BB68     		ldr	r3, [r7, #8]
 420 001e 9B01     		lsls	r3, r3, #6
 421 0020 1344     		add	r3, r3, r2
 422 0022 03F58473 		add	r3, r3, #264
 423 0026 0022     		movs	r2, #0
 424 0028 1A60     		str	r2, [r3]
 138:Generated_Source\PSoC6\pdl\drivers\peripheral\tcpwm/cy_tcpwm_pwm.c ****     base->CNT[cntNum].CC = CY_TCPWM_CNT_CC_DEFAULT;
 425              		.loc 1 138 0
 426 002a FA68     		ldr	r2, [r7, #12]
 427 002c BB68     		ldr	r3, [r7, #8]
 428 002e 9B01     		lsls	r3, r3, #6
 429 0030 1344     		add	r3, r3, r2
 430 0032 03F58673 		add	r3, r3, #268
 431 0036 4FF0FF32 		mov	r2, #-1
 432 003a 1A60     		str	r2, [r3]
 139:Generated_Source\PSoC6\pdl\drivers\peripheral\tcpwm/cy_tcpwm_pwm.c ****     base->CNT[cntNum].CC_BUFF = CY_TCPWM_CNT_CC_BUFF_DEFAULT;
 433              		.loc 1 139 0
 434 003c FA68     		ldr	r2, [r7, #12]
 435 003e BB68     		ldr	r3, [r7, #8]
 436 0040 9B01     		lsls	r3, r3, #6
 437 0042 1344     		add	r3, r3, r2
 438 0044 03F58873 		add	r3, r3, #272
 439 0048 4FF0FF32 		mov	r2, #-1
 440 004c 1A60     		str	r2, [r3]
 140:Generated_Source\PSoC6\pdl\drivers\peripheral\tcpwm/cy_tcpwm_pwm.c ****     base->CNT[cntNum].PERIOD = CY_TCPWM_CNT_PERIOD_DEFAULT;
 441              		.loc 1 140 0
 442 004e FA68     		ldr	r2, [r7, #12]
 443 0050 BB68     		ldr	r3, [r7, #8]
 444 0052 9B01     		lsls	r3, r3, #6
 445 0054 1344     		add	r3, r3, r2
 446 0056 03F58A73 		add	r3, r3, #276
 447 005a 4FF0FF32 		mov	r2, #-1
 448 005e 1A60     		str	r2, [r3]
 141:Generated_Source\PSoC6\pdl\drivers\peripheral\tcpwm/cy_tcpwm_pwm.c ****     base->CNT[cntNum].PERIOD_BUFF = CY_TCPWM_CNT_PERIOD_BUFF_DEFAULT;
 449              		.loc 1 141 0
 450 0060 FA68     		ldr	r2, [r7, #12]
 451 0062 BB68     		ldr	r3, [r7, #8]
 452 0064 9B01     		lsls	r3, r3, #6
 453 0066 1344     		add	r3, r3, r2
 454 0068 03F58C73 		add	r3, r3, #280
 455 006c 4FF0FF32 		mov	r2, #-1
 456 0070 1A60     		str	r2, [r3]
 142:Generated_Source\PSoC6\pdl\drivers\peripheral\tcpwm/cy_tcpwm_pwm.c ****     base->CNT[cntNum].TR_CTRL1 = CY_TCPWM_CNT_TR_CTRL1_DEFAULT;
 457              		.loc 1 142 0
 458 0072 FA68     		ldr	r2, [r7, #12]
 459 0074 BB68     		ldr	r3, [r7, #8]
 460 0076 9B01     		lsls	r3, r3, #6
 461 0078 1344     		add	r3, r3, r2
 462 007a 03F59273 		add	r3, r3, #292
 463 007e 40F2FF32 		movw	r2, #1023
 464 0082 1A60     		str	r2, [r3]
 143:Generated_Source\PSoC6\pdl\drivers\peripheral\tcpwm/cy_tcpwm_pwm.c ****     base->CNT[cntNum].TR_CTRL2 = CY_TCPWM_CNT_TR_CTRL2_DEFAULT;
 465              		.loc 1 143 0
 466 0084 FA68     		ldr	r2, [r7, #12]
ARM GAS  C:\Users\rober\AppData\Local\Temp\ccEZp8H3.s 			page 12


 467 0086 BB68     		ldr	r3, [r7, #8]
 468 0088 9B01     		lsls	r3, r3, #6
 469 008a 1344     		add	r3, r3, r2
 470 008c 03F59473 		add	r3, r3, #296
 471 0090 3F22     		movs	r2, #63
 472 0092 1A60     		str	r2, [r3]
 144:Generated_Source\PSoC6\pdl\drivers\peripheral\tcpwm/cy_tcpwm_pwm.c ****     base->CNT[cntNum].INTR = CY_TCPWM_CNT_INTR_DEFAULT;
 473              		.loc 1 144 0
 474 0094 FA68     		ldr	r2, [r7, #12]
 475 0096 BB68     		ldr	r3, [r7, #8]
 476 0098 9B01     		lsls	r3, r3, #6
 477 009a 1344     		add	r3, r3, r2
 478 009c 03F59873 		add	r3, r3, #304
 479 00a0 0322     		movs	r2, #3
 480 00a2 1A60     		str	r2, [r3]
 145:Generated_Source\PSoC6\pdl\drivers\peripheral\tcpwm/cy_tcpwm_pwm.c ****     base->CNT[cntNum].INTR_SET = CY_TCPWM_CNT_INTR_SET_DEFAULT;
 481              		.loc 1 145 0
 482 00a4 FA68     		ldr	r2, [r7, #12]
 483 00a6 BB68     		ldr	r3, [r7, #8]
 484 00a8 9B01     		lsls	r3, r3, #6
 485 00aa 1344     		add	r3, r3, r2
 486 00ac 03F59A73 		add	r3, r3, #308
 487 00b0 0022     		movs	r2, #0
 488 00b2 1A60     		str	r2, [r3]
 146:Generated_Source\PSoC6\pdl\drivers\peripheral\tcpwm/cy_tcpwm_pwm.c ****     base->CNT[cntNum].INTR_MASK = CY_TCPWM_CNT_INTR_MASK_DEFAULT;
 489              		.loc 1 146 0
 490 00b4 FA68     		ldr	r2, [r7, #12]
 491 00b6 BB68     		ldr	r3, [r7, #8]
 492 00b8 9B01     		lsls	r3, r3, #6
 493 00ba 1344     		add	r3, r3, r2
 494 00bc 03F59C73 		add	r3, r3, #312
 495 00c0 0022     		movs	r2, #0
 496 00c2 1A60     		str	r2, [r3]
 147:Generated_Source\PSoC6\pdl\drivers\peripheral\tcpwm/cy_tcpwm_pwm.c **** 
 148:Generated_Source\PSoC6\pdl\drivers\peripheral\tcpwm/cy_tcpwm_pwm.c ****     if (CY_TCPWM_INPUT_CREATOR != config->countInput)
 497              		.loc 1 148 0
 498 00c4 7B68     		ldr	r3, [r7, #4]
 499 00c6 1B6E     		ldr	r3, [r3, #96]
 500 00c8 B3F1FF3F 		cmp	r3, #-1
 501 00cc 07D0     		beq	.L19
 149:Generated_Source\PSoC6\pdl\drivers\peripheral\tcpwm/cy_tcpwm_pwm.c ****     {    
 150:Generated_Source\PSoC6\pdl\drivers\peripheral\tcpwm/cy_tcpwm_pwm.c ****         base->CNT[cntNum].TR_CTRL0 = CY_TCPWM_CNT_TR_CTRL0_DEFAULT;
 502              		.loc 1 150 0
 503 00ce FA68     		ldr	r2, [r7, #12]
 504 00d0 BB68     		ldr	r3, [r7, #8]
 505 00d2 9B01     		lsls	r3, r3, #6
 506 00d4 1344     		add	r3, r3, r2
 507 00d6 03F59073 		add	r3, r3, #288
 508 00da 1022     		movs	r2, #16
 509 00dc 1A60     		str	r2, [r3]
 510              	.L19:
 151:Generated_Source\PSoC6\pdl\drivers\peripheral\tcpwm/cy_tcpwm_pwm.c ****     }
 152:Generated_Source\PSoC6\pdl\drivers\peripheral\tcpwm/cy_tcpwm_pwm.c **** }
 511              		.loc 1 152 0
 512 00de 00BF     		nop
 513 00e0 1437     		adds	r7, r7, #20
 514              		.cfi_def_cfa_offset 4
ARM GAS  C:\Users\rober\AppData\Local\Temp\ccEZp8H3.s 			page 13


 515 00e2 BD46     		mov	sp, r7
 516              		.cfi_def_cfa_register 13
 517              		@ sp needed
 518 00e4 5DF8047B 		ldr	r7, [sp], #4
 519              		.cfi_restore 7
 520              		.cfi_def_cfa_offset 0
 521 00e8 7047     		bx	lr
 522              		.cfi_endproc
 523              	.LFE153:
 524              		.size	Cy_TCPWM_PWM_DeInit, .-Cy_TCPWM_PWM_DeInit
 525 00ea 00BF     		.text
 526              	.Letext0:
 527              		.file 2 "c:\\program files (x86)\\cypress\\psoc creator\\4.2\\psoc creator\\import\\gnu\\arm\\5.4.
 528              		.file 3 "c:\\program files (x86)\\cypress\\psoc creator\\4.2\\psoc creator\\import\\gnu\\arm\\5.4.
 529              		.file 4 "Generated_Source\\PSoC6\\pdl\\devices/psoc6/ip/cyip_tcpwm.h"
 530              		.file 5 "Generated_Source\\PSoC6\\pdl\\drivers\\peripheral\\tcpwm\\cy_tcpwm.h"
 531              		.file 6 "Generated_Source\\PSoC6\\pdl\\drivers\\peripheral\\tcpwm\\cy_tcpwm_pwm.h"
 532              		.file 7 "Generated_Source\\PSoC6\\pdl\\cmsis/include/core_cm4.h"