ARM GAS  C:\Users\rober\AppData\Local\Temp\ccBOxG6v.s 			page 1


   1              		.syntax unified
   2              		.cpu cortex-m4
   3              		.eabi_attribute 27, 1
   4              		.fpu fpv4-sp-d16
   5              		.eabi_attribute 20, 1
   6              		.eabi_attribute 21, 1
   7              		.eabi_attribute 23, 3
   8              		.eabi_attribute 24, 1
   9              		.eabi_attribute 25, 1
  10              		.eabi_attribute 26, 1
  11              		.eabi_attribute 30, 6
  12              		.eabi_attribute 34, 1
  13              		.eabi_attribute 18, 4
  14              		.thumb
  15              		.syntax unified
  16              		.file	"LCDConf.c"
  17              		.text
  18              	.Ltext0:
  19              		.cfi_sections	.debug_frame
  20              		.bss
  21              		.align	2
  22              	_aPlain_0:
  23 0000 00000000 		.space	5808
  23      00000000 
  23      00000000 
  23      00000000 
  23      00000000 
  24              		.data
  25              		.align	2
  26              		.type	_VRAM_Desc, %object
  27              		.size	_VRAM_Desc, 32
  28              	_VRAM_Desc:
  29 0000 00000000 		.word	_aPlain_0
  30 0004 00000000 		.space	28
  30      00000000 
  30      00000000 
  30      00000000 
  30      00000000 
  31              		.section	.text.LCD_X_Config,"ax",%progbits
  32              		.align	2
  33              		.global	LCD_X_Config
  34              		.thumb
  35              		.thumb_func
  36              		.type	LCD_X_Config, %function
  37              	LCD_X_Config:
  38              	.LFB125:
  39              		.file 1 "LCDConf.c"
   1:LCDConf.c     **** /*********************************************************************
   2:LCDConf.c     **** *                SEGGER Microcontroller GmbH & Co. KG                *
   3:LCDConf.c     **** *        Solutions for real time microcontroller applications        *
   4:LCDConf.c     **** **********************************************************************
   5:LCDConf.c     **** *                                                                    *
   6:LCDConf.c     **** *        (c) 1996 - 2017  SEGGER Microcontroller GmbH & Co. KG       *
   7:LCDConf.c     **** *                                                                    *
   8:LCDConf.c     **** *        Internet: www.segger.com    Support:  support@segger.com    *
   9:LCDConf.c     **** *                                                                    *
  10:LCDConf.c     **** **********************************************************************
ARM GAS  C:\Users\rober\AppData\Local\Temp\ccBOxG6v.s 			page 2


  11:LCDConf.c     **** 
  12:LCDConf.c     **** ** emWin V5.46 - Graphical user interface for embedded applications **
  13:LCDConf.c     **** All  Intellectual Property rights  in the Software belongs to  SEGGER.
  14:LCDConf.c     **** emWin is protected by  international copyright laws.  Knowledge of the
  15:LCDConf.c     **** source code may not be used to write a similar product.  This file may
  16:LCDConf.c     **** only be used in accordance with the following terms:
  17:LCDConf.c     **** 
  18:LCDConf.c     **** The software  has been licensed to  Cypress Semiconductor Corporation,
  19:LCDConf.c     **** whose registered  office is situated  at 198 Champion Ct. San Jose, CA 
  20:LCDConf.c     **** 95134 USA  solely for the  purposes of creating  libraries for Cypress
  21:LCDConf.c     **** PSoC3 and  PSoC5 processor-based devices,  sublicensed and distributed
  22:LCDConf.c     **** under  the  terms  and  conditions  of  the  Cypress  End User License
  23:LCDConf.c     **** Agreement.
  24:LCDConf.c     **** Full source code is available at: www.segger.com
  25:LCDConf.c     **** 
  26:LCDConf.c     **** We appreciate your understanding and fairness.
  27:LCDConf.c     **** ----------------------------------------------------------------------
  28:LCDConf.c     **** Licensing information
  29:LCDConf.c     **** Licensor:                 SEGGER Microcontroller Systems LLC
  30:LCDConf.c     **** Licensed to:              Cypress Semiconductor Corp, 198 Champion Ct., San Jose, CA 95134, USA
  31:LCDConf.c     **** Licensed SEGGER software: emWin
  32:LCDConf.c     **** License number:           GUI-00319
  33:LCDConf.c     **** License model:            Services and License Agreement, signed June 10th, 2009
  34:LCDConf.c     **** Licensed platform:        Any Cypress platform (Initial targets are: PSoC3, PSoC5)
  35:LCDConf.c     **** ----------------------------------------------------------------------
  36:LCDConf.c     **** Support and Update Agreement (SUA)
  37:LCDConf.c     **** SUA period:               2009-06-12 - 2022-07-27
  38:LCDConf.c     **** Contact to extend SUA:    sales@segger.com
  39:LCDConf.c     **** ----------------------------------------------------------------------
  40:LCDConf.c     **** File        : LCDConf.c
  41:LCDConf.c     **** Purpose     : Display configuration file for GUIDRV_Bitplains to be
  42:LCDConf.c     ****               used without any display controller. This implementation
  43:LCDConf.c     ****               has been written and tested with the RSKR32C111 with
  44:LCDConf.c     ****               Visualization Add On.
  45:LCDConf.c     **** ---------------------------END-OF-HEADER------------------------------
  46:LCDConf.c     **** */
  47:LCDConf.c     **** 
  48:LCDConf.c     **** #include <stddef.h>
  49:LCDConf.c     **** #include "syslib/cy_syslib.h"
  50:LCDConf.c     **** 
  51:LCDConf.c     **** #include "GUI.h"
  52:LCDConf.c     **** 
  53:LCDConf.c     **** #include "GUIDRV_BitPlains.h"
  54:LCDConf.c     **** 
  55:LCDConf.c     **** /*********************************************************************
  56:LCDConf.c     **** *
  57:LCDConf.c     **** *       Layer configuration
  58:LCDConf.c     **** *
  59:LCDConf.c     **** **********************************************************************
  60:LCDConf.c     **** */
  61:LCDConf.c     **** //
  62:LCDConf.c     **** // Physical display size
  63:LCDConf.c     **** //
  64:LCDConf.c     **** #define XSIZE_PHYS 264
  65:LCDConf.c     **** #define YSIZE_PHYS 176
  66:LCDConf.c     **** 
  67:LCDConf.c     **** //
ARM GAS  C:\Users\rober\AppData\Local\Temp\ccBOxG6v.s 			page 3


  68:LCDConf.c     **** // Initial color conversion API
  69:LCDConf.c     **** //
  70:LCDConf.c     **** #define COLOR_CONVERSION GUICC_1
  71:LCDConf.c     **** 
  72:LCDConf.c     **** /*********************************************************************
  73:LCDConf.c     **** *
  74:LCDConf.c     **** *       Configuration checking
  75:LCDConf.c     **** *
  76:LCDConf.c     **** **********************************************************************
  77:LCDConf.c     **** */
  78:LCDConf.c     **** //
  79:LCDConf.c     **** // Checking display driver configuration
  80:LCDConf.c     **** //
  81:LCDConf.c     **** #ifndef   XSIZE_PHYS
  82:LCDConf.c     ****   #error Physical X size of display is not defined!
  83:LCDConf.c     **** #endif
  84:LCDConf.c     **** #ifndef   YSIZE_PHYS
  85:LCDConf.c     ****   #error Physical Y size of display is not defined!
  86:LCDConf.c     **** #endif
  87:LCDConf.c     **** #ifndef   COLOR_CONVERSION
  88:LCDConf.c     ****   #error Color conversion not defined!
  89:LCDConf.c     **** #endif
  90:LCDConf.c     **** 
  91:LCDConf.c     **** //
  92:LCDConf.c     **** // Number of bytes per line
  93:LCDConf.c     **** //
  94:LCDConf.c     **** #define BYTES_PER_LINE ((XSIZE_PHYS + 7) >> 3)
  95:LCDConf.c     **** 
  96:LCDConf.c     **** /*********************************************************************
  97:LCDConf.c     **** *
  98:LCDConf.c     **** *       Static data
  99:LCDConf.c     **** *
 100:LCDConf.c     **** **********************************************************************
 101:LCDConf.c     **** */
 102:LCDConf.c     **** //
 103:LCDConf.c     **** // Data arrays to be used by the display driver
 104:LCDConf.c     **** //
 105:LCDConf.c     **** static U8 _aPlain_0[BYTES_PER_LINE * YSIZE_PHYS];
 106:LCDConf.c     **** 
 107:LCDConf.c     **** //
 108:LCDConf.c     **** // Structure to be passed to the driver
 109:LCDConf.c     **** //
 110:LCDConf.c     **** static struct {
 111:LCDConf.c     ****   U8 * apVRAM[8];
 112:LCDConf.c     **** } _VRAM_Desc = {{
 113:LCDConf.c     ****   _aPlain_0,
 114:LCDConf.c     **** }};
 115:LCDConf.c     **** 
 116:LCDConf.c     **** /*********************************************************************
 117:LCDConf.c     **** *
 118:LCDConf.c     **** *       Public code
 119:LCDConf.c     **** *
 120:LCDConf.c     **** **********************************************************************
 121:LCDConf.c     **** */
 122:LCDConf.c     **** /*********************************************************************
 123:LCDConf.c     **** *
 124:LCDConf.c     **** *       LCD_X_Config
ARM GAS  C:\Users\rober\AppData\Local\Temp\ccBOxG6v.s 			page 4


 125:LCDConf.c     **** *
 126:LCDConf.c     **** * Purpose:
 127:LCDConf.c     **** *   Called during the initialization process in order to set up the
 128:LCDConf.c     **** *   display driver configuration.
 129:LCDConf.c     **** *   
 130:LCDConf.c     **** */
 131:LCDConf.c     **** void LCD_X_Config(void) {
  40              		.loc 1 131 0
  41              		.cfi_startproc
  42              		@ args = 0, pretend = 0, frame = 8
  43              		@ frame_needed = 1, uses_anonymous_args = 0
  44 0000 80B5     		push	{r7, lr}
  45              		.cfi_def_cfa_offset 8
  46              		.cfi_offset 7, -8
  47              		.cfi_offset 14, -4
  48 0002 82B0     		sub	sp, sp, #8
  49              		.cfi_def_cfa_offset 16
  50 0004 00AF     		add	r7, sp, #0
  51              		.cfi_def_cfa_register 7
 132:LCDConf.c     **** 	
 133:LCDConf.c     **** 	GUI_DEVICE * pDevice;
 134:LCDConf.c     **** 	CONFIG_BITPLAINS Config;
 135:LCDConf.c     **** 	
 136:LCDConf.c     **** 	Config.Mirror = 1;
  52              		.loc 1 136 0
  53 0006 0123     		movs	r3, #1
  54 0008 3B60     		str	r3, [r7]
 137:LCDConf.c     **** 	
 138:LCDConf.c     **** 	
 139:LCDConf.c     ****   //
 140:LCDConf.c     ****   // Set display driver and color conversion for 1st layer
 141:LCDConf.c     ****   //
 142:LCDConf.c     ****   pDevice = GUI_DEVICE_CreateAndLink(GUIDRV_BITPLAINS, COLOR_CONVERSION, 0, 0);
  55              		.loc 1 142 0
  56 000a 0023     		movs	r3, #0
  57 000c 0022     		movs	r2, #0
  58 000e 1849     		ldr	r1, .L4
  59 0010 1848     		ldr	r0, .L4+4
  60 0012 FFF7FEFF 		bl	GUI_DEVICE_CreateAndLink
  61 0016 7860     		str	r0, [r7, #4]
 143:LCDConf.c     ****   GUIDRV_BitPlains_Config(pDevice, &Config);
  62              		.loc 1 143 0
  63 0018 3B46     		mov	r3, r7
  64 001a 1946     		mov	r1, r3
  65 001c 7868     		ldr	r0, [r7, #4]
  66 001e FFF7FEFF 		bl	GUIDRV_BitPlains_Config
 144:LCDConf.c     **** 
 145:LCDConf.c     ****   //
 146:LCDConf.c     ****   // Display driver configuration
 147:LCDConf.c     ****   //
 148:LCDConf.c     ****   if (LCD_GetSwapXY()) {
  67              		.loc 1 148 0
  68 0022 FFF7FEFF 		bl	LCD_GetSwapXY
  69 0026 0346     		mov	r3, r0
  70 0028 002B     		cmp	r3, #0
  71 002a 0CD0     		beq	.L2
 149:LCDConf.c     ****     LCD_SetSizeEx (0, YSIZE_PHYS, XSIZE_PHYS);
ARM GAS  C:\Users\rober\AppData\Local\Temp\ccBOxG6v.s 			page 5


  72              		.loc 1 149 0
  73 002c 4FF48472 		mov	r2, #264
  74 0030 B021     		movs	r1, #176
  75 0032 0020     		movs	r0, #0
  76 0034 FFF7FEFF 		bl	LCD_SetSizeEx
 150:LCDConf.c     ****     LCD_SetVSizeEx(0, YSIZE_PHYS, XSIZE_PHYS);
  77              		.loc 1 150 0
  78 0038 4FF48472 		mov	r2, #264
  79 003c B021     		movs	r1, #176
  80 003e 0020     		movs	r0, #0
  81 0040 FFF7FEFF 		bl	LCD_SetVSizeEx
  82 0044 0BE0     		b	.L3
  83              	.L2:
 151:LCDConf.c     ****   } else {
 152:LCDConf.c     ****     LCD_SetSizeEx (0, XSIZE_PHYS, YSIZE_PHYS);
  84              		.loc 1 152 0
  85 0046 B022     		movs	r2, #176
  86 0048 4FF48471 		mov	r1, #264
  87 004c 0020     		movs	r0, #0
  88 004e FFF7FEFF 		bl	LCD_SetSizeEx
 153:LCDConf.c     ****     LCD_SetVSizeEx(0, XSIZE_PHYS, YSIZE_PHYS);
  89              		.loc 1 153 0
  90 0052 B022     		movs	r2, #176
  91 0054 4FF48471 		mov	r1, #264
  92 0058 0020     		movs	r0, #0
  93 005a FFF7FEFF 		bl	LCD_SetVSizeEx
  94              	.L3:
 154:LCDConf.c     ****   }
 155:LCDConf.c     ****   //
 156:LCDConf.c     ****   // Initialize VRAM access off driver
 157:LCDConf.c     ****   //
 158:LCDConf.c     ****   LCD_SetVRAMAddrEx(0, (void *)&_VRAM_Desc);
  95              		.loc 1 158 0
  96 005e 0649     		ldr	r1, .L4+8
  97 0060 0020     		movs	r0, #0
  98 0062 FFF7FEFF 		bl	LCD_SetVRAMAddrEx
 159:LCDConf.c     **** }
  99              		.loc 1 159 0
 100 0066 00BF     		nop
 101 0068 0837     		adds	r7, r7, #8
 102              		.cfi_def_cfa_offset 8
 103 006a BD46     		mov	sp, r7
 104              		.cfi_def_cfa_register 13
 105              		@ sp needed
 106 006c 80BD     		pop	{r7, pc}
 107              	.L5:
 108 006e 00BF     		.align	2
 109              	.L4:
 110 0070 00000000 		.word	LCD_API_ColorConv_1
 111 0074 00000000 		.word	GUIDRV_BitPlains_API
 112 0078 00000000 		.word	_VRAM_Desc
 113              		.cfi_endproc
 114              	.LFE125:
 115              		.size	LCD_X_Config, .-LCD_X_Config
 116              		.section	.text.LCD_X_DisplayDriver,"ax",%progbits
 117              		.align	2
 118              		.global	LCD_X_DisplayDriver
ARM GAS  C:\Users\rober\AppData\Local\Temp\ccBOxG6v.s 			page 6


 119              		.thumb
 120              		.thumb_func
 121              		.type	LCD_X_DisplayDriver, %function
 122              	LCD_X_DisplayDriver:
 123              	.LFB126:
 160:LCDConf.c     **** 
 161:LCDConf.c     **** /*********************************************************************
 162:LCDConf.c     **** *
 163:LCDConf.c     **** *       LCD_X_DisplayDriver
 164:LCDConf.c     **** *
 165:LCDConf.c     **** * Purpose:
 166:LCDConf.c     **** *   This function is called by the display driver for several purposes.
 167:LCDConf.c     **** *   To support the according task the routine needs to be adapted to
 168:LCDConf.c     **** *   the display controller. Please note that the commands marked with
 169:LCDConf.c     **** *   'optional' are not cogently required and should only be adapted if 
 170:LCDConf.c     **** *   the display controller supports these features.
 171:LCDConf.c     **** *
 172:LCDConf.c     **** * Parameter:
 173:LCDConf.c     **** *   LayerIndex - Index of layer to be configured
 174:LCDConf.c     **** *   Cmd        - Please refer to the details in the switch statement below
 175:LCDConf.c     **** *   pData      - Pointer to a LCD_X_DATA structure
 176:LCDConf.c     **** *
 177:LCDConf.c     **** * Return Value:
 178:LCDConf.c     **** *   < -1 - Error
 179:LCDConf.c     **** *     -1 - Command not handled
 180:LCDConf.c     **** *      0 - Ok
 181:LCDConf.c     **** */
 182:LCDConf.c     **** int LCD_X_DisplayDriver(unsigned LayerIndex, unsigned Cmd, void * p) {
 124              		.loc 1 182 0
 125              		.cfi_startproc
 126              		@ args = 0, pretend = 0, frame = 24
 127              		@ frame_needed = 1, uses_anonymous_args = 0
 128              		@ link register save eliminated.
 129 0000 80B4     		push	{r7}
 130              		.cfi_def_cfa_offset 4
 131              		.cfi_offset 7, -4
 132 0002 87B0     		sub	sp, sp, #28
 133              		.cfi_def_cfa_offset 32
 134 0004 00AF     		add	r7, sp, #0
 135              		.cfi_def_cfa_register 7
 136 0006 F860     		str	r0, [r7, #12]
 137 0008 B960     		str	r1, [r7, #8]
 138 000a 7A60     		str	r2, [r7, #4]
 183:LCDConf.c     ****   int r;
 184:LCDConf.c     ****   GUI_USE_PARA(LayerIndex);
 185:LCDConf.c     ****   GUI_USE_PARA(p);
 186:LCDConf.c     **** 
 187:LCDConf.c     ****   switch (Cmd) {
 139              		.loc 1 187 0
 140 000c BB68     		ldr	r3, [r7, #8]
 141 000e 012B     		cmp	r3, #1
 142 0010 01D1     		bne	.L10
 188:LCDConf.c     ****   case LCD_X_INITCONTROLLER: {
 189:LCDConf.c     **** 	//
 190:LCDConf.c     ****     // Called during the initialization process in order to set up the
 191:LCDConf.c     ****     // display controller and put it into operation. If the display
 192:LCDConf.c     ****     // controller is not initialized by any external routine this needs
ARM GAS  C:\Users\rober\AppData\Local\Temp\ccBOxG6v.s 			page 7


 193:LCDConf.c     ****     // to be adapted by the customer...
 194:LCDConf.c     ****     //
 195:LCDConf.c     ****     return 0;
 143              		.loc 1 195 0
 144 0012 0023     		movs	r3, #0
 145 0014 03E0     		b	.L9
 146              	.L10:
 196:LCDConf.c     ****   }
 197:LCDConf.c     ****   default:
 198:LCDConf.c     ****     r = -1;
 147              		.loc 1 198 0
 148 0016 4FF0FF33 		mov	r3, #-1
 149 001a 7B61     		str	r3, [r7, #20]
 199:LCDConf.c     ****   }
 200:LCDConf.c     ****   return r;
 150              		.loc 1 200 0
 151 001c 7B69     		ldr	r3, [r7, #20]
 152              	.L9:
 201:LCDConf.c     **** }
 153              		.loc 1 201 0
 154 001e 1846     		mov	r0, r3
 155 0020 1C37     		adds	r7, r7, #28
 156              		.cfi_def_cfa_offset 4
 157 0022 BD46     		mov	sp, r7
 158              		.cfi_def_cfa_register 13
 159              		@ sp needed
 160 0024 5DF8047B 		ldr	r7, [sp], #4
 161              		.cfi_restore 7
 162              		.cfi_def_cfa_offset 0
 163 0028 7047     		bx	lr
 164              		.cfi_endproc
 165              	.LFE126:
 166              		.size	LCD_X_DisplayDriver, .-LCD_X_DisplayDriver
 167 002a 00BF     		.section	.text.LCD_GetDisplayBuffer,"ax",%progbits
 168              		.align	2
 169              		.global	LCD_GetDisplayBuffer
 170              		.thumb
 171              		.thumb_func
 172              		.type	LCD_GetDisplayBuffer, %function
 173              	LCD_GetDisplayBuffer:
 174              	.LFB127:
 202:LCDConf.c     **** 
 203:LCDConf.c     **** /*********************************************************************
 204:LCDConf.c     **** *
 205:LCDConf.c     **** *       LCD_GetDisplayBuffer
 206:LCDConf.c     **** *
 207:LCDConf.c     **** * Purpose:
 208:LCDConf.c     **** *   This function returns the pointer to EmWin's dispay buffer
 209:LCDConf.c     **** 
 210:LCDConf.c     **** * Parameter:
 211:LCDConf.c     **** *   None
 212:LCDConf.c     **** *
 213:LCDConf.c     **** * Return Value:
 214:LCDConf.c     **** *   U8* - Pointer to the EmWin's display buffer
 215:LCDConf.c     **** */
 216:LCDConf.c     **** U8* LCD_GetDisplayBuffer(void)
 217:LCDConf.c     **** {
ARM GAS  C:\Users\rober\AppData\Local\Temp\ccBOxG6v.s 			page 8


 175              		.loc 1 217 0
 176              		.cfi_startproc
 177              		@ args = 0, pretend = 0, frame = 0
 178              		@ frame_needed = 1, uses_anonymous_args = 0
 179              		@ link register save eliminated.
 180 0000 80B4     		push	{r7}
 181              		.cfi_def_cfa_offset 4
 182              		.cfi_offset 7, -4
 183 0002 00AF     		add	r7, sp, #0
 184              		.cfi_def_cfa_register 7
 218:LCDConf.c     ****   /* Copy the Bitplains display buffer to user memory */
 219:LCDConf.c     ****   return _aPlain_0;
 185              		.loc 1 219 0
 186 0004 024B     		ldr	r3, .L13
 220:LCDConf.c     **** }
 187              		.loc 1 220 0
 188 0006 1846     		mov	r0, r3
 189 0008 BD46     		mov	sp, r7
 190              		.cfi_def_cfa_register 13
 191              		@ sp needed
 192 000a 5DF8047B 		ldr	r7, [sp], #4
 193              		.cfi_restore 7
 194              		.cfi_def_cfa_offset 0
 195 000e 7047     		bx	lr
 196              	.L14:
 197              		.align	2
 198              	.L13:
 199 0010 00000000 		.word	_aPlain_0
 200              		.cfi_endproc
 201              	.LFE127:
 202              		.size	LCD_GetDisplayBuffer, .-LCD_GetDisplayBuffer
 203              		.text
 204              	.Letext0:
 205              		.file 2 "c:\\program files (x86)\\cypress\\psoc creator\\4.2\\psoc creator\\import\\gnu\\arm\\5.4.
 206              		.file 3 "c:\\program files (x86)\\cypress\\psoc creator\\4.2\\psoc creator\\import\\gnu\\arm\\5.4.
 207              		.file 4 "Generated_Source\\PSoC6\\pdl\\middleware/emWin/code/include/LCD.h"
 208              		.file 5 "Generated_Source\\PSoC6\\pdl\\middleware/emWin/code/include/GUI.h"
 209              		.file 6 "Generated_Source\\PSoC6\\pdl\\middleware/emWin/code/drivers/BitPlains/GUIDRV_BitPlains.h"
 210              		.file 7 "Generated_Source\\PSoC6\\pdl\\cmsis/include/core_cm4.h"