ARM GAS  C:\Users\rober\AppData\Local\Temp\ccaShyPv.s 			page 1


   1              		.syntax unified
   2              		.cpu cortex-m4
   3              		.eabi_attribute 27, 1
   4              		.fpu fpv4-sp-d16
   5              		.eabi_attribute 20, 1
   6              		.eabi_attribute 21, 1
   7              		.eabi_attribute 23, 3
   8              		.eabi_attribute 24, 1
   9              		.eabi_attribute 25, 1
  10              		.eabi_attribute 26, 1
  11              		.eabi_attribute 30, 1
  12              		.eabi_attribute 34, 1
  13              		.eabi_attribute 18, 4
  14              		.thumb
  15              		.syntax unified
  16              		.file	"main_cm4.c"
  17              		.text
  18              	.Ltext0:
  19              		.cfi_sections	.debug_frame
  20              		.section	.text.UpdateDisplay,"ax",%progbits
  21              		.align	2
  22              		.global	UpdateDisplay
  23              		.thumb
  24              		.thumb_func
  25              		.type	UpdateDisplay, %function
  26              	UpdateDisplay:
  27              	.LFB604:
  28              		.file 1 "main_cm4.c"
   1:main_cm4.c    **** #include "project.h"
   2:main_cm4.c    **** #include "GUI.h"
   3:main_cm4.c    **** #include "pervasive_eink_hardware_driver.h"
   4:main_cm4.c    **** #include "cy_eink_library.h"
   5:main_cm4.c    **** #include "LCDConf.h"
   6:main_cm4.c    **** #include <stdio.h>
   7:main_cm4.c    **** #include <stdlib.h>
   8:main_cm4.c    **** 
   9:main_cm4.c    **** /* Image buffer cache */
  10:main_cm4.c    **** uint8 imageBufferCache[CY_EINK_FRAME_SIZE] = {0};
  11:main_cm4.c    **** 
  12:main_cm4.c    **** /* Reference to the bitmap image for the startup screen */
  13:main_cm4.c    **** extern GUI_CONST_STORAGE GUI_BITMAP bmCypressLogoFullColor_PNG_1bpp;
  14:main_cm4.c    **** 
  15:main_cm4.c    **** #define TIMER_PERIOD   1000000U
  16:main_cm4.c    **** 
  17:main_cm4.c    **** //maksymalna liczba punktow w tabeli.
  18:main_cm4.c    **** #define MAX_POINTS 100
  19:main_cm4.c    **** 
  20:main_cm4.c    **** 
  21:main_cm4.c    **** /*******************************************************************************
  22:main_cm4.c    **** * Function Name: void UpdateDisplay(void)
  23:main_cm4.c    **** ********************************************************************************
  24:main_cm4.c    **** *
  25:main_cm4.c    **** * Summary: This function updates the display with the data in the display 
  26:main_cm4.c    **** *			buffer.  The function first transfers the content of the EmWin
  27:main_cm4.c    **** *			display buffer to the primary EInk display buffer.  Then it calls
  28:main_cm4.c    **** *			the Cy_EINK_ShowFrame function to update the display, and then
  29:main_cm4.c    **** *			it copies the EmWin display buffer to the Eink display cache buffer
ARM GAS  C:\Users\rober\AppData\Local\Temp\ccaShyPv.s 			page 2


  30:main_cm4.c    **** *
  31:main_cm4.c    **** * Parameters:
  32:main_cm4.c    **** *  None
  33:main_cm4.c    **** *
  34:main_cm4.c    **** * Return:
  35:main_cm4.c    **** *  None
  36:main_cm4.c    **** *
  37:main_cm4.c    **** * Side Effects:
  38:main_cm4.c    **** *  It takes about a second to refresh the display.  This is a blocking function
  39:main_cm4.c    **** *  and only returns after the display refresh
  40:main_cm4.c    **** *
  41:main_cm4.c    **** *******************************************************************************/
  42:main_cm4.c    **** void UpdateDisplay(cy_eink_update_t updateMethod, bool powerCycle)
  43:main_cm4.c    **** {
  29              		.loc 1 43 0
  30              		.cfi_startproc
  31              		@ args = 0, pretend = 0, frame = 0
  32              		@ frame_needed = 0, uses_anonymous_args = 0
  33              	.LVL0:
  34 0000 F8B5     		push	{r3, r4, r5, r6, r7, lr}
  35              		.cfi_def_cfa_offset 24
  36              		.cfi_offset 3, -24
  37              		.cfi_offset 4, -20
  38              		.cfi_offset 5, -16
  39              		.cfi_offset 6, -12
  40              		.cfi_offset 7, -8
  41              		.cfi_offset 14, -4
  42 0002 0646     		mov	r6, r0
  43 0004 0F46     		mov	r7, r1
  44:main_cm4.c    ****     cy_eink_frame_t* pEmwinBuffer;
  45:main_cm4.c    **** 
  46:main_cm4.c    ****     /* Get the pointer to Emwin's display buffer */
  47:main_cm4.c    ****     pEmwinBuffer = (cy_eink_frame_t*)LCD_GetDisplayBuffer();
  44              		.loc 1 47 0
  45 0006 FFF7FEFF 		bl	LCD_GetDisplayBuffer
  46              	.LVL1:
  47 000a 0546     		mov	r5, r0
  48              	.LVL2:
  48:main_cm4.c    **** 
  49:main_cm4.c    ****     /* Update the EInk display */
  50:main_cm4.c    ****     Cy_EINK_ShowFrame(imageBufferCache, pEmwinBuffer, updateMethod, powerCycle);
  49              		.loc 1 50 0
  50 000c 064C     		ldr	r4, .L3
  51 000e 3B46     		mov	r3, r7
  52 0010 3246     		mov	r2, r6
  53 0012 0146     		mov	r1, r0
  54 0014 2046     		mov	r0, r4
  55              	.LVL3:
  56 0016 FFF7FEFF 		bl	Cy_EINK_ShowFrame
  57              	.LVL4:
  51:main_cm4.c    **** 
  52:main_cm4.c    ****     /* Copy the EmWin display buffer to the imageBuffer cache*/
  53:main_cm4.c    ****     memcpy(imageBufferCache, pEmwinBuffer, CY_EINK_FRAME_SIZE);
  58              		.loc 1 53 0
  59 001a 41F2B062 		movw	r2, #5808
  60 001e 2946     		mov	r1, r5
  61 0020 2046     		mov	r0, r4
ARM GAS  C:\Users\rober\AppData\Local\Temp\ccaShyPv.s 			page 3


  62 0022 FFF7FEFF 		bl	memcpy
  63              	.LVL5:
  64 0026 F8BD     		pop	{r3, r4, r5, r6, r7, pc}
  65              	.LVL6:
  66              	.L4:
  67              		.align	2
  68              	.L3:
  69 0028 00000000 		.word	.LANCHOR0
  70              		.cfi_endproc
  71              	.LFE604:
  72              		.size	UpdateDisplay, .-UpdateDisplay
  73              		.section	.text.TimerInterruptHandler,"ax",%progbits
  74              		.align	2
  75              		.global	TimerInterruptHandler
  76              		.thumb
  77              		.thumb_func
  78              		.type	TimerInterruptHandler, %function
  79              	TimerInterruptHandler:
  80              	.LFB612:
  54:main_cm4.c    **** }
  55:main_cm4.c    **** 
  56:main_cm4.c    **** /*******************************************************************************
  57:main_cm4.c    **** * Function Name: void ClearScreen(void)
  58:main_cm4.c    **** ********************************************************************************
  59:main_cm4.c    **** *
  60:main_cm4.c    **** * Summary: This function clears the screen
  61:main_cm4.c    **** *
  62:main_cm4.c    **** * Parameters:
  63:main_cm4.c    **** *  None
  64:main_cm4.c    **** *
  65:main_cm4.c    **** * Return:
  66:main_cm4.c    **** *  None
  67:main_cm4.c    **** *
  68:main_cm4.c    **** *******************************************************************************/
  69:main_cm4.c    **** void ClearScreen(void)
  70:main_cm4.c    **** {
  71:main_cm4.c    ****     GUI_SetColor(GUI_BLACK);
  72:main_cm4.c    ****     GUI_SetBkColor(GUI_WHITE);
  73:main_cm4.c    ****     GUI_Clear();
  74:main_cm4.c    ****     UpdateDisplay(CY_EINK_FULL_4STAGE, true);
  75:main_cm4.c    **** }
  76:main_cm4.c    **** 
  77:main_cm4.c    **** 
  78:main_cm4.c    **** /*******************************************************************************
  79:main_cm4.c    **** * Function Name: void WaitforSwitchPressAndRelease(void)
  80:main_cm4.c    **** ********************************************************************************
  81:main_cm4.c    **** *
  82:main_cm4.c    **** * Summary: This implements a simple "Wait for button press and release"
  83:main_cm4.c    **** *			function.  It first waits for the button to be pressed and then
  84:main_cm4.c    **** *			waits for the button to be released.
  85:main_cm4.c    **** *
  86:main_cm4.c    **** * Parameters:
  87:main_cm4.c    **** *  None
  88:main_cm4.c    **** *
  89:main_cm4.c    **** * Return:
  90:main_cm4.c    **** *  None
  91:main_cm4.c    **** *
ARM GAS  C:\Users\rober\AppData\Local\Temp\ccaShyPv.s 			page 4


  92:main_cm4.c    **** * Side Effects:
  93:main_cm4.c    **** *  This is a blocking function and exits only on a button press and release
  94:main_cm4.c    **** *
  95:main_cm4.c    **** *******************************************************************************/
  96:main_cm4.c    **** 
  97:main_cm4.c    **** //zmienna do sterowania pwm
  98:main_cm4.c    **** int compareValue = 50;
  99:main_cm4.c    **** 
 100:main_cm4.c    **** //ktora tabela zostala wybrana.
 101:main_cm4.c    **** int which_data_table = 0;
 102:main_cm4.c    **** 
 103:main_cm4.c    **** //wybor trybu.
 104:main_cm4.c    **** int modeSwitch = 0;
 105:main_cm4.c    **** 
 106:main_cm4.c    **** //struktura do przechowywania danych o tabeli.
 107:main_cm4.c    **** typedef struct {
 108:main_cm4.c    ****     int time;
 109:main_cm4.c    ****     int temperature;
 110:main_cm4.c    **** } DataPoint;
 111:main_cm4.c    **** 
 112:main_cm4.c    **** typedef struct {
 113:main_cm4.c    ****     DataPoint data[MAX_POINTS]; //tablica z punktami.
 114:main_cm4.c    ****     int dataSize;    // Rozmiar tej tablicy
 115:main_cm4.c    ****     char* name; //Nazwa tablicy.
 116:main_cm4.c    **** } DataSet;
 117:main_cm4.c    **** 
 118:main_cm4.c    **** int dataSize = 6;
 119:main_cm4.c    ****     
 120:main_cm4.c    **** DataPoint data[6];
 121:main_cm4.c    **** 
 122:main_cm4.c    **** //zmienna przechowujaca tablice z danymi.
 123:main_cm4.c    **** DataSet table_data[3] = {
 124:main_cm4.c    ****     {
 125:main_cm4.c    ****         .data = {{0, 25}, {90, 90}, {180, 130}, {210, 138}, {240, 165}, {270, 138}},
 126:main_cm4.c    ****         .dataSize = 6,
 127:main_cm4.c    ****         .name = "Reflow Sn42/Bi57.6/Ag0.4"
 128:main_cm4.c    ****     },
 129:main_cm4.c    ****     {
 130:main_cm4.c    ****         .data = {{0, 25}, {30, 100}, {120, 150}, {150, 183}, {210, 235}, {240, 183}},
 131:main_cm4.c    ****         .dataSize = 6,
 132:main_cm4.c    ****         .name = "Reflow Sn63/Pb37 T4"
 133:main_cm4.c    ****     },
 134:main_cm4.c    ****     {
 135:main_cm4.c    ****         .data = {{0, 25}, {90, 90}, {180, 130}, {210, 170}, {240, 197}, {270, 170}},
 136:main_cm4.c    ****         .dataSize = 6,
 137:main_cm4.c    ****         .name = "Reflow Sn60/Bi40 T4"
 138:main_cm4.c    ****     }
 139:main_cm4.c    **** };
 140:main_cm4.c    **** 
 141:main_cm4.c    **** //Funkcja do zmiany trybów uzywając przycisków.
 142:main_cm4.c    **** void WaitforSwitchPressAndRelease(void)
 143:main_cm4.c    **** {   
 144:main_cm4.c    ****     int table_count = sizeof(table_data) / sizeof(table_data[0]);
 145:main_cm4.c    ****     
 146:main_cm4.c    ****     Cy_TCPWM_PWM_SetCompare0(PWM_HW, PWM_CNT_NUM, compareValue);
 147:main_cm4.c    ****     
 148:main_cm4.c    ****     /* Oczekiwanie na wciśnięcie */
ARM GAS  C:\Users\rober\AppData\Local\Temp\ccaShyPv.s 			page 5


 149:main_cm4.c    ****     while(Status_Button1_Read() != 0 && Status_Button2_Read() != 0 && Status_Button3_Read() != 0);
 150:main_cm4.c    ****     
 151:main_cm4.c    ****     /* Oczekiwanie na puszczenie */
 152:main_cm4.c    ****     while(Status_Button1_Read() == 0)
 153:main_cm4.c    ****     {
 154:main_cm4.c    ****         Cy_TCPWM_PWM_SetCompare0(PWM_HW, PWM_CNT_NUM, compareValue);
 155:main_cm4.c    ****         compareValue = (compareValue + 1) % 100;
 156:main_cm4.c    ****         CyDelay(20);
 157:main_cm4.c    ****     };
 158:main_cm4.c    ****     
 159:main_cm4.c    ****     //Wcisniety drugi przycisk
 160:main_cm4.c    ****     if(Status_Button2_Read() == 0)
 161:main_cm4.c    ****     {
 162:main_cm4.c    ****         modeSwitch = 1;
 163:main_cm4.c    ****         return;
 164:main_cm4.c    ****     }
 165:main_cm4.c    ****     
 166:main_cm4.c    ****     //Wcisniety trzeci przycisk
 167:main_cm4.c    ****     if(Status_Button3_Read() == 0)
 168:main_cm4.c    ****     {
 169:main_cm4.c    ****         modeSwitch = 3;
 170:main_cm4.c    ****         return;
 171:main_cm4.c    ****     }
 172:main_cm4.c    ****     
 173:main_cm4.c    ****     if(modeSwitch == 1 || modeSwitch == 3)
 174:main_cm4.c    ****     {
 175:main_cm4.c    ****         modeSwitch = 0;
 176:main_cm4.c    ****     }
 177:main_cm4.c    ****     else
 178:main_cm4.c    ****     {
 179:main_cm4.c    ****         which_data_table++;
 180:main_cm4.c    ****         if(which_data_table == 3)
 181:main_cm4.c    ****         {
 182:main_cm4.c    ****             modeSwitch = 2;   
 183:main_cm4.c    ****         }
 184:main_cm4.c    ****     }
 185:main_cm4.c    **** }
 186:main_cm4.c    **** 
 187:main_cm4.c    **** //czy program (rysowanie wykresu) zostal uruchomiony.
 188:main_cm4.c    **** bool programStarted = false;
 189:main_cm4.c    **** 
 190:main_cm4.c    **** //ile trwa program dla danej tabeli.
 191:main_cm4.c    **** int maxTimeInGraph = 0;
 192:main_cm4.c    **** 
 193:main_cm4.c    **** void ShowGraph_WithUpdate(void)
 194:main_cm4.c    **** {
 195:main_cm4.c    ****     ClearScreen();
 196:main_cm4.c    ****     
 197:main_cm4.c    ****     /* Define axis labels and ticks */
 198:main_cm4.c    ****     char xAxisLabels[8][6] = {"0", "60", "120", "180", "240", "300", "360", "420"};
 199:main_cm4.c    ****     char yAxisLabels[6][4] = {"0", "60", "120", "180", "240", "300"};
 200:main_cm4.c    ****     int xAxisTicks[8] = {30, 60, 90, 120, 150, 180, 210, 240};
 201:main_cm4.c    ****     int yAxisTicks[6] = {20, 50, 80, 110, 140, 170};
 202:main_cm4.c    ****     
 203:main_cm4.c    ****     /* Draw the graph */
 204:main_cm4.c    ****     GUI_ClearRect(10, 20, 254, 150);  // Clear the area where the graph will be drawn
 205:main_cm4.c    ****     
ARM GAS  C:\Users\rober\AppData\Local\Temp\ccaShyPv.s 			page 6


 206:main_cm4.c    ****     /* Draw X and Y axis */
 207:main_cm4.c    ****     GUI_DrawLine(30, 20, 30, 200); // Y axis
 208:main_cm4.c    ****     GUI_DrawLine(30, 150, 250, 150); // X axis
 209:main_cm4.c    **** 
 210:main_cm4.c    ****     /* Draw axis labels and ticks */
 211:main_cm4.c    ****     for (int i = 0; i < 8; i++) {
 212:main_cm4.c    ****         GUI_DrawLine(xAxisTicks[i], 150, xAxisTicks[i], 155);
 213:main_cm4.c    ****         GUI_DispStringAt(xAxisLabels[i], xAxisTicks[i] - 10, 155);
 214:main_cm4.c    ****     }
 215:main_cm4.c    **** 
 216:main_cm4.c    ****     for (int i = 0; i < 6; i++) {
 217:main_cm4.c    ****         GUI_DrawLine(25, 170 - yAxisTicks[i], 30, 170 - yAxisTicks[i]);
 218:main_cm4.c    ****         GUI_DispStringAt(yAxisLabels[i], 5, 170 - yAxisTicks[i] - 6);
 219:main_cm4.c    ****     }
 220:main_cm4.c    ****     
 221:main_cm4.c    ****     maxTimeInGraph = data[dataSize-1].time;
 222:main_cm4.c    ****     UpdateDisplay(CY_EINK_PARTIAL, true);
 223:main_cm4.c    ****     programStarted = true;
 224:main_cm4.c    **** }
 225:main_cm4.c    **** 
 226:main_cm4.c    **** void ShowGraph(void) { 
 227:main_cm4.c    ****     ClearScreen();
 228:main_cm4.c    ****     
 229:main_cm4.c    ****     /* Set font size, foreground and background colors */
 230:main_cm4.c    ****     GUI_SetColor(GUI_BLACK);
 231:main_cm4.c    ****     GUI_SetBkColor(GUI_WHITE);
 232:main_cm4.c    ****     GUI_SetTextMode(GUI_TM_NORMAL);
 233:main_cm4.c    ****     GUI_SetTextStyle(GUI_TS_NORMAL);
 234:main_cm4.c    ****     
 235:main_cm4.c    ****     char xAxisLabels[8][6] = {"0", "60", "120", "180", "240", "300", "360", "420"};
 236:main_cm4.c    ****     char yAxisLabels[6][4] = {"0", "60", "120", "180", "240", "300"};
 237:main_cm4.c    ****     int xAxisTicks[8] = {30, 60, 90, 120, 150, 180, 210, 240};
 238:main_cm4.c    ****     int yAxisTicks[6] = {20, 50, 80, 110, 140, 170};
 239:main_cm4.c    ****         GUI_ClearRect(10, 20, 254, 150);  // Clear the area where the graph will be drawn
 240:main_cm4.c    ****     
 241:main_cm4.c    ****     /* Draw X and Y axis */
 242:main_cm4.c    ****     GUI_DrawLine(30, 20, 30, 170); // Y axis
 243:main_cm4.c    ****     GUI_DrawLine(30, 150, 250, 150); // X axis
 244:main_cm4.c    **** 
 245:main_cm4.c    ****     /* Draw axis labels and ticks */
 246:main_cm4.c    ****     for (int i = 0; i < 8; i++) {
 247:main_cm4.c    ****         GUI_DrawLine(xAxisTicks[i], 150, xAxisTicks[i], 155);
 248:main_cm4.c    ****         GUI_DispStringAt(xAxisLabels[i], xAxisTicks[i] - 10, 155);
 249:main_cm4.c    ****     }
 250:main_cm4.c    ****   
 251:main_cm4.c    ****     for (int i = 0; i < 6; i++) {
 252:main_cm4.c    ****         GUI_DrawLine(25, 170 - yAxisTicks[i], 30, 170 - yAxisTicks[i]);
 253:main_cm4.c    ****         GUI_DispStringAt(yAxisLabels[i], 5, 170 - yAxisTicks[i] - 6);
 254:main_cm4.c    ****     }
 255:main_cm4.c    ****     
 256:main_cm4.c    ****     for (int i = 1; i < dataSize; i++)
 257:main_cm4.c    ****     {
 258:main_cm4.c    ****         GUI_DrawLine(data[i - 1].time / 2 + 30, 150 - data[i - 1].temperature/2, data[i].time / 2 +
 259:main_cm4.c    ****     }
 260:main_cm4.c    ****     /* Update the display */
 261:main_cm4.c    ****     UpdateDisplay(CY_EINK_PARTIAL, true);
 262:main_cm4.c    **** }
ARM GAS  C:\Users\rober\AppData\Local\Temp\ccaShyPv.s 			page 7


 263:main_cm4.c    **** 
 264:main_cm4.c    **** 
 265:main_cm4.c    **** void ShowTable(void)
 266:main_cm4.c    **** {
 267:main_cm4.c    ****     ClearScreen();
 268:main_cm4.c    ****     
 269:main_cm4.c    ****     /* Set font size, foreground and background colors */
 270:main_cm4.c    ****     GUI_SetColor(GUI_BLACK);
 271:main_cm4.c    ****     GUI_SetBkColor(GUI_WHITE);
 272:main_cm4.c    ****     GUI_SetTextMode(GUI_TM_NORMAL);
 273:main_cm4.c    ****     GUI_SetTextStyle(GUI_TS_NORMAL);
 274:main_cm4.c    **** 
 275:main_cm4.c    ****     /* Clear the screen */
 276:main_cm4.c    ****     GUI_Clear();
 277:main_cm4.c    ****     
 278:main_cm4.c    ****     for (int i = 0; i < dataSize; i++) {
 279:main_cm4.c    ****         data[i].temperature = table_data[which_data_table].data[i].temperature;
 280:main_cm4.c    ****         data[i].time = table_data[which_data_table].data[i].time;
 281:main_cm4.c    ****     }
 282:main_cm4.c    ****     
 283:main_cm4.c    ****     /* Display page title */
 284:main_cm4.c    ****     GUI_SetFont(GUI_FONT_13B_1);
 285:main_cm4.c    ****     GUI_SetTextAlign(GUI_TA_HCENTER);
 286:main_cm4.c    ****     GUI_DispStringAt(table_data[which_data_table].name, 132, 5);
 287:main_cm4.c    ****     
 288:main_cm4.c    ****     /* Display table data */
 289:main_cm4.c    ****     for (int i = 0; i < dataSize; i++)
 290:main_cm4.c    ****     {           
 291:main_cm4.c    ****         if(i == 0)
 292:main_cm4.c    ****         {
 293:main_cm4.c    ****             GUI_DispStringAt("Time (s)", 20, 30);
 294:main_cm4.c    ****             GUI_DispStringAt("Temperature (C deg)", 100, 30);
 295:main_cm4.c    ****             continue;
 296:main_cm4.c    ****         }
 297:main_cm4.c    ****         
 298:main_cm4.c    ****         char timeString[10];
 299:main_cm4.c    ****         char dataString[10];
 300:main_cm4.c    ****         
 301:main_cm4.c    ****         sprintf(timeString, "%d", data[i].time);
 302:main_cm4.c    ****         sprintf(dataString, "%d", data[i].temperature);
 303:main_cm4.c    ****         
 304:main_cm4.c    ****         GUI_DispStringAt(timeString, 20, 50 + (i-1) * 20);
 305:main_cm4.c    ****         GUI_DispStringAt(dataString, 100, 50 + (i-1) * 20);
 306:main_cm4.c    ****     }
 307:main_cm4.c    **** 
 308:main_cm4.c    ****     /* Update the display */
 309:main_cm4.c    ****     UpdateDisplay(CY_EINK_PARTIAL, true);
 310:main_cm4.c    **** }
 311:main_cm4.c    **** 
 312:main_cm4.c    **** void AddNew()
 313:main_cm4.c    **** {
 314:main_cm4.c    ****     ClearScreen();
 315:main_cm4.c    ****     
 316:main_cm4.c    ****     /* Set font size, foreground and background colors */
 317:main_cm4.c    ****     GUI_SetColor(GUI_BLACK);
 318:main_cm4.c    ****     GUI_SetBkColor(GUI_WHITE);
 319:main_cm4.c    ****     GUI_SetTextMode(GUI_TM_NORMAL);
ARM GAS  C:\Users\rober\AppData\Local\Temp\ccaShyPv.s 			page 8


 320:main_cm4.c    ****     GUI_SetTextStyle(GUI_TS_NORMAL);
 321:main_cm4.c    **** 
 322:main_cm4.c    ****     /* Clear the screen */
 323:main_cm4.c    ****     GUI_Clear();
 324:main_cm4.c    ****     
 325:main_cm4.c    ****     /* Display page title */
 326:main_cm4.c    ****     GUI_SetFont(GUI_FONT_13B_1);
 327:main_cm4.c    ****     GUI_SetTextAlign(GUI_TA_HCENTER);
 328:main_cm4.c    ****     GUI_DispStringAt("Add temperature points", 132, 5);
 329:main_cm4.c    ****     
 330:main_cm4.c    ****     int currentTemp = 25; // Początkowa wartość temperatury
 331:main_cm4.c    ****     int currentTime = 0; // Początkowa wartość czasu
 332:main_cm4.c    ****     char tempBuffer[32];   // Bufor na string wyświetlający temperaturę
 333:main_cm4.c    ****     char timeBuffer[32];   // Bufor na string wyświetlający czas
 334:main_cm4.c    ****     int currentIndex = 1;  // Bieżący indeks w tablicy data[]
 335:main_cm4.c    ****     
 336:main_cm4.c    ****     data[0].temperature = currentTemp;
 337:main_cm4.c    ****     data[0].time = currentTime;
 338:main_cm4.c    ****     
 339:main_cm4.c    ****     // Wyświetlenie początkowej temperatury
 340:main_cm4.c    ****     sprintf(tempBuffer, "Current Temperature: %dC", currentTemp);
 341:main_cm4.c    ****     GUI_DispStringAt(tempBuffer, 10, 30);
 342:main_cm4.c    ****     
 343:main_cm4.c    ****     UpdateDisplay(CY_EINK_PARTIAL, true);
 344:main_cm4.c    **** 
 345:main_cm4.c    ****     // Pętla do wprowadzania wartości
 346:main_cm4.c    ****     while (currentIndex < 6)
 347:main_cm4.c    ****     {
 348:main_cm4.c    ****         bool btn1_Pressed = false;
 349:main_cm4.c    ****         bool btn3_Pressed = false;
 350:main_cm4.c    **** 
 351:main_cm4.c    ****         // Sprawdzanie stanu przycisków w pętli
 352:main_cm4.c    ****         while (Status_Button1_Read() != 0 && Status_Button2_Read() != 0 && Status_Button3_Read() !=
 353:main_cm4.c    ****         
 354:main_cm4.c    ****         // Sprawdzenie czy Button1 lub Button2 został wciśnięty
 355:main_cm4.c    ****         while (Status_Button1_Read() == 0 || Status_Button2_Read() == 0)
 356:main_cm4.c    ****         {
 357:main_cm4.c    ****             if(Status_Button1_Read() == 0){
 358:main_cm4.c    ****                 currentTemp++;
 359:main_cm4.c    ****             }
 360:main_cm4.c    ****             else {
 361:main_cm4.c    ****                 currentTemp += 10;
 362:main_cm4.c    ****             }
 363:main_cm4.c    ****             
 364:main_cm4.c    ****             if(currentTemp >= 300) {
 365:main_cm4.c    ****                 currentTemp = 25;
 366:main_cm4.c    ****             }
 367:main_cm4.c    **** 
 368:main_cm4.c    ****             // Aktualizacja wyświetlanej wartości temperatury
 369:main_cm4.c    ****             GUI_ClearRect(10, 30, 200, 50);  // Wyczyść poprzednią wartość temperatury
 370:main_cm4.c    ****             sprintf(tempBuffer, "Current Temperature: %dC", currentTemp);
 371:main_cm4.c    ****             GUI_DispStringAt(tempBuffer, 10, 30);  // Wyświetlenie nowej wartości temperatury
 372:main_cm4.c    ****             UpdateDisplay(CY_EINK_PARTIAL, true);
 373:main_cm4.c    ****         }
 374:main_cm4.c    ****         
 375:main_cm4.c    ****         // Sprawdzenie czy Button2 został wciśnięty
 376:main_cm4.c    ****         while (Status_Button3_Read() == 0)
ARM GAS  C:\Users\rober\AppData\Local\Temp\ccaShyPv.s 			page 9


 377:main_cm4.c    ****         {
 378:main_cm4.c    ****             btn3_Pressed = true;  // Przycisk został wciśnięty
 379:main_cm4.c    ****         }
 380:main_cm4.c    **** 
 381:main_cm4.c    ****         // Jeśli Button2 został wciśnięty i puszczony, dodaj temperaturę do tablicy
 382:main_cm4.c    ****         if (btn3_Pressed)
 383:main_cm4.c    ****         {
 384:main_cm4.c    ****             data[currentIndex].temperature = currentTemp; // Zapis temperatury do tablicy
 385:main_cm4.c    ****             data[currentIndex].time = currentIndex * 5;   // Przykładowo ustawiamy czas jako indek
 386:main_cm4.c    **** 
 387:main_cm4.c    ****             // Wyświetlenie informacji o dodanej temperaturze
 388:main_cm4.c    ****             sprintf(tempBuffer, "Added Temp %d: %dC", currentIndex, currentTemp);
 389:main_cm4.c    ****             GUI_DispStringAt(tempBuffer, 10, 50 + (currentIndex * 20)); // Wyświetlenie na ekranie
 390:main_cm4.c    **** 
 391:main_cm4.c    ****             currentIndex++;  // Przejdź do kolejnego indeksu tablicy
 392:main_cm4.c    **** 
 393:main_cm4.c    ****             // Resetowanie temperatury do 25, jeśli chcesz, by po dodaniu każdej temperatury zacz
 394:main_cm4.c    ****             currentTemp = 25;
 395:main_cm4.c    **** 
 396:main_cm4.c    ****             // Aktualizacja wyświetlanej wartości temperatury
 397:main_cm4.c    ****             GUI_ClearRect(10, 30, 200, 50);  // Wyczyść poprzednią wartość temperatury
 398:main_cm4.c    ****             sprintf(tempBuffer, "Current Temperature: %dC", currentTemp);
 399:main_cm4.c    ****             GUI_DispStringAt(tempBuffer, 10, 30);  // Wyświetlenie nowej wartości temperatury
 400:main_cm4.c    ****             UpdateDisplay(CY_EINK_PARTIAL, true);
 401:main_cm4.c    ****         }
 402:main_cm4.c    ****     }
 403:main_cm4.c    ****     
 404:main_cm4.c    ****     ClearScreen();
 405:main_cm4.c    ****     
 406:main_cm4.c    ****     /* Set font size, foreground and background colors */
 407:main_cm4.c    ****     GUI_SetColor(GUI_BLACK);
 408:main_cm4.c    ****     GUI_SetBkColor(GUI_WHITE);
 409:main_cm4.c    ****     GUI_SetTextMode(GUI_TM_NORMAL);
 410:main_cm4.c    ****     GUI_SetTextStyle(GUI_TS_NORMAL);
 411:main_cm4.c    **** 
 412:main_cm4.c    ****     /* Clear the screen */
 413:main_cm4.c    ****     GUI_Clear();
 414:main_cm4.c    ****     
 415:main_cm4.c    ****     /* Display page title */
 416:main_cm4.c    ****     GUI_SetFont(GUI_FONT_13B_1);
 417:main_cm4.c    ****     GUI_SetTextAlign(GUI_TA_HCENTER);
 418:main_cm4.c    ****     GUI_DispStringAt("Add time points", 132, 5);
 419:main_cm4.c    ****     
 420:main_cm4.c    ****     sprintf(timeBuffer, "Current Time: %ds", currentTime + 1);
 421:main_cm4.c    ****     GUI_DispStringAt(timeBuffer, 10, 30);
 422:main_cm4.c    ****     UpdateDisplay(CY_EINK_PARTIAL, true);
 423:main_cm4.c    ****     
 424:main_cm4.c    ****     currentIndex = 1;
 425:main_cm4.c    ****     int lastCurrentTime = currentTime;
 426:main_cm4.c    ****     
 427:main_cm4.c    ****     while (currentIndex < 6)
 428:main_cm4.c    ****     {
 429:main_cm4.c    ****         bool btn1_Pressed = false;
 430:main_cm4.c    ****         bool btn3_Pressed = false;
 431:main_cm4.c    ****         
 432:main_cm4.c    ****         if(currentTime == lastCurrentTime) {
 433:main_cm4.c    ****             currentTime = lastCurrentTime + 1;
ARM GAS  C:\Users\rober\AppData\Local\Temp\ccaShyPv.s 			page 10


 434:main_cm4.c    ****         }
 435:main_cm4.c    **** 
 436:main_cm4.c    ****         // Sprawdzanie stanu przycisków w pętli
 437:main_cm4.c    ****         while (Status_Button1_Read() != 0 && Status_Button2_Read() != 0 && Status_Button3_Read() !=
 438:main_cm4.c    ****         
 439:main_cm4.c    ****         // Sprawdzenie czy Button1 lub Button2 został wciśnięty
 440:main_cm4.c    ****         while (Status_Button1_Read() == 0 || Status_Button2_Read() == 0)
 441:main_cm4.c    ****         {
 442:main_cm4.c    ****             if(Status_Button1_Read() == 0){
 443:main_cm4.c    ****                 currentTime++;
 444:main_cm4.c    ****             }
 445:main_cm4.c    ****             else {
 446:main_cm4.c    ****                 currentTime += 10;
 447:main_cm4.c    ****             }
 448:main_cm4.c    ****             
 449:main_cm4.c    ****             if(currentTime >= 400) {
 450:main_cm4.c    ****                 currentTime = lastCurrentTime + 1;
 451:main_cm4.c    ****             }
 452:main_cm4.c    **** 
 453:main_cm4.c    ****             // Aktualizacja wyświetlanej wartości czasu
 454:main_cm4.c    ****             GUI_ClearRect(10, 30, 200, 50);  // Wyczyść poprzednią wartość czasu
 455:main_cm4.c    ****             sprintf(timeBuffer, "Current Time: %ds", currentTime);
 456:main_cm4.c    ****             GUI_DispStringAt(timeBuffer, 10, 30);  // Wyświetlenie nowej wartości czasu
 457:main_cm4.c    ****             UpdateDisplay(CY_EINK_PARTIAL, true);
 458:main_cm4.c    ****         }
 459:main_cm4.c    ****         
 460:main_cm4.c    ****         // Sprawdzenie czy Button3 został wciśnięty
 461:main_cm4.c    ****         while (Status_Button3_Read() == 0)
 462:main_cm4.c    ****         {
 463:main_cm4.c    ****             btn3_Pressed = true;  // Przycisk został wciśnięty
 464:main_cm4.c    ****         }
 465:main_cm4.c    **** 
 466:main_cm4.c    ****         // Jeśli Button2 został wciśnięty i puszczony, dodaj czas do tablicy
 467:main_cm4.c    ****         if (btn3_Pressed)
 468:main_cm4.c    ****         {
 469:main_cm4.c    ****             data[currentIndex].time = currentTime;
 470:main_cm4.c    ****             lastCurrentTime = currentTime;
 471:main_cm4.c    **** 
 472:main_cm4.c    ****             // Wyświetlenie informacji o dodanym czasie
 473:main_cm4.c    ****             sprintf(timeBuffer, "Added Time %d: %ds", currentIndex, currentTime);
 474:main_cm4.c    ****             GUI_DispStringAt(timeBuffer, 10, 50 + (currentIndex * 20)); // Wyświetlenie na ekranie
 475:main_cm4.c    **** 
 476:main_cm4.c    ****             currentIndex++;  // Przejdź do kolejnego indeksu tablicy
 477:main_cm4.c    **** 
 478:main_cm4.c    ****             // Aktualizacja wyświetlanej wartości czasu
 479:main_cm4.c    ****             GUI_ClearRect(10, 30, 200, 50);  // Wyczyść poprzednią wartość czasu
 480:main_cm4.c    ****             sprintf(timeBuffer, "Current Time: %ds", currentTime);
 481:main_cm4.c    ****             GUI_DispStringAt(timeBuffer, 10, 30);  // Wyświetlenie nowej wartości czasu
 482:main_cm4.c    ****             UpdateDisplay(CY_EINK_PARTIAL, true);
 483:main_cm4.c    ****         }
 484:main_cm4.c    ****     }
 485:main_cm4.c    ****     
 486:main_cm4.c    ****     ClearScreen();
 487:main_cm4.c    ****     
 488:main_cm4.c    ****     /* Set font size, foreground and background colors */
 489:main_cm4.c    ****     GUI_SetColor(GUI_BLACK);
 490:main_cm4.c    ****     GUI_SetBkColor(GUI_WHITE);
ARM GAS  C:\Users\rober\AppData\Local\Temp\ccaShyPv.s 			page 11


 491:main_cm4.c    ****     GUI_SetTextMode(GUI_TM_NORMAL);
 492:main_cm4.c    ****     GUI_SetTextStyle(GUI_TS_NORMAL);
 493:main_cm4.c    **** 
 494:main_cm4.c    ****     /* Clear the screen */
 495:main_cm4.c    ****     GUI_Clear();
 496:main_cm4.c    ****     
 497:main_cm4.c    ****     /* Display page title */
 498:main_cm4.c    ****     GUI_SetFont(GUI_FONT_13B_1);
 499:main_cm4.c    ****     GUI_SetTextAlign(GUI_TA_HCENTER);
 500:main_cm4.c    ****     GUI_DispStringAt("Click one to break, click two to start.", 110, 5);
 501:main_cm4.c    ****     GUI_DispStringAt("Click three to show graph.", 10, 25);
 502:main_cm4.c    ****     UpdateDisplay(CY_EINK_PARTIAL, true);
 503:main_cm4.c    ****     
 504:main_cm4.c    ****     while(Status_Button1_Read() != 0 && Status_Button2_Read() != 0 && Status_Button3_Read() != 0);
 505:main_cm4.c    ****     
 506:main_cm4.c    ****     bool btn1_Pressed = false;
 507:main_cm4.c    ****     bool btn2_Pressed = false;
 508:main_cm4.c    ****     bool btn3_Pressed = false;
 509:main_cm4.c    ****     
 510:main_cm4.c    ****     while(Status_Button1_Read() == 0)
 511:main_cm4.c    ****     {
 512:main_cm4.c    ****         btn1_Pressed = true;
 513:main_cm4.c    ****     }
 514:main_cm4.c    ****     while (Status_Button2_Read() == 0)
 515:main_cm4.c    ****     {
 516:main_cm4.c    ****         btn2_Pressed = true;
 517:main_cm4.c    ****     }
 518:main_cm4.c    ****     while (Status_Button3_Read() == 0)
 519:main_cm4.c    ****     {
 520:main_cm4.c    ****         btn3_Pressed = true;
 521:main_cm4.c    ****     }
 522:main_cm4.c    ****     
 523:main_cm4.c    ****     if(btn1_Pressed)
 524:main_cm4.c    ****     {
 525:main_cm4.c    ****         modeSwitch = 0;
 526:main_cm4.c    ****         which_data_table = 0;
 527:main_cm4.c    ****     }
 528:main_cm4.c    ****     else if(btn2_Pressed)
 529:main_cm4.c    ****     {
 530:main_cm4.c    ****         modeSwitch = 1;
 531:main_cm4.c    ****         which_data_table = 0;
 532:main_cm4.c    ****     }
 533:main_cm4.c    ****     else if(btn3_Pressed)
 534:main_cm4.c    ****     {
 535:main_cm4.c    ****         modeSwitch = 3;
 536:main_cm4.c    ****         which_data_table = 0;
 537:main_cm4.c    ****     }
 538:main_cm4.c    **** }
 539:main_cm4.c    **** 
 540:main_cm4.c    **** 
 541:main_cm4.c    **** void ShowAddNewPage(void)
 542:main_cm4.c    **** {
 543:main_cm4.c    ****     ClearScreen();
 544:main_cm4.c    ****     
 545:main_cm4.c    ****     /* Set font size, foreground and background colors */
 546:main_cm4.c    ****     GUI_SetColor(GUI_BLACK);
 547:main_cm4.c    ****     GUI_SetBkColor(GUI_WHITE);
ARM GAS  C:\Users\rober\AppData\Local\Temp\ccaShyPv.s 			page 12


 548:main_cm4.c    ****     GUI_SetTextMode(GUI_TM_NORMAL);
 549:main_cm4.c    ****     GUI_SetTextStyle(GUI_TS_NORMAL);
 550:main_cm4.c    **** 
 551:main_cm4.c    ****     /* Clear the screen */
 552:main_cm4.c    ****     GUI_Clear();
 553:main_cm4.c    ****     
 554:main_cm4.c    ****     /* Display page title */
 555:main_cm4.c    ****     GUI_SetFont(GUI_FONT_13B_1);
 556:main_cm4.c    ****     GUI_SetTextAlign(GUI_TA_HCENTER);
 557:main_cm4.c    ****     GUI_DispStringAt("Users Profile - click one to add", 132, 5);
 558:main_cm4.c    **** 
 559:main_cm4.c    ****     /* Update the display */
 560:main_cm4.c    ****     UpdateDisplay(CY_EINK_PARTIAL, true);
 561:main_cm4.c    ****     
 562:main_cm4.c    ****     while(Status_Button1_Read() != 0 && Status_Button2_Read() != 0);
 563:main_cm4.c    ****     
 564:main_cm4.c    ****     bool btn1_Pressed = false;
 565:main_cm4.c    ****     bool btn2_Pressed = false;
 566:main_cm4.c    ****     
 567:main_cm4.c    ****     while(Status_Button1_Read() == 0)
 568:main_cm4.c    ****     {
 569:main_cm4.c    ****         btn1_Pressed = true;
 570:main_cm4.c    ****     }
 571:main_cm4.c    ****     while (Status_Button2_Read() == 0)
 572:main_cm4.c    ****     {
 573:main_cm4.c    ****         btn2_Pressed = true;
 574:main_cm4.c    ****     }
 575:main_cm4.c    ****     
 576:main_cm4.c    ****     if(btn1_Pressed)
 577:main_cm4.c    ****     {
 578:main_cm4.c    ****         AddNew();
 579:main_cm4.c    ****     }
 580:main_cm4.c    ****     else if(btn2_Pressed)
 581:main_cm4.c    ****     {
 582:main_cm4.c    ****         modeSwitch = 0;
 583:main_cm4.c    ****         which_data_table = 0;
 584:main_cm4.c    ****     }
 585:main_cm4.c    **** }
 586:main_cm4.c    **** 
 587:main_cm4.c    **** void TimerInterruptHandler(void)
 588:main_cm4.c    **** {
  81              		.loc 1 588 0
  82              		.cfi_startproc
  83              		@ args = 0, pretend = 0, frame = 0
  84              		@ frame_needed = 0, uses_anonymous_args = 0
  85 0000 38B5     		push	{r3, r4, r5, lr}
  86              		.cfi_def_cfa_offset 16
  87              		.cfi_offset 3, -16
  88              		.cfi_offset 4, -12
  89              		.cfi_offset 5, -8
  90              		.cfi_offset 14, -4
  91              	.LVL7:
  92              	.LBB23:
  93              	.LBB24:
  94              		.file 2 "Generated_Source\\PSoC6\\pdl\\drivers/peripheral/tcpwm/cy_tcpwm.h"
   1:Generated_Source\PSoC6\pdl\drivers/peripheral/tcpwm/cy_tcpwm.h **** /***************************************************************************//**
   2:Generated_Source\PSoC6\pdl\drivers/peripheral/tcpwm/cy_tcpwm.h **** * \file cy_tcpwm.h
ARM GAS  C:\Users\rober\AppData\Local\Temp\ccaShyPv.s 			page 13


   3:Generated_Source\PSoC6\pdl\drivers/peripheral/tcpwm/cy_tcpwm.h **** * \version 1.0.1
   4:Generated_Source\PSoC6\pdl\drivers/peripheral/tcpwm/cy_tcpwm.h **** *
   5:Generated_Source\PSoC6\pdl\drivers/peripheral/tcpwm/cy_tcpwm.h **** * The header file of the TCPWM driver.
   6:Generated_Source\PSoC6\pdl\drivers/peripheral/tcpwm/cy_tcpwm.h **** *
   7:Generated_Source\PSoC6\pdl\drivers/peripheral/tcpwm/cy_tcpwm.h **** ********************************************************************************
   8:Generated_Source\PSoC6\pdl\drivers/peripheral/tcpwm/cy_tcpwm.h **** * \copyright
   9:Generated_Source\PSoC6\pdl\drivers/peripheral/tcpwm/cy_tcpwm.h **** * Copyright 2016-2018, Cypress Semiconductor Corporation. All rights reserved.
  10:Generated_Source\PSoC6\pdl\drivers/peripheral/tcpwm/cy_tcpwm.h **** * You may use this file only in accordance with the license, terms, conditions,
  11:Generated_Source\PSoC6\pdl\drivers/peripheral/tcpwm/cy_tcpwm.h **** * disclaimers, and limitations in the end user license agreement accompanying
  12:Generated_Source\PSoC6\pdl\drivers/peripheral/tcpwm/cy_tcpwm.h **** * the software package with which this file was provided.
  13:Generated_Source\PSoC6\pdl\drivers/peripheral/tcpwm/cy_tcpwm.h **** *******************************************************************************/
  14:Generated_Source\PSoC6\pdl\drivers/peripheral/tcpwm/cy_tcpwm.h **** 
  15:Generated_Source\PSoC6\pdl\drivers/peripheral/tcpwm/cy_tcpwm.h **** /**
  16:Generated_Source\PSoC6\pdl\drivers/peripheral/tcpwm/cy_tcpwm.h **** * \defgroup group_tcpwm Timer Counter PWM (TCPWM)
  17:Generated_Source\PSoC6\pdl\drivers/peripheral/tcpwm/cy_tcpwm.h **** * \{
  18:Generated_Source\PSoC6\pdl\drivers/peripheral/tcpwm/cy_tcpwm.h **** * \defgroup group_tcpwm_common  Common
  19:Generated_Source\PSoC6\pdl\drivers/peripheral/tcpwm/cy_tcpwm.h **** * \defgroup group_tcpwm_counter Timer/Counter (TCPWM)
  20:Generated_Source\PSoC6\pdl\drivers/peripheral/tcpwm/cy_tcpwm.h **** * \defgroup group_tcpwm_pwm     PWM (TCPWM)
  21:Generated_Source\PSoC6\pdl\drivers/peripheral/tcpwm/cy_tcpwm.h **** * \defgroup group_tcpwm_quaddec Quadrature Decoder (TCPWM)
  22:Generated_Source\PSoC6\pdl\drivers/peripheral/tcpwm/cy_tcpwm.h **** * \} */
  23:Generated_Source\PSoC6\pdl\drivers/peripheral/tcpwm/cy_tcpwm.h **** 
  24:Generated_Source\PSoC6\pdl\drivers/peripheral/tcpwm/cy_tcpwm.h **** /**
  25:Generated_Source\PSoC6\pdl\drivers/peripheral/tcpwm/cy_tcpwm.h **** * \addtogroup group_tcpwm
  26:Generated_Source\PSoC6\pdl\drivers/peripheral/tcpwm/cy_tcpwm.h **** * \{
  27:Generated_Source\PSoC6\pdl\drivers/peripheral/tcpwm/cy_tcpwm.h **** * 
  28:Generated_Source\PSoC6\pdl\drivers/peripheral/tcpwm/cy_tcpwm.h **** * The TCPWM driver is a multifunction driver that implements Timer Counter, 
  29:Generated_Source\PSoC6\pdl\drivers/peripheral/tcpwm/cy_tcpwm.h **** * PWM, and Quadrature Decoder functionality using the TCPWM block.
  30:Generated_Source\PSoC6\pdl\drivers/peripheral/tcpwm/cy_tcpwm.h **** *
  31:Generated_Source\PSoC6\pdl\drivers/peripheral/tcpwm/cy_tcpwm.h **** * Each TCPWM block is a collection of counters that can all be triggered 
  32:Generated_Source\PSoC6\pdl\drivers/peripheral/tcpwm/cy_tcpwm.h **** * simultaneously. For each function call, the base register address of 
  33:Generated_Source\PSoC6\pdl\drivers/peripheral/tcpwm/cy_tcpwm.h **** * the TCPWM being used must be passed first, followed by the index of 
  34:Generated_Source\PSoC6\pdl\drivers/peripheral/tcpwm/cy_tcpwm.h **** * the counter you want to touch next. 
  35:Generated_Source\PSoC6\pdl\drivers/peripheral/tcpwm/cy_tcpwm.h **** * For some functions, you can manage multiple counters simultaneously. You 
  36:Generated_Source\PSoC6\pdl\drivers/peripheral/tcpwm/cy_tcpwm.h **** * provide a bit field representing each counter, rather than the single counter 
  37:Generated_Source\PSoC6\pdl\drivers/peripheral/tcpwm/cy_tcpwm.h **** * index). 
  38:Generated_Source\PSoC6\pdl\drivers/peripheral/tcpwm/cy_tcpwm.h **** *
  39:Generated_Source\PSoC6\pdl\drivers/peripheral/tcpwm/cy_tcpwm.h **** * The TCPWM supports three operating modes:
  40:Generated_Source\PSoC6\pdl\drivers/peripheral/tcpwm/cy_tcpwm.h **** * * Timer/Counter
  41:Generated_Source\PSoC6\pdl\drivers/peripheral/tcpwm/cy_tcpwm.h **** * * PWM
  42:Generated_Source\PSoC6\pdl\drivers/peripheral/tcpwm/cy_tcpwm.h **** * * Quadrature Decoder
  43:Generated_Source\PSoC6\pdl\drivers/peripheral/tcpwm/cy_tcpwm.h **** *
  44:Generated_Source\PSoC6\pdl\drivers/peripheral/tcpwm/cy_tcpwm.h **** * \n
  45:Generated_Source\PSoC6\pdl\drivers/peripheral/tcpwm/cy_tcpwm.h **** * \b Timer/Counter
  46:Generated_Source\PSoC6\pdl\drivers/peripheral/tcpwm/cy_tcpwm.h **** *
  47:Generated_Source\PSoC6\pdl\drivers/peripheral/tcpwm/cy_tcpwm.h **** * Use this mode whenever a specific timing interval or measurement is 
  48:Generated_Source\PSoC6\pdl\drivers/peripheral/tcpwm/cy_tcpwm.h **** * needed. Examples include:
  49:Generated_Source\PSoC6\pdl\drivers/peripheral/tcpwm/cy_tcpwm.h **** * * Creating a periodic interrupt for running other system tasks
  50:Generated_Source\PSoC6\pdl\drivers/peripheral/tcpwm/cy_tcpwm.h **** * * Measuring frequency of an input signal
  51:Generated_Source\PSoC6\pdl\drivers/peripheral/tcpwm/cy_tcpwm.h **** * * Measuring pulse width of an input signal
  52:Generated_Source\PSoC6\pdl\drivers/peripheral/tcpwm/cy_tcpwm.h **** * * Measuring time between two external events
  53:Generated_Source\PSoC6\pdl\drivers/peripheral/tcpwm/cy_tcpwm.h **** * * Counting events
  54:Generated_Source\PSoC6\pdl\drivers/peripheral/tcpwm/cy_tcpwm.h **** * * Triggering other system resources after x number events
  55:Generated_Source\PSoC6\pdl\drivers/peripheral/tcpwm/cy_tcpwm.h **** * * Capturing time stamps when events occur
  56:Generated_Source\PSoC6\pdl\drivers/peripheral/tcpwm/cy_tcpwm.h **** *
  57:Generated_Source\PSoC6\pdl\drivers/peripheral/tcpwm/cy_tcpwm.h **** * The Timer/Counter has the following features:
  58:Generated_Source\PSoC6\pdl\drivers/peripheral/tcpwm/cy_tcpwm.h **** * * 16- or 32-bit Timer/Counter
  59:Generated_Source\PSoC6\pdl\drivers/peripheral/tcpwm/cy_tcpwm.h **** * * Programmable Period Register
ARM GAS  C:\Users\rober\AppData\Local\Temp\ccaShyPv.s 			page 14


  60:Generated_Source\PSoC6\pdl\drivers/peripheral/tcpwm/cy_tcpwm.h **** * * Programmable Compare Register. Compare value can be swapped with a 
  61:Generated_Source\PSoC6\pdl\drivers/peripheral/tcpwm/cy_tcpwm.h **** * buffered compare value on comparison event
  62:Generated_Source\PSoC6\pdl\drivers/peripheral/tcpwm/cy_tcpwm.h **** * * Capture with buffer register
  63:Generated_Source\PSoC6\pdl\drivers/peripheral/tcpwm/cy_tcpwm.h **** * * Count Up, Count Down, or Count Up and Down Counting modes
  64:Generated_Source\PSoC6\pdl\drivers/peripheral/tcpwm/cy_tcpwm.h **** * * Continuous or One Shot Run modes
  65:Generated_Source\PSoC6\pdl\drivers/peripheral/tcpwm/cy_tcpwm.h **** * * Interrupt and Output on Overflow, Underflow, Capture, or Compare 
  66:Generated_Source\PSoC6\pdl\drivers/peripheral/tcpwm/cy_tcpwm.h **** * * Start, Reload, Stop, Capture, and Count Inputs
  67:Generated_Source\PSoC6\pdl\drivers/peripheral/tcpwm/cy_tcpwm.h **** *
  68:Generated_Source\PSoC6\pdl\drivers/peripheral/tcpwm/cy_tcpwm.h **** * \n
  69:Generated_Source\PSoC6\pdl\drivers/peripheral/tcpwm/cy_tcpwm.h **** * \b PWM
  70:Generated_Source\PSoC6\pdl\drivers/peripheral/tcpwm/cy_tcpwm.h **** *
  71:Generated_Source\PSoC6\pdl\drivers/peripheral/tcpwm/cy_tcpwm.h **** * Use this mode when an output square wave is needed with a specific 
  72:Generated_Source\PSoC6\pdl\drivers/peripheral/tcpwm/cy_tcpwm.h **** * period and duty cycle, such as:
  73:Generated_Source\PSoC6\pdl\drivers/peripheral/tcpwm/cy_tcpwm.h **** * * Creating arbitrary square wave outputs
  74:Generated_Source\PSoC6\pdl\drivers/peripheral/tcpwm/cy_tcpwm.h **** * * Driving an LED (changing the brightness)
  75:Generated_Source\PSoC6\pdl\drivers/peripheral/tcpwm/cy_tcpwm.h **** * * Driving Motors (dead time assertion available)
  76:Generated_Source\PSoC6\pdl\drivers/peripheral/tcpwm/cy_tcpwm.h **** *
  77:Generated_Source\PSoC6\pdl\drivers/peripheral/tcpwm/cy_tcpwm.h **** * The PWM has the following features:
  78:Generated_Source\PSoC6\pdl\drivers/peripheral/tcpwm/cy_tcpwm.h **** * * 16- or 32-bit Counter
  79:Generated_Source\PSoC6\pdl\drivers/peripheral/tcpwm/cy_tcpwm.h **** * * Two Programmable Period registers that can be swapped
  80:Generated_Source\PSoC6\pdl\drivers/peripheral/tcpwm/cy_tcpwm.h **** * * Two Output Compare registers that can be swapped on overflow and/or 
  81:Generated_Source\PSoC6\pdl\drivers/peripheral/tcpwm/cy_tcpwm.h **** * underflow
  82:Generated_Source\PSoC6\pdl\drivers/peripheral/tcpwm/cy_tcpwm.h **** * * Left Aligned, Right Aligned, Center Aligned, and Asymmetric Aligned modes
  83:Generated_Source\PSoC6\pdl\drivers/peripheral/tcpwm/cy_tcpwm.h **** * * Continuous or One Shot run modes
  84:Generated_Source\PSoC6\pdl\drivers/peripheral/tcpwm/cy_tcpwm.h **** * * Pseudo Random mode
  85:Generated_Source\PSoC6\pdl\drivers/peripheral/tcpwm/cy_tcpwm.h **** * * Two PWM outputs with Dead Time insertion, and programmable polarity
  86:Generated_Source\PSoC6\pdl\drivers/peripheral/tcpwm/cy_tcpwm.h **** * * Interrupt and Output on Overflow, Underflow, or Compare 
  87:Generated_Source\PSoC6\pdl\drivers/peripheral/tcpwm/cy_tcpwm.h **** * * Start, Reload, Stop, Swap (Capture), and Count Inputs
  88:Generated_Source\PSoC6\pdl\drivers/peripheral/tcpwm/cy_tcpwm.h **** * * Multiple Components can be synchronized together for applications 
  89:Generated_Source\PSoC6\pdl\drivers/peripheral/tcpwm/cy_tcpwm.h **** * such as three phase motor control
  90:Generated_Source\PSoC6\pdl\drivers/peripheral/tcpwm/cy_tcpwm.h **** *
  91:Generated_Source\PSoC6\pdl\drivers/peripheral/tcpwm/cy_tcpwm.h **** * \n
  92:Generated_Source\PSoC6\pdl\drivers/peripheral/tcpwm/cy_tcpwm.h **** * \b Quadrature \b Decoder
  93:Generated_Source\PSoC6\pdl\drivers/peripheral/tcpwm/cy_tcpwm.h **** *
  94:Generated_Source\PSoC6\pdl\drivers/peripheral/tcpwm/cy_tcpwm.h **** * A quadrature decoder is used to decode the output of a quadrature encoder. 
  95:Generated_Source\PSoC6\pdl\drivers/peripheral/tcpwm/cy_tcpwm.h **** * A quadrature encoder senses the position, velocity, and direction of 
  96:Generated_Source\PSoC6\pdl\drivers/peripheral/tcpwm/cy_tcpwm.h **** * an object (for example a rotating axle, or a spinning mouse ball). 
  97:Generated_Source\PSoC6\pdl\drivers/peripheral/tcpwm/cy_tcpwm.h **** * A quadrature decoder can also be used for precision measurement of speed, 
  98:Generated_Source\PSoC6\pdl\drivers/peripheral/tcpwm/cy_tcpwm.h **** * acceleration, and position of a motor's rotor, or with a rotary switch to 
  99:Generated_Source\PSoC6\pdl\drivers/peripheral/tcpwm/cy_tcpwm.h **** * determine user input. \n
 100:Generated_Source\PSoC6\pdl\drivers/peripheral/tcpwm/cy_tcpwm.h **** * 
 101:Generated_Source\PSoC6\pdl\drivers/peripheral/tcpwm/cy_tcpwm.h **** * The Quadrature Decoder has the following features:
 102:Generated_Source\PSoC6\pdl\drivers/peripheral/tcpwm/cy_tcpwm.h **** * * 16- or 32-bit Counter
 103:Generated_Source\PSoC6\pdl\drivers/peripheral/tcpwm/cy_tcpwm.h **** * * Counter Resolution of x1, x2, and x4 the frequency of the phiA (Count) and 
 104:Generated_Source\PSoC6\pdl\drivers/peripheral/tcpwm/cy_tcpwm.h **** * phiB (Start) inputs
 105:Generated_Source\PSoC6\pdl\drivers/peripheral/tcpwm/cy_tcpwm.h **** * * Index Input to determine absolute position
 106:Generated_Source\PSoC6\pdl\drivers/peripheral/tcpwm/cy_tcpwm.h **** * * A positive edge on phiA increments the counter when phiB is 0 and decrements
 107:Generated_Source\PSoC6\pdl\drivers/peripheral/tcpwm/cy_tcpwm.h **** * the counter when phiB is 1
 108:Generated_Source\PSoC6\pdl\drivers/peripheral/tcpwm/cy_tcpwm.h **** *
 109:Generated_Source\PSoC6\pdl\drivers/peripheral/tcpwm/cy_tcpwm.h **** * \section group_tcpwm_configuration Configuration Considerations
 110:Generated_Source\PSoC6\pdl\drivers/peripheral/tcpwm/cy_tcpwm.h **** *
 111:Generated_Source\PSoC6\pdl\drivers/peripheral/tcpwm/cy_tcpwm.h **** * For each mode, the TCPWM driver has a configuration structure, an Init 
 112:Generated_Source\PSoC6\pdl\drivers/peripheral/tcpwm/cy_tcpwm.h **** * function, and an Enable function. 
 113:Generated_Source\PSoC6\pdl\drivers/peripheral/tcpwm/cy_tcpwm.h **** *
 114:Generated_Source\PSoC6\pdl\drivers/peripheral/tcpwm/cy_tcpwm.h **** * Provide the configuration parameters in the appropriate structure (see
 115:Generated_Source\PSoC6\pdl\drivers/peripheral/tcpwm/cy_tcpwm.h **** * Counter \ref group_tcpwm_data_structures_counter, PWM 
 116:Generated_Source\PSoC6\pdl\drivers/peripheral/tcpwm/cy_tcpwm.h **** * \ref group_tcpwm_data_structures_pwm, or QuadDec 
ARM GAS  C:\Users\rober\AppData\Local\Temp\ccaShyPv.s 			page 15


 117:Generated_Source\PSoC6\pdl\drivers/peripheral/tcpwm/cy_tcpwm.h **** * \ref group_tcpwm_data_structures_quaddec). 
 118:Generated_Source\PSoC6\pdl\drivers/peripheral/tcpwm/cy_tcpwm.h **** * Then call the appropriate Init function: 
 119:Generated_Source\PSoC6\pdl\drivers/peripheral/tcpwm/cy_tcpwm.h **** * \ref Cy_TCPWM_Counter_Init, \ref Cy_TCPWM_PWM_Init, or 
 120:Generated_Source\PSoC6\pdl\drivers/peripheral/tcpwm/cy_tcpwm.h **** * \ref Cy_TCPWM_QuadDec_Init. Provide the address of the filled structure as a 
 121:Generated_Source\PSoC6\pdl\drivers/peripheral/tcpwm/cy_tcpwm.h **** * parameter. To enable the counter, call the appropriate Enable function: 
 122:Generated_Source\PSoC6\pdl\drivers/peripheral/tcpwm/cy_tcpwm.h **** * \ref Cy_TCPWM_Counter_Enable, \ref Cy_TCPWM_PWM_Enable, or 
 123:Generated_Source\PSoC6\pdl\drivers/peripheral/tcpwm/cy_tcpwm.h **** * \ref Cy_TCPWM_QuadDec_Enable).
 124:Generated_Source\PSoC6\pdl\drivers/peripheral/tcpwm/cy_tcpwm.h **** *
 125:Generated_Source\PSoC6\pdl\drivers/peripheral/tcpwm/cy_tcpwm.h **** * Many functions work with an individual counter. You can also manage multiple 
 126:Generated_Source\PSoC6\pdl\drivers/peripheral/tcpwm/cy_tcpwm.h **** * counters simultaneously for certain functions. These are listed in the 
 127:Generated_Source\PSoC6\pdl\drivers/peripheral/tcpwm/cy_tcpwm.h **** * \ref group_tcpwm_functions_common 
 128:Generated_Source\PSoC6\pdl\drivers/peripheral/tcpwm/cy_tcpwm.h **** * section of the TCPWM. You can enable, disable, or trigger (in various ways) 
 129:Generated_Source\PSoC6\pdl\drivers/peripheral/tcpwm/cy_tcpwm.h **** * multiple counters simultaneously. For these functions you provide a bit field 
 130:Generated_Source\PSoC6\pdl\drivers/peripheral/tcpwm/cy_tcpwm.h **** * representing each counter in the TCPWM you want to control. You can 
 131:Generated_Source\PSoC6\pdl\drivers/peripheral/tcpwm/cy_tcpwm.h **** * represent the bit field as an ORed mask of each counter, like 
 132:Generated_Source\PSoC6\pdl\drivers/peripheral/tcpwm/cy_tcpwm.h **** * ((1U << cntNumX) | (1U << cntNumX) | (1U << cntNumX)), where X is the counter 
 133:Generated_Source\PSoC6\pdl\drivers/peripheral/tcpwm/cy_tcpwm.h **** * number from 0 to 31.
 134:Generated_Source\PSoC6\pdl\drivers/peripheral/tcpwm/cy_tcpwm.h **** *
 135:Generated_Source\PSoC6\pdl\drivers/peripheral/tcpwm/cy_tcpwm.h **** * \note
 136:Generated_Source\PSoC6\pdl\drivers/peripheral/tcpwm/cy_tcpwm.h **** * * If none of the input terminals (start, reload(index)) are used, the 
 137:Generated_Source\PSoC6\pdl\drivers/peripheral/tcpwm/cy_tcpwm.h **** * software event \ref Cy_TCPWM_TriggerStart or 
 138:Generated_Source\PSoC6\pdl\drivers/peripheral/tcpwm/cy_tcpwm.h **** * \ref Cy_TCPWM_TriggerReloadOrIndex must be called to start the counting.
 139:Generated_Source\PSoC6\pdl\drivers/peripheral/tcpwm/cy_tcpwm.h **** * * If count input terminal is not used, the \ref CY_TCPWM_INPUT_LEVEL macro 
 140:Generated_Source\PSoC6\pdl\drivers/peripheral/tcpwm/cy_tcpwm.h **** * should be set for the countInputMode parameter and the \ref CY_TCPWM_INPUT_1 
 141:Generated_Source\PSoC6\pdl\drivers/peripheral/tcpwm/cy_tcpwm.h **** * macro should be set for the countInputMode parameter in the configuration 
 142:Generated_Source\PSoC6\pdl\drivers/peripheral/tcpwm/cy_tcpwm.h **** * structure of the appropriate mode(Counter 
 143:Generated_Source\PSoC6\pdl\drivers/peripheral/tcpwm/cy_tcpwm.h **** * \ref group_tcpwm_data_structures_counter, PWM 
 144:Generated_Source\PSoC6\pdl\drivers/peripheral/tcpwm/cy_tcpwm.h **** * \ref group_tcpwm_data_structures_pwm, or QuadDec 
 145:Generated_Source\PSoC6\pdl\drivers/peripheral/tcpwm/cy_tcpwm.h **** * \ref group_tcpwm_data_structures_quaddec).
 146:Generated_Source\PSoC6\pdl\drivers/peripheral/tcpwm/cy_tcpwm.h **** *
 147:Generated_Source\PSoC6\pdl\drivers/peripheral/tcpwm/cy_tcpwm.h **** * \section group_tcpwm_more_information More Information
 148:Generated_Source\PSoC6\pdl\drivers/peripheral/tcpwm/cy_tcpwm.h **** *
 149:Generated_Source\PSoC6\pdl\drivers/peripheral/tcpwm/cy_tcpwm.h **** * For more information on the TCPWM peripheral, refer to the technical 
 150:Generated_Source\PSoC6\pdl\drivers/peripheral/tcpwm/cy_tcpwm.h **** * reference manual (TRM).
 151:Generated_Source\PSoC6\pdl\drivers/peripheral/tcpwm/cy_tcpwm.h **** *
 152:Generated_Source\PSoC6\pdl\drivers/peripheral/tcpwm/cy_tcpwm.h **** * \section group_tcpwm_MISRA MISRA-C Compliance 
 153:Generated_Source\PSoC6\pdl\drivers/peripheral/tcpwm/cy_tcpwm.h **** * <table class="doxtable">
 154:Generated_Source\PSoC6\pdl\drivers/peripheral/tcpwm/cy_tcpwm.h **** *   <tr>
 155:Generated_Source\PSoC6\pdl\drivers/peripheral/tcpwm/cy_tcpwm.h **** *     <th>MISRA Rule</th>
 156:Generated_Source\PSoC6\pdl\drivers/peripheral/tcpwm/cy_tcpwm.h **** *     <th>Rule Class (Required/Advisory)</th>
 157:Generated_Source\PSoC6\pdl\drivers/peripheral/tcpwm/cy_tcpwm.h **** *     <th>Rule Description</th>
 158:Generated_Source\PSoC6\pdl\drivers/peripheral/tcpwm/cy_tcpwm.h **** *     <th>Description of Deviation(s)</th>
 159:Generated_Source\PSoC6\pdl\drivers/peripheral/tcpwm/cy_tcpwm.h **** *   </tr>
 160:Generated_Source\PSoC6\pdl\drivers/peripheral/tcpwm/cy_tcpwm.h **** *   <tr>
 161:Generated_Source\PSoC6\pdl\drivers/peripheral/tcpwm/cy_tcpwm.h **** *     <td>14.2</td>
 162:Generated_Source\PSoC6\pdl\drivers/peripheral/tcpwm/cy_tcpwm.h **** *     <td>R</td>
 163:Generated_Source\PSoC6\pdl\drivers/peripheral/tcpwm/cy_tcpwm.h **** *     <td>All non-null statements shall either: a) have at least one side-effect
 164:Generated_Source\PSoC6\pdl\drivers/peripheral/tcpwm/cy_tcpwm.h **** *         however executed, or b) cause control flow to change.</td>
 165:Generated_Source\PSoC6\pdl\drivers/peripheral/tcpwm/cy_tcpwm.h **** *     <td>The unused function parameters are cast to void. This statement
 166:Generated_Source\PSoC6\pdl\drivers/peripheral/tcpwm/cy_tcpwm.h **** *         has no side-effect and is used to suppress a compiler warning.</td>
 167:Generated_Source\PSoC6\pdl\drivers/peripheral/tcpwm/cy_tcpwm.h **** *   </tr>
 168:Generated_Source\PSoC6\pdl\drivers/peripheral/tcpwm/cy_tcpwm.h **** * </table>
 169:Generated_Source\PSoC6\pdl\drivers/peripheral/tcpwm/cy_tcpwm.h **** *
 170:Generated_Source\PSoC6\pdl\drivers/peripheral/tcpwm/cy_tcpwm.h **** * \section group_tcpwm_changelog Changelog
 171:Generated_Source\PSoC6\pdl\drivers/peripheral/tcpwm/cy_tcpwm.h **** * <table class="doxtable">
 172:Generated_Source\PSoC6\pdl\drivers/peripheral/tcpwm/cy_tcpwm.h **** *   <tr><th>Version</th><th>Changes</th><th>Reason for Change</th></tr>
 173:Generated_Source\PSoC6\pdl\drivers/peripheral/tcpwm/cy_tcpwm.h **** *   <tr>
ARM GAS  C:\Users\rober\AppData\Local\Temp\ccaShyPv.s 			page 16


 174:Generated_Source\PSoC6\pdl\drivers/peripheral/tcpwm/cy_tcpwm.h **** *     <td>1.0.1</td>
 175:Generated_Source\PSoC6\pdl\drivers/peripheral/tcpwm/cy_tcpwm.h **** *     <td>Added a deviation to the MISRA Compliance section.
 176:Generated_Source\PSoC6\pdl\drivers/peripheral/tcpwm/cy_tcpwm.h **** *         Added function-level code snippets.</td>
 177:Generated_Source\PSoC6\pdl\drivers/peripheral/tcpwm/cy_tcpwm.h **** *     <td>Documentation update and clarification</td>
 178:Generated_Source\PSoC6\pdl\drivers/peripheral/tcpwm/cy_tcpwm.h **** *   </tr>
 179:Generated_Source\PSoC6\pdl\drivers/peripheral/tcpwm/cy_tcpwm.h **** *   <tr>
 180:Generated_Source\PSoC6\pdl\drivers/peripheral/tcpwm/cy_tcpwm.h **** *     <td>1.0</td>
 181:Generated_Source\PSoC6\pdl\drivers/peripheral/tcpwm/cy_tcpwm.h **** *     <td>Initial version</td>
 182:Generated_Source\PSoC6\pdl\drivers/peripheral/tcpwm/cy_tcpwm.h **** *     <td></td>
 183:Generated_Source\PSoC6\pdl\drivers/peripheral/tcpwm/cy_tcpwm.h **** *   </tr>
 184:Generated_Source\PSoC6\pdl\drivers/peripheral/tcpwm/cy_tcpwm.h **** * </table>
 185:Generated_Source\PSoC6\pdl\drivers/peripheral/tcpwm/cy_tcpwm.h **** */
 186:Generated_Source\PSoC6\pdl\drivers/peripheral/tcpwm/cy_tcpwm.h **** 
 187:Generated_Source\PSoC6\pdl\drivers/peripheral/tcpwm/cy_tcpwm.h **** /** \} group_tcpwm */
 188:Generated_Source\PSoC6\pdl\drivers/peripheral/tcpwm/cy_tcpwm.h **** 
 189:Generated_Source\PSoC6\pdl\drivers/peripheral/tcpwm/cy_tcpwm.h **** /**
 190:Generated_Source\PSoC6\pdl\drivers/peripheral/tcpwm/cy_tcpwm.h **** * \addtogroup group_tcpwm_common
 191:Generated_Source\PSoC6\pdl\drivers/peripheral/tcpwm/cy_tcpwm.h **** * Common API for the Timer Counter PWM Block.
 192:Generated_Source\PSoC6\pdl\drivers/peripheral/tcpwm/cy_tcpwm.h **** * \{
 193:Generated_Source\PSoC6\pdl\drivers/peripheral/tcpwm/cy_tcpwm.h **** * \defgroup group_tcpwm_macros_common           Macros
 194:Generated_Source\PSoC6\pdl\drivers/peripheral/tcpwm/cy_tcpwm.h **** * \defgroup group_tcpwm_functions_common        Functions
 195:Generated_Source\PSoC6\pdl\drivers/peripheral/tcpwm/cy_tcpwm.h **** * \defgroup group_tcpwm_data_structures_common  Data Structures
 196:Generated_Source\PSoC6\pdl\drivers/peripheral/tcpwm/cy_tcpwm.h **** * \defgroup group_tcpwm_enums Enumerated Types
 197:Generated_Source\PSoC6\pdl\drivers/peripheral/tcpwm/cy_tcpwm.h **** */
 198:Generated_Source\PSoC6\pdl\drivers/peripheral/tcpwm/cy_tcpwm.h **** 
 199:Generated_Source\PSoC6\pdl\drivers/peripheral/tcpwm/cy_tcpwm.h **** 
 200:Generated_Source\PSoC6\pdl\drivers/peripheral/tcpwm/cy_tcpwm.h **** #if !defined(CY_TCPWM_H)
 201:Generated_Source\PSoC6\pdl\drivers/peripheral/tcpwm/cy_tcpwm.h **** #define CY_TCPWM_H
 202:Generated_Source\PSoC6\pdl\drivers/peripheral/tcpwm/cy_tcpwm.h **** 
 203:Generated_Source\PSoC6\pdl\drivers/peripheral/tcpwm/cy_tcpwm.h **** #include <stdint.h>
 204:Generated_Source\PSoC6\pdl\drivers/peripheral/tcpwm/cy_tcpwm.h **** #include <stdbool.h>
 205:Generated_Source\PSoC6\pdl\drivers/peripheral/tcpwm/cy_tcpwm.h **** #include <stddef.h>
 206:Generated_Source\PSoC6\pdl\drivers/peripheral/tcpwm/cy_tcpwm.h **** #include "syslib/cy_syslib.h"
 207:Generated_Source\PSoC6\pdl\drivers/peripheral/tcpwm/cy_tcpwm.h **** #include "cy_device_headers.h"
 208:Generated_Source\PSoC6\pdl\drivers/peripheral/tcpwm/cy_tcpwm.h **** 
 209:Generated_Source\PSoC6\pdl\drivers/peripheral/tcpwm/cy_tcpwm.h **** #ifndef CY_IP_MXTCPWM
 210:Generated_Source\PSoC6\pdl\drivers/peripheral/tcpwm/cy_tcpwm.h ****     #error "The TCPWM driver is not supported on this device"
 211:Generated_Source\PSoC6\pdl\drivers/peripheral/tcpwm/cy_tcpwm.h **** #endif
 212:Generated_Source\PSoC6\pdl\drivers/peripheral/tcpwm/cy_tcpwm.h **** 
 213:Generated_Source\PSoC6\pdl\drivers/peripheral/tcpwm/cy_tcpwm.h **** #if defined(__cplusplus)
 214:Generated_Source\PSoC6\pdl\drivers/peripheral/tcpwm/cy_tcpwm.h **** extern "C" {
 215:Generated_Source\PSoC6\pdl\drivers/peripheral/tcpwm/cy_tcpwm.h **** #endif
 216:Generated_Source\PSoC6\pdl\drivers/peripheral/tcpwm/cy_tcpwm.h **** 
 217:Generated_Source\PSoC6\pdl\drivers/peripheral/tcpwm/cy_tcpwm.h **** /**
 218:Generated_Source\PSoC6\pdl\drivers/peripheral/tcpwm/cy_tcpwm.h **** * \addtogroup group_tcpwm_macros_common
 219:Generated_Source\PSoC6\pdl\drivers/peripheral/tcpwm/cy_tcpwm.h **** * \{
 220:Generated_Source\PSoC6\pdl\drivers/peripheral/tcpwm/cy_tcpwm.h **** */
 221:Generated_Source\PSoC6\pdl\drivers/peripheral/tcpwm/cy_tcpwm.h **** 
 222:Generated_Source\PSoC6\pdl\drivers/peripheral/tcpwm/cy_tcpwm.h **** /** Driver major version */
 223:Generated_Source\PSoC6\pdl\drivers/peripheral/tcpwm/cy_tcpwm.h **** #define CY_TCPWM_DRV_VERSION_MAJOR       1
 224:Generated_Source\PSoC6\pdl\drivers/peripheral/tcpwm/cy_tcpwm.h **** 
 225:Generated_Source\PSoC6\pdl\drivers/peripheral/tcpwm/cy_tcpwm.h **** /** Driver minor version */
 226:Generated_Source\PSoC6\pdl\drivers/peripheral/tcpwm/cy_tcpwm.h **** #define CY_TCPWM_DRV_VERSION_MINOR       0
 227:Generated_Source\PSoC6\pdl\drivers/peripheral/tcpwm/cy_tcpwm.h **** 
 228:Generated_Source\PSoC6\pdl\drivers/peripheral/tcpwm/cy_tcpwm.h **** 
 229:Generated_Source\PSoC6\pdl\drivers/peripheral/tcpwm/cy_tcpwm.h **** /******************************************************************************
 230:Generated_Source\PSoC6\pdl\drivers/peripheral/tcpwm/cy_tcpwm.h **** * API Constants
ARM GAS  C:\Users\rober\AppData\Local\Temp\ccaShyPv.s 			page 17


 231:Generated_Source\PSoC6\pdl\drivers/peripheral/tcpwm/cy_tcpwm.h **** ******************************************************************************/
 232:Generated_Source\PSoC6\pdl\drivers/peripheral/tcpwm/cy_tcpwm.h **** 
 233:Generated_Source\PSoC6\pdl\drivers/peripheral/tcpwm/cy_tcpwm.h **** /** TCPWM driver identifier */
 234:Generated_Source\PSoC6\pdl\drivers/peripheral/tcpwm/cy_tcpwm.h **** #define CY_TCPWM_ID                     (CY_PDL_DRV_ID(0x2DU))
 235:Generated_Source\PSoC6\pdl\drivers/peripheral/tcpwm/cy_tcpwm.h **** 
 236:Generated_Source\PSoC6\pdl\drivers/peripheral/tcpwm/cy_tcpwm.h **** /** \defgroup group_tcpwm_input_selection  TCPWM Input Selection
 237:Generated_Source\PSoC6\pdl\drivers/peripheral/tcpwm/cy_tcpwm.h **** * \{
 238:Generated_Source\PSoC6\pdl\drivers/peripheral/tcpwm/cy_tcpwm.h **** * Selects which input to use
 239:Generated_Source\PSoC6\pdl\drivers/peripheral/tcpwm/cy_tcpwm.h **** */
 240:Generated_Source\PSoC6\pdl\drivers/peripheral/tcpwm/cy_tcpwm.h **** #define CY_TCPWM_INPUT_0                (0U)  /**< Input is tied to logic 0 */
 241:Generated_Source\PSoC6\pdl\drivers/peripheral/tcpwm/cy_tcpwm.h **** #define CY_TCPWM_INPUT_1                (1U)  /**< Input is tied to logic 1 */
 242:Generated_Source\PSoC6\pdl\drivers/peripheral/tcpwm/cy_tcpwm.h **** #define CY_TCPWM_INPUT_TRIG_0           (2U)  /**< Input is connected to the trigger input 0 */
 243:Generated_Source\PSoC6\pdl\drivers/peripheral/tcpwm/cy_tcpwm.h **** #define CY_TCPWM_INPUT_TRIG_1           (3U)  /**< Input is connected to the trigger input 1 */
 244:Generated_Source\PSoC6\pdl\drivers/peripheral/tcpwm/cy_tcpwm.h **** #define CY_TCPWM_INPUT_TRIG_2           (4U)  /**< Input is connected to the trigger input 2 */
 245:Generated_Source\PSoC6\pdl\drivers/peripheral/tcpwm/cy_tcpwm.h **** #define CY_TCPWM_INPUT_TRIG_3           (5U)  /**< Input is connected to the trigger input 3 */
 246:Generated_Source\PSoC6\pdl\drivers/peripheral/tcpwm/cy_tcpwm.h **** #define CY_TCPWM_INPUT_TRIG_4           (6U)  /**< Input is connected to the trigger input 4 */
 247:Generated_Source\PSoC6\pdl\drivers/peripheral/tcpwm/cy_tcpwm.h **** #define CY_TCPWM_INPUT_TRIG_5           (7U)  /**< Input is connected to the trigger input 5 */
 248:Generated_Source\PSoC6\pdl\drivers/peripheral/tcpwm/cy_tcpwm.h **** #define CY_TCPWM_INPUT_TRIG_6           (8U)  /**< Input is connected to the trigger input 6 */
 249:Generated_Source\PSoC6\pdl\drivers/peripheral/tcpwm/cy_tcpwm.h **** #define CY_TCPWM_INPUT_TRIG_7           (9U)  /**< Input is connected to the trigger input 7 */
 250:Generated_Source\PSoC6\pdl\drivers/peripheral/tcpwm/cy_tcpwm.h **** #define CY_TCPWM_INPUT_TRIG_8           (10U) /**< Input is connected to the trigger input 8 */
 251:Generated_Source\PSoC6\pdl\drivers/peripheral/tcpwm/cy_tcpwm.h **** #define CY_TCPWM_INPUT_TRIG_9           (11U) /**< Input is connected to the trigger input 9 */
 252:Generated_Source\PSoC6\pdl\drivers/peripheral/tcpwm/cy_tcpwm.h **** #define CY_TCPWM_INPUT_TRIG_10          (12U) /**< Input is connected to the trigger input 10 */
 253:Generated_Source\PSoC6\pdl\drivers/peripheral/tcpwm/cy_tcpwm.h **** #define CY_TCPWM_INPUT_TRIG_11          (13U) /**< Input is connected to the trigger input 11 */
 254:Generated_Source\PSoC6\pdl\drivers/peripheral/tcpwm/cy_tcpwm.h **** #define CY_TCPWM_INPUT_TRIG_12          (14U) /**< Input is connected to the trigger input 12 */
 255:Generated_Source\PSoC6\pdl\drivers/peripheral/tcpwm/cy_tcpwm.h **** #define CY_TCPWM_INPUT_TRIG_13          (15U) /**< Input is connected to the trigger input 13 */
 256:Generated_Source\PSoC6\pdl\drivers/peripheral/tcpwm/cy_tcpwm.h **** 
 257:Generated_Source\PSoC6\pdl\drivers/peripheral/tcpwm/cy_tcpwm.h **** /** Input is defined by Creator, and Init() function does not need to configure input */
 258:Generated_Source\PSoC6\pdl\drivers/peripheral/tcpwm/cy_tcpwm.h **** #define CY_TCPWM_INPUT_CREATOR          (0xFFFFFFFFU)
 259:Generated_Source\PSoC6\pdl\drivers/peripheral/tcpwm/cy_tcpwm.h **** /** \} group_tcpwm_input_selection */
 260:Generated_Source\PSoC6\pdl\drivers/peripheral/tcpwm/cy_tcpwm.h **** 
 261:Generated_Source\PSoC6\pdl\drivers/peripheral/tcpwm/cy_tcpwm.h **** /**
 262:Generated_Source\PSoC6\pdl\drivers/peripheral/tcpwm/cy_tcpwm.h **** * \defgroup group_tcpwm_input_modes  Input Modes
 263:Generated_Source\PSoC6\pdl\drivers/peripheral/tcpwm/cy_tcpwm.h **** * \{
 264:Generated_Source\PSoC6\pdl\drivers/peripheral/tcpwm/cy_tcpwm.h **** * Configures how TCPWM inputs behave
 265:Generated_Source\PSoC6\pdl\drivers/peripheral/tcpwm/cy_tcpwm.h **** */
 266:Generated_Source\PSoC6\pdl\drivers/peripheral/tcpwm/cy_tcpwm.h **** /** A rising edge triggers the event (Capture, Start, Reload, etc..) */
 267:Generated_Source\PSoC6\pdl\drivers/peripheral/tcpwm/cy_tcpwm.h **** #define CY_TCPWM_INPUT_RISINGEDGE       (0U)
 268:Generated_Source\PSoC6\pdl\drivers/peripheral/tcpwm/cy_tcpwm.h **** /** A falling edge triggers the event (Capture, Start, Reload, etc..) */
 269:Generated_Source\PSoC6\pdl\drivers/peripheral/tcpwm/cy_tcpwm.h **** #define CY_TCPWM_INPUT_FALLINGEDGE      (1U)
 270:Generated_Source\PSoC6\pdl\drivers/peripheral/tcpwm/cy_tcpwm.h **** /** A rising edge or falling edge triggers the event (Capture, Start, Reload, etc..) */
 271:Generated_Source\PSoC6\pdl\drivers/peripheral/tcpwm/cy_tcpwm.h **** #define CY_TCPWM_INPUT_EITHEREDGE       (2U)
 272:Generated_Source\PSoC6\pdl\drivers/peripheral/tcpwm/cy_tcpwm.h **** /** The event is triggered on each edge of the TCPWM clock if the input is high */
 273:Generated_Source\PSoC6\pdl\drivers/peripheral/tcpwm/cy_tcpwm.h **** #define CY_TCPWM_INPUT_LEVEL            (3U)
 274:Generated_Source\PSoC6\pdl\drivers/peripheral/tcpwm/cy_tcpwm.h **** /** \} group_tcpwm_input_modes */
 275:Generated_Source\PSoC6\pdl\drivers/peripheral/tcpwm/cy_tcpwm.h **** 
 276:Generated_Source\PSoC6\pdl\drivers/peripheral/tcpwm/cy_tcpwm.h **** /**
 277:Generated_Source\PSoC6\pdl\drivers/peripheral/tcpwm/cy_tcpwm.h **** * \defgroup group_tcpwm_interrupt_sources  Interrupt Sources
 278:Generated_Source\PSoC6\pdl\drivers/peripheral/tcpwm/cy_tcpwm.h **** * \{
 279:Generated_Source\PSoC6\pdl\drivers/peripheral/tcpwm/cy_tcpwm.h **** * Interrupt Sources 
 280:Generated_Source\PSoC6\pdl\drivers/peripheral/tcpwm/cy_tcpwm.h **** */
 281:Generated_Source\PSoC6\pdl\drivers/peripheral/tcpwm/cy_tcpwm.h **** #define CY_TCPWM_INT_ON_TC              (1U) /**< Interrupt on Terminal count(TC) */
 282:Generated_Source\PSoC6\pdl\drivers/peripheral/tcpwm/cy_tcpwm.h **** #define CY_TCPWM_INT_ON_CC              (2U) /**< Interrupt on Compare/Capture(CC) */
 283:Generated_Source\PSoC6\pdl\drivers/peripheral/tcpwm/cy_tcpwm.h **** #define CY_TCPWM_INT_NONE               (0U) /**< No Interrupt */
 284:Generated_Source\PSoC6\pdl\drivers/peripheral/tcpwm/cy_tcpwm.h **** #define CY_TCPWM_INT_ON_CC_OR_TC        (3U) /**< Interrupt on TC or CC */
 285:Generated_Source\PSoC6\pdl\drivers/peripheral/tcpwm/cy_tcpwm.h **** /** \} group_tcpwm_interrupt_sources */
 286:Generated_Source\PSoC6\pdl\drivers/peripheral/tcpwm/cy_tcpwm.h **** 
 287:Generated_Source\PSoC6\pdl\drivers/peripheral/tcpwm/cy_tcpwm.h **** 
ARM GAS  C:\Users\rober\AppData\Local\Temp\ccaShyPv.s 			page 18


 288:Generated_Source\PSoC6\pdl\drivers/peripheral/tcpwm/cy_tcpwm.h **** /***************************************
 289:Generated_Source\PSoC6\pdl\drivers/peripheral/tcpwm/cy_tcpwm.h **** *        Registers Constants
 290:Generated_Source\PSoC6\pdl\drivers/peripheral/tcpwm/cy_tcpwm.h **** ***************************************/
 291:Generated_Source\PSoC6\pdl\drivers/peripheral/tcpwm/cy_tcpwm.h **** 
 292:Generated_Source\PSoC6\pdl\drivers/peripheral/tcpwm/cy_tcpwm.h **** /**
 293:Generated_Source\PSoC6\pdl\drivers/peripheral/tcpwm/cy_tcpwm.h **** * \defgroup group_tcpwm_reg_const Default registers constants
 294:Generated_Source\PSoC6\pdl\drivers/peripheral/tcpwm/cy_tcpwm.h **** * \{
 295:Generated_Source\PSoC6\pdl\drivers/peripheral/tcpwm/cy_tcpwm.h **** * Default constants for CNT Registers
 296:Generated_Source\PSoC6\pdl\drivers/peripheral/tcpwm/cy_tcpwm.h **** */
 297:Generated_Source\PSoC6\pdl\drivers/peripheral/tcpwm/cy_tcpwm.h **** #define CY_TCPWM_CNT_CTRL_DEFAULT           (0x0U) /**< Default value for CTRL register */
 298:Generated_Source\PSoC6\pdl\drivers/peripheral/tcpwm/cy_tcpwm.h **** #define CY_TCPWM_CNT_COUNTER_DEFAULT        (0x0U) /**< Default value for COUNTER register */
 299:Generated_Source\PSoC6\pdl\drivers/peripheral/tcpwm/cy_tcpwm.h **** #define CY_TCPWM_CNT_CC_DEFAULT             (0xFFFFFFFFU) /**< Default value for CC register */
 300:Generated_Source\PSoC6\pdl\drivers/peripheral/tcpwm/cy_tcpwm.h **** #define CY_TCPWM_CNT_CC_BUFF_DEFAULT        (0xFFFFFFFFU) /**< Default value for CC_BUFF register *
 301:Generated_Source\PSoC6\pdl\drivers/peripheral/tcpwm/cy_tcpwm.h **** #define CY_TCPWM_CNT_PERIOD_DEFAULT         (0xFFFFFFFFU) /**< Default value for PERIOD register */
 302:Generated_Source\PSoC6\pdl\drivers/peripheral/tcpwm/cy_tcpwm.h **** #define CY_TCPWM_CNT_PERIOD_BUFF_DEFAULT    (0xFFFFFFFFU) /**< Default value for PERIOD_BUFF regist
 303:Generated_Source\PSoC6\pdl\drivers/peripheral/tcpwm/cy_tcpwm.h **** #define CY_TCPWM_CNT_TR_CTRL0_DEFAULT       (0x10U)  /**< Default value for TR_CTRL0 register */
 304:Generated_Source\PSoC6\pdl\drivers/peripheral/tcpwm/cy_tcpwm.h **** #define CY_TCPWM_CNT_TR_CTRL1_DEFAULT       (0x3FFU) /**< Default value for TR_CTRL1 register */
 305:Generated_Source\PSoC6\pdl\drivers/peripheral/tcpwm/cy_tcpwm.h **** #define CY_TCPWM_CNT_TR_CTRL2_DEFAULT       (0x3FU)  /**< Default value for TR_CTRL2 register */
 306:Generated_Source\PSoC6\pdl\drivers/peripheral/tcpwm/cy_tcpwm.h **** #define CY_TCPWM_CNT_INTR_DEFAULT           (0x3U)   /**< Default value for INTR register */
 307:Generated_Source\PSoC6\pdl\drivers/peripheral/tcpwm/cy_tcpwm.h **** #define CY_TCPWM_CNT_INTR_SET_DEFAULT       (0x0U)   /**< Default value for INTR_SET register */
 308:Generated_Source\PSoC6\pdl\drivers/peripheral/tcpwm/cy_tcpwm.h **** #define CY_TCPWM_CNT_INTR_MASK_DEFAULT      (0x0U)   /**< Default value for INTR_MASK register */
 309:Generated_Source\PSoC6\pdl\drivers/peripheral/tcpwm/cy_tcpwm.h **** /** \} group_tcpwm_reg_const */
 310:Generated_Source\PSoC6\pdl\drivers/peripheral/tcpwm/cy_tcpwm.h **** 
 311:Generated_Source\PSoC6\pdl\drivers/peripheral/tcpwm/cy_tcpwm.h **** /** Position of Up counting counter status */
 312:Generated_Source\PSoC6\pdl\drivers/peripheral/tcpwm/cy_tcpwm.h **** #define CY_TCPWM_CNT_STATUS_UP_POS          (0x1U)
 313:Generated_Source\PSoC6\pdl\drivers/peripheral/tcpwm/cy_tcpwm.h **** /** Initial value for the counter in the Up counting mode */
 314:Generated_Source\PSoC6\pdl\drivers/peripheral/tcpwm/cy_tcpwm.h **** #define CY_TCPWM_CNT_UP_INIT_VAL            (0x0U)
 315:Generated_Source\PSoC6\pdl\drivers/peripheral/tcpwm/cy_tcpwm.h **** /** Initial value for the counter in the Up/Down counting modes */
 316:Generated_Source\PSoC6\pdl\drivers/peripheral/tcpwm/cy_tcpwm.h **** #define CY_TCPWM_CNT_UP_DOWN_INIT_VAL       (0x1U)
 317:Generated_Source\PSoC6\pdl\drivers/peripheral/tcpwm/cy_tcpwm.h **** /** \} group_tcpwm_macros_common */
 318:Generated_Source\PSoC6\pdl\drivers/peripheral/tcpwm/cy_tcpwm.h **** 
 319:Generated_Source\PSoC6\pdl\drivers/peripheral/tcpwm/cy_tcpwm.h **** 
 320:Generated_Source\PSoC6\pdl\drivers/peripheral/tcpwm/cy_tcpwm.h **** /*******************************************************************************
 321:Generated_Source\PSoC6\pdl\drivers/peripheral/tcpwm/cy_tcpwm.h ****  * Enumerations
 322:Generated_Source\PSoC6\pdl\drivers/peripheral/tcpwm/cy_tcpwm.h ****  ******************************************************************************/
 323:Generated_Source\PSoC6\pdl\drivers/peripheral/tcpwm/cy_tcpwm.h **** 
 324:Generated_Source\PSoC6\pdl\drivers/peripheral/tcpwm/cy_tcpwm.h ****  /**
 325:Generated_Source\PSoC6\pdl\drivers/peripheral/tcpwm/cy_tcpwm.h **** * \addtogroup group_tcpwm_enums
 326:Generated_Source\PSoC6\pdl\drivers/peripheral/tcpwm/cy_tcpwm.h **** * \{
 327:Generated_Source\PSoC6\pdl\drivers/peripheral/tcpwm/cy_tcpwm.h **** */
 328:Generated_Source\PSoC6\pdl\drivers/peripheral/tcpwm/cy_tcpwm.h **** 
 329:Generated_Source\PSoC6\pdl\drivers/peripheral/tcpwm/cy_tcpwm.h **** /** TCPWM status definitions */
 330:Generated_Source\PSoC6\pdl\drivers/peripheral/tcpwm/cy_tcpwm.h **** typedef enum 
 331:Generated_Source\PSoC6\pdl\drivers/peripheral/tcpwm/cy_tcpwm.h **** {
 332:Generated_Source\PSoC6\pdl\drivers/peripheral/tcpwm/cy_tcpwm.h ****     CY_TCPWM_SUCCESS = 0x00U,                                           /**< Successful */
 333:Generated_Source\PSoC6\pdl\drivers/peripheral/tcpwm/cy_tcpwm.h ****     CY_TCPWM_BAD_PARAM = CY_TCPWM_ID | CY_PDL_STATUS_ERROR | 0x01U,     /**< One or more invalid pa
 334:Generated_Source\PSoC6\pdl\drivers/peripheral/tcpwm/cy_tcpwm.h **** } cy_en_tcpwm_status_t;
 335:Generated_Source\PSoC6\pdl\drivers/peripheral/tcpwm/cy_tcpwm.h **** /** \} group_tcpwm_enums */
 336:Generated_Source\PSoC6\pdl\drivers/peripheral/tcpwm/cy_tcpwm.h ****  
 337:Generated_Source\PSoC6\pdl\drivers/peripheral/tcpwm/cy_tcpwm.h **** /*******************************************************************************
 338:Generated_Source\PSoC6\pdl\drivers/peripheral/tcpwm/cy_tcpwm.h **** *        Function Prototypes
 339:Generated_Source\PSoC6\pdl\drivers/peripheral/tcpwm/cy_tcpwm.h **** *******************************************************************************/
 340:Generated_Source\PSoC6\pdl\drivers/peripheral/tcpwm/cy_tcpwm.h **** 
 341:Generated_Source\PSoC6\pdl\drivers/peripheral/tcpwm/cy_tcpwm.h **** /**
 342:Generated_Source\PSoC6\pdl\drivers/peripheral/tcpwm/cy_tcpwm.h **** * \addtogroup group_tcpwm_functions_common
 343:Generated_Source\PSoC6\pdl\drivers/peripheral/tcpwm/cy_tcpwm.h **** * \{
 344:Generated_Source\PSoC6\pdl\drivers/peripheral/tcpwm/cy_tcpwm.h **** */
ARM GAS  C:\Users\rober\AppData\Local\Temp\ccaShyPv.s 			page 19


 345:Generated_Source\PSoC6\pdl\drivers/peripheral/tcpwm/cy_tcpwm.h **** 
 346:Generated_Source\PSoC6\pdl\drivers/peripheral/tcpwm/cy_tcpwm.h **** __STATIC_INLINE void Cy_TCPWM_Enable_Multiple(TCPWM_Type *base, uint32_t counters);
 347:Generated_Source\PSoC6\pdl\drivers/peripheral/tcpwm/cy_tcpwm.h **** __STATIC_INLINE void Cy_TCPWM_Disable_Multiple(TCPWM_Type *base, uint32_t counters);
 348:Generated_Source\PSoC6\pdl\drivers/peripheral/tcpwm/cy_tcpwm.h **** __STATIC_INLINE void Cy_TCPWM_TriggerStart(TCPWM_Type *base, uint32_t counters);
 349:Generated_Source\PSoC6\pdl\drivers/peripheral/tcpwm/cy_tcpwm.h **** __STATIC_INLINE void Cy_TCPWM_TriggerReloadOrIndex(TCPWM_Type *base, uint32_t counters);
 350:Generated_Source\PSoC6\pdl\drivers/peripheral/tcpwm/cy_tcpwm.h **** __STATIC_INLINE void Cy_TCPWM_TriggerStopOrKill(TCPWM_Type *base, uint32_t counters);
 351:Generated_Source\PSoC6\pdl\drivers/peripheral/tcpwm/cy_tcpwm.h **** __STATIC_INLINE void Cy_TCPWM_TriggerCaptureOrSwap(TCPWM_Type *base, uint32_t counters);
 352:Generated_Source\PSoC6\pdl\drivers/peripheral/tcpwm/cy_tcpwm.h **** __STATIC_INLINE uint32_t Cy_TCPWM_GetInterruptStatus(TCPWM_Type const *base, uint32_t cntNum);
 353:Generated_Source\PSoC6\pdl\drivers/peripheral/tcpwm/cy_tcpwm.h **** __STATIC_INLINE void Cy_TCPWM_ClearInterrupt(TCPWM_Type *base, uint32_t cntNum, uint32_t source);
 354:Generated_Source\PSoC6\pdl\drivers/peripheral/tcpwm/cy_tcpwm.h **** __STATIC_INLINE void Cy_TCPWM_SetInterrupt(TCPWM_Type *base, uint32_t cntNum, uint32_t source);
 355:Generated_Source\PSoC6\pdl\drivers/peripheral/tcpwm/cy_tcpwm.h **** __STATIC_INLINE void Cy_TCPWM_SetInterruptMask(TCPWM_Type *base, uint32_t cntNum, uint32_t mask);
 356:Generated_Source\PSoC6\pdl\drivers/peripheral/tcpwm/cy_tcpwm.h **** __STATIC_INLINE uint32_t Cy_TCPWM_GetInterruptMask(TCPWM_Type const *base, uint32_t cntNum);
 357:Generated_Source\PSoC6\pdl\drivers/peripheral/tcpwm/cy_tcpwm.h **** __STATIC_INLINE uint32_t Cy_TCPWM_GetInterruptStatusMasked(TCPWM_Type const *base, uint32_t cntNum)
 358:Generated_Source\PSoC6\pdl\drivers/peripheral/tcpwm/cy_tcpwm.h **** 
 359:Generated_Source\PSoC6\pdl\drivers/peripheral/tcpwm/cy_tcpwm.h **** 
 360:Generated_Source\PSoC6\pdl\drivers/peripheral/tcpwm/cy_tcpwm.h **** /*******************************************************************************
 361:Generated_Source\PSoC6\pdl\drivers/peripheral/tcpwm/cy_tcpwm.h **** * Function Name: Cy_TCPWM_Enable_Multiple
 362:Generated_Source\PSoC6\pdl\drivers/peripheral/tcpwm/cy_tcpwm.h **** ****************************************************************************//**
 363:Generated_Source\PSoC6\pdl\drivers/peripheral/tcpwm/cy_tcpwm.h **** *
 364:Generated_Source\PSoC6\pdl\drivers/peripheral/tcpwm/cy_tcpwm.h **** * Enables the counter(s) in the TCPWM block. Multiple blocks can be started 
 365:Generated_Source\PSoC6\pdl\drivers/peripheral/tcpwm/cy_tcpwm.h **** * simultaneously.
 366:Generated_Source\PSoC6\pdl\drivers/peripheral/tcpwm/cy_tcpwm.h **** *
 367:Generated_Source\PSoC6\pdl\drivers/peripheral/tcpwm/cy_tcpwm.h **** * \param base
 368:Generated_Source\PSoC6\pdl\drivers/peripheral/tcpwm/cy_tcpwm.h **** * The pointer to a TCPWM instance.
 369:Generated_Source\PSoC6\pdl\drivers/peripheral/tcpwm/cy_tcpwm.h **** *
 370:Generated_Source\PSoC6\pdl\drivers/peripheral/tcpwm/cy_tcpwm.h **** * \param counters
 371:Generated_Source\PSoC6\pdl\drivers/peripheral/tcpwm/cy_tcpwm.h **** * A bit field representing each counter in the TCPWM block.
 372:Generated_Source\PSoC6\pdl\drivers/peripheral/tcpwm/cy_tcpwm.h **** *
 373:Generated_Source\PSoC6\pdl\drivers/peripheral/tcpwm/cy_tcpwm.h **** * \funcusage
 374:Generated_Source\PSoC6\pdl\drivers/peripheral/tcpwm/cy_tcpwm.h **** * \snippet tcpwm/tcpwm_v1_0_counter_sut_01.cydsn/main_cm4.c snippet_Cy_TCPWM_Enable_Multiple
 375:Generated_Source\PSoC6\pdl\drivers/peripheral/tcpwm/cy_tcpwm.h **** *
 376:Generated_Source\PSoC6\pdl\drivers/peripheral/tcpwm/cy_tcpwm.h **** *******************************************************************************/
 377:Generated_Source\PSoC6\pdl\drivers/peripheral/tcpwm/cy_tcpwm.h **** __STATIC_INLINE void Cy_TCPWM_Enable_Multiple(TCPWM_Type *base, uint32_t counters)
 378:Generated_Source\PSoC6\pdl\drivers/peripheral/tcpwm/cy_tcpwm.h **** {
 379:Generated_Source\PSoC6\pdl\drivers/peripheral/tcpwm/cy_tcpwm.h ****     base->CTRL_SET = counters;
 380:Generated_Source\PSoC6\pdl\drivers/peripheral/tcpwm/cy_tcpwm.h **** }
 381:Generated_Source\PSoC6\pdl\drivers/peripheral/tcpwm/cy_tcpwm.h **** 
 382:Generated_Source\PSoC6\pdl\drivers/peripheral/tcpwm/cy_tcpwm.h **** 
 383:Generated_Source\PSoC6\pdl\drivers/peripheral/tcpwm/cy_tcpwm.h **** /*******************************************************************************
 384:Generated_Source\PSoC6\pdl\drivers/peripheral/tcpwm/cy_tcpwm.h **** * Function Name: Cy_TCPWM_Disable_Multiple
 385:Generated_Source\PSoC6\pdl\drivers/peripheral/tcpwm/cy_tcpwm.h **** ****************************************************************************//**
 386:Generated_Source\PSoC6\pdl\drivers/peripheral/tcpwm/cy_tcpwm.h **** *
 387:Generated_Source\PSoC6\pdl\drivers/peripheral/tcpwm/cy_tcpwm.h **** * Disables the counter(s) in the TCPWM block. Multiple TCPWM can be disabled 
 388:Generated_Source\PSoC6\pdl\drivers/peripheral/tcpwm/cy_tcpwm.h **** * simultaneously.
 389:Generated_Source\PSoC6\pdl\drivers/peripheral/tcpwm/cy_tcpwm.h **** *
 390:Generated_Source\PSoC6\pdl\drivers/peripheral/tcpwm/cy_tcpwm.h **** * \param base
 391:Generated_Source\PSoC6\pdl\drivers/peripheral/tcpwm/cy_tcpwm.h **** * The pointer to a TCPWM instance.
 392:Generated_Source\PSoC6\pdl\drivers/peripheral/tcpwm/cy_tcpwm.h **** *
 393:Generated_Source\PSoC6\pdl\drivers/peripheral/tcpwm/cy_tcpwm.h **** * \param counters
 394:Generated_Source\PSoC6\pdl\drivers/peripheral/tcpwm/cy_tcpwm.h **** * A bit field representing each counter in the TCPWM block.
 395:Generated_Source\PSoC6\pdl\drivers/peripheral/tcpwm/cy_tcpwm.h **** *
 396:Generated_Source\PSoC6\pdl\drivers/peripheral/tcpwm/cy_tcpwm.h **** * \funcusage
 397:Generated_Source\PSoC6\pdl\drivers/peripheral/tcpwm/cy_tcpwm.h **** * \snippet tcpwm/tcpwm_v1_0_counter_sut_01.cydsn/main_cm4.c snippet_Cy_TCPWM_Disable_Multiple
 398:Generated_Source\PSoC6\pdl\drivers/peripheral/tcpwm/cy_tcpwm.h **** *
 399:Generated_Source\PSoC6\pdl\drivers/peripheral/tcpwm/cy_tcpwm.h **** *******************************************************************************/
 400:Generated_Source\PSoC6\pdl\drivers/peripheral/tcpwm/cy_tcpwm.h **** __STATIC_INLINE void Cy_TCPWM_Disable_Multiple(TCPWM_Type *base, uint32_t counters)
 401:Generated_Source\PSoC6\pdl\drivers/peripheral/tcpwm/cy_tcpwm.h **** {
ARM GAS  C:\Users\rober\AppData\Local\Temp\ccaShyPv.s 			page 20


 402:Generated_Source\PSoC6\pdl\drivers/peripheral/tcpwm/cy_tcpwm.h ****     base->CTRL_CLR = counters;
 403:Generated_Source\PSoC6\pdl\drivers/peripheral/tcpwm/cy_tcpwm.h **** }
 404:Generated_Source\PSoC6\pdl\drivers/peripheral/tcpwm/cy_tcpwm.h **** 
 405:Generated_Source\PSoC6\pdl\drivers/peripheral/tcpwm/cy_tcpwm.h **** 
 406:Generated_Source\PSoC6\pdl\drivers/peripheral/tcpwm/cy_tcpwm.h **** /*******************************************************************************
 407:Generated_Source\PSoC6\pdl\drivers/peripheral/tcpwm/cy_tcpwm.h **** * Function Name: Cy_TCPWM_TriggerStart
 408:Generated_Source\PSoC6\pdl\drivers/peripheral/tcpwm/cy_tcpwm.h **** ****************************************************************************//**
 409:Generated_Source\PSoC6\pdl\drivers/peripheral/tcpwm/cy_tcpwm.h **** *
 410:Generated_Source\PSoC6\pdl\drivers/peripheral/tcpwm/cy_tcpwm.h **** * Triggers a software start on the selected TCPWMs.
 411:Generated_Source\PSoC6\pdl\drivers/peripheral/tcpwm/cy_tcpwm.h **** *
 412:Generated_Source\PSoC6\pdl\drivers/peripheral/tcpwm/cy_tcpwm.h **** * \param base
 413:Generated_Source\PSoC6\pdl\drivers/peripheral/tcpwm/cy_tcpwm.h **** * The pointer to a TCPWM instance.
 414:Generated_Source\PSoC6\pdl\drivers/peripheral/tcpwm/cy_tcpwm.h **** *
 415:Generated_Source\PSoC6\pdl\drivers/peripheral/tcpwm/cy_tcpwm.h **** * \param counters
 416:Generated_Source\PSoC6\pdl\drivers/peripheral/tcpwm/cy_tcpwm.h **** * A bit field representing each counter in the TCPWM block.
 417:Generated_Source\PSoC6\pdl\drivers/peripheral/tcpwm/cy_tcpwm.h **** *
 418:Generated_Source\PSoC6\pdl\drivers/peripheral/tcpwm/cy_tcpwm.h **** * \funcusage
 419:Generated_Source\PSoC6\pdl\drivers/peripheral/tcpwm/cy_tcpwm.h **** * \snippet tcpwm/tcpwm_v1_0_counter_sut_01.cydsn/main_cm4.c snippet_Cy_TCPWM_Enable_Multiple
 420:Generated_Source\PSoC6\pdl\drivers/peripheral/tcpwm/cy_tcpwm.h **** *
 421:Generated_Source\PSoC6\pdl\drivers/peripheral/tcpwm/cy_tcpwm.h **** *******************************************************************************/
 422:Generated_Source\PSoC6\pdl\drivers/peripheral/tcpwm/cy_tcpwm.h **** __STATIC_INLINE  void Cy_TCPWM_TriggerStart(TCPWM_Type *base, uint32_t counters)
 423:Generated_Source\PSoC6\pdl\drivers/peripheral/tcpwm/cy_tcpwm.h **** {
 424:Generated_Source\PSoC6\pdl\drivers/peripheral/tcpwm/cy_tcpwm.h ****     base->CMD_START = counters;
 425:Generated_Source\PSoC6\pdl\drivers/peripheral/tcpwm/cy_tcpwm.h **** }
 426:Generated_Source\PSoC6\pdl\drivers/peripheral/tcpwm/cy_tcpwm.h **** 
 427:Generated_Source\PSoC6\pdl\drivers/peripheral/tcpwm/cy_tcpwm.h **** 
 428:Generated_Source\PSoC6\pdl\drivers/peripheral/tcpwm/cy_tcpwm.h **** /*******************************************************************************
 429:Generated_Source\PSoC6\pdl\drivers/peripheral/tcpwm/cy_tcpwm.h **** * Function Name: Cy_TCPWM_TriggerReloadOrIndex
 430:Generated_Source\PSoC6\pdl\drivers/peripheral/tcpwm/cy_tcpwm.h **** ****************************************************************************//**
 431:Generated_Source\PSoC6\pdl\drivers/peripheral/tcpwm/cy_tcpwm.h **** *
 432:Generated_Source\PSoC6\pdl\drivers/peripheral/tcpwm/cy_tcpwm.h **** * Triggers a software reload event (or index in QuadDec mode).
 433:Generated_Source\PSoC6\pdl\drivers/peripheral/tcpwm/cy_tcpwm.h **** *
 434:Generated_Source\PSoC6\pdl\drivers/peripheral/tcpwm/cy_tcpwm.h **** * \param base
 435:Generated_Source\PSoC6\pdl\drivers/peripheral/tcpwm/cy_tcpwm.h **** * The pointer to a TCPWM instance
 436:Generated_Source\PSoC6\pdl\drivers/peripheral/tcpwm/cy_tcpwm.h **** *
 437:Generated_Source\PSoC6\pdl\drivers/peripheral/tcpwm/cy_tcpwm.h **** * \param counters
 438:Generated_Source\PSoC6\pdl\drivers/peripheral/tcpwm/cy_tcpwm.h **** * A bit field representing each counter in the TCPWM block.
 439:Generated_Source\PSoC6\pdl\drivers/peripheral/tcpwm/cy_tcpwm.h **** *
 440:Generated_Source\PSoC6\pdl\drivers/peripheral/tcpwm/cy_tcpwm.h **** * \funcusage
 441:Generated_Source\PSoC6\pdl\drivers/peripheral/tcpwm/cy_tcpwm.h **** * \snippet tcpwm/tcpwm_v1_0_counter_sut_01.cydsn/main_cm4.c snippet_Cy_TCPWM_TriggerReloadOrIndex
 442:Generated_Source\PSoC6\pdl\drivers/peripheral/tcpwm/cy_tcpwm.h **** *
 443:Generated_Source\PSoC6\pdl\drivers/peripheral/tcpwm/cy_tcpwm.h **** *******************************************************************************/
 444:Generated_Source\PSoC6\pdl\drivers/peripheral/tcpwm/cy_tcpwm.h **** __STATIC_INLINE void Cy_TCPWM_TriggerReloadOrIndex(TCPWM_Type *base, uint32_t counters)
 445:Generated_Source\PSoC6\pdl\drivers/peripheral/tcpwm/cy_tcpwm.h **** {
 446:Generated_Source\PSoC6\pdl\drivers/peripheral/tcpwm/cy_tcpwm.h ****     base->CMD_RELOAD = counters;
 447:Generated_Source\PSoC6\pdl\drivers/peripheral/tcpwm/cy_tcpwm.h **** }
 448:Generated_Source\PSoC6\pdl\drivers/peripheral/tcpwm/cy_tcpwm.h **** 
 449:Generated_Source\PSoC6\pdl\drivers/peripheral/tcpwm/cy_tcpwm.h **** 
 450:Generated_Source\PSoC6\pdl\drivers/peripheral/tcpwm/cy_tcpwm.h **** /*******************************************************************************
 451:Generated_Source\PSoC6\pdl\drivers/peripheral/tcpwm/cy_tcpwm.h **** * Function Name: Cy_TCPWM_TriggerStopOrKill
 452:Generated_Source\PSoC6\pdl\drivers/peripheral/tcpwm/cy_tcpwm.h **** ****************************************************************************//**
 453:Generated_Source\PSoC6\pdl\drivers/peripheral/tcpwm/cy_tcpwm.h **** *
 454:Generated_Source\PSoC6\pdl\drivers/peripheral/tcpwm/cy_tcpwm.h **** * Triggers a stop in the Timer Counter mode, or a kill in the PWM mode.
 455:Generated_Source\PSoC6\pdl\drivers/peripheral/tcpwm/cy_tcpwm.h **** *
 456:Generated_Source\PSoC6\pdl\drivers/peripheral/tcpwm/cy_tcpwm.h **** * \param base
 457:Generated_Source\PSoC6\pdl\drivers/peripheral/tcpwm/cy_tcpwm.h **** * The pointer to a TCPWM instance.
 458:Generated_Source\PSoC6\pdl\drivers/peripheral/tcpwm/cy_tcpwm.h **** *
ARM GAS  C:\Users\rober\AppData\Local\Temp\ccaShyPv.s 			page 21


 459:Generated_Source\PSoC6\pdl\drivers/peripheral/tcpwm/cy_tcpwm.h **** * \param counters
 460:Generated_Source\PSoC6\pdl\drivers/peripheral/tcpwm/cy_tcpwm.h **** * A bit field representing each counter in the TCPWM block.
 461:Generated_Source\PSoC6\pdl\drivers/peripheral/tcpwm/cy_tcpwm.h **** *
 462:Generated_Source\PSoC6\pdl\drivers/peripheral/tcpwm/cy_tcpwm.h **** * \funcusage
 463:Generated_Source\PSoC6\pdl\drivers/peripheral/tcpwm/cy_tcpwm.h **** * \snippet tcpwm/tcpwm_v1_0_counter_sut_01.cydsn/main_cm4.c snippet_Cy_TCPWM_TriggerStopOrKill
 464:Generated_Source\PSoC6\pdl\drivers/peripheral/tcpwm/cy_tcpwm.h **** *
 465:Generated_Source\PSoC6\pdl\drivers/peripheral/tcpwm/cy_tcpwm.h **** *******************************************************************************/
 466:Generated_Source\PSoC6\pdl\drivers/peripheral/tcpwm/cy_tcpwm.h **** __STATIC_INLINE void Cy_TCPWM_TriggerStopOrKill(TCPWM_Type *base, uint32_t counters)
 467:Generated_Source\PSoC6\pdl\drivers/peripheral/tcpwm/cy_tcpwm.h **** {
 468:Generated_Source\PSoC6\pdl\drivers/peripheral/tcpwm/cy_tcpwm.h ****     base->CMD_STOP = counters;
 469:Generated_Source\PSoC6\pdl\drivers/peripheral/tcpwm/cy_tcpwm.h **** }
 470:Generated_Source\PSoC6\pdl\drivers/peripheral/tcpwm/cy_tcpwm.h **** 
 471:Generated_Source\PSoC6\pdl\drivers/peripheral/tcpwm/cy_tcpwm.h **** 
 472:Generated_Source\PSoC6\pdl\drivers/peripheral/tcpwm/cy_tcpwm.h **** /*******************************************************************************
 473:Generated_Source\PSoC6\pdl\drivers/peripheral/tcpwm/cy_tcpwm.h **** * Function Name: Cy_TCPWM_TriggerCaptureOrSwap
 474:Generated_Source\PSoC6\pdl\drivers/peripheral/tcpwm/cy_tcpwm.h **** ****************************************************************************//**
 475:Generated_Source\PSoC6\pdl\drivers/peripheral/tcpwm/cy_tcpwm.h **** *
 476:Generated_Source\PSoC6\pdl\drivers/peripheral/tcpwm/cy_tcpwm.h **** * Triggers a Capture in the Timer Counter mode, and a Swap in the PWM mode.
 477:Generated_Source\PSoC6\pdl\drivers/peripheral/tcpwm/cy_tcpwm.h **** *
 478:Generated_Source\PSoC6\pdl\drivers/peripheral/tcpwm/cy_tcpwm.h **** * \param base
 479:Generated_Source\PSoC6\pdl\drivers/peripheral/tcpwm/cy_tcpwm.h **** * The pointer to a TCPWM instance.
 480:Generated_Source\PSoC6\pdl\drivers/peripheral/tcpwm/cy_tcpwm.h **** *
 481:Generated_Source\PSoC6\pdl\drivers/peripheral/tcpwm/cy_tcpwm.h **** * \param counters
 482:Generated_Source\PSoC6\pdl\drivers/peripheral/tcpwm/cy_tcpwm.h **** * A bit field representing each counter in the TCPWM block.
 483:Generated_Source\PSoC6\pdl\drivers/peripheral/tcpwm/cy_tcpwm.h **** *
 484:Generated_Source\PSoC6\pdl\drivers/peripheral/tcpwm/cy_tcpwm.h **** * \funcusage
 485:Generated_Source\PSoC6\pdl\drivers/peripheral/tcpwm/cy_tcpwm.h **** * \snippet tcpwm/tcpwm_v1_0_counter_sut_01.cydsn/main_cm4.c snippet_Cy_TCPWM_Counter_Capture
 486:Generated_Source\PSoC6\pdl\drivers/peripheral/tcpwm/cy_tcpwm.h **** *
 487:Generated_Source\PSoC6\pdl\drivers/peripheral/tcpwm/cy_tcpwm.h **** *******************************************************************************/
 488:Generated_Source\PSoC6\pdl\drivers/peripheral/tcpwm/cy_tcpwm.h **** __STATIC_INLINE void Cy_TCPWM_TriggerCaptureOrSwap(TCPWM_Type *base, uint32_t counters)
 489:Generated_Source\PSoC6\pdl\drivers/peripheral/tcpwm/cy_tcpwm.h **** {
 490:Generated_Source\PSoC6\pdl\drivers/peripheral/tcpwm/cy_tcpwm.h ****     base->CMD_CAPTURE = counters;
 491:Generated_Source\PSoC6\pdl\drivers/peripheral/tcpwm/cy_tcpwm.h **** }
 492:Generated_Source\PSoC6\pdl\drivers/peripheral/tcpwm/cy_tcpwm.h **** 
 493:Generated_Source\PSoC6\pdl\drivers/peripheral/tcpwm/cy_tcpwm.h **** 
 494:Generated_Source\PSoC6\pdl\drivers/peripheral/tcpwm/cy_tcpwm.h **** /*******************************************************************************
 495:Generated_Source\PSoC6\pdl\drivers/peripheral/tcpwm/cy_tcpwm.h **** * Function Name: Cy_TCPWM_GetInterruptStatus
 496:Generated_Source\PSoC6\pdl\drivers/peripheral/tcpwm/cy_tcpwm.h **** ****************************************************************************//**
 497:Generated_Source\PSoC6\pdl\drivers/peripheral/tcpwm/cy_tcpwm.h **** *
 498:Generated_Source\PSoC6\pdl\drivers/peripheral/tcpwm/cy_tcpwm.h **** * Returns which event triggered the interrupt.
 499:Generated_Source\PSoC6\pdl\drivers/peripheral/tcpwm/cy_tcpwm.h **** *
 500:Generated_Source\PSoC6\pdl\drivers/peripheral/tcpwm/cy_tcpwm.h **** * \param base
 501:Generated_Source\PSoC6\pdl\drivers/peripheral/tcpwm/cy_tcpwm.h **** * The pointer to a TCPWM instance.
 502:Generated_Source\PSoC6\pdl\drivers/peripheral/tcpwm/cy_tcpwm.h **** *
 503:Generated_Source\PSoC6\pdl\drivers/peripheral/tcpwm/cy_tcpwm.h **** * \param cntNum 
 504:Generated_Source\PSoC6\pdl\drivers/peripheral/tcpwm/cy_tcpwm.h **** * The Counter instance number in the selected TCPWM.
 505:Generated_Source\PSoC6\pdl\drivers/peripheral/tcpwm/cy_tcpwm.h **** *
 506:Generated_Source\PSoC6\pdl\drivers/peripheral/tcpwm/cy_tcpwm.h **** * \return 
 507:Generated_Source\PSoC6\pdl\drivers/peripheral/tcpwm/cy_tcpwm.h **** *. See \ref group_tcpwm_interrupt_sources
 508:Generated_Source\PSoC6\pdl\drivers/peripheral/tcpwm/cy_tcpwm.h **** *
 509:Generated_Source\PSoC6\pdl\drivers/peripheral/tcpwm/cy_tcpwm.h **** * \funcusage
 510:Generated_Source\PSoC6\pdl\drivers/peripheral/tcpwm/cy_tcpwm.h **** * \snippet tcpwm/tcpwm_v1_0_counter_sut_01.cydsn/main_cm4.c snippet_Cy_TCPWM_GetInterruptStatus
 511:Generated_Source\PSoC6\pdl\drivers/peripheral/tcpwm/cy_tcpwm.h **** *
 512:Generated_Source\PSoC6\pdl\drivers/peripheral/tcpwm/cy_tcpwm.h **** *******************************************************************************/
 513:Generated_Source\PSoC6\pdl\drivers/peripheral/tcpwm/cy_tcpwm.h **** __STATIC_INLINE uint32_t Cy_TCPWM_GetInterruptStatus(TCPWM_Type const *base, uint32_t cntNum)
 514:Generated_Source\PSoC6\pdl\drivers/peripheral/tcpwm/cy_tcpwm.h **** {
 515:Generated_Source\PSoC6\pdl\drivers/peripheral/tcpwm/cy_tcpwm.h ****     return(base->CNT[cntNum].INTR);
ARM GAS  C:\Users\rober\AppData\Local\Temp\ccaShyPv.s 			page 22


 516:Generated_Source\PSoC6\pdl\drivers/peripheral/tcpwm/cy_tcpwm.h **** }
 517:Generated_Source\PSoC6\pdl\drivers/peripheral/tcpwm/cy_tcpwm.h **** 
 518:Generated_Source\PSoC6\pdl\drivers/peripheral/tcpwm/cy_tcpwm.h **** 
 519:Generated_Source\PSoC6\pdl\drivers/peripheral/tcpwm/cy_tcpwm.h **** /*******************************************************************************
 520:Generated_Source\PSoC6\pdl\drivers/peripheral/tcpwm/cy_tcpwm.h **** * Function Name: Cy_TCPWM_ClearInterrupt
 521:Generated_Source\PSoC6\pdl\drivers/peripheral/tcpwm/cy_tcpwm.h **** ****************************************************************************//**
 522:Generated_Source\PSoC6\pdl\drivers/peripheral/tcpwm/cy_tcpwm.h **** *
 523:Generated_Source\PSoC6\pdl\drivers/peripheral/tcpwm/cy_tcpwm.h **** * Clears Active Interrupt Source
 524:Generated_Source\PSoC6\pdl\drivers/peripheral/tcpwm/cy_tcpwm.h **** *
 525:Generated_Source\PSoC6\pdl\drivers/peripheral/tcpwm/cy_tcpwm.h **** * \param base
 526:Generated_Source\PSoC6\pdl\drivers/peripheral/tcpwm/cy_tcpwm.h **** * The pointer to a TCPWM instance.
 527:Generated_Source\PSoC6\pdl\drivers/peripheral/tcpwm/cy_tcpwm.h **** *
 528:Generated_Source\PSoC6\pdl\drivers/peripheral/tcpwm/cy_tcpwm.h **** * \param cntNum 
 529:Generated_Source\PSoC6\pdl\drivers/peripheral/tcpwm/cy_tcpwm.h **** * The Counter instance number in the selected TCPWM.
 530:Generated_Source\PSoC6\pdl\drivers/peripheral/tcpwm/cy_tcpwm.h **** *
 531:Generated_Source\PSoC6\pdl\drivers/peripheral/tcpwm/cy_tcpwm.h **** * \param source
 532:Generated_Source\PSoC6\pdl\drivers/peripheral/tcpwm/cy_tcpwm.h **** * source to clear. See \ref group_tcpwm_interrupt_sources
 533:Generated_Source\PSoC6\pdl\drivers/peripheral/tcpwm/cy_tcpwm.h **** *
 534:Generated_Source\PSoC6\pdl\drivers/peripheral/tcpwm/cy_tcpwm.h **** * \funcusage
 535:Generated_Source\PSoC6\pdl\drivers/peripheral/tcpwm/cy_tcpwm.h **** * \snippet tcpwm/tcpwm_v1_0_counter_sut_01.cydsn/main_cm4.c snippet_Cy_TCPWM_GetInterruptStatusMask
 536:Generated_Source\PSoC6\pdl\drivers/peripheral/tcpwm/cy_tcpwm.h **** *
 537:Generated_Source\PSoC6\pdl\drivers/peripheral/tcpwm/cy_tcpwm.h **** *******************************************************************************/
 538:Generated_Source\PSoC6\pdl\drivers/peripheral/tcpwm/cy_tcpwm.h **** __STATIC_INLINE void Cy_TCPWM_ClearInterrupt(TCPWM_Type *base, uint32_t cntNum,  uint32_t source)
 539:Generated_Source\PSoC6\pdl\drivers/peripheral/tcpwm/cy_tcpwm.h **** {
 540:Generated_Source\PSoC6\pdl\drivers/peripheral/tcpwm/cy_tcpwm.h ****     base->CNT[cntNum].INTR = source;
  95              		.loc 2 540 0
  96 0002 2A4B     		ldr	r3, .L9
  97 0004 0122     		movs	r2, #1
  98 0006 C3F87021 		str	r2, [r3, #368]
 541:Generated_Source\PSoC6\pdl\drivers/peripheral/tcpwm/cy_tcpwm.h ****     (void)base->CNT[cntNum].INTR;
  99              		.loc 2 541 0
 100 000a D3F87031 		ldr	r3, [r3, #368]
 101              	.LVL8:
 102              	.LBE24:
 103              	.LBE23:
 589:main_cm4.c    ****     /* Clear the terminal count interrupt */
 590:main_cm4.c    ****     Cy_TCPWM_ClearInterrupt(Timer_HW, Timer_CNT_NUM, CY_TCPWM_INT_ON_TC);
 591:main_cm4.c    ****     static int counter = 0;
 592:main_cm4.c    ****     
 593:main_cm4.c    ****     if(programStarted)
 104              		.loc 1 593 0
 105 000e 284B     		ldr	r3, .L9+4
 106 0010 93F8B835 		ldrb	r3, [r3, #1464]	@ zero_extendqisi2
 107 0014 002B     		cmp	r3, #0
 108 0016 48D0     		beq	.L5
 109              	.LVL9:
 110              	.LBB25:
 594:main_cm4.c    ****     {
 595:main_cm4.c    ****         int min = 0;
 596:main_cm4.c    ****         int max = 300;
 597:main_cm4.c    ****         const int seconds = 10;
 598:main_cm4.c    ****         static int pointCounter = seconds;
 599:main_cm4.c    ****     
 600:main_cm4.c    ****         static int randomTemperature1 = 0;
 601:main_cm4.c    ****         static int randomTemperature2 = 0;
 602:main_cm4.c    ****             
 603:main_cm4.c    ****         randomTemperature2 = (rand() % (max - min + 1)) + min;
ARM GAS  C:\Users\rober\AppData\Local\Temp\ccaShyPv.s 			page 23


 111              		.loc 1 603 0
 112 0018 FFF7FEFF 		bl	rand
 113              	.LVL10:
 114 001c 254B     		ldr	r3, .L9+8
 115 001e 83FB0032 		smull	r3, r2, r3, r0
 116 0022 C317     		asrs	r3, r0, #31
 117 0024 C3EB6213 		rsb	r3, r3, r2, asr #5
 118 0028 40F22D12 		movw	r2, #301
 119 002c 02FB1303 		mls	r3, r2, r3, r0
 120 0030 1F4C     		ldr	r4, .L9+4
 121 0032 C4F8BC35 		str	r3, [r4, #1468]
 604:main_cm4.c    ****             
 605:main_cm4.c    ****         GUI_DrawLine((pointCounter-seconds) / 2 + 30, 150 - randomTemperature1/2, pointCounter / 2 
 122              		.loc 1 605 0
 123 0036 204D     		ldr	r5, .L9+12
 124 0038 2A68     		ldr	r2, [r5]
 125 003a A2F10A00 		sub	r0, r2, #10
 126 003e 00EBD070 		add	r0, r0, r0, lsr #31
 127 0042 4010     		asrs	r0, r0, #1
 128 0044 D4F8C015 		ldr	r1, [r4, #1472]
 129 0048 01EBD171 		add	r1, r1, r1, lsr #31
 130 004c 4910     		asrs	r1, r1, #1
 131 004e 02EBD272 		add	r2, r2, r2, lsr #31
 132 0052 5210     		asrs	r2, r2, #1
 133 0054 03EBD373 		add	r3, r3, r3, lsr #31
 134 0058 5B10     		asrs	r3, r3, #1
 135 005a C3F19603 		rsb	r3, r3, #150
 136 005e 1E32     		adds	r2, r2, #30
 137 0060 C1F19601 		rsb	r1, r1, #150
 138 0064 1E30     		adds	r0, r0, #30
 139 0066 FFF7FEFF 		bl	GUI_DrawLine
 140              	.LVL11:
 606:main_cm4.c    **** 
 607:main_cm4.c    ****         //if(counter++ == 10){
 608:main_cm4.c    ****             UpdateDisplay(CY_EINK_PARTIAL, true);
 141              		.loc 1 608 0
 142 006a 0121     		movs	r1, #1
 143 006c 0020     		movs	r0, #0
 144 006e FFF7FEFF 		bl	UpdateDisplay
 145              	.LVL12:
 609:main_cm4.c    ****         //    counter = 0;
 610:main_cm4.c    ****         //}
 611:main_cm4.c    ****         randomTemperature1 = randomTemperature2;
 146              		.loc 1 611 0
 147 0072 D4F8BC35 		ldr	r3, [r4, #1468]
 148 0076 C4F8C035 		str	r3, [r4, #1472]
 612:main_cm4.c    ****         pointCounter+=seconds;
 149              		.loc 1 612 0
 150 007a 2B68     		ldr	r3, [r5]
 151 007c 0A33     		adds	r3, r3, #10
 152 007e 2B60     		str	r3, [r5]
 613:main_cm4.c    ****         
 614:main_cm4.c    ****         if(Status_Button1_Read() == 0 || pointCounter >= maxTimeInGraph){
 153              		.loc 1 614 0
 154 0080 FFF7FEFF 		bl	Status_Button1_Read
 155              	.LVL13:
 156 0084 20B1     		cbz	r0, .L7
ARM GAS  C:\Users\rober\AppData\Local\Temp\ccaShyPv.s 			page 24


 157              		.loc 1 614 0 is_stmt 0 discriminator 1
 158 0086 2A68     		ldr	r2, [r5]
 159 0088 D4F8C435 		ldr	r3, [r4, #1476]
 160 008c 9A42     		cmp	r2, r3
 161 008e 0CDB     		blt	.L5
 162              	.L7:
 615:main_cm4.c    ****             programStarted = false;
 163              		.loc 1 615 0 is_stmt 1
 164 0090 074B     		ldr	r3, .L9+4
 165 0092 0022     		movs	r2, #0
 166 0094 83F8B825 		strb	r2, [r3, #1464]
 616:main_cm4.c    ****             pointCounter = seconds;
 167              		.loc 1 616 0
 168 0098 0A20     		movs	r0, #10
 169 009a 0749     		ldr	r1, .L9+12
 170 009c 0860     		str	r0, [r1]
 617:main_cm4.c    ****             randomTemperature1 = 0;
 171              		.loc 1 617 0
 172 009e C3F8C025 		str	r2, [r3, #1472]
 618:main_cm4.c    ****             randomTemperature2 = 0;
 173              		.loc 1 618 0
 174 00a2 C3F8BC25 		str	r2, [r3, #1468]
 619:main_cm4.c    ****             which_data_table = 0;
 175              		.loc 1 619 0
 176 00a6 C3F8C825 		str	r2, [r3, #1480]
 177              	.LVL14:
 178              	.L5:
 179 00aa 38BD     		pop	{r3, r4, r5, pc}
 180              	.L10:
 181              		.align	2
 182              	.L9:
 183 00ac 00003840 		.word	1077411840
 184 00b0 F8100000 		.word	.LANCHOR1
 185 00b4 4B48371B 		.word	456607819
 186 00b8 00000000 		.word	.LANCHOR2
 187              	.LBE25:
 188              		.cfi_endproc
 189              	.LFE612:
 190              		.size	TimerInterruptHandler, .-TimerInterruptHandler
 191              		.section	.text.ClearScreen,"ax",%progbits
 192              		.align	2
 193              		.global	ClearScreen
 194              		.thumb
 195              		.thumb_func
 196              		.type	ClearScreen, %function
 197              	ClearScreen:
 198              	.LFB605:
  70:main_cm4.c    ****     GUI_SetColor(GUI_BLACK);
 199              		.loc 1 70 0
 200              		.cfi_startproc
 201              		@ args = 0, pretend = 0, frame = 0
 202              		@ frame_needed = 0, uses_anonymous_args = 0
 203 0000 08B5     		push	{r3, lr}
 204              		.cfi_def_cfa_offset 8
 205              		.cfi_offset 3, -8
 206              		.cfi_offset 14, -4
  71:main_cm4.c    ****     GUI_SetBkColor(GUI_WHITE);
ARM GAS  C:\Users\rober\AppData\Local\Temp\ccaShyPv.s 			page 25


 207              		.loc 1 71 0
 208 0002 0020     		movs	r0, #0
 209 0004 FFF7FEFF 		bl	GUI_SetColor
 210              	.LVL15:
  72:main_cm4.c    ****     GUI_Clear();
 211              		.loc 1 72 0
 212 0008 6FF07F40 		mvn	r0, #-16777216
 213 000c FFF7FEFF 		bl	GUI_SetBkColor
 214              	.LVL16:
  73:main_cm4.c    ****     UpdateDisplay(CY_EINK_FULL_4STAGE, true);
 215              		.loc 1 73 0
 216 0010 FFF7FEFF 		bl	GUI_Clear
 217              	.LVL17:
  74:main_cm4.c    **** }
 218              		.loc 1 74 0
 219 0014 0121     		movs	r1, #1
 220 0016 0846     		mov	r0, r1
 221 0018 FFF7FEFF 		bl	UpdateDisplay
 222              	.LVL18:
 223 001c 08BD     		pop	{r3, pc}
 224              		.cfi_endproc
 225              	.LFE605:
 226              		.size	ClearScreen, .-ClearScreen
 227 001e 00BF     		.section	.text.WaitforSwitchPressAndRelease,"ax",%progbits
 228              		.align	2
 229              		.global	WaitforSwitchPressAndRelease
 230              		.thumb
 231              		.thumb_func
 232              		.type	WaitforSwitchPressAndRelease, %function
 233              	WaitforSwitchPressAndRelease:
 234              	.LFB606:
 143:main_cm4.c    ****     int table_count = sizeof(table_data) / sizeof(table_data[0]);
 235              		.loc 1 143 0
 236              		.cfi_startproc
 237              		@ args = 0, pretend = 0, frame = 0
 238              		@ frame_needed = 0, uses_anonymous_args = 0
 239 0000 08B5     		push	{r3, lr}
 240              		.cfi_def_cfa_offset 8
 241              		.cfi_offset 3, -8
 242              		.cfi_offset 14, -4
 243              	.LVL19:
 146:main_cm4.c    ****     
 244              		.loc 1 146 0
 245 0002 284B     		ldr	r3, .L25
 246 0004 5A68     		ldr	r2, [r3, #4]
 247              	.LVL20:
 248              	.LBB26:
 249              	.LBB27:
 250              		.file 3 "Generated_Source\\PSoC6\\pdl\\drivers/peripheral/tcpwm/cy_tcpwm_pwm.h"
   1:Generated_Source\PSoC6\pdl\drivers/peripheral/tcpwm/cy_tcpwm_pwm.h **** /***************************************************************************//**
   2:Generated_Source\PSoC6\pdl\drivers/peripheral/tcpwm/cy_tcpwm_pwm.h **** * \file cy_tcpwm_pwm.h
   3:Generated_Source\PSoC6\pdl\drivers/peripheral/tcpwm/cy_tcpwm_pwm.h **** * \version 1.0.1
   4:Generated_Source\PSoC6\pdl\drivers/peripheral/tcpwm/cy_tcpwm_pwm.h **** *
   5:Generated_Source\PSoC6\pdl\drivers/peripheral/tcpwm/cy_tcpwm_pwm.h **** * \brief
   6:Generated_Source\PSoC6\pdl\drivers/peripheral/tcpwm/cy_tcpwm_pwm.h **** * The header file of the TCPWM PWM driver.
   7:Generated_Source\PSoC6\pdl\drivers/peripheral/tcpwm/cy_tcpwm_pwm.h **** *
   8:Generated_Source\PSoC6\pdl\drivers/peripheral/tcpwm/cy_tcpwm_pwm.h **** ********************************************************************************
ARM GAS  C:\Users\rober\AppData\Local\Temp\ccaShyPv.s 			page 26


   9:Generated_Source\PSoC6\pdl\drivers/peripheral/tcpwm/cy_tcpwm_pwm.h **** * \copyright
  10:Generated_Source\PSoC6\pdl\drivers/peripheral/tcpwm/cy_tcpwm_pwm.h **** * Copyright 2016-2018, Cypress Semiconductor Corporation. All rights reserved.
  11:Generated_Source\PSoC6\pdl\drivers/peripheral/tcpwm/cy_tcpwm_pwm.h **** * You may use this file only in accordance with the license, terms, conditions,
  12:Generated_Source\PSoC6\pdl\drivers/peripheral/tcpwm/cy_tcpwm_pwm.h **** * disclaimers, and limitations in the end user license agreement accompanying
  13:Generated_Source\PSoC6\pdl\drivers/peripheral/tcpwm/cy_tcpwm_pwm.h **** * the software package with which this file was provided.
  14:Generated_Source\PSoC6\pdl\drivers/peripheral/tcpwm/cy_tcpwm_pwm.h **** *******************************************************************************/
  15:Generated_Source\PSoC6\pdl\drivers/peripheral/tcpwm/cy_tcpwm_pwm.h **** 
  16:Generated_Source\PSoC6\pdl\drivers/peripheral/tcpwm/cy_tcpwm_pwm.h **** #if !defined(CY_TCPWM_PWM_H)
  17:Generated_Source\PSoC6\pdl\drivers/peripheral/tcpwm/cy_tcpwm_pwm.h **** #define CY_TCPWM_PWM_H
  18:Generated_Source\PSoC6\pdl\drivers/peripheral/tcpwm/cy_tcpwm_pwm.h **** 
  19:Generated_Source\PSoC6\pdl\drivers/peripheral/tcpwm/cy_tcpwm_pwm.h **** #include "cy_tcpwm.h"
  20:Generated_Source\PSoC6\pdl\drivers/peripheral/tcpwm/cy_tcpwm_pwm.h **** 
  21:Generated_Source\PSoC6\pdl\drivers/peripheral/tcpwm/cy_tcpwm_pwm.h **** #if defined(__cplusplus)
  22:Generated_Source\PSoC6\pdl\drivers/peripheral/tcpwm/cy_tcpwm_pwm.h **** extern "C" {
  23:Generated_Source\PSoC6\pdl\drivers/peripheral/tcpwm/cy_tcpwm_pwm.h **** #endif
  24:Generated_Source\PSoC6\pdl\drivers/peripheral/tcpwm/cy_tcpwm_pwm.h **** 
  25:Generated_Source\PSoC6\pdl\drivers/peripheral/tcpwm/cy_tcpwm_pwm.h **** /**
  26:Generated_Source\PSoC6\pdl\drivers/peripheral/tcpwm/cy_tcpwm_pwm.h **** * \addtogroup group_tcpwm_pwm
  27:Generated_Source\PSoC6\pdl\drivers/peripheral/tcpwm/cy_tcpwm_pwm.h **** * Driver API for PWM.
  28:Generated_Source\PSoC6\pdl\drivers/peripheral/tcpwm/cy_tcpwm_pwm.h **** * \{
  29:Generated_Source\PSoC6\pdl\drivers/peripheral/tcpwm/cy_tcpwm_pwm.h **** */
  30:Generated_Source\PSoC6\pdl\drivers/peripheral/tcpwm/cy_tcpwm_pwm.h **** 
  31:Generated_Source\PSoC6\pdl\drivers/peripheral/tcpwm/cy_tcpwm_pwm.h **** /**
  32:Generated_Source\PSoC6\pdl\drivers/peripheral/tcpwm/cy_tcpwm_pwm.h **** * \defgroup group_tcpwm_macros_pwm          Macros
  33:Generated_Source\PSoC6\pdl\drivers/peripheral/tcpwm/cy_tcpwm_pwm.h **** * \defgroup group_tcpwm_functions_pwm       Functions
  34:Generated_Source\PSoC6\pdl\drivers/peripheral/tcpwm/cy_tcpwm_pwm.h **** * \defgroup group_tcpwm_data_structures_pwm Data Structures
  35:Generated_Source\PSoC6\pdl\drivers/peripheral/tcpwm/cy_tcpwm_pwm.h **** * \} */
  36:Generated_Source\PSoC6\pdl\drivers/peripheral/tcpwm/cy_tcpwm_pwm.h **** 
  37:Generated_Source\PSoC6\pdl\drivers/peripheral/tcpwm/cy_tcpwm_pwm.h **** /**
  38:Generated_Source\PSoC6\pdl\drivers/peripheral/tcpwm/cy_tcpwm_pwm.h **** * \addtogroup group_tcpwm_data_structures_pwm
  39:Generated_Source\PSoC6\pdl\drivers/peripheral/tcpwm/cy_tcpwm_pwm.h **** * \{
  40:Generated_Source\PSoC6\pdl\drivers/peripheral/tcpwm/cy_tcpwm_pwm.h **** */
  41:Generated_Source\PSoC6\pdl\drivers/peripheral/tcpwm/cy_tcpwm_pwm.h **** 
  42:Generated_Source\PSoC6\pdl\drivers/peripheral/tcpwm/cy_tcpwm_pwm.h **** /** PWM configuration structure */
  43:Generated_Source\PSoC6\pdl\drivers/peripheral/tcpwm/cy_tcpwm_pwm.h **** typedef struct cy_stc_tcpwm_pwm_config
  44:Generated_Source\PSoC6\pdl\drivers/peripheral/tcpwm/cy_tcpwm_pwm.h **** {
  45:Generated_Source\PSoC6\pdl\drivers/peripheral/tcpwm/cy_tcpwm_pwm.h ****     uint32_t    pwmMode;            /**< Sets the PWM mode. See \ref group_tcpwm_pwm_modes */
  46:Generated_Source\PSoC6\pdl\drivers/peripheral/tcpwm/cy_tcpwm_pwm.h ****     /** Sets the clock prescaler inside the TCWPM block. See \ref group_tcpwm_pwm_clk_prescalers */
  47:Generated_Source\PSoC6\pdl\drivers/peripheral/tcpwm/cy_tcpwm_pwm.h ****     uint32_t     clockPrescaler;
  48:Generated_Source\PSoC6\pdl\drivers/peripheral/tcpwm/cy_tcpwm_pwm.h ****     uint32_t    pwmAlignment;       /**< Sets the PWM alignment. See \ref group_tcpwm_pwm_alignment
  49:Generated_Source\PSoC6\pdl\drivers/peripheral/tcpwm/cy_tcpwm_pwm.h ****     uint32_t    deadTimeClocks;     /**< The number of dead time-clocks if PWM with dead time is ch
  50:Generated_Source\PSoC6\pdl\drivers/peripheral/tcpwm/cy_tcpwm_pwm.h ****     uint32_t    runMode;            /**< Sets the PWM run mode. See \ref group_tcpwm_pwm_run_modes 
  51:Generated_Source\PSoC6\pdl\drivers/peripheral/tcpwm/cy_tcpwm_pwm.h ****     uint32_t    period0;            /**< Sets the period0 of the pwm */
  52:Generated_Source\PSoC6\pdl\drivers/peripheral/tcpwm/cy_tcpwm_pwm.h ****     uint32_t    period1;            /**< Sets the period1 of the pwm */
  53:Generated_Source\PSoC6\pdl\drivers/peripheral/tcpwm/cy_tcpwm_pwm.h ****     bool        enablePeriodSwap;   /**< Enables swapping of period 0 and period 1 on terminal coun
  54:Generated_Source\PSoC6\pdl\drivers/peripheral/tcpwm/cy_tcpwm_pwm.h ****     uint32_t    compare0;           /**< Sets the value for Compare0 */
  55:Generated_Source\PSoC6\pdl\drivers/peripheral/tcpwm/cy_tcpwm_pwm.h ****     uint32_t    compare1;           /**< Sets the value for Compare1 */
  56:Generated_Source\PSoC6\pdl\drivers/peripheral/tcpwm/cy_tcpwm_pwm.h ****     bool        enableCompareSwap;  /**< If enabled, the compare values are swapped on the terminal
  57:Generated_Source\PSoC6\pdl\drivers/peripheral/tcpwm/cy_tcpwm_pwm.h ****     /** Enables an interrupt on the terminal count, capture or compare. See \ref group_tcpwm_interr
  58:Generated_Source\PSoC6\pdl\drivers/peripheral/tcpwm/cy_tcpwm_pwm.h ****     uint32_t    interruptSources;
  59:Generated_Source\PSoC6\pdl\drivers/peripheral/tcpwm/cy_tcpwm_pwm.h ****     uint32_t    invertPWMOut;       /**< Inverts the PWM output */
  60:Generated_Source\PSoC6\pdl\drivers/peripheral/tcpwm/cy_tcpwm_pwm.h ****     uint32_t    invertPWMOutN;      /**< Inverts the PWM_n output */
  61:Generated_Source\PSoC6\pdl\drivers/peripheral/tcpwm/cy_tcpwm_pwm.h ****     uint32_t    killMode;           /**< Configures the PWM kill modes. See \ref group_tcpwm_pwm_ki
  62:Generated_Source\PSoC6\pdl\drivers/peripheral/tcpwm/cy_tcpwm_pwm.h ****     uint32_t    swapInputMode;      /**< Configures how the swap input behaves. See \ref group_tcpw
  63:Generated_Source\PSoC6\pdl\drivers/peripheral/tcpwm/cy_tcpwm_pwm.h ****     /** Selects which input the swap uses. Inputs are device-specific. See \ref group_tcpwm_input_s
  64:Generated_Source\PSoC6\pdl\drivers/peripheral/tcpwm/cy_tcpwm_pwm.h ****     uint32_t    swapInput;
  65:Generated_Source\PSoC6\pdl\drivers/peripheral/tcpwm/cy_tcpwm_pwm.h ****     uint32_t    reloadInputMode;    /**< Configures how the reload input behaves. See \ref group_tc
ARM GAS  C:\Users\rober\AppData\Local\Temp\ccaShyPv.s 			page 27


  66:Generated_Source\PSoC6\pdl\drivers/peripheral/tcpwm/cy_tcpwm_pwm.h ****     /** Selects which input the reload uses. The inputs are device-specific. See \ref group_tcpwm_i
  67:Generated_Source\PSoC6\pdl\drivers/peripheral/tcpwm/cy_tcpwm_pwm.h ****     uint32_t    reloadInput;            
  68:Generated_Source\PSoC6\pdl\drivers/peripheral/tcpwm/cy_tcpwm_pwm.h ****     uint32_t    startInputMode;     /**< Configures how the start input behaves. See \ref group_tcp
  69:Generated_Source\PSoC6\pdl\drivers/peripheral/tcpwm/cy_tcpwm_pwm.h ****     /** Selects which input the start uses. The inputs are device-specific. See \ref group_tcpwm_in
  70:Generated_Source\PSoC6\pdl\drivers/peripheral/tcpwm/cy_tcpwm_pwm.h ****     uint32_t    startInput;                
  71:Generated_Source\PSoC6\pdl\drivers/peripheral/tcpwm/cy_tcpwm_pwm.h ****     uint32_t    killInputMode;      /**< Configures how the kill input behaves. See \ref group_tcpw
  72:Generated_Source\PSoC6\pdl\drivers/peripheral/tcpwm/cy_tcpwm_pwm.h ****     /** Selects which input the kill uses. The inputs are device-specific. See \ref group_tcpwm_inp
  73:Generated_Source\PSoC6\pdl\drivers/peripheral/tcpwm/cy_tcpwm_pwm.h ****     uint32_t    killInput;
  74:Generated_Source\PSoC6\pdl\drivers/peripheral/tcpwm/cy_tcpwm_pwm.h ****     uint32_t    countInputMode;     /**< Configures how the count input behaves. See \ref group_tcp
  75:Generated_Source\PSoC6\pdl\drivers/peripheral/tcpwm/cy_tcpwm_pwm.h ****     /** Selects which input the count uses. The inputs are device-specific. See \ref group_tcpwm_in
  76:Generated_Source\PSoC6\pdl\drivers/peripheral/tcpwm/cy_tcpwm_pwm.h ****     uint32_t    countInput;
  77:Generated_Source\PSoC6\pdl\drivers/peripheral/tcpwm/cy_tcpwm_pwm.h **** }cy_stc_tcpwm_pwm_config_t;
  78:Generated_Source\PSoC6\pdl\drivers/peripheral/tcpwm/cy_tcpwm_pwm.h **** /** \} group_tcpwm_data_structures_pwm */
  79:Generated_Source\PSoC6\pdl\drivers/peripheral/tcpwm/cy_tcpwm_pwm.h **** 
  80:Generated_Source\PSoC6\pdl\drivers/peripheral/tcpwm/cy_tcpwm_pwm.h **** /**
  81:Generated_Source\PSoC6\pdl\drivers/peripheral/tcpwm/cy_tcpwm_pwm.h **** * \addtogroup group_tcpwm_macros_pwm
  82:Generated_Source\PSoC6\pdl\drivers/peripheral/tcpwm/cy_tcpwm_pwm.h **** * \{
  83:Generated_Source\PSoC6\pdl\drivers/peripheral/tcpwm/cy_tcpwm_pwm.h **** * \defgroup group_tcpwm_pwm_run_modes PWM run modes
  84:Generated_Source\PSoC6\pdl\drivers/peripheral/tcpwm/cy_tcpwm_pwm.h **** * \{
  85:Generated_Source\PSoC6\pdl\drivers/peripheral/tcpwm/cy_tcpwm_pwm.h **** * Run modes for the pwm timer.
  86:Generated_Source\PSoC6\pdl\drivers/peripheral/tcpwm/cy_tcpwm_pwm.h **** */
  87:Generated_Source\PSoC6\pdl\drivers/peripheral/tcpwm/cy_tcpwm_pwm.h **** #define CY_TCPWM_PWM_ONESHOT            (1U)    /**< Counter runs once and then stops */
  88:Generated_Source\PSoC6\pdl\drivers/peripheral/tcpwm/cy_tcpwm_pwm.h **** #define CY_TCPWM_PWM_CONTINUOUS         (0U)    /**< Counter runs forever */
  89:Generated_Source\PSoC6\pdl\drivers/peripheral/tcpwm/cy_tcpwm_pwm.h **** /** \} group_tcpwm_pwm_run_modes */
  90:Generated_Source\PSoC6\pdl\drivers/peripheral/tcpwm/cy_tcpwm_pwm.h **** 
  91:Generated_Source\PSoC6\pdl\drivers/peripheral/tcpwm/cy_tcpwm_pwm.h **** /** \defgroup group_tcpwm_pwm_modes PWM modes 
  92:Generated_Source\PSoC6\pdl\drivers/peripheral/tcpwm/cy_tcpwm_pwm.h **** * \{
  93:Generated_Source\PSoC6\pdl\drivers/peripheral/tcpwm/cy_tcpwm_pwm.h **** * Sets the PWM modes.
  94:Generated_Source\PSoC6\pdl\drivers/peripheral/tcpwm/cy_tcpwm_pwm.h **** */
  95:Generated_Source\PSoC6\pdl\drivers/peripheral/tcpwm/cy_tcpwm_pwm.h **** #define CY_TCPWM_PWM_MODE_PWM           (4U) /**< Standard PWM Mode*/
  96:Generated_Source\PSoC6\pdl\drivers/peripheral/tcpwm/cy_tcpwm_pwm.h **** #define CY_TCPWM_PWM_MODE_DEADTIME      (5U)    /**< PWM with deadtime mode*/
  97:Generated_Source\PSoC6\pdl\drivers/peripheral/tcpwm/cy_tcpwm_pwm.h **** #define CY_TCPWM_PWM_MODE_PSEUDORANDOM  (6U)    /**< Pseudo Random PWM */
  98:Generated_Source\PSoC6\pdl\drivers/peripheral/tcpwm/cy_tcpwm_pwm.h **** /** \} group_tcpwm_pwm_modes */
  99:Generated_Source\PSoC6\pdl\drivers/peripheral/tcpwm/cy_tcpwm_pwm.h **** 
 100:Generated_Source\PSoC6\pdl\drivers/peripheral/tcpwm/cy_tcpwm_pwm.h **** /** \defgroup group_tcpwm_pwm_alignment PWM Alignment
 101:Generated_Source\PSoC6\pdl\drivers/peripheral/tcpwm/cy_tcpwm_pwm.h **** * Sets the alignment of the PWM.
 102:Generated_Source\PSoC6\pdl\drivers/peripheral/tcpwm/cy_tcpwm_pwm.h **** * \{
 103:Generated_Source\PSoC6\pdl\drivers/peripheral/tcpwm/cy_tcpwm_pwm.h **** */
 104:Generated_Source\PSoC6\pdl\drivers/peripheral/tcpwm/cy_tcpwm_pwm.h **** #define CY_TCPWM_PWM_LEFT_ALIGN         (0U)     /**< PWM is left aligned, meaning it starts high *
 105:Generated_Source\PSoC6\pdl\drivers/peripheral/tcpwm/cy_tcpwm_pwm.h **** #define CY_TCPWM_PWM_RIGHT_ALIGN        (1U)        /**< PWM is right aligned, meaning it starts lo
 106:Generated_Source\PSoC6\pdl\drivers/peripheral/tcpwm/cy_tcpwm_pwm.h **** /** PWM is centered aligned, terminal count only occurs on underflow */
 107:Generated_Source\PSoC6\pdl\drivers/peripheral/tcpwm/cy_tcpwm_pwm.h **** #define CY_TCPWM_PWM_CENTER_ALIGN       (2U)
 108:Generated_Source\PSoC6\pdl\drivers/peripheral/tcpwm/cy_tcpwm_pwm.h **** /** PWM is asymmetrically aligned, terminal count occurs on overflow and underflow */
 109:Generated_Source\PSoC6\pdl\drivers/peripheral/tcpwm/cy_tcpwm_pwm.h **** #define CY_TCPWM_PWM_ASYMMETRIC_ALIGN   (3U)
 110:Generated_Source\PSoC6\pdl\drivers/peripheral/tcpwm/cy_tcpwm_pwm.h **** /** \} group_tcpwm_pwm_alignment */
 111:Generated_Source\PSoC6\pdl\drivers/peripheral/tcpwm/cy_tcpwm_pwm.h **** 
 112:Generated_Source\PSoC6\pdl\drivers/peripheral/tcpwm/cy_tcpwm_pwm.h **** /** \defgroup group_tcpwm_pwm_kill_modes PWM kill modes
 113:Generated_Source\PSoC6\pdl\drivers/peripheral/tcpwm/cy_tcpwm_pwm.h **** * Sets the kill mode for the PWM.
 114:Generated_Source\PSoC6\pdl\drivers/peripheral/tcpwm/cy_tcpwm_pwm.h **** * \{
 115:Generated_Source\PSoC6\pdl\drivers/peripheral/tcpwm/cy_tcpwm_pwm.h **** */
 116:Generated_Source\PSoC6\pdl\drivers/peripheral/tcpwm/cy_tcpwm_pwm.h **** #define CY_TCPWM_PWM_STOP_ON_KILL       (2U)    /**< PWM stops counting on kill */
 117:Generated_Source\PSoC6\pdl\drivers/peripheral/tcpwm/cy_tcpwm_pwm.h **** #define CY_TCPWM_PWM_SYNCH_KILL         (1U)    /**< PWM output is killed after next TC*/
 118:Generated_Source\PSoC6\pdl\drivers/peripheral/tcpwm/cy_tcpwm_pwm.h **** #define CY_TCPWM_PWM_ASYNC_KILL         (0U)    /**< PWM output is killed instantly */
 119:Generated_Source\PSoC6\pdl\drivers/peripheral/tcpwm/cy_tcpwm_pwm.h **** /** \} group_tcpwm_pwm_kill_modes */
 120:Generated_Source\PSoC6\pdl\drivers/peripheral/tcpwm/cy_tcpwm_pwm.h **** 
 121:Generated_Source\PSoC6\pdl\drivers/peripheral/tcpwm/cy_tcpwm_pwm.h **** /** \defgroup group_tcpwm_pwm_clk_prescalers PWM CLK Prescaler values
 122:Generated_Source\PSoC6\pdl\drivers/peripheral/tcpwm/cy_tcpwm_pwm.h **** * \{
ARM GAS  C:\Users\rober\AppData\Local\Temp\ccaShyPv.s 			page 28


 123:Generated_Source\PSoC6\pdl\drivers/peripheral/tcpwm/cy_tcpwm_pwm.h **** * Clock prescaler values.
 124:Generated_Source\PSoC6\pdl\drivers/peripheral/tcpwm/cy_tcpwm_pwm.h **** */
 125:Generated_Source\PSoC6\pdl\drivers/peripheral/tcpwm/cy_tcpwm_pwm.h **** #define CY_TCPWM_PWM_PRESCALER_DIVBY_1      (0U) /**< Divide by 1 */
 126:Generated_Source\PSoC6\pdl\drivers/peripheral/tcpwm/cy_tcpwm_pwm.h **** #define CY_TCPWM_PWM_PRESCALER_DIVBY_2      (1U) /**< Divide by 2 */
 127:Generated_Source\PSoC6\pdl\drivers/peripheral/tcpwm/cy_tcpwm_pwm.h **** #define CY_TCPWM_PWM_PRESCALER_DIVBY_4      (2U) /**< Divide by 4 */
 128:Generated_Source\PSoC6\pdl\drivers/peripheral/tcpwm/cy_tcpwm_pwm.h **** #define CY_TCPWM_PWM_PRESCALER_DIVBY_8      (3U) /**< Divide by 8 */
 129:Generated_Source\PSoC6\pdl\drivers/peripheral/tcpwm/cy_tcpwm_pwm.h **** #define CY_TCPWM_PWM_PRESCALER_DIVBY_16     (4U) /**< Divide by 16 */
 130:Generated_Source\PSoC6\pdl\drivers/peripheral/tcpwm/cy_tcpwm_pwm.h **** #define CY_TCPWM_PWM_PRESCALER_DIVBY_32     (5U) /**< Divide by 32 */
 131:Generated_Source\PSoC6\pdl\drivers/peripheral/tcpwm/cy_tcpwm_pwm.h **** #define CY_TCPWM_PWM_PRESCALER_DIVBY_64     (6U) /**< Divide by 64 */
 132:Generated_Source\PSoC6\pdl\drivers/peripheral/tcpwm/cy_tcpwm_pwm.h **** #define CY_TCPWM_PWM_PRESCALER_DIVBY_128    (7U) /**< Divide by 128 */
 133:Generated_Source\PSoC6\pdl\drivers/peripheral/tcpwm/cy_tcpwm_pwm.h **** /** \} group_tcpwm_pwm_clk_prescalers */
 134:Generated_Source\PSoC6\pdl\drivers/peripheral/tcpwm/cy_tcpwm_pwm.h **** 
 135:Generated_Source\PSoC6\pdl\drivers/peripheral/tcpwm/cy_tcpwm_pwm.h **** /** \defgroup group_tcpwm_pwm_output_invert PWM output invert
 136:Generated_Source\PSoC6\pdl\drivers/peripheral/tcpwm/cy_tcpwm_pwm.h **** * \{
 137:Generated_Source\PSoC6\pdl\drivers/peripheral/tcpwm/cy_tcpwm_pwm.h **** * Output invert modes.
 138:Generated_Source\PSoC6\pdl\drivers/peripheral/tcpwm/cy_tcpwm_pwm.h **** */
 139:Generated_Source\PSoC6\pdl\drivers/peripheral/tcpwm/cy_tcpwm_pwm.h **** #define CY_TCPWM_PWM_INVERT_ENABLE          (1U)  /**< Invert the output mode */
 140:Generated_Source\PSoC6\pdl\drivers/peripheral/tcpwm/cy_tcpwm_pwm.h **** #define CY_TCPWM_PWM_INVERT_DISABLE         (0U)  /**< Do not invert the output mode */
 141:Generated_Source\PSoC6\pdl\drivers/peripheral/tcpwm/cy_tcpwm_pwm.h **** /** \} group_tcpwm_pwm_output_invert */
 142:Generated_Source\PSoC6\pdl\drivers/peripheral/tcpwm/cy_tcpwm_pwm.h **** 
 143:Generated_Source\PSoC6\pdl\drivers/peripheral/tcpwm/cy_tcpwm_pwm.h **** /** \defgroup group_tcpwm_pwm_status PWM Status
 144:Generated_Source\PSoC6\pdl\drivers/peripheral/tcpwm/cy_tcpwm_pwm.h **** * \{
 145:Generated_Source\PSoC6\pdl\drivers/peripheral/tcpwm/cy_tcpwm_pwm.h **** * The counter status.
 146:Generated_Source\PSoC6\pdl\drivers/peripheral/tcpwm/cy_tcpwm_pwm.h **** */
 147:Generated_Source\PSoC6\pdl\drivers/peripheral/tcpwm/cy_tcpwm_pwm.h **** #define CY_TCPWM_PWM_STATUS_DOWN_COUNTING   (0x1UL)        /**< PWM is down counting */
 148:Generated_Source\PSoC6\pdl\drivers/peripheral/tcpwm/cy_tcpwm_pwm.h **** #define CY_TCPWM_PWM_STATUS_UP_COUNTING     (0x2UL)        /**< PWM is up counting */
 149:Generated_Source\PSoC6\pdl\drivers/peripheral/tcpwm/cy_tcpwm_pwm.h **** #define CY_TCPWM_PWM_STATUS_COUNTER_RUNNING (TCPWM_CNT_STATUS_RUNNING_Msk)     /**< PWM counter is 
 150:Generated_Source\PSoC6\pdl\drivers/peripheral/tcpwm/cy_tcpwm_pwm.h **** /** \} group_tcpwm_pwm_status */
 151:Generated_Source\PSoC6\pdl\drivers/peripheral/tcpwm/cy_tcpwm_pwm.h **** 
 152:Generated_Source\PSoC6\pdl\drivers/peripheral/tcpwm/cy_tcpwm_pwm.h **** 
 153:Generated_Source\PSoC6\pdl\drivers/peripheral/tcpwm/cy_tcpwm_pwm.h **** /***************************************
 154:Generated_Source\PSoC6\pdl\drivers/peripheral/tcpwm/cy_tcpwm_pwm.h **** *        Registers Constants
 155:Generated_Source\PSoC6\pdl\drivers/peripheral/tcpwm/cy_tcpwm_pwm.h **** ***************************************/
 156:Generated_Source\PSoC6\pdl\drivers/peripheral/tcpwm/cy_tcpwm_pwm.h **** 
 157:Generated_Source\PSoC6\pdl\drivers/peripheral/tcpwm/cy_tcpwm_pwm.h **** /** \cond INTERNAL */
 158:Generated_Source\PSoC6\pdl\drivers/peripheral/tcpwm/cy_tcpwm_pwm.h **** #define CY_TCPWM_PWM_CTRL_SYNC_KILL_OR_STOP_ON_KILL_POS  (2U)
 159:Generated_Source\PSoC6\pdl\drivers/peripheral/tcpwm/cy_tcpwm_pwm.h **** #define CY_TCPWM_PWM_CTRL_SYNC_KILL_OR_STOP_ON_KILL_MASK (0x3UL << CY_TCPWM_PWM_CTRL_SYNC_KILL_OR_S
 160:Generated_Source\PSoC6\pdl\drivers/peripheral/tcpwm/cy_tcpwm_pwm.h **** /** \endcond */
 161:Generated_Source\PSoC6\pdl\drivers/peripheral/tcpwm/cy_tcpwm_pwm.h **** 
 162:Generated_Source\PSoC6\pdl\drivers/peripheral/tcpwm/cy_tcpwm_pwm.h **** /** \defgroup group_tcpwm_pwm_output_configuration PWM output signal configuration
 163:Generated_Source\PSoC6\pdl\drivers/peripheral/tcpwm/cy_tcpwm_pwm.h **** * \{
 164:Generated_Source\PSoC6\pdl\drivers/peripheral/tcpwm/cy_tcpwm_pwm.h **** * The configuration of PWM output signal for PWM alignment.
 165:Generated_Source\PSoC6\pdl\drivers/peripheral/tcpwm/cy_tcpwm_pwm.h **** */
 166:Generated_Source\PSoC6\pdl\drivers/peripheral/tcpwm/cy_tcpwm_pwm.h **** #define CY_TCPWM_PWM_TR_CTRL2_SET           (0UL) /**< Set define for PWM output signal configurati
 167:Generated_Source\PSoC6\pdl\drivers/peripheral/tcpwm/cy_tcpwm_pwm.h **** #define CY_TCPWM_PWM_TR_CTRL2_CLEAR         (1UL) /**< Clear define for PWM output signal configura
 168:Generated_Source\PSoC6\pdl\drivers/peripheral/tcpwm/cy_tcpwm_pwm.h **** #define CY_TCPWM_PWM_TR_CTRL2_INVERT        (2UL) /**< Invert define for PWM output signal configur
 169:Generated_Source\PSoC6\pdl\drivers/peripheral/tcpwm/cy_tcpwm_pwm.h **** #define CY_TCPWM_PWM_TR_CTRL2_NO_CHANGE     (3UL) /**< No change define for PWM output signal confi
 170:Generated_Source\PSoC6\pdl\drivers/peripheral/tcpwm/cy_tcpwm_pwm.h **** 
 171:Generated_Source\PSoC6\pdl\drivers/peripheral/tcpwm/cy_tcpwm_pwm.h **** /** The configuration of PWM output signal in Pseudo Random Mode */
 172:Generated_Source\PSoC6\pdl\drivers/peripheral/tcpwm/cy_tcpwm_pwm.h **** #define CY_TCPWM_PWM_MODE_PR         (_VAL2FLD(TCPWM_CNT_TR_CTRL2_CC_MATCH_MODE, CY_TCPWM_PWM_TR_CT
 173:Generated_Source\PSoC6\pdl\drivers/peripheral/tcpwm/cy_tcpwm_pwm.h ****                                       _VAL2FLD(TCPWM_CNT_TR_CTRL2_OVERFLOW_MODE, CY_TCPWM_PWM_TR_CT
 174:Generated_Source\PSoC6\pdl\drivers/peripheral/tcpwm/cy_tcpwm_pwm.h ****                                       _VAL2FLD(TCPWM_CNT_TR_CTRL2_UNDERFLOW_MODE, CY_TCPWM_PWM_TR_C
 175:Generated_Source\PSoC6\pdl\drivers/peripheral/tcpwm/cy_tcpwm_pwm.h **** 
 176:Generated_Source\PSoC6\pdl\drivers/peripheral/tcpwm/cy_tcpwm_pwm.h **** /** The configuration of PWM output signal for Left alignment */
 177:Generated_Source\PSoC6\pdl\drivers/peripheral/tcpwm/cy_tcpwm_pwm.h **** #define CY_TCPWM_PWM_MODE_LEFT       (_VAL2FLD(TCPWM_CNT_TR_CTRL2_CC_MATCH_MODE, CY_TCPWM_PWM_TR_CT
 178:Generated_Source\PSoC6\pdl\drivers/peripheral/tcpwm/cy_tcpwm_pwm.h ****                                       _VAL2FLD(TCPWM_CNT_TR_CTRL2_OVERFLOW_MODE, CY_TCPWM_PWM_TR_CT
 179:Generated_Source\PSoC6\pdl\drivers/peripheral/tcpwm/cy_tcpwm_pwm.h ****                                       _VAL2FLD(TCPWM_CNT_TR_CTRL2_UNDERFLOW_MODE, CY_TCPWM_PWM_TR_C
ARM GAS  C:\Users\rober\AppData\Local\Temp\ccaShyPv.s 			page 29


 180:Generated_Source\PSoC6\pdl\drivers/peripheral/tcpwm/cy_tcpwm_pwm.h **** 
 181:Generated_Source\PSoC6\pdl\drivers/peripheral/tcpwm/cy_tcpwm_pwm.h **** /** The configuration of PWM output signal for Right alignment */
 182:Generated_Source\PSoC6\pdl\drivers/peripheral/tcpwm/cy_tcpwm_pwm.h **** #define CY_TCPWM_PWM_MODE_RIGHT      (_VAL2FLD(TCPWM_CNT_TR_CTRL2_CC_MATCH_MODE, CY_TCPWM_PWM_TR_CT
 183:Generated_Source\PSoC6\pdl\drivers/peripheral/tcpwm/cy_tcpwm_pwm.h ****                                       _VAL2FLD(TCPWM_CNT_TR_CTRL2_OVERFLOW_MODE, CY_TCPWM_PWM_TR_CT
 184:Generated_Source\PSoC6\pdl\drivers/peripheral/tcpwm/cy_tcpwm_pwm.h ****                                       _VAL2FLD(TCPWM_CNT_TR_CTRL2_UNDERFLOW_MODE, CY_TCPWM_PWM_TR_C
 185:Generated_Source\PSoC6\pdl\drivers/peripheral/tcpwm/cy_tcpwm_pwm.h **** 
 186:Generated_Source\PSoC6\pdl\drivers/peripheral/tcpwm/cy_tcpwm_pwm.h **** /** The configuration of PWM output signal for Center and Asymmetric alignment */
 187:Generated_Source\PSoC6\pdl\drivers/peripheral/tcpwm/cy_tcpwm_pwm.h **** #define CY_TCPWM_PWM_MODE_CNTR_OR_ASYMM (_VAL2FLD(TCPWM_CNT_TR_CTRL2_CC_MATCH_MODE, CY_TCPWM_PWM_TR
 188:Generated_Source\PSoC6\pdl\drivers/peripheral/tcpwm/cy_tcpwm_pwm.h ****                                          _VAL2FLD(TCPWM_CNT_TR_CTRL2_OVERFLOW_MODE, CY_TCPWM_PWM_TR
 189:Generated_Source\PSoC6\pdl\drivers/peripheral/tcpwm/cy_tcpwm_pwm.h ****                                          _VAL2FLD(TCPWM_CNT_TR_CTRL2_UNDERFLOW_MODE, CY_TCPWM_PWM_T
 190:Generated_Source\PSoC6\pdl\drivers/peripheral/tcpwm/cy_tcpwm_pwm.h **** /** \} group_tcpwm_pwm_output_configuration */
 191:Generated_Source\PSoC6\pdl\drivers/peripheral/tcpwm/cy_tcpwm_pwm.h **** /** \} group_tcpwm_macros_pwm */
 192:Generated_Source\PSoC6\pdl\drivers/peripheral/tcpwm/cy_tcpwm_pwm.h **** 
 193:Generated_Source\PSoC6\pdl\drivers/peripheral/tcpwm/cy_tcpwm_pwm.h **** 
 194:Generated_Source\PSoC6\pdl\drivers/peripheral/tcpwm/cy_tcpwm_pwm.h **** /*******************************************************************************
 195:Generated_Source\PSoC6\pdl\drivers/peripheral/tcpwm/cy_tcpwm_pwm.h **** *        Function Prototypes
 196:Generated_Source\PSoC6\pdl\drivers/peripheral/tcpwm/cy_tcpwm_pwm.h **** *******************************************************************************/
 197:Generated_Source\PSoC6\pdl\drivers/peripheral/tcpwm/cy_tcpwm_pwm.h **** 
 198:Generated_Source\PSoC6\pdl\drivers/peripheral/tcpwm/cy_tcpwm_pwm.h **** /**
 199:Generated_Source\PSoC6\pdl\drivers/peripheral/tcpwm/cy_tcpwm_pwm.h **** * \addtogroup group_tcpwm_functions_pwm
 200:Generated_Source\PSoC6\pdl\drivers/peripheral/tcpwm/cy_tcpwm_pwm.h **** * \{
 201:Generated_Source\PSoC6\pdl\drivers/peripheral/tcpwm/cy_tcpwm_pwm.h **** */
 202:Generated_Source\PSoC6\pdl\drivers/peripheral/tcpwm/cy_tcpwm_pwm.h **** 
 203:Generated_Source\PSoC6\pdl\drivers/peripheral/tcpwm/cy_tcpwm_pwm.h **** cy_en_tcpwm_status_t Cy_TCPWM_PWM_Init(TCPWM_Type *base, uint32_t cntNum, cy_stc_tcpwm_pwm_config_t
 204:Generated_Source\PSoC6\pdl\drivers/peripheral/tcpwm/cy_tcpwm_pwm.h **** void Cy_TCPWM_PWM_DeInit(TCPWM_Type *base, uint32_t cntNum, cy_stc_tcpwm_pwm_config_t const *config
 205:Generated_Source\PSoC6\pdl\drivers/peripheral/tcpwm/cy_tcpwm_pwm.h **** __STATIC_INLINE void Cy_TCPWM_PWM_Enable(TCPWM_Type *base, uint32_t cntNum);
 206:Generated_Source\PSoC6\pdl\drivers/peripheral/tcpwm/cy_tcpwm_pwm.h **** __STATIC_INLINE void Cy_TCPWM_PWM_Disable(TCPWM_Type *base, uint32_t cntNum);
 207:Generated_Source\PSoC6\pdl\drivers/peripheral/tcpwm/cy_tcpwm_pwm.h **** __STATIC_INLINE uint32_t Cy_TCPWM_PWM_GetStatus(TCPWM_Type const *base, uint32_t cntNum);
 208:Generated_Source\PSoC6\pdl\drivers/peripheral/tcpwm/cy_tcpwm_pwm.h **** __STATIC_INLINE void Cy_TCPWM_PWM_SetCompare0(TCPWM_Type *base, uint32_t cntNum, uint32_t compare0)
 209:Generated_Source\PSoC6\pdl\drivers/peripheral/tcpwm/cy_tcpwm_pwm.h **** __STATIC_INLINE uint32_t Cy_TCPWM_PWM_GetCompare0(TCPWM_Type const *base, uint32_t cntNum);
 210:Generated_Source\PSoC6\pdl\drivers/peripheral/tcpwm/cy_tcpwm_pwm.h **** __STATIC_INLINE void Cy_TCPWM_PWM_SetCompare1(TCPWM_Type *base, uint32_t cntNum, uint32_t compare1)
 211:Generated_Source\PSoC6\pdl\drivers/peripheral/tcpwm/cy_tcpwm_pwm.h **** __STATIC_INLINE uint32_t Cy_TCPWM_PWM_GetCompare1(TCPWM_Type const *base, uint32_t cntNum);
 212:Generated_Source\PSoC6\pdl\drivers/peripheral/tcpwm/cy_tcpwm_pwm.h **** __STATIC_INLINE void Cy_TCPWM_PWM_EnableCompareSwap(TCPWM_Type *base, uint32_t cntNum, bool enable)
 213:Generated_Source\PSoC6\pdl\drivers/peripheral/tcpwm/cy_tcpwm_pwm.h **** __STATIC_INLINE void Cy_TCPWM_PWM_SetCounter(TCPWM_Type *base, uint32_t cntNum, uint32_t count);
 214:Generated_Source\PSoC6\pdl\drivers/peripheral/tcpwm/cy_tcpwm_pwm.h **** __STATIC_INLINE uint32_t Cy_TCPWM_PWM_GetCounter(TCPWM_Type const *base, uint32_t cntNum);
 215:Generated_Source\PSoC6\pdl\drivers/peripheral/tcpwm/cy_tcpwm_pwm.h **** __STATIC_INLINE void Cy_TCPWM_PWM_SetPeriod0(TCPWM_Type *base, uint32_t cntNum, uint32_t period0);
 216:Generated_Source\PSoC6\pdl\drivers/peripheral/tcpwm/cy_tcpwm_pwm.h **** __STATIC_INLINE uint32_t Cy_TCPWM_PWM_GetPeriod0(TCPWM_Type const *base, uint32_t cntNum);
 217:Generated_Source\PSoC6\pdl\drivers/peripheral/tcpwm/cy_tcpwm_pwm.h **** __STATIC_INLINE void Cy_TCPWM_PWM_SetPeriod1(TCPWM_Type *base, uint32_t cntNum, uint32_t period1);
 218:Generated_Source\PSoC6\pdl\drivers/peripheral/tcpwm/cy_tcpwm_pwm.h **** __STATIC_INLINE uint32_t Cy_TCPWM_PWM_GetPeriod1(TCPWM_Type const *base, uint32_t cntNum);
 219:Generated_Source\PSoC6\pdl\drivers/peripheral/tcpwm/cy_tcpwm_pwm.h **** __STATIC_INLINE void Cy_TCPWM_PWM_EnablePeriodSwap(TCPWM_Type *base, uint32_t cntNum, bool enable);
 220:Generated_Source\PSoC6\pdl\drivers/peripheral/tcpwm/cy_tcpwm_pwm.h **** 
 221:Generated_Source\PSoC6\pdl\drivers/peripheral/tcpwm/cy_tcpwm_pwm.h **** 
 222:Generated_Source\PSoC6\pdl\drivers/peripheral/tcpwm/cy_tcpwm_pwm.h **** /*******************************************************************************
 223:Generated_Source\PSoC6\pdl\drivers/peripheral/tcpwm/cy_tcpwm_pwm.h **** * Function Name: Cy_TCPWM_PWM_Enable
 224:Generated_Source\PSoC6\pdl\drivers/peripheral/tcpwm/cy_tcpwm_pwm.h **** ****************************************************************************//**
 225:Generated_Source\PSoC6\pdl\drivers/peripheral/tcpwm/cy_tcpwm_pwm.h **** *
 226:Generated_Source\PSoC6\pdl\drivers/peripheral/tcpwm/cy_tcpwm_pwm.h **** * Enables the counter in the TCPWM block for the PWM operation.
 227:Generated_Source\PSoC6\pdl\drivers/peripheral/tcpwm/cy_tcpwm_pwm.h **** *
 228:Generated_Source\PSoC6\pdl\drivers/peripheral/tcpwm/cy_tcpwm_pwm.h **** * \param base
 229:Generated_Source\PSoC6\pdl\drivers/peripheral/tcpwm/cy_tcpwm_pwm.h **** * The pointer to a TCPWM instance.
 230:Generated_Source\PSoC6\pdl\drivers/peripheral/tcpwm/cy_tcpwm_pwm.h **** *
 231:Generated_Source\PSoC6\pdl\drivers/peripheral/tcpwm/cy_tcpwm_pwm.h **** * \param cntNum 
 232:Generated_Source\PSoC6\pdl\drivers/peripheral/tcpwm/cy_tcpwm_pwm.h **** * The Counter instance number in the selected TCPWM.
 233:Generated_Source\PSoC6\pdl\drivers/peripheral/tcpwm/cy_tcpwm_pwm.h **** *
 234:Generated_Source\PSoC6\pdl\drivers/peripheral/tcpwm/cy_tcpwm_pwm.h **** * \funcusage
 235:Generated_Source\PSoC6\pdl\drivers/peripheral/tcpwm/cy_tcpwm_pwm.h **** * \snippet tcpwm/tcpwm_v1_0_pwm_sut_01.cydsn/main_cm4.c snippet_Cy_TCPWM_PWM_Init
 236:Generated_Source\PSoC6\pdl\drivers/peripheral/tcpwm/cy_tcpwm_pwm.h **** *
ARM GAS  C:\Users\rober\AppData\Local\Temp\ccaShyPv.s 			page 30


 237:Generated_Source\PSoC6\pdl\drivers/peripheral/tcpwm/cy_tcpwm_pwm.h **** *******************************************************************************/
 238:Generated_Source\PSoC6\pdl\drivers/peripheral/tcpwm/cy_tcpwm_pwm.h **** __STATIC_INLINE void Cy_TCPWM_PWM_Enable(TCPWM_Type *base, uint32_t cntNum)
 239:Generated_Source\PSoC6\pdl\drivers/peripheral/tcpwm/cy_tcpwm_pwm.h **** {
 240:Generated_Source\PSoC6\pdl\drivers/peripheral/tcpwm/cy_tcpwm_pwm.h ****     base->CTRL_SET = (1UL << cntNum);  
 241:Generated_Source\PSoC6\pdl\drivers/peripheral/tcpwm/cy_tcpwm_pwm.h **** }
 242:Generated_Source\PSoC6\pdl\drivers/peripheral/tcpwm/cy_tcpwm_pwm.h **** 
 243:Generated_Source\PSoC6\pdl\drivers/peripheral/tcpwm/cy_tcpwm_pwm.h **** /*******************************************************************************
 244:Generated_Source\PSoC6\pdl\drivers/peripheral/tcpwm/cy_tcpwm_pwm.h **** * Function Name: Cy_TCPWM_PWM_Disable
 245:Generated_Source\PSoC6\pdl\drivers/peripheral/tcpwm/cy_tcpwm_pwm.h **** ****************************************************************************//**
 246:Generated_Source\PSoC6\pdl\drivers/peripheral/tcpwm/cy_tcpwm_pwm.h **** *
 247:Generated_Source\PSoC6\pdl\drivers/peripheral/tcpwm/cy_tcpwm_pwm.h **** * Disables the counter in the TCPWM block.
 248:Generated_Source\PSoC6\pdl\drivers/peripheral/tcpwm/cy_tcpwm_pwm.h **** *
 249:Generated_Source\PSoC6\pdl\drivers/peripheral/tcpwm/cy_tcpwm_pwm.h **** * \param base
 250:Generated_Source\PSoC6\pdl\drivers/peripheral/tcpwm/cy_tcpwm_pwm.h **** * The pointer to a TCPWM instance.
 251:Generated_Source\PSoC6\pdl\drivers/peripheral/tcpwm/cy_tcpwm_pwm.h **** *
 252:Generated_Source\PSoC6\pdl\drivers/peripheral/tcpwm/cy_tcpwm_pwm.h **** * \param cntNum 
 253:Generated_Source\PSoC6\pdl\drivers/peripheral/tcpwm/cy_tcpwm_pwm.h **** * The Counter instance number in the selected TCPWM.
 254:Generated_Source\PSoC6\pdl\drivers/peripheral/tcpwm/cy_tcpwm_pwm.h **** *
 255:Generated_Source\PSoC6\pdl\drivers/peripheral/tcpwm/cy_tcpwm_pwm.h **** * \funcusage
 256:Generated_Source\PSoC6\pdl\drivers/peripheral/tcpwm/cy_tcpwm_pwm.h **** * \snippet tcpwm/tcpwm_v1_0_pwm_sut_01.cydsn/main_cm4.c snippet_Cy_TCPWM_PWM_DeInit
 257:Generated_Source\PSoC6\pdl\drivers/peripheral/tcpwm/cy_tcpwm_pwm.h **** *
 258:Generated_Source\PSoC6\pdl\drivers/peripheral/tcpwm/cy_tcpwm_pwm.h **** *******************************************************************************/
 259:Generated_Source\PSoC6\pdl\drivers/peripheral/tcpwm/cy_tcpwm_pwm.h **** __STATIC_INLINE void Cy_TCPWM_PWM_Disable(TCPWM_Type *base, uint32_t cntNum)
 260:Generated_Source\PSoC6\pdl\drivers/peripheral/tcpwm/cy_tcpwm_pwm.h **** {
 261:Generated_Source\PSoC6\pdl\drivers/peripheral/tcpwm/cy_tcpwm_pwm.h ****     base->CTRL_CLR = (1UL << cntNum);
 262:Generated_Source\PSoC6\pdl\drivers/peripheral/tcpwm/cy_tcpwm_pwm.h **** }
 263:Generated_Source\PSoC6\pdl\drivers/peripheral/tcpwm/cy_tcpwm_pwm.h **** 
 264:Generated_Source\PSoC6\pdl\drivers/peripheral/tcpwm/cy_tcpwm_pwm.h **** 
 265:Generated_Source\PSoC6\pdl\drivers/peripheral/tcpwm/cy_tcpwm_pwm.h **** /*******************************************************************************
 266:Generated_Source\PSoC6\pdl\drivers/peripheral/tcpwm/cy_tcpwm_pwm.h **** * Function Name: Cy_TCPWM_PWM_GetStatus
 267:Generated_Source\PSoC6\pdl\drivers/peripheral/tcpwm/cy_tcpwm_pwm.h **** ****************************************************************************//**
 268:Generated_Source\PSoC6\pdl\drivers/peripheral/tcpwm/cy_tcpwm_pwm.h **** *
 269:Generated_Source\PSoC6\pdl\drivers/peripheral/tcpwm/cy_tcpwm_pwm.h **** * Returns the status of the PWM.
 270:Generated_Source\PSoC6\pdl\drivers/peripheral/tcpwm/cy_tcpwm_pwm.h **** *
 271:Generated_Source\PSoC6\pdl\drivers/peripheral/tcpwm/cy_tcpwm_pwm.h **** * \param base
 272:Generated_Source\PSoC6\pdl\drivers/peripheral/tcpwm/cy_tcpwm_pwm.h **** * The pointer to a TCPWM instance.
 273:Generated_Source\PSoC6\pdl\drivers/peripheral/tcpwm/cy_tcpwm_pwm.h **** *
 274:Generated_Source\PSoC6\pdl\drivers/peripheral/tcpwm/cy_tcpwm_pwm.h **** * \param cntNum 
 275:Generated_Source\PSoC6\pdl\drivers/peripheral/tcpwm/cy_tcpwm_pwm.h **** * The Counter instance number in the selected TCPWM.
 276:Generated_Source\PSoC6\pdl\drivers/peripheral/tcpwm/cy_tcpwm_pwm.h **** *
 277:Generated_Source\PSoC6\pdl\drivers/peripheral/tcpwm/cy_tcpwm_pwm.h **** * \return
 278:Generated_Source\PSoC6\pdl\drivers/peripheral/tcpwm/cy_tcpwm_pwm.h **** * The status. See \ref group_tcpwm_pwm_status
 279:Generated_Source\PSoC6\pdl\drivers/peripheral/tcpwm/cy_tcpwm_pwm.h **** *
 280:Generated_Source\PSoC6\pdl\drivers/peripheral/tcpwm/cy_tcpwm_pwm.h **** * \funcusage
 281:Generated_Source\PSoC6\pdl\drivers/peripheral/tcpwm/cy_tcpwm_pwm.h **** * \snippet tcpwm/tcpwm_v1_0_pwm_sut_01.cydsn/main_cm4.c snippet_Cy_TCPWM_PWM_GetStatus
 282:Generated_Source\PSoC6\pdl\drivers/peripheral/tcpwm/cy_tcpwm_pwm.h **** *
 283:Generated_Source\PSoC6\pdl\drivers/peripheral/tcpwm/cy_tcpwm_pwm.h **** *******************************************************************************/
 284:Generated_Source\PSoC6\pdl\drivers/peripheral/tcpwm/cy_tcpwm_pwm.h **** __STATIC_INLINE uint32_t Cy_TCPWM_PWM_GetStatus(TCPWM_Type const *base, uint32_t cntNum)
 285:Generated_Source\PSoC6\pdl\drivers/peripheral/tcpwm/cy_tcpwm_pwm.h **** {
 286:Generated_Source\PSoC6\pdl\drivers/peripheral/tcpwm/cy_tcpwm_pwm.h ****     uint32_t status = base->CNT[cntNum].STATUS;
 287:Generated_Source\PSoC6\pdl\drivers/peripheral/tcpwm/cy_tcpwm_pwm.h ****     
 288:Generated_Source\PSoC6\pdl\drivers/peripheral/tcpwm/cy_tcpwm_pwm.h ****     /* Generates proper up counting status, does not generated by HW */
 289:Generated_Source\PSoC6\pdl\drivers/peripheral/tcpwm/cy_tcpwm_pwm.h ****     status &= ~CY_TCPWM_PWM_STATUS_UP_COUNTING;
 290:Generated_Source\PSoC6\pdl\drivers/peripheral/tcpwm/cy_tcpwm_pwm.h ****     status |= ((~status & CY_TCPWM_PWM_STATUS_DOWN_COUNTING & (status >> TCPWM_CNT_STATUS_RUNNING_P
 291:Generated_Source\PSoC6\pdl\drivers/peripheral/tcpwm/cy_tcpwm_pwm.h ****                CY_TCPWM_CNT_STATUS_UP_POS);
 292:Generated_Source\PSoC6\pdl\drivers/peripheral/tcpwm/cy_tcpwm_pwm.h ****     
 293:Generated_Source\PSoC6\pdl\drivers/peripheral/tcpwm/cy_tcpwm_pwm.h ****     return(status);
ARM GAS  C:\Users\rober\AppData\Local\Temp\ccaShyPv.s 			page 31


 294:Generated_Source\PSoC6\pdl\drivers/peripheral/tcpwm/cy_tcpwm_pwm.h **** }
 295:Generated_Source\PSoC6\pdl\drivers/peripheral/tcpwm/cy_tcpwm_pwm.h **** 
 296:Generated_Source\PSoC6\pdl\drivers/peripheral/tcpwm/cy_tcpwm_pwm.h **** 
 297:Generated_Source\PSoC6\pdl\drivers/peripheral/tcpwm/cy_tcpwm_pwm.h **** /*******************************************************************************
 298:Generated_Source\PSoC6\pdl\drivers/peripheral/tcpwm/cy_tcpwm_pwm.h **** * Function Name: Cy_TCPWM_PWM_SetCompare0
 299:Generated_Source\PSoC6\pdl\drivers/peripheral/tcpwm/cy_tcpwm_pwm.h **** ****************************************************************************//**
 300:Generated_Source\PSoC6\pdl\drivers/peripheral/tcpwm/cy_tcpwm_pwm.h **** *
 301:Generated_Source\PSoC6\pdl\drivers/peripheral/tcpwm/cy_tcpwm_pwm.h **** * Sets the compare value for Compare0 when the compare mode enabled.
 302:Generated_Source\PSoC6\pdl\drivers/peripheral/tcpwm/cy_tcpwm_pwm.h **** *
 303:Generated_Source\PSoC6\pdl\drivers/peripheral/tcpwm/cy_tcpwm_pwm.h **** * \param base
 304:Generated_Source\PSoC6\pdl\drivers/peripheral/tcpwm/cy_tcpwm_pwm.h **** * The pointer to a TCPWM instance.
 305:Generated_Source\PSoC6\pdl\drivers/peripheral/tcpwm/cy_tcpwm_pwm.h **** *
 306:Generated_Source\PSoC6\pdl\drivers/peripheral/tcpwm/cy_tcpwm_pwm.h **** * \param cntNum 
 307:Generated_Source\PSoC6\pdl\drivers/peripheral/tcpwm/cy_tcpwm_pwm.h **** * The Counter instance number in the selected TCPWM.
 308:Generated_Source\PSoC6\pdl\drivers/peripheral/tcpwm/cy_tcpwm_pwm.h **** *
 309:Generated_Source\PSoC6\pdl\drivers/peripheral/tcpwm/cy_tcpwm_pwm.h **** * \param compare0
 310:Generated_Source\PSoC6\pdl\drivers/peripheral/tcpwm/cy_tcpwm_pwm.h **** * The Compare0 value.
 311:Generated_Source\PSoC6\pdl\drivers/peripheral/tcpwm/cy_tcpwm_pwm.h **** *
 312:Generated_Source\PSoC6\pdl\drivers/peripheral/tcpwm/cy_tcpwm_pwm.h **** * \funcusage
 313:Generated_Source\PSoC6\pdl\drivers/peripheral/tcpwm/cy_tcpwm_pwm.h **** * \snippet tcpwm/tcpwm_v1_0_pwm_sut_01.cydsn/main_cm4.c snippet_Cy_TCPWM_PWM_SetCompare0
 314:Generated_Source\PSoC6\pdl\drivers/peripheral/tcpwm/cy_tcpwm_pwm.h **** *
 315:Generated_Source\PSoC6\pdl\drivers/peripheral/tcpwm/cy_tcpwm_pwm.h **** *******************************************************************************/
 316:Generated_Source\PSoC6\pdl\drivers/peripheral/tcpwm/cy_tcpwm_pwm.h **** __STATIC_INLINE void Cy_TCPWM_PWM_SetCompare0(TCPWM_Type *base, uint32_t cntNum,  uint32_t compare0
 317:Generated_Source\PSoC6\pdl\drivers/peripheral/tcpwm/cy_tcpwm_pwm.h **** {
 318:Generated_Source\PSoC6\pdl\drivers/peripheral/tcpwm/cy_tcpwm_pwm.h ****     base->CNT[cntNum].CC = compare0;
 251              		.loc 3 318 0
 252 0006 284B     		ldr	r3, .L25+4
 253 0008 C3F8CC22 		str	r2, [r3, #716]
 254              	.LVL21:
 255              	.L17:
 256              	.LBE27:
 257              	.LBE26:
 149:main_cm4.c    ****     
 258              		.loc 1 149 0 discriminator 3
 259 000c FFF7FEFF 		bl	Status_Button1_Read
 260              	.LVL22:
 261 0010 D0B1     		cbz	r0, .L16
 149:main_cm4.c    ****     
 262              		.loc 1 149 0 is_stmt 0 discriminator 1
 263 0012 FFF7FEFF 		bl	Status_Button2_Read
 264              	.LVL23:
 265 0016 B8B1     		cbz	r0, .L16
 149:main_cm4.c    ****     
 266              		.loc 1 149 0 discriminator 2
 267 0018 FFF7FEFF 		bl	Status_Button3_Read
 268              	.LVL24:
 269 001c 0028     		cmp	r0, #0
 270 001e F5D1     		bne	.L17
 271 0020 12E0     		b	.L16
 272              	.L18:
 154:main_cm4.c    ****         compareValue = (compareValue + 1) % 100;
 273              		.loc 1 154 0 is_stmt 1
 274 0022 2048     		ldr	r0, .L25
 275 0024 4368     		ldr	r3, [r0, #4]
 276              	.LVL25:
 277              	.LBB28:
 278              	.LBB29:
ARM GAS  C:\Users\rober\AppData\Local\Temp\ccaShyPv.s 			page 32


 279              		.loc 3 318 0
 280 0026 204A     		ldr	r2, .L25+4
 281 0028 C2F8CC32 		str	r3, [r2, #716]
 282              	.LVL26:
 283              	.LBE29:
 284              	.LBE28:
 155:main_cm4.c    ****         CyDelay(20);
 285              		.loc 1 155 0
 286 002c 0133     		adds	r3, r3, #1
 287 002e 1F4A     		ldr	r2, .L25+8
 288 0030 82FB0321 		smull	r2, r1, r2, r3
 289 0034 DA17     		asrs	r2, r3, #31
 290 0036 C2EB6112 		rsb	r2, r2, r1, asr #5
 291 003a 6421     		movs	r1, #100
 292 003c 01FB1232 		mls	r2, r1, r2, r3
 293 0040 4260     		str	r2, [r0, #4]
 156:main_cm4.c    ****     };
 294              		.loc 1 156 0
 295 0042 1420     		movs	r0, #20
 296 0044 FFF7FEFF 		bl	Cy_SysLib_Delay
 297              	.LVL27:
 298              	.L16:
 152:main_cm4.c    ****     {
 299              		.loc 1 152 0
 300 0048 FFF7FEFF 		bl	Status_Button1_Read
 301              	.LVL28:
 302 004c 0028     		cmp	r0, #0
 303 004e E8D0     		beq	.L18
 160:main_cm4.c    ****     {
 304              		.loc 1 160 0
 305 0050 FFF7FEFF 		bl	Status_Button2_Read
 306              	.LVL29:
 307 0054 20B9     		cbnz	r0, .L19
 162:main_cm4.c    ****         return;
 308              		.loc 1 162 0
 309 0056 0122     		movs	r2, #1
 310 0058 154B     		ldr	r3, .L25+12
 311 005a C3F8CC25 		str	r2, [r3, #1484]
 163:main_cm4.c    ****     }
 312              		.loc 1 163 0
 313 005e 08BD     		pop	{r3, pc}
 314              	.L19:
 167:main_cm4.c    ****     {
 315              		.loc 1 167 0
 316 0060 FFF7FEFF 		bl	Status_Button3_Read
 317              	.LVL30:
 318 0064 20B9     		cbnz	r0, .L21
 169:main_cm4.c    ****         return;
 319              		.loc 1 169 0
 320 0066 0322     		movs	r2, #3
 321 0068 114B     		ldr	r3, .L25+12
 322 006a C3F8CC25 		str	r2, [r3, #1484]
 170:main_cm4.c    ****     }
 323              		.loc 1 170 0
 324 006e 08BD     		pop	{r3, pc}
 325              	.L21:
 173:main_cm4.c    ****     {
ARM GAS  C:\Users\rober\AppData\Local\Temp\ccaShyPv.s 			page 33


 326              		.loc 1 173 0
 327 0070 0F4B     		ldr	r3, .L25+12
 328 0072 D3F8CC35 		ldr	r3, [r3, #1484]
 329 0076 012B     		cmp	r3, #1
 330 0078 01D0     		beq	.L22
 173:main_cm4.c    ****     {
 331              		.loc 1 173 0 is_stmt 0 discriminator 1
 332 007a 032B     		cmp	r3, #3
 333 007c 04D1     		bne	.L23
 334              	.L22:
 175:main_cm4.c    ****     }
 335              		.loc 1 175 0 is_stmt 1
 336 007e 0022     		movs	r2, #0
 337 0080 0B4B     		ldr	r3, .L25+12
 338 0082 C3F8CC25 		str	r2, [r3, #1484]
 339 0086 08BD     		pop	{r3, pc}
 340              	.L23:
 179:main_cm4.c    ****         if(which_data_table == 3)
 341              		.loc 1 179 0
 342 0088 094A     		ldr	r2, .L25+12
 343 008a D2F8C835 		ldr	r3, [r2, #1480]
 344 008e 0133     		adds	r3, r3, #1
 345 0090 C2F8C835 		str	r3, [r2, #1480]
 180:main_cm4.c    ****         {
 346              		.loc 1 180 0
 347 0094 032B     		cmp	r3, #3
 348 0096 03D1     		bne	.L13
 182:main_cm4.c    ****         }
 349              		.loc 1 182 0
 350 0098 0222     		movs	r2, #2
 351 009a 054B     		ldr	r3, .L25+12
 352 009c C3F8CC25 		str	r2, [r3, #1484]
 353              	.L13:
 354 00a0 08BD     		pop	{r3, pc}
 355              	.L26:
 356 00a2 00BF     		.align	2
 357              	.L25:
 358 00a4 00000000 		.word	.LANCHOR2
 359 00a8 00003840 		.word	1077411840
 360 00ac 1F85EB51 		.word	1374389535
 361 00b0 F8100000 		.word	.LANCHOR1
 362              		.cfi_endproc
 363              	.LFE606:
 364              		.size	WaitforSwitchPressAndRelease, .-WaitforSwitchPressAndRelease
 365              		.section	.text.ShowGraph_WithUpdate,"ax",%progbits
 366              		.align	2
 367              		.global	ShowGraph_WithUpdate
 368              		.thumb
 369              		.thumb_func
 370              		.type	ShowGraph_WithUpdate, %function
 371              	ShowGraph_WithUpdate:
 372              	.LFB607:
 194:main_cm4.c    ****     ClearScreen();
 373              		.loc 1 194 0
 374              		.cfi_startproc
 375              		@ args = 0, pretend = 0, frame = 128
 376              		@ frame_needed = 0, uses_anonymous_args = 0
ARM GAS  C:\Users\rober\AppData\Local\Temp\ccaShyPv.s 			page 34


 377 0000 F0B5     		push	{r4, r5, r6, r7, lr}
 378              		.cfi_def_cfa_offset 20
 379              		.cfi_offset 4, -20
 380              		.cfi_offset 5, -16
 381              		.cfi_offset 6, -12
 382              		.cfi_offset 7, -8
 383              		.cfi_offset 14, -4
 384 0002 A1B0     		sub	sp, sp, #132
 385              		.cfi_def_cfa_offset 152
 195:main_cm4.c    ****     
 386              		.loc 1 195 0
 387 0004 FFF7FEFF 		bl	ClearScreen
 388              	.LVL31:
 198:main_cm4.c    ****     char yAxisLabels[6][4] = {"0", "60", "120", "180", "240", "300"};
 389              		.loc 1 198 0
 390 0008 404C     		ldr	r4, .L34
 391 000a 14AE     		add	r6, sp, #80
 392 000c 04F13007 		add	r7, r4, #48
 393              	.L28:
 394 0010 3546     		mov	r5, r6
 395 0012 2068     		ldr	r0, [r4]	@ unaligned
 396 0014 6168     		ldr	r1, [r4, #4]	@ unaligned
 397 0016 A268     		ldr	r2, [r4, #8]	@ unaligned
 398 0018 E368     		ldr	r3, [r4, #12]	@ unaligned
 399 001a 0FC5     		stmia	r5!, {r0, r1, r2, r3}
 400 001c 1034     		adds	r4, r4, #16
 401 001e 2E46     		mov	r6, r5
 402 0020 BC42     		cmp	r4, r7
 403 0022 F5D1     		bne	.L28
 199:main_cm4.c    ****     int xAxisTicks[8] = {30, 60, 90, 120, 150, 180, 210, 240};
 404              		.loc 1 199 0
 405 0024 394C     		ldr	r4, .L34
 406 0026 0EAD     		add	r5, sp, #56
 407 0028 2646     		mov	r6, r4
 408 002a 56F8300F 		ldr	r0, [r6, #48]!	@ unaligned
 409 002e 7168     		ldr	r1, [r6, #4]	@ unaligned
 410 0030 B268     		ldr	r2, [r6, #8]	@ unaligned
 411 0032 F368     		ldr	r3, [r6, #12]	@ unaligned
 412 0034 0FC5     		stmia	r5!, {r0, r1, r2, r3}
 413 0036 3069     		ldr	r0, [r6, #16]	@ unaligned
 414 0038 7169     		ldr	r1, [r6, #20]	@ unaligned
 415 003a 03C5     		stmia	r5!, {r0, r1}
 200:main_cm4.c    ****     int yAxisTicks[6] = {20, 50, 80, 110, 140, 170};
 416              		.loc 1 200 0
 417 003c 06AD     		add	r5, sp, #24
 418 003e 04F14806 		add	r6, r4, #72
 419 0042 0FCE     		ldmia	r6!, {r0, r1, r2, r3}
 420 0044 0FC5     		stmia	r5!, {r0, r1, r2, r3}
 421 0046 96E80F00 		ldmia	r6, {r0, r1, r2, r3}
 422 004a 85E80F00 		stmia	r5, {r0, r1, r2, r3}
 201:main_cm4.c    ****     
 423              		.loc 1 201 0
 424 004e 6D46     		mov	r5, sp
 425 0050 6834     		adds	r4, r4, #104
 426 0052 0FCC     		ldmia	r4!, {r0, r1, r2, r3}
 427 0054 0FC5     		stmia	r5!, {r0, r1, r2, r3}
 428 0056 94E80300 		ldmia	r4, {r0, r1}
ARM GAS  C:\Users\rober\AppData\Local\Temp\ccaShyPv.s 			page 35


 429 005a 85E80300 		stmia	r5, {r0, r1}
 204:main_cm4.c    ****     
 430              		.loc 1 204 0
 431 005e 9623     		movs	r3, #150
 432 0060 FE22     		movs	r2, #254
 433 0062 1421     		movs	r1, #20
 434 0064 0A20     		movs	r0, #10
 435 0066 FFF7FEFF 		bl	GUI_ClearRect
 436              	.LVL32:
 207:main_cm4.c    ****     GUI_DrawLine(30, 150, 250, 150); // X axis
 437              		.loc 1 207 0
 438 006a C823     		movs	r3, #200
 439 006c 1E22     		movs	r2, #30
 440 006e 1421     		movs	r1, #20
 441 0070 1046     		mov	r0, r2
 442 0072 FFF7FEFF 		bl	GUI_DrawLine
 443              	.LVL33:
 208:main_cm4.c    **** 
 444              		.loc 1 208 0
 445 0076 9623     		movs	r3, #150
 446 0078 FA22     		movs	r2, #250
 447 007a 1946     		mov	r1, r3
 448 007c 1E20     		movs	r0, #30
 449 007e FFF7FEFF 		bl	GUI_DrawLine
 450              	.LVL34:
 451              	.LBB30:
 211:main_cm4.c    ****         GUI_DrawLine(xAxisTicks[i], 150, xAxisTicks[i], 155);
 452              		.loc 1 211 0
 453 0082 0024     		movs	r4, #0
 454 0084 15E0     		b	.L29
 455              	.LVL35:
 456              	.L30:
 212:main_cm4.c    ****         GUI_DispStringAt(xAxisLabels[i], xAxisTicks[i] - 10, 155);
 457              		.loc 1 212 0 discriminator 3
 458 0086 20AB     		add	r3, sp, #128
 459 0088 03EB8403 		add	r3, r3, r4, lsl #2
 460 008c 53F8685C 		ldr	r5, [r3, #-104]
 461 0090 9B23     		movs	r3, #155
 462 0092 2A46     		mov	r2, r5
 463 0094 9621     		movs	r1, #150
 464 0096 2846     		mov	r0, r5
 465 0098 FFF7FEFF 		bl	GUI_DrawLine
 466              	.LVL36:
 213:main_cm4.c    ****     }
 467              		.loc 1 213 0 discriminator 3
 468 009c 04EB4403 		add	r3, r4, r4, lsl #1
 469 00a0 5800     		lsls	r0, r3, #1
 470 00a2 9B22     		movs	r2, #155
 471 00a4 A5F10A01 		sub	r1, r5, #10
 472 00a8 14AB     		add	r3, sp, #80
 473 00aa 1844     		add	r0, r0, r3
 474 00ac FFF7FEFF 		bl	GUI_DispStringAt
 475              	.LVL37:
 211:main_cm4.c    ****         GUI_DrawLine(xAxisTicks[i], 150, xAxisTicks[i], 155);
 476              		.loc 1 211 0 discriminator 3
 477 00b0 0134     		adds	r4, r4, #1
 478              	.LVL38:
ARM GAS  C:\Users\rober\AppData\Local\Temp\ccaShyPv.s 			page 36


 479              	.L29:
 211:main_cm4.c    ****         GUI_DrawLine(xAxisTicks[i], 150, xAxisTicks[i], 155);
 480              		.loc 1 211 0 is_stmt 0 discriminator 1
 481 00b2 072C     		cmp	r4, #7
 482 00b4 E7DD     		ble	.L30
 483 00b6 0024     		movs	r4, #0
 484              	.LVL39:
 485 00b8 13E0     		b	.L31
 486              	.LVL40:
 487              	.L32:
 488              	.LBE30:
 489              	.LBB31:
 217:main_cm4.c    ****         GUI_DispStringAt(yAxisLabels[i], 5, 170 - yAxisTicks[i] - 6);
 490              		.loc 1 217 0 is_stmt 1 discriminator 3
 491 00ba A500     		lsls	r5, r4, #2
 492 00bc 20AB     		add	r3, sp, #128
 493 00be 2B44     		add	r3, r3, r5
 494 00c0 53F8806C 		ldr	r6, [r3, #-128]
 495 00c4 C6F1AA01 		rsb	r1, r6, #170
 496 00c8 0B46     		mov	r3, r1
 497 00ca 1E22     		movs	r2, #30
 498 00cc 1920     		movs	r0, #25
 499 00ce FFF7FEFF 		bl	GUI_DrawLine
 500              	.LVL41:
 218:main_cm4.c    ****     }
 501              		.loc 1 218 0 discriminator 3
 502 00d2 C6F1A402 		rsb	r2, r6, #164
 503 00d6 0521     		movs	r1, #5
 504 00d8 0EAB     		add	r3, sp, #56
 505 00da 5819     		adds	r0, r3, r5
 506 00dc FFF7FEFF 		bl	GUI_DispStringAt
 507              	.LVL42:
 216:main_cm4.c    ****         GUI_DrawLine(25, 170 - yAxisTicks[i], 30, 170 - yAxisTicks[i]);
 508              		.loc 1 216 0 discriminator 3
 509 00e0 0134     		adds	r4, r4, #1
 510              	.LVL43:
 511              	.L31:
 216:main_cm4.c    ****         GUI_DrawLine(25, 170 - yAxisTicks[i], 30, 170 - yAxisTicks[i]);
 512              		.loc 1 216 0 is_stmt 0 discriminator 1
 513 00e2 052C     		cmp	r4, #5
 514 00e4 E9DD     		ble	.L32
 515              	.LBE31:
 221:main_cm4.c    ****     UpdateDisplay(CY_EINK_PARTIAL, true);
 516              		.loc 1 221 0 is_stmt 1
 517 00e6 0A4B     		ldr	r3, .L34+4
 518 00e8 9B68     		ldr	r3, [r3, #8]
 519 00ea 013B     		subs	r3, r3, #1
 520 00ec 094A     		ldr	r2, .L34+8
 521 00ee 52F83330 		ldr	r3, [r2, r3, lsl #3]
 522 00f2 094C     		ldr	r4, .L34+12
 523              	.LVL44:
 524 00f4 C4F8C435 		str	r3, [r4, #1476]
 222:main_cm4.c    ****     programStarted = true;
 525              		.loc 1 222 0
 526 00f8 0121     		movs	r1, #1
 527 00fa 0020     		movs	r0, #0
 528 00fc FFF7FEFF 		bl	UpdateDisplay
ARM GAS  C:\Users\rober\AppData\Local\Temp\ccaShyPv.s 			page 37


 529              	.LVL45:
 223:main_cm4.c    **** }
 530              		.loc 1 223 0
 531 0100 0123     		movs	r3, #1
 532 0102 84F8B835 		strb	r3, [r4, #1464]
 224:main_cm4.c    **** 
 533              		.loc 1 224 0
 534 0106 21B0     		add	sp, sp, #132
 535              		.cfi_def_cfa_offset 20
 536              		@ sp needed
 537 0108 F0BD     		pop	{r4, r5, r6, r7, pc}
 538              	.L35:
 539 010a 00BF     		.align	2
 540              	.L34:
 541 010c 00000000 		.word	.LANCHOR3
 542 0110 00000000 		.word	.LANCHOR2
 543 0114 00000000 		.word	data
 544 0118 F8100000 		.word	.LANCHOR1
 545              		.cfi_endproc
 546              	.LFE607:
 547              		.size	ShowGraph_WithUpdate, .-ShowGraph_WithUpdate
 548              		.section	.text.ShowGraph,"ax",%progbits
 549              		.align	2
 550              		.global	ShowGraph
 551              		.thumb
 552              		.thumb_func
 553              		.type	ShowGraph, %function
 554              	ShowGraph:
 555              	.LFB608:
 226:main_cm4.c    ****     ClearScreen();
 556              		.loc 1 226 0
 557              		.cfi_startproc
 558              		@ args = 0, pretend = 0, frame = 128
 559              		@ frame_needed = 0, uses_anonymous_args = 0
 560 0000 F0B5     		push	{r4, r5, r6, r7, lr}
 561              		.cfi_def_cfa_offset 20
 562              		.cfi_offset 4, -20
 563              		.cfi_offset 5, -16
 564              		.cfi_offset 6, -12
 565              		.cfi_offset 7, -8
 566              		.cfi_offset 14, -4
 567 0002 A1B0     		sub	sp, sp, #132
 568              		.cfi_def_cfa_offset 152
 227:main_cm4.c    ****     
 569              		.loc 1 227 0
 570 0004 FFF7FEFF 		bl	ClearScreen
 571              	.LVL46:
 230:main_cm4.c    ****     GUI_SetBkColor(GUI_WHITE);
 572              		.loc 1 230 0
 573 0008 0020     		movs	r0, #0
 574 000a FFF7FEFF 		bl	GUI_SetColor
 575              	.LVL47:
 231:main_cm4.c    ****     GUI_SetTextMode(GUI_TM_NORMAL);
 576              		.loc 1 231 0
 577 000e 6FF07F40 		mvn	r0, #-16777216
 578 0012 FFF7FEFF 		bl	GUI_SetBkColor
 579              	.LVL48:
ARM GAS  C:\Users\rober\AppData\Local\Temp\ccaShyPv.s 			page 38


 232:main_cm4.c    ****     GUI_SetTextStyle(GUI_TS_NORMAL);
 580              		.loc 1 232 0
 581 0016 0020     		movs	r0, #0
 582 0018 FFF7FEFF 		bl	GUI_SetTextMode
 583              	.LVL49:
 233:main_cm4.c    ****     
 584              		.loc 1 233 0
 585 001c 0020     		movs	r0, #0
 586 001e FFF7FEFF 		bl	GUI_SetTextStyle
 587              	.LVL50:
 235:main_cm4.c    ****     char yAxisLabels[6][4] = {"0", "60", "120", "180", "240", "300"};
 588              		.loc 1 235 0
 589 0022 4E4C     		ldr	r4, .L45
 590 0024 14AE     		add	r6, sp, #80
 591 0026 04F13007 		add	r7, r4, #48
 592              	.L37:
 593 002a 3546     		mov	r5, r6
 594 002c 2068     		ldr	r0, [r4]	@ unaligned
 595 002e 6168     		ldr	r1, [r4, #4]	@ unaligned
 596 0030 A268     		ldr	r2, [r4, #8]	@ unaligned
 597 0032 E368     		ldr	r3, [r4, #12]	@ unaligned
 598 0034 0FC5     		stmia	r5!, {r0, r1, r2, r3}
 599 0036 1034     		adds	r4, r4, #16
 600 0038 2E46     		mov	r6, r5
 601 003a BC42     		cmp	r4, r7
 602 003c F5D1     		bne	.L37
 236:main_cm4.c    ****     int xAxisTicks[8] = {30, 60, 90, 120, 150, 180, 210, 240};
 603              		.loc 1 236 0
 604 003e 474C     		ldr	r4, .L45
 605 0040 0EAD     		add	r5, sp, #56
 606 0042 2646     		mov	r6, r4
 607 0044 56F8300F 		ldr	r0, [r6, #48]!	@ unaligned
 608 0048 7168     		ldr	r1, [r6, #4]	@ unaligned
 609 004a B268     		ldr	r2, [r6, #8]	@ unaligned
 610 004c F368     		ldr	r3, [r6, #12]	@ unaligned
 611 004e 0FC5     		stmia	r5!, {r0, r1, r2, r3}
 612 0050 3069     		ldr	r0, [r6, #16]	@ unaligned
 613 0052 7169     		ldr	r1, [r6, #20]	@ unaligned
 614 0054 03C5     		stmia	r5!, {r0, r1}
 237:main_cm4.c    ****     int yAxisTicks[6] = {20, 50, 80, 110, 140, 170};
 615              		.loc 1 237 0
 616 0056 06AD     		add	r5, sp, #24
 617 0058 04F14806 		add	r6, r4, #72
 618 005c 0FCE     		ldmia	r6!, {r0, r1, r2, r3}
 619 005e 0FC5     		stmia	r5!, {r0, r1, r2, r3}
 620 0060 96E80F00 		ldmia	r6, {r0, r1, r2, r3}
 621 0064 85E80F00 		stmia	r5, {r0, r1, r2, r3}
 238:main_cm4.c    ****         GUI_ClearRect(10, 20, 254, 150);  // Clear the area where the graph will be drawn
 622              		.loc 1 238 0
 623 0068 6D46     		mov	r5, sp
 624 006a 6834     		adds	r4, r4, #104
 625 006c 0FCC     		ldmia	r4!, {r0, r1, r2, r3}
 626 006e 0FC5     		stmia	r5!, {r0, r1, r2, r3}
 627 0070 94E80300 		ldmia	r4, {r0, r1}
 628 0074 85E80300 		stmia	r5, {r0, r1}
 239:main_cm4.c    ****     
 629              		.loc 1 239 0
ARM GAS  C:\Users\rober\AppData\Local\Temp\ccaShyPv.s 			page 39


 630 0078 9623     		movs	r3, #150
 631 007a FE22     		movs	r2, #254
 632 007c 1421     		movs	r1, #20
 633 007e 0A20     		movs	r0, #10
 634 0080 FFF7FEFF 		bl	GUI_ClearRect
 635              	.LVL51:
 242:main_cm4.c    ****     GUI_DrawLine(30, 150, 250, 150); // X axis
 636              		.loc 1 242 0
 637 0084 AA23     		movs	r3, #170
 638 0086 1E22     		movs	r2, #30
 639 0088 1421     		movs	r1, #20
 640 008a 1046     		mov	r0, r2
 641 008c FFF7FEFF 		bl	GUI_DrawLine
 642              	.LVL52:
 243:main_cm4.c    **** 
 643              		.loc 1 243 0
 644 0090 9623     		movs	r3, #150
 645 0092 FA22     		movs	r2, #250
 646 0094 1946     		mov	r1, r3
 647 0096 1E20     		movs	r0, #30
 648 0098 FFF7FEFF 		bl	GUI_DrawLine
 649              	.LVL53:
 650              	.LBB32:
 246:main_cm4.c    ****         GUI_DrawLine(xAxisTicks[i], 150, xAxisTicks[i], 155);
 651              		.loc 1 246 0
 652 009c 0024     		movs	r4, #0
 653 009e 15E0     		b	.L38
 654              	.LVL54:
 655              	.L39:
 247:main_cm4.c    ****         GUI_DispStringAt(xAxisLabels[i], xAxisTicks[i] - 10, 155);
 656              		.loc 1 247 0 discriminator 3
 657 00a0 20AB     		add	r3, sp, #128
 658 00a2 03EB8403 		add	r3, r3, r4, lsl #2
 659 00a6 53F8685C 		ldr	r5, [r3, #-104]
 660 00aa 9B23     		movs	r3, #155
 661 00ac 2A46     		mov	r2, r5
 662 00ae 9621     		movs	r1, #150
 663 00b0 2846     		mov	r0, r5
 664 00b2 FFF7FEFF 		bl	GUI_DrawLine
 665              	.LVL55:
 248:main_cm4.c    ****     }
 666              		.loc 1 248 0 discriminator 3
 667 00b6 04EB4403 		add	r3, r4, r4, lsl #1
 668 00ba 5800     		lsls	r0, r3, #1
 669 00bc 9B22     		movs	r2, #155
 670 00be A5F10A01 		sub	r1, r5, #10
 671 00c2 14AB     		add	r3, sp, #80
 672 00c4 1844     		add	r0, r0, r3
 673 00c6 FFF7FEFF 		bl	GUI_DispStringAt
 674              	.LVL56:
 246:main_cm4.c    ****         GUI_DrawLine(xAxisTicks[i], 150, xAxisTicks[i], 155);
 675              		.loc 1 246 0 discriminator 3
 676 00ca 0134     		adds	r4, r4, #1
 677              	.LVL57:
 678              	.L38:
 246:main_cm4.c    ****         GUI_DrawLine(xAxisTicks[i], 150, xAxisTicks[i], 155);
 679              		.loc 1 246 0 is_stmt 0 discriminator 1
ARM GAS  C:\Users\rober\AppData\Local\Temp\ccaShyPv.s 			page 40


 680 00cc 072C     		cmp	r4, #7
 681 00ce E7DD     		ble	.L39
 682 00d0 0024     		movs	r4, #0
 683              	.LVL58:
 684 00d2 13E0     		b	.L40
 685              	.LVL59:
 686              	.L41:
 687              	.LBE32:
 688              	.LBB33:
 252:main_cm4.c    ****         GUI_DispStringAt(yAxisLabels[i], 5, 170 - yAxisTicks[i] - 6);
 689              		.loc 1 252 0 is_stmt 1 discriminator 3
 690 00d4 A500     		lsls	r5, r4, #2
 691 00d6 20AB     		add	r3, sp, #128
 692 00d8 2B44     		add	r3, r3, r5
 693 00da 53F8806C 		ldr	r6, [r3, #-128]
 694 00de C6F1AA01 		rsb	r1, r6, #170
 695 00e2 0B46     		mov	r3, r1
 696 00e4 1E22     		movs	r2, #30
 697 00e6 1920     		movs	r0, #25
 698 00e8 FFF7FEFF 		bl	GUI_DrawLine
 699              	.LVL60:
 253:main_cm4.c    ****     }
 700              		.loc 1 253 0 discriminator 3
 701 00ec C6F1A402 		rsb	r2, r6, #164
 702 00f0 0521     		movs	r1, #5
 703 00f2 0EAB     		add	r3, sp, #56
 704 00f4 5819     		adds	r0, r3, r5
 705 00f6 FFF7FEFF 		bl	GUI_DispStringAt
 706              	.LVL61:
 251:main_cm4.c    ****         GUI_DrawLine(25, 170 - yAxisTicks[i], 30, 170 - yAxisTicks[i]);
 707              		.loc 1 251 0 discriminator 3
 708 00fa 0134     		adds	r4, r4, #1
 709              	.LVL62:
 710              	.L40:
 251:main_cm4.c    ****         GUI_DrawLine(25, 170 - yAxisTicks[i], 30, 170 - yAxisTicks[i]);
 711              		.loc 1 251 0 is_stmt 0 discriminator 1
 712 00fc 052C     		cmp	r4, #5
 713 00fe E9DD     		ble	.L41
 714 0100 0124     		movs	r4, #1
 715              	.LVL63:
 716 0102 20E0     		b	.L42
 717              	.LVL64:
 718              	.L43:
 719              	.LBE33:
 720              	.LBB34:
 258:main_cm4.c    ****     }
 721              		.loc 1 258 0 is_stmt 1 discriminator 3
 722 0104 621E     		subs	r2, r4, #1
 723 0106 164B     		ldr	r3, .L45+4
 724 0108 53F83200 		ldr	r0, [r3, r2, lsl #3]
 725 010c 00EBD070 		add	r0, r0, r0, lsr #31
 726 0110 4010     		asrs	r0, r0, #1
 727 0112 03EBC202 		add	r2, r3, r2, lsl #3
 728 0116 5168     		ldr	r1, [r2, #4]
 729 0118 01EBD171 		add	r1, r1, r1, lsr #31
 730 011c 4910     		asrs	r1, r1, #1
 731 011e 53F83420 		ldr	r2, [r3, r4, lsl #3]
ARM GAS  C:\Users\rober\AppData\Local\Temp\ccaShyPv.s 			page 41


 732 0122 02EBD272 		add	r2, r2, r2, lsr #31
 733 0126 5210     		asrs	r2, r2, #1
 734 0128 03EBC403 		add	r3, r3, r4, lsl #3
 735 012c 5B68     		ldr	r3, [r3, #4]
 736 012e 03EBD373 		add	r3, r3, r3, lsr #31
 737 0132 5B10     		asrs	r3, r3, #1
 738 0134 C3F19603 		rsb	r3, r3, #150
 739 0138 1E32     		adds	r2, r2, #30
 740 013a C1F19601 		rsb	r1, r1, #150
 741 013e 1E30     		adds	r0, r0, #30
 742 0140 FFF7FEFF 		bl	GUI_DrawLine
 743              	.LVL65:
 256:main_cm4.c    ****     {
 744              		.loc 1 256 0 discriminator 3
 745 0144 0134     		adds	r4, r4, #1
 746              	.LVL66:
 747              	.L42:
 256:main_cm4.c    ****     {
 748              		.loc 1 256 0 is_stmt 0 discriminator 1
 749 0146 074B     		ldr	r3, .L45+8
 750 0148 9B68     		ldr	r3, [r3, #8]
 751 014a 9C42     		cmp	r4, r3
 752 014c DADB     		blt	.L43
 753              	.LBE34:
 261:main_cm4.c    **** }
 754              		.loc 1 261 0 is_stmt 1
 755 014e 0121     		movs	r1, #1
 756 0150 0020     		movs	r0, #0
 757 0152 FFF7FEFF 		bl	UpdateDisplay
 758              	.LVL67:
 262:main_cm4.c    **** 
 759              		.loc 1 262 0
 760 0156 21B0     		add	sp, sp, #132
 761              		.cfi_def_cfa_offset 20
 762              		@ sp needed
 763 0158 F0BD     		pop	{r4, r5, r6, r7, pc}
 764              	.LVL68:
 765              	.L46:
 766 015a 00BF     		.align	2
 767              	.L45:
 768 015c 00000000 		.word	.LANCHOR3
 769 0160 00000000 		.word	data
 770 0164 00000000 		.word	.LANCHOR2
 771              		.cfi_endproc
 772              	.LFE608:
 773              		.size	ShowGraph, .-ShowGraph
 774              		.section	.text.ShowTable,"ax",%progbits
 775              		.align	2
 776              		.global	ShowTable
 777              		.thumb
 778              		.thumb_func
 779              		.type	ShowTable, %function
 780              	ShowTable:
 781              	.LFB609:
 266:main_cm4.c    ****     ClearScreen();
 782              		.loc 1 266 0
 783              		.cfi_startproc
ARM GAS  C:\Users\rober\AppData\Local\Temp\ccaShyPv.s 			page 42


 784              		@ args = 0, pretend = 0, frame = 24
 785              		@ frame_needed = 0, uses_anonymous_args = 0
 786 0000 70B5     		push	{r4, r5, r6, lr}
 787              		.cfi_def_cfa_offset 16
 788              		.cfi_offset 4, -16
 789              		.cfi_offset 5, -12
 790              		.cfi_offset 6, -8
 791              		.cfi_offset 14, -4
 792 0002 86B0     		sub	sp, sp, #24
 793              		.cfi_def_cfa_offset 40
 267:main_cm4.c    ****     
 794              		.loc 1 267 0
 795 0004 FFF7FEFF 		bl	ClearScreen
 796              	.LVL69:
 270:main_cm4.c    ****     GUI_SetBkColor(GUI_WHITE);
 797              		.loc 1 270 0
 798 0008 0020     		movs	r0, #0
 799 000a FFF7FEFF 		bl	GUI_SetColor
 800              	.LVL70:
 271:main_cm4.c    ****     GUI_SetTextMode(GUI_TM_NORMAL);
 801              		.loc 1 271 0
 802 000e 6FF07F40 		mvn	r0, #-16777216
 803 0012 FFF7FEFF 		bl	GUI_SetBkColor
 804              	.LVL71:
 272:main_cm4.c    ****     GUI_SetTextStyle(GUI_TS_NORMAL);
 805              		.loc 1 272 0
 806 0016 0020     		movs	r0, #0
 807 0018 FFF7FEFF 		bl	GUI_SetTextMode
 808              	.LVL72:
 273:main_cm4.c    **** 
 809              		.loc 1 273 0
 810 001c 0020     		movs	r0, #0
 811 001e FFF7FEFF 		bl	GUI_SetTextStyle
 812              	.LVL73:
 276:main_cm4.c    ****     
 813              		.loc 1 276 0
 814 0022 FFF7FEFF 		bl	GUI_Clear
 815              	.LVL74:
 816              	.LBB35:
 278:main_cm4.c    ****         data[i].temperature = table_data[which_data_table].data[i].temperature;
 817              		.loc 1 278 0
 818 0026 0023     		movs	r3, #0
 819 0028 11E0     		b	.L48
 820              	.LVL75:
 821              	.L49:
 279:main_cm4.c    ****         data[i].time = table_data[which_data_table].data[i].time;
 822              		.loc 1 279 0 discriminator 3
 823 002a 304A     		ldr	r2, .L55
 824 002c D2F8C825 		ldr	r2, [r2, #1480]
 825 0030 6521     		movs	r1, #101
 826 0032 01FB0231 		mla	r1, r1, r2, r3
 827 0036 2E4A     		ldr	r2, .L55+4
 828 0038 02EBC102 		add	r2, r2, r1, lsl #3
 829 003c 1469     		ldr	r4, [r2, #16]
 830 003e 2D49     		ldr	r1, .L55+8
 831 0040 01EBC300 		add	r0, r1, r3, lsl #3
 832 0044 4460     		str	r4, [r0, #4]
ARM GAS  C:\Users\rober\AppData\Local\Temp\ccaShyPv.s 			page 43


 280:main_cm4.c    ****     }
 833              		.loc 1 280 0 discriminator 3
 834 0046 D268     		ldr	r2, [r2, #12]
 835 0048 41F83320 		str	r2, [r1, r3, lsl #3]
 278:main_cm4.c    ****         data[i].temperature = table_data[which_data_table].data[i].temperature;
 836              		.loc 1 278 0 discriminator 3
 837 004c 0133     		adds	r3, r3, #1
 838              	.LVL76:
 839              	.L48:
 278:main_cm4.c    ****         data[i].temperature = table_data[which_data_table].data[i].temperature;
 840              		.loc 1 278 0 is_stmt 0 discriminator 1
 841 004e 284A     		ldr	r2, .L55+4
 842 0050 9268     		ldr	r2, [r2, #8]
 843 0052 9342     		cmp	r3, r2
 844 0054 E9DB     		blt	.L49
 845              	.LBE35:
 284:main_cm4.c    ****     GUI_SetTextAlign(GUI_TA_HCENTER);
 846              		.loc 1 284 0 is_stmt 1
 847 0056 2848     		ldr	r0, .L55+12
 848 0058 FFF7FEFF 		bl	GUI_SetFont
 849              	.LVL77:
 285:main_cm4.c    ****     GUI_DispStringAt(table_data[which_data_table].name, 132, 5);
 850              		.loc 1 285 0
 851 005c 0220     		movs	r0, #2
 852 005e FFF7FEFF 		bl	GUI_SetTextAlign
 853              	.LVL78:
 286:main_cm4.c    ****     
 854              		.loc 1 286 0
 855 0062 224B     		ldr	r3, .L55
 856 0064 D3F8C825 		ldr	r2, [r3, #1480]
 857 0068 4FF44A71 		mov	r1, #808
 858 006c 204B     		ldr	r3, .L55+4
 859 006e 01FB0233 		mla	r3, r1, r2, r3
 860 0072 0522     		movs	r2, #5
 861 0074 8421     		movs	r1, #132
 862 0076 D3F83003 		ldr	r0, [r3, #816]
 863 007a FFF7FEFF 		bl	GUI_DispStringAt
 864              	.LVL79:
 865              	.LBB36:
 289:main_cm4.c    ****     {           
 866              		.loc 1 289 0
 867 007e 0024     		movs	r4, #0
 868 0080 2AE0     		b	.L50
 869              	.LVL80:
 870              	.L53:
 871              	.LBB37:
 291:main_cm4.c    ****         {
 872              		.loc 1 291 0
 873 0082 54B9     		cbnz	r4, .L51
 293:main_cm4.c    ****             GUI_DispStringAt("Temperature (C deg)", 100, 30);
 874              		.loc 1 293 0
 875 0084 1E22     		movs	r2, #30
 876 0086 1421     		movs	r1, #20
 877 0088 1C48     		ldr	r0, .L55+16
 878 008a FFF7FEFF 		bl	GUI_DispStringAt
 879              	.LVL81:
 294:main_cm4.c    ****             continue;
ARM GAS  C:\Users\rober\AppData\Local\Temp\ccaShyPv.s 			page 44


 880              		.loc 1 294 0
 881 008e 1E22     		movs	r2, #30
 882 0090 6421     		movs	r1, #100
 883 0092 1B48     		ldr	r0, .L55+20
 884 0094 FFF7FEFF 		bl	GUI_DispStringAt
 885              	.LVL82:
 886 0098 1DE0     		b	.L52
 887              	.L51:
 301:main_cm4.c    ****         sprintf(dataString, "%d", data[i].temperature);
 888              		.loc 1 301 0
 889 009a 164D     		ldr	r5, .L55+8
 890 009c 194E     		ldr	r6, .L55+24
 891 009e 55F83420 		ldr	r2, [r5, r4, lsl #3]
 892 00a2 3146     		mov	r1, r6
 893 00a4 6846     		mov	r0, sp
 894 00a6 FFF7FEFF 		bl	sprintf
 895              	.LVL83:
 302:main_cm4.c    ****         
 896              		.loc 1 302 0
 897 00aa 05EBC405 		add	r5, r5, r4, lsl #3
 898 00ae 6A68     		ldr	r2, [r5, #4]
 899 00b0 3146     		mov	r1, r6
 900 00b2 03A8     		add	r0, sp, #12
 901 00b4 FFF7FEFF 		bl	sprintf
 902              	.LVL84:
 304:main_cm4.c    ****         GUI_DispStringAt(dataString, 100, 50 + (i-1) * 20);
 903              		.loc 1 304 0
 904 00b8 631E     		subs	r3, r4, #1
 905 00ba 03EB8303 		add	r3, r3, r3, lsl #2
 906 00be 9D00     		lsls	r5, r3, #2
 907 00c0 3235     		adds	r5, r5, #50
 908 00c2 2A46     		mov	r2, r5
 909 00c4 1421     		movs	r1, #20
 910 00c6 6846     		mov	r0, sp
 911 00c8 FFF7FEFF 		bl	GUI_DispStringAt
 912              	.LVL85:
 305:main_cm4.c    ****     }
 913              		.loc 1 305 0
 914 00cc 2A46     		mov	r2, r5
 915 00ce 6421     		movs	r1, #100
 916 00d0 03A8     		add	r0, sp, #12
 917 00d2 FFF7FEFF 		bl	GUI_DispStringAt
 918              	.LVL86:
 919              	.L52:
 920              	.LBE37:
 289:main_cm4.c    ****     {           
 921              		.loc 1 289 0 discriminator 2
 922 00d6 0134     		adds	r4, r4, #1
 923              	.LVL87:
 924              	.L50:
 289:main_cm4.c    ****     {           
 925              		.loc 1 289 0 is_stmt 0 discriminator 1
 926 00d8 054B     		ldr	r3, .L55+4
 927 00da 9B68     		ldr	r3, [r3, #8]
 928 00dc 9C42     		cmp	r4, r3
 929 00de D0DB     		blt	.L53
 930              	.LBE36:
ARM GAS  C:\Users\rober\AppData\Local\Temp\ccaShyPv.s 			page 45


 309:main_cm4.c    **** }
 931              		.loc 1 309 0 is_stmt 1
 932 00e0 0121     		movs	r1, #1
 933 00e2 0020     		movs	r0, #0
 934 00e4 FFF7FEFF 		bl	UpdateDisplay
 935              	.LVL88:
 310:main_cm4.c    **** 
 936              		.loc 1 310 0
 937 00e8 06B0     		add	sp, sp, #24
 938              		.cfi_def_cfa_offset 16
 939              		@ sp needed
 940 00ea 70BD     		pop	{r4, r5, r6, pc}
 941              	.LVL89:
 942              	.L56:
 943              		.align	2
 944              	.L55:
 945 00ec F8100000 		.word	.LANCHOR1
 946 00f0 00000000 		.word	.LANCHOR2
 947 00f4 00000000 		.word	data
 948 00f8 00000000 		.word	GUI_Font13B_1
 949 00fc 00000000 		.word	.LC4
 950 0100 0C000000 		.word	.LC5
 951 0104 20000000 		.word	.LC6
 952              		.cfi_endproc
 953              	.LFE609:
 954              		.size	ShowTable, .-ShowTable
 955              		.section	.text.AddNew,"ax",%progbits
 956              		.align	2
 957              		.global	AddNew
 958              		.thumb
 959              		.thumb_func
 960              		.type	AddNew, %function
 961              	AddNew:
 962              	.LFB610:
 313:main_cm4.c    ****     ClearScreen();
 963              		.loc 1 313 0
 964              		.cfi_startproc
 965              		@ args = 0, pretend = 0, frame = 64
 966              		@ frame_needed = 0, uses_anonymous_args = 0
 967 0000 F0B5     		push	{r4, r5, r6, r7, lr}
 968              		.cfi_def_cfa_offset 20
 969              		.cfi_offset 4, -20
 970              		.cfi_offset 5, -16
 971              		.cfi_offset 6, -12
 972              		.cfi_offset 7, -8
 973              		.cfi_offset 14, -4
 974 0002 91B0     		sub	sp, sp, #68
 975              		.cfi_def_cfa_offset 88
 314:main_cm4.c    ****     
 976              		.loc 1 314 0
 977 0004 FFF7FEFF 		bl	ClearScreen
 978              	.LVL90:
 317:main_cm4.c    ****     GUI_SetBkColor(GUI_WHITE);
 979              		.loc 1 317 0
 980 0008 0020     		movs	r0, #0
 981 000a FFF7FEFF 		bl	GUI_SetColor
 982              	.LVL91:
ARM GAS  C:\Users\rober\AppData\Local\Temp\ccaShyPv.s 			page 46


 318:main_cm4.c    ****     GUI_SetTextMode(GUI_TM_NORMAL);
 983              		.loc 1 318 0
 984 000e 6FF07F40 		mvn	r0, #-16777216
 985 0012 FFF7FEFF 		bl	GUI_SetBkColor
 986              	.LVL92:
 319:main_cm4.c    ****     GUI_SetTextStyle(GUI_TS_NORMAL);
 987              		.loc 1 319 0
 988 0016 0020     		movs	r0, #0
 989 0018 FFF7FEFF 		bl	GUI_SetTextMode
 990              	.LVL93:
 320:main_cm4.c    **** 
 991              		.loc 1 320 0
 992 001c 0020     		movs	r0, #0
 993 001e FFF7FEFF 		bl	GUI_SetTextStyle
 994              	.LVL94:
 323:main_cm4.c    ****     
 995              		.loc 1 323 0
 996 0022 FFF7FEFF 		bl	GUI_Clear
 997              	.LVL95:
 326:main_cm4.c    ****     GUI_SetTextAlign(GUI_TA_HCENTER);
 998              		.loc 1 326 0
 999 0026 BB48     		ldr	r0, .L97
 1000 0028 FFF7FEFF 		bl	GUI_SetFont
 1001              	.LVL96:
 327:main_cm4.c    ****     GUI_DispStringAt("Add temperature points", 132, 5);
 1002              		.loc 1 327 0
 1003 002c 0220     		movs	r0, #2
 1004 002e FFF7FEFF 		bl	GUI_SetTextAlign
 1005              	.LVL97:
 328:main_cm4.c    ****     
 1006              		.loc 1 328 0
 1007 0032 0522     		movs	r2, #5
 1008 0034 8421     		movs	r1, #132
 1009 0036 B848     		ldr	r0, .L97+4
 1010 0038 FFF7FEFF 		bl	GUI_DispStringAt
 1011              	.LVL98:
 336:main_cm4.c    ****     data[0].time = currentTime;
 1012              		.loc 1 336 0
 1013 003c B74B     		ldr	r3, .L97+8
 1014 003e 1922     		movs	r2, #25
 1015 0040 5A60     		str	r2, [r3, #4]
 337:main_cm4.c    ****     
 1016              		.loc 1 337 0
 1017 0042 0024     		movs	r4, #0
 1018 0044 1C60     		str	r4, [r3]
 340:main_cm4.c    ****     GUI_DispStringAt(tempBuffer, 10, 30);
 1019              		.loc 1 340 0
 1020 0046 B649     		ldr	r1, .L97+12
 1021 0048 08A8     		add	r0, sp, #32
 1022 004a FFF7FEFF 		bl	sprintf
 1023              	.LVL99:
 341:main_cm4.c    ****     
 1024              		.loc 1 341 0
 1025 004e 1E22     		movs	r2, #30
 1026 0050 0A21     		movs	r1, #10
 1027 0052 08A8     		add	r0, sp, #32
 1028 0054 FFF7FEFF 		bl	GUI_DispStringAt
ARM GAS  C:\Users\rober\AppData\Local\Temp\ccaShyPv.s 			page 47


 1029              	.LVL100:
 343:main_cm4.c    **** 
 1030              		.loc 1 343 0
 1031 0058 0121     		movs	r1, #1
 1032 005a 2046     		mov	r0, r4
 1033 005c FFF7FEFF 		bl	UpdateDisplay
 1034              	.LVL101:
 334:main_cm4.c    ****     
 1035              		.loc 1 334 0
 1036 0060 0126     		movs	r6, #1
 346:main_cm4.c    ****     {
 1037              		.loc 1 346 0
 1038 0062 61E0     		b	.L58
 1039              	.LVL102:
 1040              	.L62:
 1041              	.LBB38:
 352:main_cm4.c    ****         
 1042              		.loc 1 352 0 discriminator 3
 1043 0064 FFF7FEFF 		bl	Status_Button1_Read
 1044              	.LVL103:
 1045 0068 28B3     		cbz	r0, .L61
 352:main_cm4.c    ****         
 1046              		.loc 1 352 0 is_stmt 0 discriminator 1
 1047 006a FFF7FEFF 		bl	Status_Button2_Read
 1048              	.LVL104:
 1049 006e 10B3     		cbz	r0, .L61
 352:main_cm4.c    ****         
 1050              		.loc 1 352 0 discriminator 2
 1051 0070 FFF7FEFF 		bl	Status_Button3_Read
 1052              	.LVL105:
 1053 0074 0028     		cmp	r0, #0
 1054 0076 F5D1     		bne	.L62
 1055 0078 1DE0     		b	.L61
 1056              	.L66:
 357:main_cm4.c    ****                 currentTemp++;
 1057              		.loc 1 357 0 is_stmt 1
 1058 007a FFF7FEFF 		bl	Status_Button1_Read
 1059              	.LVL106:
 1060 007e 08B9     		cbnz	r0, .L63
 358:main_cm4.c    ****             }
 1061              		.loc 1 358 0
 1062 0080 0134     		adds	r4, r4, #1
 1063              	.LVL107:
 1064 0082 00E0     		b	.L64
 1065              	.L63:
 361:main_cm4.c    ****             }
 1066              		.loc 1 361 0
 1067 0084 0A34     		adds	r4, r4, #10
 1068              	.LVL108:
 1069              	.L64:
 364:main_cm4.c    ****                 currentTemp = 25;
 1070              		.loc 1 364 0
 1071 0086 B4F5967F 		cmp	r4, #300
 1072 008a 00DB     		blt	.L65
 365:main_cm4.c    ****             }
 1073              		.loc 1 365 0
 1074 008c 1924     		movs	r4, #25
ARM GAS  C:\Users\rober\AppData\Local\Temp\ccaShyPv.s 			page 48


 1075              	.LVL109:
 1076              	.L65:
 369:main_cm4.c    ****             sprintf(tempBuffer, "Current Temperature: %dC", currentTemp);
 1077              		.loc 1 369 0
 1078 008e 3223     		movs	r3, #50
 1079 0090 C822     		movs	r2, #200
 1080 0092 1E21     		movs	r1, #30
 1081 0094 0A20     		movs	r0, #10
 1082 0096 FFF7FEFF 		bl	GUI_ClearRect
 1083              	.LVL110:
 370:main_cm4.c    ****             GUI_DispStringAt(tempBuffer, 10, 30);  // Wyświetlenie nowej wartości temperatury
 1084              		.loc 1 370 0
 1085 009a 2246     		mov	r2, r4
 1086 009c A049     		ldr	r1, .L97+12
 1087 009e 08A8     		add	r0, sp, #32
 1088 00a0 FFF7FEFF 		bl	sprintf
 1089              	.LVL111:
 371:main_cm4.c    ****             UpdateDisplay(CY_EINK_PARTIAL, true);
 1090              		.loc 1 371 0
 1091 00a4 1E22     		movs	r2, #30
 1092 00a6 0A21     		movs	r1, #10
 1093 00a8 08A8     		add	r0, sp, #32
 1094 00aa FFF7FEFF 		bl	GUI_DispStringAt
 1095              	.LVL112:
 372:main_cm4.c    ****         }
 1096              		.loc 1 372 0
 1097 00ae 0121     		movs	r1, #1
 1098 00b0 0020     		movs	r0, #0
 1099 00b2 FFF7FEFF 		bl	UpdateDisplay
 1100              	.LVL113:
 1101              	.L61:
 355:main_cm4.c    ****         {
 1102              		.loc 1 355 0
 1103 00b6 FFF7FEFF 		bl	Status_Button1_Read
 1104              	.LVL114:
 1105 00ba 0028     		cmp	r0, #0
 1106 00bc DDD0     		beq	.L66
 355:main_cm4.c    ****         {
 1107              		.loc 1 355 0 is_stmt 0 discriminator 1
 1108 00be FFF7FEFF 		bl	Status_Button2_Read
 1109              	.LVL115:
 1110 00c2 0028     		cmp	r0, #0
 1111 00c4 D9D0     		beq	.L66
 1112 00c6 0025     		movs	r5, #0
 1113 00c8 00E0     		b	.L67
 1114              	.LVL116:
 1115              	.L91:
 378:main_cm4.c    ****         }
 1116              		.loc 1 378 0 is_stmt 1
 1117 00ca 0125     		movs	r5, #1
 1118              	.LVL117:
 1119              	.L67:
 376:main_cm4.c    ****         {
 1120              		.loc 1 376 0
 1121 00cc FFF7FEFF 		bl	Status_Button3_Read
 1122              	.LVL118:
 1123 00d0 0028     		cmp	r0, #0
ARM GAS  C:\Users\rober\AppData\Local\Temp\ccaShyPv.s 			page 49


 1124 00d2 FAD0     		beq	.L91
 382:main_cm4.c    ****         {
 1125              		.loc 1 382 0
 1126 00d4 4DB3     		cbz	r5, .L68
 384:main_cm4.c    ****             data[currentIndex].time = currentIndex * 5;   // Przykładowo ustawiamy czas jako indek
 1127              		.loc 1 384 0
 1128 00d6 914B     		ldr	r3, .L97+8
 1129 00d8 03EBC602 		add	r2, r3, r6, lsl #3
 1130 00dc 5460     		str	r4, [r2, #4]
 385:main_cm4.c    **** 
 1131              		.loc 1 385 0
 1132 00de 06EB8605 		add	r5, r6, r6, lsl #2
 1133              	.LVL119:
 1134 00e2 43F83650 		str	r5, [r3, r6, lsl #3]
 388:main_cm4.c    ****             GUI_DispStringAt(tempBuffer, 10, 50 + (currentIndex * 20)); // Wyświetlenie na ekranie
 1135              		.loc 1 388 0
 1136 00e6 2346     		mov	r3, r4
 1137 00e8 3246     		mov	r2, r6
 1138 00ea 8E49     		ldr	r1, .L97+16
 1139 00ec 08A8     		add	r0, sp, #32
 1140 00ee FFF7FEFF 		bl	sprintf
 1141              	.LVL120:
 389:main_cm4.c    **** 
 1142              		.loc 1 389 0
 1143 00f2 AA00     		lsls	r2, r5, #2
 1144 00f4 3232     		adds	r2, r2, #50
 1145 00f6 0A21     		movs	r1, #10
 1146 00f8 08A8     		add	r0, sp, #32
 1147 00fa FFF7FEFF 		bl	GUI_DispStringAt
 1148              	.LVL121:
 391:main_cm4.c    **** 
 1149              		.loc 1 391 0
 1150 00fe 0136     		adds	r6, r6, #1
 1151              	.LVL122:
 397:main_cm4.c    ****             sprintf(tempBuffer, "Current Temperature: %dC", currentTemp);
 1152              		.loc 1 397 0
 1153 0100 3223     		movs	r3, #50
 1154 0102 C822     		movs	r2, #200
 1155 0104 1E21     		movs	r1, #30
 1156 0106 0A20     		movs	r0, #10
 1157 0108 FFF7FEFF 		bl	GUI_ClearRect
 1158              	.LVL123:
 398:main_cm4.c    ****             GUI_DispStringAt(tempBuffer, 10, 30);  // Wyświetlenie nowej wartości temperatury
 1159              		.loc 1 398 0
 1160 010c 1922     		movs	r2, #25
 1161 010e 8449     		ldr	r1, .L97+12
 1162 0110 08A8     		add	r0, sp, #32
 1163 0112 FFF7FEFF 		bl	sprintf
 1164              	.LVL124:
 399:main_cm4.c    ****             UpdateDisplay(CY_EINK_PARTIAL, true);
 1165              		.loc 1 399 0
 1166 0116 1E22     		movs	r2, #30
 1167 0118 0A21     		movs	r1, #10
 1168 011a 08A8     		add	r0, sp, #32
 1169 011c FFF7FEFF 		bl	GUI_DispStringAt
 1170              	.LVL125:
 400:main_cm4.c    ****         }
ARM GAS  C:\Users\rober\AppData\Local\Temp\ccaShyPv.s 			page 50


 1171              		.loc 1 400 0
 1172 0120 0121     		movs	r1, #1
 1173 0122 0020     		movs	r0, #0
 1174 0124 FFF7FEFF 		bl	UpdateDisplay
 1175              	.LVL126:
 1176              	.L58:
 1177              	.LBE38:
 334:main_cm4.c    ****     
 1178              		.loc 1 334 0
 1179 0128 1924     		movs	r4, #25
 1180              	.LVL127:
 1181              	.L68:
 346:main_cm4.c    ****     {
 1182              		.loc 1 346 0
 1183 012a 052E     		cmp	r6, #5
 1184 012c 9ADD     		ble	.L62
 404:main_cm4.c    ****     
 1185              		.loc 1 404 0
 1186 012e FFF7FEFF 		bl	ClearScreen
 1187              	.LVL128:
 407:main_cm4.c    ****     GUI_SetBkColor(GUI_WHITE);
 1188              		.loc 1 407 0
 1189 0132 0020     		movs	r0, #0
 1190 0134 FFF7FEFF 		bl	GUI_SetColor
 1191              	.LVL129:
 408:main_cm4.c    ****     GUI_SetTextMode(GUI_TM_NORMAL);
 1192              		.loc 1 408 0
 1193 0138 6FF07F40 		mvn	r0, #-16777216
 1194 013c FFF7FEFF 		bl	GUI_SetBkColor
 1195              	.LVL130:
 409:main_cm4.c    ****     GUI_SetTextStyle(GUI_TS_NORMAL);
 1196              		.loc 1 409 0
 1197 0140 0020     		movs	r0, #0
 1198 0142 FFF7FEFF 		bl	GUI_SetTextMode
 1199              	.LVL131:
 410:main_cm4.c    **** 
 1200              		.loc 1 410 0
 1201 0146 0020     		movs	r0, #0
 1202 0148 FFF7FEFF 		bl	GUI_SetTextStyle
 1203              	.LVL132:
 413:main_cm4.c    ****     
 1204              		.loc 1 413 0
 1205 014c FFF7FEFF 		bl	GUI_Clear
 1206              	.LVL133:
 416:main_cm4.c    ****     GUI_SetTextAlign(GUI_TA_HCENTER);
 1207              		.loc 1 416 0
 1208 0150 7048     		ldr	r0, .L97
 1209 0152 FFF7FEFF 		bl	GUI_SetFont
 1210              	.LVL134:
 417:main_cm4.c    ****     GUI_DispStringAt("Add time points", 132, 5);
 1211              		.loc 1 417 0
 1212 0156 0220     		movs	r0, #2
 1213 0158 FFF7FEFF 		bl	GUI_SetTextAlign
 1214              	.LVL135:
 418:main_cm4.c    ****     
 1215              		.loc 1 418 0
 1216 015c 0522     		movs	r2, #5
ARM GAS  C:\Users\rober\AppData\Local\Temp\ccaShyPv.s 			page 51


 1217 015e 8421     		movs	r1, #132
 1218 0160 7148     		ldr	r0, .L97+20
 1219 0162 FFF7FEFF 		bl	GUI_DispStringAt
 1220              	.LVL136:
 420:main_cm4.c    ****     GUI_DispStringAt(timeBuffer, 10, 30);
 1221              		.loc 1 420 0
 1222 0166 0122     		movs	r2, #1
 1223 0168 7049     		ldr	r1, .L97+24
 1224 016a 6846     		mov	r0, sp
 1225 016c FFF7FEFF 		bl	sprintf
 1226              	.LVL137:
 421:main_cm4.c    ****     UpdateDisplay(CY_EINK_PARTIAL, true);
 1227              		.loc 1 421 0
 1228 0170 1E22     		movs	r2, #30
 1229 0172 0A21     		movs	r1, #10
 1230 0174 6846     		mov	r0, sp
 1231 0176 FFF7FEFF 		bl	GUI_DispStringAt
 1232              	.LVL138:
 422:main_cm4.c    ****     
 1233              		.loc 1 422 0
 1234 017a 0121     		movs	r1, #1
 1235 017c 0020     		movs	r0, #0
 1236 017e FFF7FEFF 		bl	UpdateDisplay
 1237              	.LVL139:
 425:main_cm4.c    ****     
 1238              		.loc 1 425 0
 1239 0182 0026     		movs	r6, #0
 424:main_cm4.c    ****     int lastCurrentTime = currentTime;
 1240              		.loc 1 424 0
 1241 0184 0127     		movs	r7, #1
 331:main_cm4.c    ****     char tempBuffer[32];   // Bufor na string wyświetlający temperaturę
 1242              		.loc 1 331 0
 1243 0186 3446     		mov	r4, r6
 1244              	.LVL140:
 427:main_cm4.c    ****     {
 1245              		.loc 1 427 0
 1246 0188 62E0     		b	.L69
 1247              	.LVL141:
 1248              	.L81:
 1249              	.LBB39:
 432:main_cm4.c    ****             currentTime = lastCurrentTime + 1;
 1250              		.loc 1 432 0
 1251 018a B442     		cmp	r4, r6
 1252 018c 00D1     		bne	.L74
 433:main_cm4.c    ****         }
 1253              		.loc 1 433 0
 1254 018e 741C     		adds	r4, r6, #1
 1255              	.LVL142:
 1256              	.L74:
 437:main_cm4.c    ****         
 1257              		.loc 1 437 0 discriminator 3
 1258 0190 FFF7FEFF 		bl	Status_Button1_Read
 1259              	.LVL143:
 1260 0194 28B3     		cbz	r0, .L73
 437:main_cm4.c    ****         
 1261              		.loc 1 437 0 is_stmt 0 discriminator 1
 1262 0196 FFF7FEFF 		bl	Status_Button2_Read
ARM GAS  C:\Users\rober\AppData\Local\Temp\ccaShyPv.s 			page 52


 1263              	.LVL144:
 1264 019a 10B3     		cbz	r0, .L73
 437:main_cm4.c    ****         
 1265              		.loc 1 437 0 discriminator 2
 1266 019c FFF7FEFF 		bl	Status_Button3_Read
 1267              	.LVL145:
 1268 01a0 0028     		cmp	r0, #0
 1269 01a2 F5D1     		bne	.L74
 1270 01a4 1DE0     		b	.L73
 1271              	.L78:
 442:main_cm4.c    ****                 currentTime++;
 1272              		.loc 1 442 0 is_stmt 1
 1273 01a6 FFF7FEFF 		bl	Status_Button1_Read
 1274              	.LVL146:
 1275 01aa 08B9     		cbnz	r0, .L75
 443:main_cm4.c    ****             }
 1276              		.loc 1 443 0
 1277 01ac 0134     		adds	r4, r4, #1
 1278              	.LVL147:
 1279 01ae 00E0     		b	.L76
 1280              	.L75:
 446:main_cm4.c    ****             }
 1281              		.loc 1 446 0
 1282 01b0 0A34     		adds	r4, r4, #10
 1283              	.LVL148:
 1284              	.L76:
 449:main_cm4.c    ****                 currentTime = lastCurrentTime + 1;
 1285              		.loc 1 449 0
 1286 01b2 B4F5C87F 		cmp	r4, #400
 1287 01b6 00DB     		blt	.L77
 450:main_cm4.c    ****             }
 1288              		.loc 1 450 0
 1289 01b8 741C     		adds	r4, r6, #1
 1290              	.LVL149:
 1291              	.L77:
 454:main_cm4.c    ****             sprintf(timeBuffer, "Current Time: %ds", currentTime);
 1292              		.loc 1 454 0
 1293 01ba 3223     		movs	r3, #50
 1294 01bc C822     		movs	r2, #200
 1295 01be 1E21     		movs	r1, #30
 1296 01c0 0A20     		movs	r0, #10
 1297 01c2 FFF7FEFF 		bl	GUI_ClearRect
 1298              	.LVL150:
 455:main_cm4.c    ****             GUI_DispStringAt(timeBuffer, 10, 30);  // Wyświetlenie nowej wartości czasu
 1299              		.loc 1 455 0
 1300 01c6 2246     		mov	r2, r4
 1301 01c8 5849     		ldr	r1, .L97+24
 1302 01ca 6846     		mov	r0, sp
 1303 01cc FFF7FEFF 		bl	sprintf
 1304              	.LVL151:
 456:main_cm4.c    ****             UpdateDisplay(CY_EINK_PARTIAL, true);
 1305              		.loc 1 456 0
 1306 01d0 1E22     		movs	r2, #30
 1307 01d2 0A21     		movs	r1, #10
 1308 01d4 6846     		mov	r0, sp
 1309 01d6 FFF7FEFF 		bl	GUI_DispStringAt
 1310              	.LVL152:
ARM GAS  C:\Users\rober\AppData\Local\Temp\ccaShyPv.s 			page 53


 457:main_cm4.c    ****         }
 1311              		.loc 1 457 0
 1312 01da 0121     		movs	r1, #1
 1313 01dc 0020     		movs	r0, #0
 1314 01de FFF7FEFF 		bl	UpdateDisplay
 1315              	.LVL153:
 1316              	.L73:
 440:main_cm4.c    ****         {
 1317              		.loc 1 440 0
 1318 01e2 FFF7FEFF 		bl	Status_Button1_Read
 1319              	.LVL154:
 1320 01e6 0028     		cmp	r0, #0
 1321 01e8 DDD0     		beq	.L78
 440:main_cm4.c    ****         {
 1322              		.loc 1 440 0 is_stmt 0 discriminator 1
 1323 01ea FFF7FEFF 		bl	Status_Button2_Read
 1324              	.LVL155:
 1325 01ee 0028     		cmp	r0, #0
 1326 01f0 D9D0     		beq	.L78
 1327 01f2 0025     		movs	r5, #0
 1328 01f4 00E0     		b	.L79
 1329              	.LVL156:
 1330              	.L92:
 463:main_cm4.c    ****         }
 1331              		.loc 1 463 0 is_stmt 1
 1332 01f6 0125     		movs	r5, #1
 1333              	.LVL157:
 1334              	.L79:
 461:main_cm4.c    ****         {
 1335              		.loc 1 461 0
 1336 01f8 FFF7FEFF 		bl	Status_Button3_Read
 1337              	.LVL158:
 1338 01fc 0028     		cmp	r0, #0
 1339 01fe FAD0     		beq	.L92
 467:main_cm4.c    ****         {
 1340              		.loc 1 467 0
 1341 0200 35B3     		cbz	r5, .L69
 469:main_cm4.c    ****             lastCurrentTime = currentTime;
 1342              		.loc 1 469 0
 1343 0202 464B     		ldr	r3, .L97+8
 1344 0204 43F83740 		str	r4, [r3, r7, lsl #3]
 1345              	.LVL159:
 473:main_cm4.c    ****             GUI_DispStringAt(timeBuffer, 10, 50 + (currentIndex * 20)); // Wyświetlenie na ekranie
 1346              		.loc 1 473 0
 1347 0208 2346     		mov	r3, r4
 1348              	.LVL160:
 1349 020a 3A46     		mov	r2, r7
 1350 020c 4849     		ldr	r1, .L97+28
 1351 020e 6846     		mov	r0, sp
 1352 0210 FFF7FEFF 		bl	sprintf
 1353              	.LVL161:
 474:main_cm4.c    **** 
 1354              		.loc 1 474 0
 1355 0214 07EB8703 		add	r3, r7, r7, lsl #2
 1356 0218 9A00     		lsls	r2, r3, #2
 1357 021a 3232     		adds	r2, r2, #50
 1358 021c 0A21     		movs	r1, #10
ARM GAS  C:\Users\rober\AppData\Local\Temp\ccaShyPv.s 			page 54


 1359 021e 6846     		mov	r0, sp
 1360 0220 FFF7FEFF 		bl	GUI_DispStringAt
 1361              	.LVL162:
 476:main_cm4.c    **** 
 1362              		.loc 1 476 0
 1363 0224 0137     		adds	r7, r7, #1
 1364              	.LVL163:
 479:main_cm4.c    ****             sprintf(timeBuffer, "Current Time: %ds", currentTime);
 1365              		.loc 1 479 0
 1366 0226 3223     		movs	r3, #50
 1367 0228 C822     		movs	r2, #200
 1368 022a 1E21     		movs	r1, #30
 1369 022c 0A20     		movs	r0, #10
 1370 022e FFF7FEFF 		bl	GUI_ClearRect
 1371              	.LVL164:
 480:main_cm4.c    ****             GUI_DispStringAt(timeBuffer, 10, 30);  // Wyświetlenie nowej wartości czasu
 1372              		.loc 1 480 0
 1373 0232 2246     		mov	r2, r4
 1374 0234 3D49     		ldr	r1, .L97+24
 1375 0236 6846     		mov	r0, sp
 1376 0238 FFF7FEFF 		bl	sprintf
 1377              	.LVL165:
 481:main_cm4.c    ****             UpdateDisplay(CY_EINK_PARTIAL, true);
 1378              		.loc 1 481 0
 1379 023c 1E22     		movs	r2, #30
 1380 023e 0A21     		movs	r1, #10
 1381 0240 6846     		mov	r0, sp
 1382 0242 FFF7FEFF 		bl	GUI_DispStringAt
 1383              	.LVL166:
 482:main_cm4.c    ****         }
 1384              		.loc 1 482 0
 1385 0246 0121     		movs	r1, #1
 1386 0248 0020     		movs	r0, #0
 1387 024a FFF7FEFF 		bl	UpdateDisplay
 1388              	.LVL167:
 470:main_cm4.c    **** 
 1389              		.loc 1 470 0
 1390 024e 2646     		mov	r6, r4
 1391              	.LVL168:
 1392              	.L69:
 1393              	.LBE39:
 427:main_cm4.c    ****     {
 1394              		.loc 1 427 0
 1395 0250 052F     		cmp	r7, #5
 1396 0252 9ADD     		ble	.L81
 486:main_cm4.c    ****     
 1397              		.loc 1 486 0
 1398 0254 FFF7FEFF 		bl	ClearScreen
 1399              	.LVL169:
 489:main_cm4.c    ****     GUI_SetBkColor(GUI_WHITE);
 1400              		.loc 1 489 0
 1401 0258 0020     		movs	r0, #0
 1402 025a FFF7FEFF 		bl	GUI_SetColor
 1403              	.LVL170:
 490:main_cm4.c    ****     GUI_SetTextMode(GUI_TM_NORMAL);
 1404              		.loc 1 490 0
 1405 025e 6FF07F40 		mvn	r0, #-16777216
ARM GAS  C:\Users\rober\AppData\Local\Temp\ccaShyPv.s 			page 55


 1406 0262 FFF7FEFF 		bl	GUI_SetBkColor
 1407              	.LVL171:
 491:main_cm4.c    ****     GUI_SetTextStyle(GUI_TS_NORMAL);
 1408              		.loc 1 491 0
 1409 0266 0020     		movs	r0, #0
 1410 0268 FFF7FEFF 		bl	GUI_SetTextMode
 1411              	.LVL172:
 492:main_cm4.c    **** 
 1412              		.loc 1 492 0
 1413 026c 0020     		movs	r0, #0
 1414 026e FFF7FEFF 		bl	GUI_SetTextStyle
 1415              	.LVL173:
 495:main_cm4.c    ****     
 1416              		.loc 1 495 0
 1417 0272 FFF7FEFF 		bl	GUI_Clear
 1418              	.LVL174:
 498:main_cm4.c    ****     GUI_SetTextAlign(GUI_TA_HCENTER);
 1419              		.loc 1 498 0
 1420 0276 2748     		ldr	r0, .L97
 1421 0278 FFF7FEFF 		bl	GUI_SetFont
 1422              	.LVL175:
 499:main_cm4.c    ****     GUI_DispStringAt("Click one to break, click two to start.", 110, 5);
 1423              		.loc 1 499 0
 1424 027c 0220     		movs	r0, #2
 1425 027e FFF7FEFF 		bl	GUI_SetTextAlign
 1426              	.LVL176:
 500:main_cm4.c    ****     GUI_DispStringAt("Click three to show graph.", 10, 25);
 1427              		.loc 1 500 0
 1428 0282 0522     		movs	r2, #5
 1429 0284 6E21     		movs	r1, #110
 1430 0286 2B48     		ldr	r0, .L97+32
 1431 0288 FFF7FEFF 		bl	GUI_DispStringAt
 1432              	.LVL177:
 501:main_cm4.c    ****     UpdateDisplay(CY_EINK_PARTIAL, true);
 1433              		.loc 1 501 0
 1434 028c 1922     		movs	r2, #25
 1435 028e 0A21     		movs	r1, #10
 1436 0290 2948     		ldr	r0, .L97+36
 1437 0292 FFF7FEFF 		bl	GUI_DispStringAt
 1438              	.LVL178:
 502:main_cm4.c    ****     
 1439              		.loc 1 502 0
 1440 0296 0121     		movs	r1, #1
 1441 0298 0020     		movs	r0, #0
 1442 029a FFF7FEFF 		bl	UpdateDisplay
 1443              	.LVL179:
 1444              	.L83:
 504:main_cm4.c    ****     
 1445              		.loc 1 504 0 discriminator 3
 1446 029e FFF7FEFF 		bl	Status_Button1_Read
 1447              	.LVL180:
 1448 02a2 30B1     		cbz	r0, .L82
 504:main_cm4.c    ****     
 1449              		.loc 1 504 0 is_stmt 0 discriminator 1
 1450 02a4 FFF7FEFF 		bl	Status_Button2_Read
 1451              	.LVL181:
 1452 02a8 18B1     		cbz	r0, .L82
ARM GAS  C:\Users\rober\AppData\Local\Temp\ccaShyPv.s 			page 56


 504:main_cm4.c    ****     
 1453              		.loc 1 504 0 discriminator 2
 1454 02aa FFF7FEFF 		bl	Status_Button3_Read
 1455              	.LVL182:
 1456 02ae 0028     		cmp	r0, #0
 1457 02b0 F5D1     		bne	.L83
 1458              	.L82:
 331:main_cm4.c    ****     char tempBuffer[32];   // Bufor na string wyświetlający temperaturę
 1459              		.loc 1 331 0 is_stmt 1
 1460 02b2 0024     		movs	r4, #0
 1461              	.LVL183:
 1462 02b4 00E0     		b	.L84
 1463              	.LVL184:
 1464              	.L93:
 512:main_cm4.c    ****     }
 1465              		.loc 1 512 0
 1466 02b6 0124     		movs	r4, #1
 1467              	.LVL185:
 1468              	.L84:
 510:main_cm4.c    ****     {
 1469              		.loc 1 510 0
 1470 02b8 FFF7FEFF 		bl	Status_Button1_Read
 1471              	.LVL186:
 1472 02bc 0028     		cmp	r0, #0
 1473 02be FAD0     		beq	.L93
 1474 02c0 0025     		movs	r5, #0
 1475 02c2 00E0     		b	.L85
 1476              	.LVL187:
 1477              	.L94:
 516:main_cm4.c    ****     }
 1478              		.loc 1 516 0
 1479 02c4 0125     		movs	r5, #1
 1480              	.LVL188:
 1481              	.L85:
 514:main_cm4.c    ****     {
 1482              		.loc 1 514 0
 1483 02c6 FFF7FEFF 		bl	Status_Button2_Read
 1484              	.LVL189:
 1485 02ca 0028     		cmp	r0, #0
 1486 02cc FAD0     		beq	.L94
 1487 02ce 0026     		movs	r6, #0
 1488              	.LVL190:
 1489 02d0 00E0     		b	.L86
 1490              	.LVL191:
 1491              	.L95:
 520:main_cm4.c    ****     }
 1492              		.loc 1 520 0
 1493 02d2 0126     		movs	r6, #1
 1494              	.LVL192:
 1495              	.L86:
 518:main_cm4.c    ****     {
 1496              		.loc 1 518 0
 1497 02d4 FFF7FEFF 		bl	Status_Button3_Read
 1498              	.LVL193:
 1499 02d8 0028     		cmp	r0, #0
 1500 02da FAD0     		beq	.L95
 523:main_cm4.c    ****     {
ARM GAS  C:\Users\rober\AppData\Local\Temp\ccaShyPv.s 			page 57


 1501              		.loc 1 523 0
 1502 02dc 34B1     		cbz	r4, .L87
 525:main_cm4.c    ****         which_data_table = 0;
 1503              		.loc 1 525 0
 1504 02de 174B     		ldr	r3, .L97+40
 1505 02e0 0022     		movs	r2, #0
 1506 02e2 C3F8CC25 		str	r2, [r3, #1484]
 526:main_cm4.c    ****     }
 1507              		.loc 1 526 0
 1508 02e6 C3F8C825 		str	r2, [r3, #1480]
 1509 02ea 10E0     		b	.L57
 1510              	.L87:
 528:main_cm4.c    ****     {
 1511              		.loc 1 528 0
 1512 02ec 3DB1     		cbz	r5, .L89
 530:main_cm4.c    ****         which_data_table = 0;
 1513              		.loc 1 530 0
 1514 02ee 134B     		ldr	r3, .L97+40
 1515 02f0 0122     		movs	r2, #1
 1516 02f2 C3F8CC25 		str	r2, [r3, #1484]
 531:main_cm4.c    ****     }
 1517              		.loc 1 531 0
 1518 02f6 0022     		movs	r2, #0
 1519 02f8 C3F8C825 		str	r2, [r3, #1480]
 1520 02fc 07E0     		b	.L57
 1521              	.L89:
 533:main_cm4.c    ****     {
 1522              		.loc 1 533 0
 1523 02fe 36B1     		cbz	r6, .L57
 535:main_cm4.c    ****         which_data_table = 0;
 1524              		.loc 1 535 0
 1525 0300 0E4B     		ldr	r3, .L97+40
 1526 0302 0322     		movs	r2, #3
 1527 0304 C3F8CC25 		str	r2, [r3, #1484]
 536:main_cm4.c    ****     }
 1528              		.loc 1 536 0
 1529 0308 0022     		movs	r2, #0
 1530 030a C3F8C825 		str	r2, [r3, #1480]
 1531              	.L57:
 538:main_cm4.c    **** 
 1532              		.loc 1 538 0
 1533 030e 11B0     		add	sp, sp, #68
 1534              		.cfi_def_cfa_offset 20
 1535              		@ sp needed
 1536 0310 F0BD     		pop	{r4, r5, r6, r7, pc}
 1537              	.LVL194:
 1538              	.L98:
 1539 0312 00BF     		.align	2
 1540              	.L97:
 1541 0314 00000000 		.word	GUI_Font13B_1
 1542 0318 24000000 		.word	.LC7
 1543 031c 00000000 		.word	data
 1544 0320 3C000000 		.word	.LC8
 1545 0324 58000000 		.word	.LC9
 1546 0328 6C000000 		.word	.LC10
 1547 032c 7C000000 		.word	.LC11
 1548 0330 90000000 		.word	.LC12
ARM GAS  C:\Users\rober\AppData\Local\Temp\ccaShyPv.s 			page 58


 1549 0334 A4000000 		.word	.LC13
 1550 0338 CC000000 		.word	.LC14
 1551 033c F8100000 		.word	.LANCHOR1
 1552              		.cfi_endproc
 1553              	.LFE610:
 1554              		.size	AddNew, .-AddNew
 1555              		.section	.text.ShowAddNewPage,"ax",%progbits
 1556              		.align	2
 1557              		.global	ShowAddNewPage
 1558              		.thumb
 1559              		.thumb_func
 1560              		.type	ShowAddNewPage, %function
 1561              	ShowAddNewPage:
 1562              	.LFB611:
 542:main_cm4.c    ****     ClearScreen();
 1563              		.loc 1 542 0
 1564              		.cfi_startproc
 1565              		@ args = 0, pretend = 0, frame = 0
 1566              		@ frame_needed = 0, uses_anonymous_args = 0
 1567 0000 38B5     		push	{r3, r4, r5, lr}
 1568              		.cfi_def_cfa_offset 16
 1569              		.cfi_offset 3, -16
 1570              		.cfi_offset 4, -12
 1571              		.cfi_offset 5, -8
 1572              		.cfi_offset 14, -4
 543:main_cm4.c    ****     
 1573              		.loc 1 543 0
 1574 0002 FFF7FEFF 		bl	ClearScreen
 1575              	.LVL195:
 546:main_cm4.c    ****     GUI_SetBkColor(GUI_WHITE);
 1576              		.loc 1 546 0
 1577 0006 0020     		movs	r0, #0
 1578 0008 FFF7FEFF 		bl	GUI_SetColor
 1579              	.LVL196:
 547:main_cm4.c    ****     GUI_SetTextMode(GUI_TM_NORMAL);
 1580              		.loc 1 547 0
 1581 000c 6FF07F40 		mvn	r0, #-16777216
 1582 0010 FFF7FEFF 		bl	GUI_SetBkColor
 1583              	.LVL197:
 548:main_cm4.c    ****     GUI_SetTextStyle(GUI_TS_NORMAL);
 1584              		.loc 1 548 0
 1585 0014 0020     		movs	r0, #0
 1586 0016 FFF7FEFF 		bl	GUI_SetTextMode
 1587              	.LVL198:
 549:main_cm4.c    **** 
 1588              		.loc 1 549 0
 1589 001a 0020     		movs	r0, #0
 1590 001c FFF7FEFF 		bl	GUI_SetTextStyle
 1591              	.LVL199:
 552:main_cm4.c    ****     
 1592              		.loc 1 552 0
 1593 0020 FFF7FEFF 		bl	GUI_Clear
 1594              	.LVL200:
 555:main_cm4.c    ****     GUI_SetTextAlign(GUI_TA_HCENTER);
 1595              		.loc 1 555 0
 1596 0024 1748     		ldr	r0, .L109
 1597 0026 FFF7FEFF 		bl	GUI_SetFont
ARM GAS  C:\Users\rober\AppData\Local\Temp\ccaShyPv.s 			page 59


 1598              	.LVL201:
 556:main_cm4.c    ****     GUI_DispStringAt("Users Profile - click one to add", 132, 5);
 1599              		.loc 1 556 0
 1600 002a 0220     		movs	r0, #2
 1601 002c FFF7FEFF 		bl	GUI_SetTextAlign
 1602              	.LVL202:
 557:main_cm4.c    **** 
 1603              		.loc 1 557 0
 1604 0030 0522     		movs	r2, #5
 1605 0032 8421     		movs	r1, #132
 1606 0034 1448     		ldr	r0, .L109+4
 1607 0036 FFF7FEFF 		bl	GUI_DispStringAt
 1608              	.LVL203:
 560:main_cm4.c    ****     
 1609              		.loc 1 560 0
 1610 003a 0121     		movs	r1, #1
 1611 003c 0020     		movs	r0, #0
 1612 003e FFF7FEFF 		bl	UpdateDisplay
 1613              	.LVL204:
 1614              	.L101:
 562:main_cm4.c    ****     
 1615              		.loc 1 562 0 discriminator 2
 1616 0042 FFF7FEFF 		bl	Status_Button1_Read
 1617              	.LVL205:
 1618 0046 18B1     		cbz	r0, .L100
 562:main_cm4.c    ****     
 1619              		.loc 1 562 0 is_stmt 0 discriminator 1
 1620 0048 FFF7FEFF 		bl	Status_Button2_Read
 1621              	.LVL206:
 1622 004c 0028     		cmp	r0, #0
 1623 004e F8D1     		bne	.L101
 1624              	.L100:
 542:main_cm4.c    ****     ClearScreen();
 1625              		.loc 1 542 0 is_stmt 1
 1626 0050 0024     		movs	r4, #0
 1627 0052 00E0     		b	.L102
 1628              	.LVL207:
 1629              	.L106:
 569:main_cm4.c    ****     }
 1630              		.loc 1 569 0
 1631 0054 0124     		movs	r4, #1
 1632              	.LVL208:
 1633              	.L102:
 567:main_cm4.c    ****     {
 1634              		.loc 1 567 0
 1635 0056 FFF7FEFF 		bl	Status_Button1_Read
 1636              	.LVL209:
 1637 005a 0028     		cmp	r0, #0
 1638 005c FAD0     		beq	.L106
 1639 005e 0025     		movs	r5, #0
 1640 0060 00E0     		b	.L103
 1641              	.LVL210:
 1642              	.L107:
 573:main_cm4.c    ****     }
 1643              		.loc 1 573 0
 1644 0062 0125     		movs	r5, #1
 1645              	.LVL211:
ARM GAS  C:\Users\rober\AppData\Local\Temp\ccaShyPv.s 			page 60


 1646              	.L103:
 571:main_cm4.c    ****     {
 1647              		.loc 1 571 0
 1648 0064 FFF7FEFF 		bl	Status_Button2_Read
 1649              	.LVL212:
 1650 0068 0028     		cmp	r0, #0
 1651 006a FAD0     		beq	.L107
 576:main_cm4.c    ****     {
 1652              		.loc 1 576 0
 1653 006c 14B1     		cbz	r4, .L104
 578:main_cm4.c    ****     }
 1654              		.loc 1 578 0
 1655 006e FFF7FEFF 		bl	AddNew
 1656              	.LVL213:
 1657 0072 38BD     		pop	{r3, r4, r5, pc}
 1658              	.LVL214:
 1659              	.L104:
 580:main_cm4.c    ****     {
 1660              		.loc 1 580 0
 1661 0074 2DB1     		cbz	r5, .L99
 582:main_cm4.c    ****         which_data_table = 0;
 1662              		.loc 1 582 0
 1663 0076 054B     		ldr	r3, .L109+8
 1664 0078 0022     		movs	r2, #0
 1665 007a C3F8CC25 		str	r2, [r3, #1484]
 583:main_cm4.c    ****     }
 1666              		.loc 1 583 0
 1667 007e C3F8C825 		str	r2, [r3, #1480]
 1668              	.L99:
 1669 0082 38BD     		pop	{r3, r4, r5, pc}
 1670              	.LVL215:
 1671              	.L110:
 1672              		.align	2
 1673              	.L109:
 1674 0084 00000000 		.word	GUI_Font13B_1
 1675 0088 E8000000 		.word	.LC15
 1676 008c F8100000 		.word	.LANCHOR1
 1677              		.cfi_endproc
 1678              	.LFE611:
 1679              		.size	ShowAddNewPage, .-ShowAddNewPage
 1680              		.section	.text.Init_Interrupts,"ax",%progbits
 1681              		.align	2
 1682              		.global	Init_Interrupts
 1683              		.thumb
 1684              		.thumb_func
 1685              		.type	Init_Interrupts, %function
 1686              	Init_Interrupts:
 1687              	.LFB613:
 620:main_cm4.c    ****         }
 621:main_cm4.c    ****     }
 622:main_cm4.c    **** }
 623:main_cm4.c    **** 
 624:main_cm4.c    **** void Init_Interrupts()
 625:main_cm4.c    **** {
 1688              		.loc 1 625 0
 1689              		.cfi_startproc
 1690              		@ args = 0, pretend = 0, frame = 0
ARM GAS  C:\Users\rober\AppData\Local\Temp\ccaShyPv.s 			page 61


 1691              		@ frame_needed = 0, uses_anonymous_args = 0
 1692 0000 10B5     		push	{r4, lr}
 1693              		.cfi_def_cfa_offset 8
 1694              		.cfi_offset 4, -8
 1695              		.cfi_offset 14, -4
 626:main_cm4.c    ****     /* Initialize the interrupt vector table with the timer interrupt handler
 627:main_cm4.c    ****     * address and assign priority. */
 628:main_cm4.c    ****     Cy_SysInt_Init(&isrTimer_cfg, TimerInterruptHandler);
 1696              		.loc 1 628 0
 1697 0002 154C     		ldr	r4, .L115
 1698 0004 1549     		ldr	r1, .L115+4
 1699 0006 2046     		mov	r0, r4
 1700 0008 FFF7FEFF 		bl	Cy_SysInt_Init
 1701              	.LVL216:
 629:main_cm4.c    ****     NVIC_ClearPendingIRQ(isrTimer_cfg.intrSrc);/* Clears the interrupt */
 1702              		.loc 1 629 0
 1703 000c B4F90030 		ldrsh	r3, [r4]
 1704              	.LVL217:
 1705              	.LBB40:
 1706              	.LBB41:
 1707              		.file 4 "Generated_Source\\PSoC6\\pdl\\cmsis/include/core_cm4.h"
   1:Generated_Source\PSoC6\pdl\cmsis/include/core_cm4.h **** /**************************************************************************//**
   2:Generated_Source\PSoC6\pdl\cmsis/include/core_cm4.h ****  * @file     core_cm4.h
   3:Generated_Source\PSoC6\pdl\cmsis/include/core_cm4.h ****  * @brief    CMSIS Cortex-M4 Core Peripheral Access Layer Header File
   4:Generated_Source\PSoC6\pdl\cmsis/include/core_cm4.h ****  * @version  V5.0.1
   5:Generated_Source\PSoC6\pdl\cmsis/include/core_cm4.h ****  * @date     30. January 2017
   6:Generated_Source\PSoC6\pdl\cmsis/include/core_cm4.h ****  ******************************************************************************/
   7:Generated_Source\PSoC6\pdl\cmsis/include/core_cm4.h **** /*
   8:Generated_Source\PSoC6\pdl\cmsis/include/core_cm4.h ****  * Copyright (c) 2009-2016 ARM Limited. All rights reserved.
   9:Generated_Source\PSoC6\pdl\cmsis/include/core_cm4.h ****  *
  10:Generated_Source\PSoC6\pdl\cmsis/include/core_cm4.h ****  * SPDX-License-Identifier: Apache-2.0
  11:Generated_Source\PSoC6\pdl\cmsis/include/core_cm4.h ****  *
  12:Generated_Source\PSoC6\pdl\cmsis/include/core_cm4.h ****  * Licensed under the Apache License, Version 2.0 (the License); you may
  13:Generated_Source\PSoC6\pdl\cmsis/include/core_cm4.h ****  * not use this file except in compliance with the License.
  14:Generated_Source\PSoC6\pdl\cmsis/include/core_cm4.h ****  * You may obtain a copy of the License at
  15:Generated_Source\PSoC6\pdl\cmsis/include/core_cm4.h ****  *
  16:Generated_Source\PSoC6\pdl\cmsis/include/core_cm4.h ****  * www.apache.org/licenses/LICENSE-2.0
  17:Generated_Source\PSoC6\pdl\cmsis/include/core_cm4.h ****  *
  18:Generated_Source\PSoC6\pdl\cmsis/include/core_cm4.h ****  * Unless required by applicable law or agreed to in writing, software
  19:Generated_Source\PSoC6\pdl\cmsis/include/core_cm4.h ****  * distributed under the License is distributed on an AS IS BASIS, WITHOUT
  20:Generated_Source\PSoC6\pdl\cmsis/include/core_cm4.h ****  * WARRANTIES OR CONDITIONS OF ANY KIND, either express or implied.
  21:Generated_Source\PSoC6\pdl\cmsis/include/core_cm4.h ****  * See the License for the specific language governing permissions and
  22:Generated_Source\PSoC6\pdl\cmsis/include/core_cm4.h ****  * limitations under the License.
  23:Generated_Source\PSoC6\pdl\cmsis/include/core_cm4.h ****  */
  24:Generated_Source\PSoC6\pdl\cmsis/include/core_cm4.h **** 
  25:Generated_Source\PSoC6\pdl\cmsis/include/core_cm4.h **** #if   defined ( __ICCARM__ )
  26:Generated_Source\PSoC6\pdl\cmsis/include/core_cm4.h ****  #pragma system_include         /* treat file as system include file for MISRA check */
  27:Generated_Source\PSoC6\pdl\cmsis/include/core_cm4.h **** #elif defined (__ARMCC_VERSION) && (__ARMCC_VERSION >= 6010050)
  28:Generated_Source\PSoC6\pdl\cmsis/include/core_cm4.h ****   #pragma clang system_header   /* treat file as system include file */
  29:Generated_Source\PSoC6\pdl\cmsis/include/core_cm4.h **** #endif
  30:Generated_Source\PSoC6\pdl\cmsis/include/core_cm4.h **** 
  31:Generated_Source\PSoC6\pdl\cmsis/include/core_cm4.h **** #ifndef __CORE_CM4_H_GENERIC
  32:Generated_Source\PSoC6\pdl\cmsis/include/core_cm4.h **** #define __CORE_CM4_H_GENERIC
  33:Generated_Source\PSoC6\pdl\cmsis/include/core_cm4.h **** 
  34:Generated_Source\PSoC6\pdl\cmsis/include/core_cm4.h **** #include <stdint.h>
  35:Generated_Source\PSoC6\pdl\cmsis/include/core_cm4.h **** 
  36:Generated_Source\PSoC6\pdl\cmsis/include/core_cm4.h **** #ifdef __cplusplus
ARM GAS  C:\Users\rober\AppData\Local\Temp\ccaShyPv.s 			page 62


  37:Generated_Source\PSoC6\pdl\cmsis/include/core_cm4.h ****  extern "C" {
  38:Generated_Source\PSoC6\pdl\cmsis/include/core_cm4.h **** #endif
  39:Generated_Source\PSoC6\pdl\cmsis/include/core_cm4.h **** 
  40:Generated_Source\PSoC6\pdl\cmsis/include/core_cm4.h **** /**
  41:Generated_Source\PSoC6\pdl\cmsis/include/core_cm4.h ****   \page CMSIS_MISRA_Exceptions  MISRA-C:2004 Compliance Exceptions
  42:Generated_Source\PSoC6\pdl\cmsis/include/core_cm4.h ****   CMSIS violates the following MISRA-C:2004 rules:
  43:Generated_Source\PSoC6\pdl\cmsis/include/core_cm4.h **** 
  44:Generated_Source\PSoC6\pdl\cmsis/include/core_cm4.h ****    \li Required Rule 8.5, object/function definition in header file.<br>
  45:Generated_Source\PSoC6\pdl\cmsis/include/core_cm4.h ****      Function definitions in header files are used to allow 'inlining'.
  46:Generated_Source\PSoC6\pdl\cmsis/include/core_cm4.h **** 
  47:Generated_Source\PSoC6\pdl\cmsis/include/core_cm4.h ****    \li Required Rule 18.4, declaration of union type or object of union type: '{...}'.<br>
  48:Generated_Source\PSoC6\pdl\cmsis/include/core_cm4.h ****      Unions are used for effective representation of core registers.
  49:Generated_Source\PSoC6\pdl\cmsis/include/core_cm4.h **** 
  50:Generated_Source\PSoC6\pdl\cmsis/include/core_cm4.h ****    \li Advisory Rule 19.7, Function-like macro defined.<br>
  51:Generated_Source\PSoC6\pdl\cmsis/include/core_cm4.h ****      Function-like macros are used to allow more efficient code.
  52:Generated_Source\PSoC6\pdl\cmsis/include/core_cm4.h ****  */
  53:Generated_Source\PSoC6\pdl\cmsis/include/core_cm4.h **** 
  54:Generated_Source\PSoC6\pdl\cmsis/include/core_cm4.h **** 
  55:Generated_Source\PSoC6\pdl\cmsis/include/core_cm4.h **** /*******************************************************************************
  56:Generated_Source\PSoC6\pdl\cmsis/include/core_cm4.h ****  *                 CMSIS definitions
  57:Generated_Source\PSoC6\pdl\cmsis/include/core_cm4.h ****  ******************************************************************************/
  58:Generated_Source\PSoC6\pdl\cmsis/include/core_cm4.h **** /**
  59:Generated_Source\PSoC6\pdl\cmsis/include/core_cm4.h ****   \ingroup Cortex_M4
  60:Generated_Source\PSoC6\pdl\cmsis/include/core_cm4.h ****   @{
  61:Generated_Source\PSoC6\pdl\cmsis/include/core_cm4.h ****  */
  62:Generated_Source\PSoC6\pdl\cmsis/include/core_cm4.h **** 
  63:Generated_Source\PSoC6\pdl\cmsis/include/core_cm4.h **** /*  CMSIS CM4 definitions */
  64:Generated_Source\PSoC6\pdl\cmsis/include/core_cm4.h **** #define __CM4_CMSIS_VERSION_MAIN  ( 5U)                                  /*!< [31:16] CMSIS HAL mai
  65:Generated_Source\PSoC6\pdl\cmsis/include/core_cm4.h **** #define __CM4_CMSIS_VERSION_SUB   ( 0U)                                  /*!< [15:0]  CMSIS HAL sub
  66:Generated_Source\PSoC6\pdl\cmsis/include/core_cm4.h **** #define __CM4_CMSIS_VERSION       ((__CM4_CMSIS_VERSION_MAIN << 16U) | \
  67:Generated_Source\PSoC6\pdl\cmsis/include/core_cm4.h ****                                     __CM4_CMSIS_VERSION_SUB           )  /*!< CMSIS HAL version num
  68:Generated_Source\PSoC6\pdl\cmsis/include/core_cm4.h **** 
  69:Generated_Source\PSoC6\pdl\cmsis/include/core_cm4.h **** #define __CORTEX_M                (4U)                                   /*!< Cortex-M Core */
  70:Generated_Source\PSoC6\pdl\cmsis/include/core_cm4.h **** 
  71:Generated_Source\PSoC6\pdl\cmsis/include/core_cm4.h **** /** __FPU_USED indicates whether an FPU is used or not.
  72:Generated_Source\PSoC6\pdl\cmsis/include/core_cm4.h ****     For this, __FPU_PRESENT has to be checked prior to making use of FPU specific registers and fun
  73:Generated_Source\PSoC6\pdl\cmsis/include/core_cm4.h **** */
  74:Generated_Source\PSoC6\pdl\cmsis/include/core_cm4.h **** #if defined ( __CC_ARM )
  75:Generated_Source\PSoC6\pdl\cmsis/include/core_cm4.h ****   #if defined __TARGET_FPU_VFP
  76:Generated_Source\PSoC6\pdl\cmsis/include/core_cm4.h ****     #if defined (__FPU_PRESENT) && (__FPU_PRESENT == 1U)
  77:Generated_Source\PSoC6\pdl\cmsis/include/core_cm4.h ****       #define __FPU_USED       1U
  78:Generated_Source\PSoC6\pdl\cmsis/include/core_cm4.h ****     #else
  79:Generated_Source\PSoC6\pdl\cmsis/include/core_cm4.h ****       #error "Compiler generates FPU instructions for a device without an FPU (check __FPU_PRESENT)
  80:Generated_Source\PSoC6\pdl\cmsis/include/core_cm4.h ****       #define __FPU_USED       0U
  81:Generated_Source\PSoC6\pdl\cmsis/include/core_cm4.h ****     #endif
  82:Generated_Source\PSoC6\pdl\cmsis/include/core_cm4.h ****   #else
  83:Generated_Source\PSoC6\pdl\cmsis/include/core_cm4.h ****     #define __FPU_USED         0U
  84:Generated_Source\PSoC6\pdl\cmsis/include/core_cm4.h ****   #endif
  85:Generated_Source\PSoC6\pdl\cmsis/include/core_cm4.h **** 
  86:Generated_Source\PSoC6\pdl\cmsis/include/core_cm4.h **** #elif defined (__ARMCC_VERSION) && (__ARMCC_VERSION >= 6010050)
  87:Generated_Source\PSoC6\pdl\cmsis/include/core_cm4.h ****   #if defined __ARM_PCS_VFP
  88:Generated_Source\PSoC6\pdl\cmsis/include/core_cm4.h ****     #if defined (__FPU_PRESENT) && (__FPU_PRESENT == 1U)
  89:Generated_Source\PSoC6\pdl\cmsis/include/core_cm4.h ****       #define __FPU_USED       1U
  90:Generated_Source\PSoC6\pdl\cmsis/include/core_cm4.h ****     #else
  91:Generated_Source\PSoC6\pdl\cmsis/include/core_cm4.h ****       #warning "Compiler generates FPU instructions for a device without an FPU (check __FPU_PRESEN
  92:Generated_Source\PSoC6\pdl\cmsis/include/core_cm4.h ****       #define __FPU_USED       0U
  93:Generated_Source\PSoC6\pdl\cmsis/include/core_cm4.h ****     #endif
ARM GAS  C:\Users\rober\AppData\Local\Temp\ccaShyPv.s 			page 63


  94:Generated_Source\PSoC6\pdl\cmsis/include/core_cm4.h ****   #else
  95:Generated_Source\PSoC6\pdl\cmsis/include/core_cm4.h ****     #define __FPU_USED         0U
  96:Generated_Source\PSoC6\pdl\cmsis/include/core_cm4.h ****   #endif
  97:Generated_Source\PSoC6\pdl\cmsis/include/core_cm4.h **** 
  98:Generated_Source\PSoC6\pdl\cmsis/include/core_cm4.h **** #elif defined ( __GNUC__ )
  99:Generated_Source\PSoC6\pdl\cmsis/include/core_cm4.h ****   #if defined (__VFP_FP__) && !defined(__SOFTFP__)
 100:Generated_Source\PSoC6\pdl\cmsis/include/core_cm4.h ****     #if defined (__FPU_PRESENT) && (__FPU_PRESENT == 1U)
 101:Generated_Source\PSoC6\pdl\cmsis/include/core_cm4.h ****       #define __FPU_USED       1U
 102:Generated_Source\PSoC6\pdl\cmsis/include/core_cm4.h ****     #else
 103:Generated_Source\PSoC6\pdl\cmsis/include/core_cm4.h ****       #error "Compiler generates FPU instructions for a device without an FPU (check __FPU_PRESENT)
 104:Generated_Source\PSoC6\pdl\cmsis/include/core_cm4.h ****       #define __FPU_USED       0U
 105:Generated_Source\PSoC6\pdl\cmsis/include/core_cm4.h ****     #endif
 106:Generated_Source\PSoC6\pdl\cmsis/include/core_cm4.h ****   #else
 107:Generated_Source\PSoC6\pdl\cmsis/include/core_cm4.h ****     #define __FPU_USED         0U
 108:Generated_Source\PSoC6\pdl\cmsis/include/core_cm4.h ****   #endif
 109:Generated_Source\PSoC6\pdl\cmsis/include/core_cm4.h **** 
 110:Generated_Source\PSoC6\pdl\cmsis/include/core_cm4.h **** #elif defined ( __ICCARM__ )
 111:Generated_Source\PSoC6\pdl\cmsis/include/core_cm4.h ****   #if defined __ARMVFP__
 112:Generated_Source\PSoC6\pdl\cmsis/include/core_cm4.h ****     #if defined (__FPU_PRESENT) && (__FPU_PRESENT == 1U)
 113:Generated_Source\PSoC6\pdl\cmsis/include/core_cm4.h ****       #define __FPU_USED       1U
 114:Generated_Source\PSoC6\pdl\cmsis/include/core_cm4.h ****     #else
 115:Generated_Source\PSoC6\pdl\cmsis/include/core_cm4.h ****       #error "Compiler generates FPU instructions for a device without an FPU (check __FPU_PRESENT)
 116:Generated_Source\PSoC6\pdl\cmsis/include/core_cm4.h ****       #define __FPU_USED       0U
 117:Generated_Source\PSoC6\pdl\cmsis/include/core_cm4.h ****     #endif
 118:Generated_Source\PSoC6\pdl\cmsis/include/core_cm4.h ****   #else
 119:Generated_Source\PSoC6\pdl\cmsis/include/core_cm4.h ****     #define __FPU_USED         0U
 120:Generated_Source\PSoC6\pdl\cmsis/include/core_cm4.h ****   #endif
 121:Generated_Source\PSoC6\pdl\cmsis/include/core_cm4.h **** 
 122:Generated_Source\PSoC6\pdl\cmsis/include/core_cm4.h **** #elif defined ( __TI_ARM__ )
 123:Generated_Source\PSoC6\pdl\cmsis/include/core_cm4.h ****   #if defined __TI_VFP_SUPPORT__
 124:Generated_Source\PSoC6\pdl\cmsis/include/core_cm4.h ****     #if defined (__FPU_PRESENT) && (__FPU_PRESENT == 1U)
 125:Generated_Source\PSoC6\pdl\cmsis/include/core_cm4.h ****       #define __FPU_USED       1U
 126:Generated_Source\PSoC6\pdl\cmsis/include/core_cm4.h ****     #else
 127:Generated_Source\PSoC6\pdl\cmsis/include/core_cm4.h ****       #error "Compiler generates FPU instructions for a device without an FPU (check __FPU_PRESENT)
 128:Generated_Source\PSoC6\pdl\cmsis/include/core_cm4.h ****       #define __FPU_USED       0U
 129:Generated_Source\PSoC6\pdl\cmsis/include/core_cm4.h ****     #endif
 130:Generated_Source\PSoC6\pdl\cmsis/include/core_cm4.h ****   #else
 131:Generated_Source\PSoC6\pdl\cmsis/include/core_cm4.h ****     #define __FPU_USED         0U
 132:Generated_Source\PSoC6\pdl\cmsis/include/core_cm4.h ****   #endif
 133:Generated_Source\PSoC6\pdl\cmsis/include/core_cm4.h **** 
 134:Generated_Source\PSoC6\pdl\cmsis/include/core_cm4.h **** #elif defined ( __TASKING__ )
 135:Generated_Source\PSoC6\pdl\cmsis/include/core_cm4.h ****   #if defined __FPU_VFP__
 136:Generated_Source\PSoC6\pdl\cmsis/include/core_cm4.h ****     #if defined (__FPU_PRESENT) && (__FPU_PRESENT == 1U)
 137:Generated_Source\PSoC6\pdl\cmsis/include/core_cm4.h ****       #define __FPU_USED       1U
 138:Generated_Source\PSoC6\pdl\cmsis/include/core_cm4.h ****     #else
 139:Generated_Source\PSoC6\pdl\cmsis/include/core_cm4.h ****       #error "Compiler generates FPU instructions for a device without an FPU (check __FPU_PRESENT)
 140:Generated_Source\PSoC6\pdl\cmsis/include/core_cm4.h ****       #define __FPU_USED       0U
 141:Generated_Source\PSoC6\pdl\cmsis/include/core_cm4.h ****     #endif
 142:Generated_Source\PSoC6\pdl\cmsis/include/core_cm4.h ****   #else
 143:Generated_Source\PSoC6\pdl\cmsis/include/core_cm4.h ****     #define __FPU_USED         0U
 144:Generated_Source\PSoC6\pdl\cmsis/include/core_cm4.h ****   #endif
 145:Generated_Source\PSoC6\pdl\cmsis/include/core_cm4.h **** 
 146:Generated_Source\PSoC6\pdl\cmsis/include/core_cm4.h **** #elif defined ( __CSMC__ )
 147:Generated_Source\PSoC6\pdl\cmsis/include/core_cm4.h ****   #if ( __CSMC__ & 0x400U)
 148:Generated_Source\PSoC6\pdl\cmsis/include/core_cm4.h ****     #if defined (__FPU_PRESENT) && (__FPU_PRESENT == 1U)
 149:Generated_Source\PSoC6\pdl\cmsis/include/core_cm4.h ****       #define __FPU_USED       1U
 150:Generated_Source\PSoC6\pdl\cmsis/include/core_cm4.h ****     #else
ARM GAS  C:\Users\rober\AppData\Local\Temp\ccaShyPv.s 			page 64


 151:Generated_Source\PSoC6\pdl\cmsis/include/core_cm4.h ****       #error "Compiler generates FPU instructions for a device without an FPU (check __FPU_PRESENT)
 152:Generated_Source\PSoC6\pdl\cmsis/include/core_cm4.h ****       #define __FPU_USED       0U
 153:Generated_Source\PSoC6\pdl\cmsis/include/core_cm4.h ****     #endif
 154:Generated_Source\PSoC6\pdl\cmsis/include/core_cm4.h ****   #else
 155:Generated_Source\PSoC6\pdl\cmsis/include/core_cm4.h ****     #define __FPU_USED         0U
 156:Generated_Source\PSoC6\pdl\cmsis/include/core_cm4.h ****   #endif
 157:Generated_Source\PSoC6\pdl\cmsis/include/core_cm4.h **** 
 158:Generated_Source\PSoC6\pdl\cmsis/include/core_cm4.h **** #endif
 159:Generated_Source\PSoC6\pdl\cmsis/include/core_cm4.h **** 
 160:Generated_Source\PSoC6\pdl\cmsis/include/core_cm4.h **** #include "cmsis_compiler.h"               /* CMSIS compiler specific defines */
 161:Generated_Source\PSoC6\pdl\cmsis/include/core_cm4.h **** 
 162:Generated_Source\PSoC6\pdl\cmsis/include/core_cm4.h **** 
 163:Generated_Source\PSoC6\pdl\cmsis/include/core_cm4.h **** #ifdef __cplusplus
 164:Generated_Source\PSoC6\pdl\cmsis/include/core_cm4.h **** }
 165:Generated_Source\PSoC6\pdl\cmsis/include/core_cm4.h **** #endif
 166:Generated_Source\PSoC6\pdl\cmsis/include/core_cm4.h **** 
 167:Generated_Source\PSoC6\pdl\cmsis/include/core_cm4.h **** #endif /* __CORE_CM4_H_GENERIC */
 168:Generated_Source\PSoC6\pdl\cmsis/include/core_cm4.h **** 
 169:Generated_Source\PSoC6\pdl\cmsis/include/core_cm4.h **** #ifndef __CMSIS_GENERIC
 170:Generated_Source\PSoC6\pdl\cmsis/include/core_cm4.h **** 
 171:Generated_Source\PSoC6\pdl\cmsis/include/core_cm4.h **** #ifndef __CORE_CM4_H_DEPENDANT
 172:Generated_Source\PSoC6\pdl\cmsis/include/core_cm4.h **** #define __CORE_CM4_H_DEPENDANT
 173:Generated_Source\PSoC6\pdl\cmsis/include/core_cm4.h **** 
 174:Generated_Source\PSoC6\pdl\cmsis/include/core_cm4.h **** #ifdef __cplusplus
 175:Generated_Source\PSoC6\pdl\cmsis/include/core_cm4.h ****  extern "C" {
 176:Generated_Source\PSoC6\pdl\cmsis/include/core_cm4.h **** #endif
 177:Generated_Source\PSoC6\pdl\cmsis/include/core_cm4.h **** 
 178:Generated_Source\PSoC6\pdl\cmsis/include/core_cm4.h **** /* check device defines and use defaults */
 179:Generated_Source\PSoC6\pdl\cmsis/include/core_cm4.h **** #if defined __CHECK_DEVICE_DEFINES
 180:Generated_Source\PSoC6\pdl\cmsis/include/core_cm4.h ****   #ifndef __CM4_REV
 181:Generated_Source\PSoC6\pdl\cmsis/include/core_cm4.h ****     #define __CM4_REV               0x0000U
 182:Generated_Source\PSoC6\pdl\cmsis/include/core_cm4.h ****     #warning "__CM4_REV not defined in device header file; using default!"
 183:Generated_Source\PSoC6\pdl\cmsis/include/core_cm4.h ****   #endif
 184:Generated_Source\PSoC6\pdl\cmsis/include/core_cm4.h **** 
 185:Generated_Source\PSoC6\pdl\cmsis/include/core_cm4.h ****   #ifndef __FPU_PRESENT
 186:Generated_Source\PSoC6\pdl\cmsis/include/core_cm4.h ****     #define __FPU_PRESENT             0U
 187:Generated_Source\PSoC6\pdl\cmsis/include/core_cm4.h ****     #warning "__FPU_PRESENT not defined in device header file; using default!"
 188:Generated_Source\PSoC6\pdl\cmsis/include/core_cm4.h ****   #endif
 189:Generated_Source\PSoC6\pdl\cmsis/include/core_cm4.h **** 
 190:Generated_Source\PSoC6\pdl\cmsis/include/core_cm4.h ****   #ifndef __MPU_PRESENT
 191:Generated_Source\PSoC6\pdl\cmsis/include/core_cm4.h ****     #define __MPU_PRESENT             0U
 192:Generated_Source\PSoC6\pdl\cmsis/include/core_cm4.h ****     #warning "__MPU_PRESENT not defined in device header file; using default!"
 193:Generated_Source\PSoC6\pdl\cmsis/include/core_cm4.h ****   #endif
 194:Generated_Source\PSoC6\pdl\cmsis/include/core_cm4.h **** 
 195:Generated_Source\PSoC6\pdl\cmsis/include/core_cm4.h ****   #ifndef __NVIC_PRIO_BITS
 196:Generated_Source\PSoC6\pdl\cmsis/include/core_cm4.h ****     #define __NVIC_PRIO_BITS          3U
 197:Generated_Source\PSoC6\pdl\cmsis/include/core_cm4.h ****     #warning "__NVIC_PRIO_BITS not defined in device header file; using default!"
 198:Generated_Source\PSoC6\pdl\cmsis/include/core_cm4.h ****   #endif
 199:Generated_Source\PSoC6\pdl\cmsis/include/core_cm4.h **** 
 200:Generated_Source\PSoC6\pdl\cmsis/include/core_cm4.h ****   #ifndef __Vendor_SysTickConfig
 201:Generated_Source\PSoC6\pdl\cmsis/include/core_cm4.h ****     #define __Vendor_SysTickConfig    0U
 202:Generated_Source\PSoC6\pdl\cmsis/include/core_cm4.h ****     #warning "__Vendor_SysTickConfig not defined in device header file; using default!"
 203:Generated_Source\PSoC6\pdl\cmsis/include/core_cm4.h ****   #endif
 204:Generated_Source\PSoC6\pdl\cmsis/include/core_cm4.h **** #endif
 205:Generated_Source\PSoC6\pdl\cmsis/include/core_cm4.h **** 
 206:Generated_Source\PSoC6\pdl\cmsis/include/core_cm4.h **** /* IO definitions (access restrictions to peripheral registers) */
 207:Generated_Source\PSoC6\pdl\cmsis/include/core_cm4.h **** /**
ARM GAS  C:\Users\rober\AppData\Local\Temp\ccaShyPv.s 			page 65


 208:Generated_Source\PSoC6\pdl\cmsis/include/core_cm4.h ****     \defgroup CMSIS_glob_defs CMSIS Global Defines
 209:Generated_Source\PSoC6\pdl\cmsis/include/core_cm4.h **** 
 210:Generated_Source\PSoC6\pdl\cmsis/include/core_cm4.h ****     <strong>IO Type Qualifiers</strong> are used
 211:Generated_Source\PSoC6\pdl\cmsis/include/core_cm4.h ****     \li to specify the access to peripheral variables.
 212:Generated_Source\PSoC6\pdl\cmsis/include/core_cm4.h ****     \li for automatic generation of peripheral register debug information.
 213:Generated_Source\PSoC6\pdl\cmsis/include/core_cm4.h **** */
 214:Generated_Source\PSoC6\pdl\cmsis/include/core_cm4.h **** #ifdef __cplusplus
 215:Generated_Source\PSoC6\pdl\cmsis/include/core_cm4.h ****   #define   __I     volatile             /*!< Defines 'read only' permissions */
 216:Generated_Source\PSoC6\pdl\cmsis/include/core_cm4.h **** #else
 217:Generated_Source\PSoC6\pdl\cmsis/include/core_cm4.h ****   #define   __I     volatile const       /*!< Defines 'read only' permissions */
 218:Generated_Source\PSoC6\pdl\cmsis/include/core_cm4.h **** #endif
 219:Generated_Source\PSoC6\pdl\cmsis/include/core_cm4.h **** #define     __O     volatile             /*!< Defines 'write only' permissions */
 220:Generated_Source\PSoC6\pdl\cmsis/include/core_cm4.h **** #define     __IO    volatile             /*!< Defines 'read / write' permissions */
 221:Generated_Source\PSoC6\pdl\cmsis/include/core_cm4.h **** 
 222:Generated_Source\PSoC6\pdl\cmsis/include/core_cm4.h **** /* following defines should be used for structure members */
 223:Generated_Source\PSoC6\pdl\cmsis/include/core_cm4.h **** #define     __IM     volatile const      /*! Defines 'read only' structure member permissions */
 224:Generated_Source\PSoC6\pdl\cmsis/include/core_cm4.h **** #define     __OM     volatile            /*! Defines 'write only' structure member permissions */
 225:Generated_Source\PSoC6\pdl\cmsis/include/core_cm4.h **** #define     __IOM    volatile            /*! Defines 'read / write' structure member permissions */
 226:Generated_Source\PSoC6\pdl\cmsis/include/core_cm4.h **** 
 227:Generated_Source\PSoC6\pdl\cmsis/include/core_cm4.h **** /*@} end of group Cortex_M4 */
 228:Generated_Source\PSoC6\pdl\cmsis/include/core_cm4.h **** 
 229:Generated_Source\PSoC6\pdl\cmsis/include/core_cm4.h **** 
 230:Generated_Source\PSoC6\pdl\cmsis/include/core_cm4.h **** 
 231:Generated_Source\PSoC6\pdl\cmsis/include/core_cm4.h **** /*******************************************************************************
 232:Generated_Source\PSoC6\pdl\cmsis/include/core_cm4.h ****  *                 Register Abstraction
 233:Generated_Source\PSoC6\pdl\cmsis/include/core_cm4.h ****   Core Register contain:
 234:Generated_Source\PSoC6\pdl\cmsis/include/core_cm4.h ****   - Core Register
 235:Generated_Source\PSoC6\pdl\cmsis/include/core_cm4.h ****   - Core NVIC Register
 236:Generated_Source\PSoC6\pdl\cmsis/include/core_cm4.h ****   - Core SCB Register
 237:Generated_Source\PSoC6\pdl\cmsis/include/core_cm4.h ****   - Core SysTick Register
 238:Generated_Source\PSoC6\pdl\cmsis/include/core_cm4.h ****   - Core Debug Register
 239:Generated_Source\PSoC6\pdl\cmsis/include/core_cm4.h ****   - Core MPU Register
 240:Generated_Source\PSoC6\pdl\cmsis/include/core_cm4.h ****   - Core FPU Register
 241:Generated_Source\PSoC6\pdl\cmsis/include/core_cm4.h ****  ******************************************************************************/
 242:Generated_Source\PSoC6\pdl\cmsis/include/core_cm4.h **** /**
 243:Generated_Source\PSoC6\pdl\cmsis/include/core_cm4.h ****   \defgroup CMSIS_core_register Defines and Type Definitions
 244:Generated_Source\PSoC6\pdl\cmsis/include/core_cm4.h ****   \brief Type definitions and defines for Cortex-M processor based devices.
 245:Generated_Source\PSoC6\pdl\cmsis/include/core_cm4.h **** */
 246:Generated_Source\PSoC6\pdl\cmsis/include/core_cm4.h **** 
 247:Generated_Source\PSoC6\pdl\cmsis/include/core_cm4.h **** /**
 248:Generated_Source\PSoC6\pdl\cmsis/include/core_cm4.h ****   \ingroup    CMSIS_core_register
 249:Generated_Source\PSoC6\pdl\cmsis/include/core_cm4.h ****   \defgroup   CMSIS_CORE  Status and Control Registers
 250:Generated_Source\PSoC6\pdl\cmsis/include/core_cm4.h ****   \brief      Core Register type definitions.
 251:Generated_Source\PSoC6\pdl\cmsis/include/core_cm4.h ****   @{
 252:Generated_Source\PSoC6\pdl\cmsis/include/core_cm4.h ****  */
 253:Generated_Source\PSoC6\pdl\cmsis/include/core_cm4.h **** 
 254:Generated_Source\PSoC6\pdl\cmsis/include/core_cm4.h **** /**
 255:Generated_Source\PSoC6\pdl\cmsis/include/core_cm4.h ****   \brief  Union type to access the Application Program Status Register (APSR).
 256:Generated_Source\PSoC6\pdl\cmsis/include/core_cm4.h ****  */
 257:Generated_Source\PSoC6\pdl\cmsis/include/core_cm4.h **** typedef union
 258:Generated_Source\PSoC6\pdl\cmsis/include/core_cm4.h **** {
 259:Generated_Source\PSoC6\pdl\cmsis/include/core_cm4.h ****   struct
 260:Generated_Source\PSoC6\pdl\cmsis/include/core_cm4.h ****   {
 261:Generated_Source\PSoC6\pdl\cmsis/include/core_cm4.h ****     uint32_t _reserved0:16;              /*!< bit:  0..15  Reserved */
 262:Generated_Source\PSoC6\pdl\cmsis/include/core_cm4.h ****     uint32_t GE:4;                       /*!< bit: 16..19  Greater than or Equal flags */
 263:Generated_Source\PSoC6\pdl\cmsis/include/core_cm4.h ****     uint32_t _reserved1:7;               /*!< bit: 20..26  Reserved */
 264:Generated_Source\PSoC6\pdl\cmsis/include/core_cm4.h ****     uint32_t Q:1;                        /*!< bit:     27  Saturation condition flag */
ARM GAS  C:\Users\rober\AppData\Local\Temp\ccaShyPv.s 			page 66


 265:Generated_Source\PSoC6\pdl\cmsis/include/core_cm4.h ****     uint32_t V:1;                        /*!< bit:     28  Overflow condition code flag */
 266:Generated_Source\PSoC6\pdl\cmsis/include/core_cm4.h ****     uint32_t C:1;                        /*!< bit:     29  Carry condition code flag */
 267:Generated_Source\PSoC6\pdl\cmsis/include/core_cm4.h ****     uint32_t Z:1;                        /*!< bit:     30  Zero condition code flag */
 268:Generated_Source\PSoC6\pdl\cmsis/include/core_cm4.h ****     uint32_t N:1;                        /*!< bit:     31  Negative condition code flag */
 269:Generated_Source\PSoC6\pdl\cmsis/include/core_cm4.h ****   } b;                                   /*!< Structure used for bit  access */
 270:Generated_Source\PSoC6\pdl\cmsis/include/core_cm4.h ****   uint32_t w;                            /*!< Type      used for word access */
 271:Generated_Source\PSoC6\pdl\cmsis/include/core_cm4.h **** } APSR_Type;
 272:Generated_Source\PSoC6\pdl\cmsis/include/core_cm4.h **** 
 273:Generated_Source\PSoC6\pdl\cmsis/include/core_cm4.h **** /* APSR Register Definitions */
 274:Generated_Source\PSoC6\pdl\cmsis/include/core_cm4.h **** #define APSR_N_Pos                         31U                                            /*!< APSR
 275:Generated_Source\PSoC6\pdl\cmsis/include/core_cm4.h **** #define APSR_N_Msk                         (1UL << APSR_N_Pos)                            /*!< APSR
 276:Generated_Source\PSoC6\pdl\cmsis/include/core_cm4.h **** 
 277:Generated_Source\PSoC6\pdl\cmsis/include/core_cm4.h **** #define APSR_Z_Pos                         30U                                            /*!< APSR
 278:Generated_Source\PSoC6\pdl\cmsis/include/core_cm4.h **** #define APSR_Z_Msk                         (1UL << APSR_Z_Pos)                            /*!< APSR
 279:Generated_Source\PSoC6\pdl\cmsis/include/core_cm4.h **** 
 280:Generated_Source\PSoC6\pdl\cmsis/include/core_cm4.h **** #define APSR_C_Pos                         29U                                            /*!< APSR
 281:Generated_Source\PSoC6\pdl\cmsis/include/core_cm4.h **** #define APSR_C_Msk                         (1UL << APSR_C_Pos)                            /*!< APSR
 282:Generated_Source\PSoC6\pdl\cmsis/include/core_cm4.h **** 
 283:Generated_Source\PSoC6\pdl\cmsis/include/core_cm4.h **** #define APSR_V_Pos                         28U                                            /*!< APSR
 284:Generated_Source\PSoC6\pdl\cmsis/include/core_cm4.h **** #define APSR_V_Msk                         (1UL << APSR_V_Pos)                            /*!< APSR
 285:Generated_Source\PSoC6\pdl\cmsis/include/core_cm4.h **** 
 286:Generated_Source\PSoC6\pdl\cmsis/include/core_cm4.h **** #define APSR_Q_Pos                         27U                                            /*!< APSR
 287:Generated_Source\PSoC6\pdl\cmsis/include/core_cm4.h **** #define APSR_Q_Msk                         (1UL << APSR_Q_Pos)                            /*!< APSR
 288:Generated_Source\PSoC6\pdl\cmsis/include/core_cm4.h **** 
 289:Generated_Source\PSoC6\pdl\cmsis/include/core_cm4.h **** #define APSR_GE_Pos                        16U                                            /*!< APSR
 290:Generated_Source\PSoC6\pdl\cmsis/include/core_cm4.h **** #define APSR_GE_Msk                        (0xFUL << APSR_GE_Pos)                         /*!< APSR
 291:Generated_Source\PSoC6\pdl\cmsis/include/core_cm4.h **** 
 292:Generated_Source\PSoC6\pdl\cmsis/include/core_cm4.h **** 
 293:Generated_Source\PSoC6\pdl\cmsis/include/core_cm4.h **** /**
 294:Generated_Source\PSoC6\pdl\cmsis/include/core_cm4.h ****   \brief  Union type to access the Interrupt Program Status Register (IPSR).
 295:Generated_Source\PSoC6\pdl\cmsis/include/core_cm4.h ****  */
 296:Generated_Source\PSoC6\pdl\cmsis/include/core_cm4.h **** typedef union
 297:Generated_Source\PSoC6\pdl\cmsis/include/core_cm4.h **** {
 298:Generated_Source\PSoC6\pdl\cmsis/include/core_cm4.h ****   struct
 299:Generated_Source\PSoC6\pdl\cmsis/include/core_cm4.h ****   {
 300:Generated_Source\PSoC6\pdl\cmsis/include/core_cm4.h ****     uint32_t ISR:9;                      /*!< bit:  0.. 8  Exception number */
 301:Generated_Source\PSoC6\pdl\cmsis/include/core_cm4.h ****     uint32_t _reserved0:23;              /*!< bit:  9..31  Reserved */
 302:Generated_Source\PSoC6\pdl\cmsis/include/core_cm4.h ****   } b;                                   /*!< Structure used for bit  access */
 303:Generated_Source\PSoC6\pdl\cmsis/include/core_cm4.h ****   uint32_t w;                            /*!< Type      used for word access */
 304:Generated_Source\PSoC6\pdl\cmsis/include/core_cm4.h **** } IPSR_Type;
 305:Generated_Source\PSoC6\pdl\cmsis/include/core_cm4.h **** 
 306:Generated_Source\PSoC6\pdl\cmsis/include/core_cm4.h **** /* IPSR Register Definitions */
 307:Generated_Source\PSoC6\pdl\cmsis/include/core_cm4.h **** #define IPSR_ISR_Pos                        0U                                            /*!< IPSR
 308:Generated_Source\PSoC6\pdl\cmsis/include/core_cm4.h **** #define IPSR_ISR_Msk                       (0x1FFUL /*<< IPSR_ISR_Pos*/)                  /*!< IPSR
 309:Generated_Source\PSoC6\pdl\cmsis/include/core_cm4.h **** 
 310:Generated_Source\PSoC6\pdl\cmsis/include/core_cm4.h **** 
 311:Generated_Source\PSoC6\pdl\cmsis/include/core_cm4.h **** /**
 312:Generated_Source\PSoC6\pdl\cmsis/include/core_cm4.h ****   \brief  Union type to access the Special-Purpose Program Status Registers (xPSR).
 313:Generated_Source\PSoC6\pdl\cmsis/include/core_cm4.h ****  */
 314:Generated_Source\PSoC6\pdl\cmsis/include/core_cm4.h **** typedef union
 315:Generated_Source\PSoC6\pdl\cmsis/include/core_cm4.h **** {
 316:Generated_Source\PSoC6\pdl\cmsis/include/core_cm4.h ****   struct
 317:Generated_Source\PSoC6\pdl\cmsis/include/core_cm4.h ****   {
 318:Generated_Source\PSoC6\pdl\cmsis/include/core_cm4.h ****     uint32_t ISR:9;                      /*!< bit:  0.. 8  Exception number */
 319:Generated_Source\PSoC6\pdl\cmsis/include/core_cm4.h ****     uint32_t _reserved0:1;               /*!< bit:      9  Reserved */
 320:Generated_Source\PSoC6\pdl\cmsis/include/core_cm4.h ****     uint32_t ICI_IT_1:6;                 /*!< bit: 10..15  ICI/IT part 1 */
 321:Generated_Source\PSoC6\pdl\cmsis/include/core_cm4.h ****     uint32_t GE:4;                       /*!< bit: 16..19  Greater than or Equal flags */
ARM GAS  C:\Users\rober\AppData\Local\Temp\ccaShyPv.s 			page 67


 322:Generated_Source\PSoC6\pdl\cmsis/include/core_cm4.h ****     uint32_t _reserved1:4;               /*!< bit: 20..23  Reserved */
 323:Generated_Source\PSoC6\pdl\cmsis/include/core_cm4.h ****     uint32_t T:1;                        /*!< bit:     24  Thumb bit */
 324:Generated_Source\PSoC6\pdl\cmsis/include/core_cm4.h ****     uint32_t ICI_IT_2:2;                 /*!< bit: 25..26  ICI/IT part 2 */
 325:Generated_Source\PSoC6\pdl\cmsis/include/core_cm4.h ****     uint32_t Q:1;                        /*!< bit:     27  Saturation condition flag */
 326:Generated_Source\PSoC6\pdl\cmsis/include/core_cm4.h ****     uint32_t V:1;                        /*!< bit:     28  Overflow condition code flag */
 327:Generated_Source\PSoC6\pdl\cmsis/include/core_cm4.h ****     uint32_t C:1;                        /*!< bit:     29  Carry condition code flag */
 328:Generated_Source\PSoC6\pdl\cmsis/include/core_cm4.h ****     uint32_t Z:1;                        /*!< bit:     30  Zero condition code flag */
 329:Generated_Source\PSoC6\pdl\cmsis/include/core_cm4.h ****     uint32_t N:1;                        /*!< bit:     31  Negative condition code flag */
 330:Generated_Source\PSoC6\pdl\cmsis/include/core_cm4.h ****   } b;                                   /*!< Structure used for bit  access */
 331:Generated_Source\PSoC6\pdl\cmsis/include/core_cm4.h ****   uint32_t w;                            /*!< Type      used for word access */
 332:Generated_Source\PSoC6\pdl\cmsis/include/core_cm4.h **** } xPSR_Type;
 333:Generated_Source\PSoC6\pdl\cmsis/include/core_cm4.h **** 
 334:Generated_Source\PSoC6\pdl\cmsis/include/core_cm4.h **** /* xPSR Register Definitions */
 335:Generated_Source\PSoC6\pdl\cmsis/include/core_cm4.h **** #define xPSR_N_Pos                         31U                                            /*!< xPSR
 336:Generated_Source\PSoC6\pdl\cmsis/include/core_cm4.h **** #define xPSR_N_Msk                         (1UL << xPSR_N_Pos)                            /*!< xPSR
 337:Generated_Source\PSoC6\pdl\cmsis/include/core_cm4.h **** 
 338:Generated_Source\PSoC6\pdl\cmsis/include/core_cm4.h **** #define xPSR_Z_Pos                         30U                                            /*!< xPSR
 339:Generated_Source\PSoC6\pdl\cmsis/include/core_cm4.h **** #define xPSR_Z_Msk                         (1UL << xPSR_Z_Pos)                            /*!< xPSR
 340:Generated_Source\PSoC6\pdl\cmsis/include/core_cm4.h **** 
 341:Generated_Source\PSoC6\pdl\cmsis/include/core_cm4.h **** #define xPSR_C_Pos                         29U                                            /*!< xPSR
 342:Generated_Source\PSoC6\pdl\cmsis/include/core_cm4.h **** #define xPSR_C_Msk                         (1UL << xPSR_C_Pos)                            /*!< xPSR
 343:Generated_Source\PSoC6\pdl\cmsis/include/core_cm4.h **** 
 344:Generated_Source\PSoC6\pdl\cmsis/include/core_cm4.h **** #define xPSR_V_Pos                         28U                                            /*!< xPSR
 345:Generated_Source\PSoC6\pdl\cmsis/include/core_cm4.h **** #define xPSR_V_Msk                         (1UL << xPSR_V_Pos)                            /*!< xPSR
 346:Generated_Source\PSoC6\pdl\cmsis/include/core_cm4.h **** 
 347:Generated_Source\PSoC6\pdl\cmsis/include/core_cm4.h **** #define xPSR_Q_Pos                         27U                                            /*!< xPSR
 348:Generated_Source\PSoC6\pdl\cmsis/include/core_cm4.h **** #define xPSR_Q_Msk                         (1UL << xPSR_Q_Pos)                            /*!< xPSR
 349:Generated_Source\PSoC6\pdl\cmsis/include/core_cm4.h **** 
 350:Generated_Source\PSoC6\pdl\cmsis/include/core_cm4.h **** #define xPSR_ICI_IT_2_Pos                  25U                                            /*!< xPSR
 351:Generated_Source\PSoC6\pdl\cmsis/include/core_cm4.h **** #define xPSR_ICI_IT_2_Msk                  (3UL << xPSR_ICI_IT_2_Pos)                     /*!< xPSR
 352:Generated_Source\PSoC6\pdl\cmsis/include/core_cm4.h **** 
 353:Generated_Source\PSoC6\pdl\cmsis/include/core_cm4.h **** #define xPSR_T_Pos                         24U                                            /*!< xPSR
 354:Generated_Source\PSoC6\pdl\cmsis/include/core_cm4.h **** #define xPSR_T_Msk                         (1UL << xPSR_T_Pos)                            /*!< xPSR
 355:Generated_Source\PSoC6\pdl\cmsis/include/core_cm4.h **** 
 356:Generated_Source\PSoC6\pdl\cmsis/include/core_cm4.h **** #define xPSR_GE_Pos                        16U                                            /*!< xPSR
 357:Generated_Source\PSoC6\pdl\cmsis/include/core_cm4.h **** #define xPSR_GE_Msk                        (0xFUL << xPSR_GE_Pos)                         /*!< xPSR
 358:Generated_Source\PSoC6\pdl\cmsis/include/core_cm4.h **** 
 359:Generated_Source\PSoC6\pdl\cmsis/include/core_cm4.h **** #define xPSR_ICI_IT_1_Pos                  10U                                            /*!< xPSR
 360:Generated_Source\PSoC6\pdl\cmsis/include/core_cm4.h **** #define xPSR_ICI_IT_1_Msk                  (0x3FUL << xPSR_ICI_IT_1_Pos)                  /*!< xPSR
 361:Generated_Source\PSoC6\pdl\cmsis/include/core_cm4.h **** 
 362:Generated_Source\PSoC6\pdl\cmsis/include/core_cm4.h **** #define xPSR_ISR_Pos                        0U                                            /*!< xPSR
 363:Generated_Source\PSoC6\pdl\cmsis/include/core_cm4.h **** #define xPSR_ISR_Msk                       (0x1FFUL /*<< xPSR_ISR_Pos*/)                  /*!< xPSR
 364:Generated_Source\PSoC6\pdl\cmsis/include/core_cm4.h **** 
 365:Generated_Source\PSoC6\pdl\cmsis/include/core_cm4.h **** 
 366:Generated_Source\PSoC6\pdl\cmsis/include/core_cm4.h **** /**
 367:Generated_Source\PSoC6\pdl\cmsis/include/core_cm4.h ****   \brief  Union type to access the Control Registers (CONTROL).
 368:Generated_Source\PSoC6\pdl\cmsis/include/core_cm4.h ****  */
 369:Generated_Source\PSoC6\pdl\cmsis/include/core_cm4.h **** typedef union
 370:Generated_Source\PSoC6\pdl\cmsis/include/core_cm4.h **** {
 371:Generated_Source\PSoC6\pdl\cmsis/include/core_cm4.h ****   struct
 372:Generated_Source\PSoC6\pdl\cmsis/include/core_cm4.h ****   {
 373:Generated_Source\PSoC6\pdl\cmsis/include/core_cm4.h ****     uint32_t nPRIV:1;                    /*!< bit:      0  Execution privilege in Thread mode */
 374:Generated_Source\PSoC6\pdl\cmsis/include/core_cm4.h ****     uint32_t SPSEL:1;                    /*!< bit:      1  Stack to be used */
 375:Generated_Source\PSoC6\pdl\cmsis/include/core_cm4.h ****     uint32_t FPCA:1;                     /*!< bit:      2  FP extension active flag */
 376:Generated_Source\PSoC6\pdl\cmsis/include/core_cm4.h ****     uint32_t _reserved0:29;              /*!< bit:  3..31  Reserved */
 377:Generated_Source\PSoC6\pdl\cmsis/include/core_cm4.h ****   } b;                                   /*!< Structure used for bit  access */
 378:Generated_Source\PSoC6\pdl\cmsis/include/core_cm4.h ****   uint32_t w;                            /*!< Type      used for word access */
ARM GAS  C:\Users\rober\AppData\Local\Temp\ccaShyPv.s 			page 68


 379:Generated_Source\PSoC6\pdl\cmsis/include/core_cm4.h **** } CONTROL_Type;
 380:Generated_Source\PSoC6\pdl\cmsis/include/core_cm4.h **** 
 381:Generated_Source\PSoC6\pdl\cmsis/include/core_cm4.h **** /* CONTROL Register Definitions */
 382:Generated_Source\PSoC6\pdl\cmsis/include/core_cm4.h **** #define CONTROL_FPCA_Pos                    2U                                            /*!< CONT
