ARM GAS  C:\Users\rober\AppData\Local\Temp\ccBCZTBX.s 			page 1


   1              		.syntax unified
   2              		.cpu cortex-m4
   3              		.eabi_attribute 27, 1
   4              		.fpu fpv4-sp-d16
   5              		.eabi_attribute 20, 1
   6              		.eabi_attribute 21, 1
   7              		.eabi_attribute 23, 3
   8              		.eabi_attribute 24, 1
   9              		.eabi_attribute 25, 1
  10              		.eabi_attribute 26, 1
  11              		.eabi_attribute 30, 1
  12              		.eabi_attribute 34, 1
  13              		.eabi_attribute 18, 4
  14              		.thumb
  15              		.syntax unified
  16              		.file	"main_cm4.c"
  17              		.text
  18              	.Ltext0:
  19              		.cfi_sections	.debug_frame
  20              		.section	.text.UpdateDisplay,"ax",%progbits
  21              		.align	2
  22              		.global	UpdateDisplay
  23              		.thumb
  24              		.thumb_func
  25              		.type	UpdateDisplay, %function
  26              	UpdateDisplay:
  27              	.LFB604:
  28              		.file 1 "main_cm4.c"
   1:main_cm4.c    **** /******************************************************************************
   2:main_cm4.c    **** * File Name: main_cm4.c
   3:main_cm4.c    **** *
   4:main_cm4.c    **** * Version: 1.20
   5:main_cm4.c    **** *
   6:main_cm4.c    **** * Description: This file main application code for the CE223727 EmWin Graphics
   7:main_cm4.c    **** *				library EInk Display.
   8:main_cm4.c    **** *
   9:main_cm4.c    **** * Hardware Dependency: CY8CKIT-028-EPD E-Ink Display Shield
  10:main_cm4.c    **** *					   CY8CKIT-062-BLE PSoC6 BLE Pioneer Kit
  11:main_cm4.c    **** *
  12:main_cm4.c    **** ******************************************************************************* 
  13:main_cm4.c    **** * Copyright (2019), Cypress Semiconductor Corporation. All rights reserved. 
  14:main_cm4.c    **** ******************************************************************************* 
  15:main_cm4.c    **** * This software, including source code, documentation and related materials 
  16:main_cm4.c    **** * (“Software”), is owned by Cypress Semiconductor Corporation or one of its 
  17:main_cm4.c    **** * subsidiaries (“Cypress”) and is protected by and subject to worldwide patent 
  18:main_cm4.c    **** * protection (United States and foreign), United States copyright laws and 
  19:main_cm4.c    **** * international treaty provisions. Therefore, you may use this Software only 
  20:main_cm4.c    **** * as provided in the license agreement accompanying the software package from 
  21:main_cm4.c    **** * which you obtained this Software (“EULA”). 
  22:main_cm4.c    **** * 
  23:main_cm4.c    **** * If no EULA applies, Cypress hereby grants you a personal, non-exclusive, 
  24:main_cm4.c    **** * non-transferable license to copy, modify, and compile the Software source 
  25:main_cm4.c    **** * code solely for use in connection with Cypress’s integrated circuit products. 
  26:main_cm4.c    **** * Any reproduction, modification, translation, compilation, or representation 
  27:main_cm4.c    **** * of this Software except as specified above is prohibited without the express 
  28:main_cm4.c    **** * written permission of Cypress. 
  29:main_cm4.c    **** * 
ARM GAS  C:\Users\rober\AppData\Local\Temp\ccBCZTBX.s 			page 2


  30:main_cm4.c    **** * Disclaimer: THIS SOFTWARE IS PROVIDED AS-IS, WITH NO WARRANTY OF ANY KIND, 
  31:main_cm4.c    **** * EXPRESS OR IMPLIED, INCLUDING, BUT NOT LIMITED TO, NONINFRINGEMENT, IMPLIED 
  32:main_cm4.c    **** * WARRANTIES OF MERCHANTABILITY AND FITNESS FOR A PARTICULAR PURPOSE. Cypress 
  33:main_cm4.c    **** * reserves the right to make changes to the Software without notice. Cypress 
  34:main_cm4.c    **** * does not assume any liability arising out of the application or use of the 
  35:main_cm4.c    **** * Software or any product or circuit described in the Software. Cypress does 
  36:main_cm4.c    **** * not authorize its products for use in any products where a malfunction or 
  37:main_cm4.c    **** * failure of the Cypress product may reasonably be expected to result in 
  38:main_cm4.c    **** * significant property damage, injury or death (“High Risk Product”). By 
  39:main_cm4.c    **** * including Cypress’s product in a High Risk Product, the manufacturer of such 
  40:main_cm4.c    **** * system or application assumes all risk of such use and in doing so agrees to 
  41:main_cm4.c    **** * indemnify Cypress against all liability.
  42:main_cm4.c    **** ********************************************************************************/
  43:main_cm4.c    **** /******************************************************************************
  44:main_cm4.c    **** * This file contains the main application code for CE223727 that demonstrates
  45:main_cm4.c    **** * controlling a EInk display using the EmWin Graphics Library.
  46:main_cm4.c    **** * The project displays a start up screen with Cypress logo and text "CYPRESS EMWIN
  47:main_cm4.c    **** * GRAPHICS DEMO EINK DISPLAY".  The project then displays the following screens
  48:main_cm4.c    **** * in a loop
  49:main_cm4.c    **** *
  50:main_cm4.c    **** *	1. A screen showing various text alignments, styles and modes
  51:main_cm4.c    **** *   2. A screen showing normal fonts
  52:main_cm4.c    **** *	3. A screen showing bold fonts
  53:main_cm4.c    **** *	4. A screen showing 2D graphics with horizontal lines, vertical lines
  54:main_cm4.c    **** *		arcs and filled rounded rectangle
  55:main_cm4.c    **** *	5. A screen showing 2D graphics with concentric circles and ellipses
  56:main_cm4.c    **** *	6. A screen showing a text box with wrapped text
  57:main_cm4.c    **** *
  58:main_cm4.c    ****  *******************************************************************************/
  59:main_cm4.c    **** #include "project.h"
  60:main_cm4.c    **** #include "GUI.h"
  61:main_cm4.c    **** #include "pervasive_eink_hardware_driver.h"
  62:main_cm4.c    **** #include "cy_eink_library.h"
  63:main_cm4.c    **** #include "LCDConf.h"
  64:main_cm4.c    **** #include <stdio.h>
  65:main_cm4.c    **** #include <stdlib.h>
  66:main_cm4.c    **** 
  67:main_cm4.c    **** /* Image buffer cache */
  68:main_cm4.c    **** uint8 imageBufferCache[CY_EINK_FRAME_SIZE] = {0};
  69:main_cm4.c    **** 
  70:main_cm4.c    **** /* Reference to the bitmap image for the startup screen */
  71:main_cm4.c    **** extern GUI_CONST_STORAGE GUI_BITMAP bmCypressLogoFullColor_PNG_1bpp;
  72:main_cm4.c    **** 
  73:main_cm4.c    **** #define TIMER_PERIOD   1000000U
  74:main_cm4.c    **** 
  75:main_cm4.c    **** 
  76:main_cm4.c    **** /*******************************************************************************
  77:main_cm4.c    **** * Function Name: void UpdateDisplay(void)
  78:main_cm4.c    **** ********************************************************************************
  79:main_cm4.c    **** *
  80:main_cm4.c    **** * Summary: This function updates the display with the data in the display 
  81:main_cm4.c    **** *			buffer.  The function first transfers the content of the EmWin
  82:main_cm4.c    **** *			display buffer to the primary EInk display buffer.  Then it calls
  83:main_cm4.c    **** *			the Cy_EINK_ShowFrame function to update the display, and then
  84:main_cm4.c    **** *			it copies the EmWin display buffer to the Eink display cache buffer
  85:main_cm4.c    **** *
  86:main_cm4.c    **** * Parameters:
ARM GAS  C:\Users\rober\AppData\Local\Temp\ccBCZTBX.s 			page 3


  87:main_cm4.c    **** *  None
  88:main_cm4.c    **** *
  89:main_cm4.c    **** * Return:
  90:main_cm4.c    **** *  None
  91:main_cm4.c    **** *
  92:main_cm4.c    **** * Side Effects:
  93:main_cm4.c    **** *  It takes about a second to refresh the display.  This is a blocking function
  94:main_cm4.c    **** *  and only returns after the display refresh
  95:main_cm4.c    **** *
  96:main_cm4.c    **** *******************************************************************************/
  97:main_cm4.c    **** void UpdateDisplay(cy_eink_update_t updateMethod, bool powerCycle)
  98:main_cm4.c    **** {
  29              		.loc 1 98 0
  30              		.cfi_startproc
  31              		@ args = 0, pretend = 0, frame = 0
  32              		@ frame_needed = 0, uses_anonymous_args = 0
  33              	.LVL0:
  34 0000 F8B5     		push	{r3, r4, r5, r6, r7, lr}
  35              		.cfi_def_cfa_offset 24
  36              		.cfi_offset 3, -24
  37              		.cfi_offset 4, -20
  38              		.cfi_offset 5, -16
  39              		.cfi_offset 6, -12
  40              		.cfi_offset 7, -8
  41              		.cfi_offset 14, -4
  42 0002 0646     		mov	r6, r0
  43 0004 0F46     		mov	r7, r1
  99:main_cm4.c    ****     cy_eink_frame_t* pEmwinBuffer;
 100:main_cm4.c    **** 
 101:main_cm4.c    ****     /* Get the pointer to Emwin's display buffer */
 102:main_cm4.c    ****     pEmwinBuffer = (cy_eink_frame_t*)LCD_GetDisplayBuffer();
  44              		.loc 1 102 0
  45 0006 FFF7FEFF 		bl	LCD_GetDisplayBuffer
  46              	.LVL1:
  47 000a 0546     		mov	r5, r0
  48              	.LVL2:
 103:main_cm4.c    **** 
 104:main_cm4.c    ****     /* Update the EInk display */
 105:main_cm4.c    ****     Cy_EINK_ShowFrame(imageBufferCache, pEmwinBuffer, updateMethod, powerCycle);
  49              		.loc 1 105 0
  50 000c 064C     		ldr	r4, .L3
  51 000e 3B46     		mov	r3, r7
  52 0010 3246     		mov	r2, r6
  53 0012 0146     		mov	r1, r0
  54 0014 2046     		mov	r0, r4
  55              	.LVL3:
  56 0016 FFF7FEFF 		bl	Cy_EINK_ShowFrame
  57              	.LVL4:
 106:main_cm4.c    **** 
 107:main_cm4.c    ****     /* Copy the EmWin display buffer to the imageBuffer cache*/
 108:main_cm4.c    ****     memcpy(imageBufferCache, pEmwinBuffer, CY_EINK_FRAME_SIZE);
  58              		.loc 1 108 0
  59 001a 41F2B062 		movw	r2, #5808
  60 001e 2946     		mov	r1, r5
  61 0020 2046     		mov	r0, r4
  62 0022 FFF7FEFF 		bl	memcpy
  63              	.LVL5:
ARM GAS  C:\Users\rober\AppData\Local\Temp\ccBCZTBX.s 			page 4


  64 0026 F8BD     		pop	{r3, r4, r5, r6, r7, pc}
  65              	.LVL6:
  66              	.L4:
  67              		.align	2
  68              	.L3:
  69 0028 00000000 		.word	.LANCHOR0
  70              		.cfi_endproc
  71              	.LFE604:
  72              		.size	UpdateDisplay, .-UpdateDisplay
  73              		.section	.text.TimerInterruptHandler,"ax",%progbits
  74              		.align	2
  75              		.global	TimerInterruptHandler
  76              		.thumb
  77              		.thumb_func
  78              		.type	TimerInterruptHandler, %function
  79              	TimerInterruptHandler:
  80              	.LFB611:
 109:main_cm4.c    **** }
 110:main_cm4.c    **** 
 111:main_cm4.c    **** /*******************************************************************************
 112:main_cm4.c    **** * Function Name: void ShowStartupScreen(void)
 113:main_cm4.c    **** ********************************************************************************
 114:main_cm4.c    **** *
 115:main_cm4.c    **** * Summary: This function displays the startup screen with Cypress Logo and 
 116:main_cm4.c    **** *			the demo description text
 117:main_cm4.c    **** *
 118:main_cm4.c    **** * Parameters:
 119:main_cm4.c    **** *  None
 120:main_cm4.c    **** *
 121:main_cm4.c    **** * Return:
 122:main_cm4.c    **** *  None
 123:main_cm4.c    **** *
 124:main_cm4.c    **** *******************************************************************************/
 125:main_cm4.c    **** void ShowStartupScreen(void)
 126:main_cm4.c    **** {
 127:main_cm4.c    ****     /* Set foreground and background color and font size */
 128:main_cm4.c    ****     GUI_SetFont(GUI_FONT_16B_1);
 129:main_cm4.c    ****     GUI_SetColor(GUI_BLACK);
 130:main_cm4.c    ****     GUI_SetBkColor(GUI_WHITE);
 131:main_cm4.c    ****     GUI_Clear();
 132:main_cm4.c    **** 
 133:main_cm4.c    ****     GUI_DrawBitmap(&bmCypressLogoFullColor_PNG_1bpp, 2, 2);
 134:main_cm4.c    ****     GUI_SetTextAlign(GUI_TA_HCENTER);
 135:main_cm4.c    ****     GUI_DispStringAt("CYPRESS", 132, 85);
 136:main_cm4.c    ****     GUI_SetTextAlign(GUI_TA_HCENTER);
 137:main_cm4.c    ****     GUI_DispStringAt("EMWIN GRAPHICS", 132, 105);
 138:main_cm4.c    ****     GUI_SetTextAlign(GUI_TA_HCENTER);
 139:main_cm4.c    ****     GUI_DispStringAt("EINK DISPLAY DEMO", 132, 125);
 140:main_cm4.c    **** 
 141:main_cm4.c    ****     /* Send the display buffer data to display*/
 142:main_cm4.c    ****     UpdateDisplay(CY_EINK_FULL_4STAGE, true);
 143:main_cm4.c    **** }
 144:main_cm4.c    **** 
 145:main_cm4.c    **** /*******************************************************************************
 146:main_cm4.c    **** * Function Name: void ClearScreen(void)
 147:main_cm4.c    **** ********************************************************************************
 148:main_cm4.c    **** *
ARM GAS  C:\Users\rober\AppData\Local\Temp\ccBCZTBX.s 			page 5


 149:main_cm4.c    **** * Summary: This function clears the screen
 150:main_cm4.c    **** *
 151:main_cm4.c    **** * Parameters:
 152:main_cm4.c    **** *  None
 153:main_cm4.c    **** *
 154:main_cm4.c    **** * Return:
 155:main_cm4.c    **** *  None
 156:main_cm4.c    **** *
 157:main_cm4.c    **** *******************************************************************************/
 158:main_cm4.c    **** void ClearScreen(void)
 159:main_cm4.c    **** {
 160:main_cm4.c    ****     GUI_SetColor(GUI_BLACK);
 161:main_cm4.c    ****     GUI_SetBkColor(GUI_WHITE);
 162:main_cm4.c    ****     GUI_Clear();
 163:main_cm4.c    ****     UpdateDisplay(CY_EINK_FULL_4STAGE, true);
 164:main_cm4.c    **** }
 165:main_cm4.c    **** 
 166:main_cm4.c    **** 
 167:main_cm4.c    **** /*******************************************************************************
 168:main_cm4.c    **** * Function Name: void WaitforSwitchPressAndRelease(void)
 169:main_cm4.c    **** ********************************************************************************
 170:main_cm4.c    **** *
 171:main_cm4.c    **** * Summary: This implements a simple "Wait for button press and release"
 172:main_cm4.c    **** *			function.  It first waits for the button to be pressed and then
 173:main_cm4.c    **** *			waits for the button to be released.
 174:main_cm4.c    **** *
 175:main_cm4.c    **** * Parameters:
 176:main_cm4.c    **** *  None
 177:main_cm4.c    **** *
 178:main_cm4.c    **** * Return:
 179:main_cm4.c    **** *  None
 180:main_cm4.c    **** *
 181:main_cm4.c    **** * Side Effects:
 182:main_cm4.c    **** *  This is a blocking function and exits only on a button press and release
 183:main_cm4.c    **** *
 184:main_cm4.c    **** *******************************************************************************/
 185:main_cm4.c    **** int compareValue = 50;
 186:main_cm4.c    **** 
 187:main_cm4.c    **** int start_point = 0;
 188:main_cm4.c    **** 
 189:main_cm4.c    **** int which_data_table = 1;
 190:main_cm4.c    **** int dataSize_global = 0;
 191:main_cm4.c    **** #define GRAPH_POINTS 12
 192:main_cm4.c    **** int modeSwitch = 0;
 193:main_cm4.c    **** 
 194:main_cm4.c    **** void WaitforSwitchPressAndRelease(void)
 195:main_cm4.c    **** {   
 196:main_cm4.c    ****     Cy_TCPWM_PWM_SetCompare0(PWM_HW, PWM_CNT_NUM, compareValue);
 197:main_cm4.c    ****     /* Wait for SW2 to be pressed */
 198:main_cm4.c    ****     while(Status_SW2_Read() != 0);
 199:main_cm4.c    ****     
 200:main_cm4.c    ****     /* Wait for SW2 to be released */
 201:main_cm4.c    ****     while(Status_SW2_Read() == 0)
 202:main_cm4.c    ****     {
 203:main_cm4.c    ****         Cy_TCPWM_PWM_SetCompare0(PWM_HW, PWM_CNT_NUM, compareValue);
 204:main_cm4.c    ****         compareValue = (compareValue + 1) % 100;
 205:main_cm4.c    ****         CyDelay(20);
ARM GAS  C:\Users\rober\AppData\Local\Temp\ccBCZTBX.s 			page 6


 206:main_cm4.c    ****     };
 207:main_cm4.c    ****     
 208:main_cm4.c    ****     if(modeSwitch == 1)
 209:main_cm4.c    ****     {
 210:main_cm4.c    ****         start_point = 0;
 211:main_cm4.c    ****         which_data_table = 1;
 212:main_cm4.c    ****         modeSwitch = 0;
 213:main_cm4.c    ****     }
 214:main_cm4.c    ****     else if(start_point + 6 < dataSize_global)
 215:main_cm4.c    ****     {
 216:main_cm4.c    ****         start_point += 6;
 217:main_cm4.c    ****     }
 218:main_cm4.c    ****     else
 219:main_cm4.c    ****     {
 220:main_cm4.c    ****         start_point = 0;
 221:main_cm4.c    ****         which_data_table++;
 222:main_cm4.c    ****         
 223:main_cm4.c    ****         if(which_data_table == 3){
 224:main_cm4.c    ****             which_data_table = 1;
 225:main_cm4.c    ****             modeSwitch = 1;
 226:main_cm4.c    ****         }
 227:main_cm4.c    ****     }
 228:main_cm4.c    **** }
 229:main_cm4.c    **** 
 230:main_cm4.c    **** /*******************************************************************************
 231:main_cm4.c    **** * Function Name: int main(void)
 232:main_cm4.c    **** ********************************************************************************
 233:main_cm4.c    **** *
 234:main_cm4.c    **** * Summary: This is the main function.  Following functions are performed
 235:main_cm4.c    **** *			1. Initialize the EmWin library
 236:main_cm4.c    **** *			2. Display the startup screen for 3 seconds
 237:main_cm4.c    **** *			3. Display the instruction screen and wait for key press and release
 238:main_cm4.c    **** *			4. Inside a while loop scroll through the 6 demo pages on every
 239:main_cm4.c    **** *				key press and release
 240:main_cm4.c    **** *
 241:main_cm4.c    **** * Parameters:
 242:main_cm4.c    **** *  None
 243:main_cm4.c    **** *
 244:main_cm4.c    **** * Return:
 245:main_cm4.c    **** *  None
 246:main_cm4.c    **** *
 247:main_cm4.c    **** *******************************************************************************/
 248:main_cm4.c    **** 
 249:main_cm4.c    **** void InitGraph()
 250:main_cm4.c    **** {
 251:main_cm4.c    ****         /* Set font size, foreground and background colors */
 252:main_cm4.c    ****     GUI_SetColor(GUI_BLACK);
 253:main_cm4.c    ****     GUI_SetBkColor(GUI_WHITE);
 254:main_cm4.c    ****     GUI_SetTextMode(GUI_TM_NORMAL);
 255:main_cm4.c    ****     GUI_SetTextStyle(GUI_TS_NORMAL);
 256:main_cm4.c    **** 
 257:main_cm4.c    ****     /* Clear the screen */
 258:main_cm4.c    ****     GUI_Clear();
 259:main_cm4.c    **** 
 260:main_cm4.c    ****     /* Display page title */
 261:main_cm4.c    ****     GUI_SetFont(GUI_FONT_13B_1);
 262:main_cm4.c    ****     GUI_SetTextAlign(GUI_TA_HCENTER);
ARM GAS  C:\Users\rober\AppData\Local\Temp\ccBCZTBX.s 			page 7


 263:main_cm4.c    ****     GUI_DispStringAt("LINE GRAPH DEMO", 132, 5);
 264:main_cm4.c    **** }
 265:main_cm4.c    **** 
 266:main_cm4.c    **** typedef struct {
 267:main_cm4.c    ****     int time;
 268:main_cm4.c    ****     int temperature;
 269:main_cm4.c    **** } DataPoint;
 270:main_cm4.c    **** 
 271:main_cm4.c    **** DataPoint reflowData[5] = {
 272:main_cm4.c    ****     {0, 0}, {90, 150}, {180, 150}, {220, 245}, {360, 0}
 273:main_cm4.c    **** };
 274:main_cm4.c    **** 
 275:main_cm4.c    **** DataPoint leadData[GRAPH_POINTS] = {
 276:main_cm4.c    ****     {0, 25}, {30, 125}, {60, 150}, {90, 180}, {120, 210}, {140, 230}, {160, 230},
 277:main_cm4.c    ****     {180, 210}, {200, 180}, {220, 150}, {240, 125}, {260, 25}
 278:main_cm4.c    **** };
 279:main_cm4.c    **** 
 280:main_cm4.c    **** int whichData = 0;
 281:main_cm4.c    **** 
 282:main_cm4.c    **** bool programStarted = false;
 283:main_cm4.c    **** int maxTimeInGraph = 0;
 284:main_cm4.c    **** 
 285:main_cm4.c    **** void ShowGraph_WithUpdate(void)
 286:main_cm4.c    **** {
 287:main_cm4.c    ****     ClearScreen();
 288:main_cm4.c    ****     
 289:main_cm4.c    ****     whichData++;
 290:main_cm4.c    ****     
 291:main_cm4.c    ****     if(whichData == 3){
 292:main_cm4.c    ****         whichData = 1;
 293:main_cm4.c    ****     }
 294:main_cm4.c    ****     
 295:main_cm4.c    ****     int dataSize = 0;
 296:main_cm4.c    ****     
 297:main_cm4.c    ****     if(whichData == 1)
 298:main_cm4.c    ****     {
 299:main_cm4.c    ****         dataSize = sizeof(reflowData) / sizeof(reflowData[0]);
 300:main_cm4.c    ****     }
 301:main_cm4.c    ****     else if(whichData == 2)
 302:main_cm4.c    ****     {
 303:main_cm4.c    ****         dataSize = sizeof(leadData) / sizeof(leadData[0]);
 304:main_cm4.c    ****     }
 305:main_cm4.c    ****     
 306:main_cm4.c    ****     DataPoint data[dataSize];
 307:main_cm4.c    ****     
 308:main_cm4.c    ****     if(whichData == 1)
 309:main_cm4.c    ****     {
 310:main_cm4.c    ****         for (int i = 0; i < dataSize; i++) {
 311:main_cm4.c    ****             data[i].temperature = reflowData[i].temperature;
 312:main_cm4.c    ****             data[i].time = reflowData[i].time;
 313:main_cm4.c    ****         }
 314:main_cm4.c    ****     }
 315:main_cm4.c    ****     else if(whichData == 2)
 316:main_cm4.c    ****     {
 317:main_cm4.c    ****         for (int i = 0; i < dataSize; i++) {
 318:main_cm4.c    ****             data[i].temperature = leadData[i].temperature;
 319:main_cm4.c    ****             data[i].time = leadData[i].time;
ARM GAS  C:\Users\rober\AppData\Local\Temp\ccBCZTBX.s 			page 8


 320:main_cm4.c    ****         }
 321:main_cm4.c    ****     }
 322:main_cm4.c    ****     
 323:main_cm4.c    ****     /* Define axis labels and ticks */
 324:main_cm4.c    ****     char xAxisLabels[8][6] = {"0", "60", "120", "180", "240", "300", "360", "420"};
 325:main_cm4.c    ****     char yAxisLabels[6][4] = {"0", "60", "120", "180", "240", "300"};
 326:main_cm4.c    ****     int xAxisTicks[8] = {30, 60, 90, 120, 150, 180, 210, 240};
 327:main_cm4.c    ****     int yAxisTicks[6] = {20, 50, 80, 110, 140, 170};
 328:main_cm4.c    ****     
 329:main_cm4.c    ****     /* Draw the graph */
 330:main_cm4.c    ****     GUI_ClearRect(10, 20, 254, 150);  // Clear the area where the graph will be drawn
 331:main_cm4.c    ****     
 332:main_cm4.c    ****     /* Draw X and Y axis */
 333:main_cm4.c    ****     GUI_DrawLine(30, 20, 30, 200); // Y axis
 334:main_cm4.c    ****     GUI_DrawLine(30, 150, 250, 150); // X axis
 335:main_cm4.c    **** 
 336:main_cm4.c    ****     /* Draw axis labels and ticks */
 337:main_cm4.c    ****     for (int i = 0; i < 8; i++) {
 338:main_cm4.c    ****         GUI_DrawLine(xAxisTicks[i], 150, xAxisTicks[i], 155);
 339:main_cm4.c    ****         GUI_DispStringAt(xAxisLabels[i], xAxisTicks[i] - 10, 155);
 340:main_cm4.c    ****     }
 341:main_cm4.c    **** 
 342:main_cm4.c    ****     for (int i = 0; i < 6; i++) {
 343:main_cm4.c    ****         GUI_DrawLine(25, 170 - yAxisTicks[i], 30, 170 - yAxisTicks[i]);
 344:main_cm4.c    ****         GUI_DispStringAt(yAxisLabels[i], 5, 170 - yAxisTicks[i] - 6);
 345:main_cm4.c    ****     }
 346:main_cm4.c    ****     
 347:main_cm4.c    ****     maxTimeInGraph = data[dataSize-1].time;
 348:main_cm4.c    ****     programStarted = true;
 349:main_cm4.c    **** }
 350:main_cm4.c    **** 
 351:main_cm4.c    **** void ShowTable(void)
 352:main_cm4.c    **** {
 353:main_cm4.c    ****     ClearScreen();
 354:main_cm4.c    ****     
 355:main_cm4.c    ****     /* Set font size, foreground and background colors */
 356:main_cm4.c    ****     GUI_SetColor(GUI_BLACK);
 357:main_cm4.c    ****     GUI_SetBkColor(GUI_WHITE);
 358:main_cm4.c    ****     GUI_SetTextMode(GUI_TM_NORMAL);
 359:main_cm4.c    ****     GUI_SetTextStyle(GUI_TS_NORMAL);
 360:main_cm4.c    **** 
 361:main_cm4.c    ****     /* Clear the screen */
 362:main_cm4.c    ****     GUI_Clear();
 363:main_cm4.c    ****     
 364:main_cm4.c    ****     int dataSize = 0;
 365:main_cm4.c    ****     
 366:main_cm4.c    ****     if(which_data_table == 1)
 367:main_cm4.c    ****     {
 368:main_cm4.c    ****         dataSize = sizeof(reflowData) / sizeof(reflowData[0]);
 369:main_cm4.c    ****     }
 370:main_cm4.c    ****     else if(which_data_table == 2)
 371:main_cm4.c    ****     {
 372:main_cm4.c    ****         dataSize = sizeof(leadData) / sizeof(leadData[0]);
 373:main_cm4.c    ****     }
 374:main_cm4.c    ****     
 375:main_cm4.c    ****     dataSize_global = dataSize;
 376:main_cm4.c    ****     
ARM GAS  C:\Users\rober\AppData\Local\Temp\ccBCZTBX.s 			page 9


 377:main_cm4.c    ****     DataPoint data[dataSize];
 378:main_cm4.c    ****     
 379:main_cm4.c    ****     char* data_title[2] = {"Reflow Profile", "Lead Profile"};
 380:main_cm4.c    ****     
 381:main_cm4.c    ****     if(which_data_table == 1)
 382:main_cm4.c    ****     {
 383:main_cm4.c    ****         for (int i = start_point; i < dataSize; i++) {
 384:main_cm4.c    ****             data[i].temperature = reflowData[i].temperature;
 385:main_cm4.c    ****             data[i].time = reflowData[i].time;
 386:main_cm4.c    ****         }
 387:main_cm4.c    ****     }
 388:main_cm4.c    ****     else if(which_data_table == 2)
 389:main_cm4.c    ****     {
 390:main_cm4.c    ****         for (int i = start_point; i < dataSize; i++) {
 391:main_cm4.c    ****             data[i].temperature = leadData[i].temperature;
 392:main_cm4.c    ****             data[i].time = leadData[i].time;
 393:main_cm4.c    ****         }
 394:main_cm4.c    ****     }
 395:main_cm4.c    ****     
 396:main_cm4.c    ****     /* Display page title */
 397:main_cm4.c    ****     GUI_SetFont(GUI_FONT_13B_1);
 398:main_cm4.c    ****     GUI_SetTextAlign(GUI_TA_HCENTER);
 399:main_cm4.c    ****     GUI_DispStringAt(data_title[which_data_table-1], 132, 5);
 400:main_cm4.c    ****     
 401:main_cm4.c    ****     int last_point = start_point + 6;
 402:main_cm4.c    ****     
 403:main_cm4.c    ****     if(last_point > dataSize)
 404:main_cm4.c    ****     {
 405:main_cm4.c    ****         last_point = dataSize;
 406:main_cm4.c    ****     }
 407:main_cm4.c    ****     
 408:main_cm4.c    ****     /* Display table data */
 409:main_cm4.c    ****     for (int i = start_point; i < last_point; i++)
 410:main_cm4.c    ****     {   
 411:main_cm4.c    ****         if(i == start_point)
 412:main_cm4.c    ****         {
 413:main_cm4.c    ****             GUI_DispStringAt("Time (s)", 20, 30);
 414:main_cm4.c    ****             GUI_DispStringAt("Temperature (C deg)", 100, 30);
 415:main_cm4.c    ****         }
 416:main_cm4.c    ****         
 417:main_cm4.c    ****         char timeString[10];
 418:main_cm4.c    ****         char dataString[10];
 419:main_cm4.c    ****         
 420:main_cm4.c    ****         sprintf(timeString, "%d", data[i].time);
 421:main_cm4.c    ****         sprintf(dataString, "%d", data[i].temperature);
 422:main_cm4.c    ****         
 423:main_cm4.c    ****         GUI_DispStringAt(timeString, 20, 50 + (i-start_point) * 20);
 424:main_cm4.c    ****         GUI_DispStringAt(dataString, 100, 50 + (i-start_point) * 20);
 425:main_cm4.c    ****     }
 426:main_cm4.c    **** 
 427:main_cm4.c    ****     /* Update the display */
 428:main_cm4.c    ****     UpdateDisplay(CY_EINK_PARTIAL, true);
 429:main_cm4.c    **** }
 430:main_cm4.c    **** 
 431:main_cm4.c    **** void TimerInterruptHandler(void)
 432:main_cm4.c    **** {
  81              		.loc 1 432 0
ARM GAS  C:\Users\rober\AppData\Local\Temp\ccBCZTBX.s 			page 10


  82              		.cfi_startproc
  83              		@ args = 0, pretend = 0, frame = 0
  84              		@ frame_needed = 0, uses_anonymous_args = 0
  85 0000 38B5     		push	{r3, r4, r5, lr}
  86              		.cfi_def_cfa_offset 16
  87              		.cfi_offset 3, -16
  88              		.cfi_offset 4, -12
  89              		.cfi_offset 5, -8
  90              		.cfi_offset 14, -4
  91              	.LVL7:
  92              	.LBB23:
  93              	.LBB24:
  94              		.file 2 "Generated_Source\\PSoC6\\pdl\\drivers/peripheral/tcpwm/cy_tcpwm.h"
   1:Generated_Source\PSoC6\pdl\drivers/peripheral/tcpwm/cy_tcpwm.h **** /***************************************************************************//**
   2:Generated_Source\PSoC6\pdl\drivers/peripheral/tcpwm/cy_tcpwm.h **** * \file cy_tcpwm.h
   3:Generated_Source\PSoC6\pdl\drivers/peripheral/tcpwm/cy_tcpwm.h **** * \version 1.0.1
   4:Generated_Source\PSoC6\pdl\drivers/peripheral/tcpwm/cy_tcpwm.h **** *
   5:Generated_Source\PSoC6\pdl\drivers/peripheral/tcpwm/cy_tcpwm.h **** * The header file of the TCPWM driver.
   6:Generated_Source\PSoC6\pdl\drivers/peripheral/tcpwm/cy_tcpwm.h **** *
   7:Generated_Source\PSoC6\pdl\drivers/peripheral/tcpwm/cy_tcpwm.h **** ********************************************************************************
   8:Generated_Source\PSoC6\pdl\drivers/peripheral/tcpwm/cy_tcpwm.h **** * \copyright
   9:Generated_Source\PSoC6\pdl\drivers/peripheral/tcpwm/cy_tcpwm.h **** * Copyright 2016-2018, Cypress Semiconductor Corporation. All rights reserved.
  10:Generated_Source\PSoC6\pdl\drivers/peripheral/tcpwm/cy_tcpwm.h **** * You may use this file only in accordance with the license, terms, conditions,
  11:Generated_Source\PSoC6\pdl\drivers/peripheral/tcpwm/cy_tcpwm.h **** * disclaimers, and limitations in the end user license agreement accompanying
  12:Generated_Source\PSoC6\pdl\drivers/peripheral/tcpwm/cy_tcpwm.h **** * the software package with which this file was provided.
  13:Generated_Source\PSoC6\pdl\drivers/peripheral/tcpwm/cy_tcpwm.h **** *******************************************************************************/
  14:Generated_Source\PSoC6\pdl\drivers/peripheral/tcpwm/cy_tcpwm.h **** 
  15:Generated_Source\PSoC6\pdl\drivers/peripheral/tcpwm/cy_tcpwm.h **** /**
  16:Generated_Source\PSoC6\pdl\drivers/peripheral/tcpwm/cy_tcpwm.h **** * \defgroup group_tcpwm Timer Counter PWM (TCPWM)
  17:Generated_Source\PSoC6\pdl\drivers/peripheral/tcpwm/cy_tcpwm.h **** * \{
  18:Generated_Source\PSoC6\pdl\drivers/peripheral/tcpwm/cy_tcpwm.h **** * \defgroup group_tcpwm_common  Common
  19:Generated_Source\PSoC6\pdl\drivers/peripheral/tcpwm/cy_tcpwm.h **** * \defgroup group_tcpwm_counter Timer/Counter (TCPWM)
  20:Generated_Source\PSoC6\pdl\drivers/peripheral/tcpwm/cy_tcpwm.h **** * \defgroup group_tcpwm_pwm     PWM (TCPWM)
  21:Generated_Source\PSoC6\pdl\drivers/peripheral/tcpwm/cy_tcpwm.h **** * \defgroup group_tcpwm_quaddec Quadrature Decoder (TCPWM)
  22:Generated_Source\PSoC6\pdl\drivers/peripheral/tcpwm/cy_tcpwm.h **** * \} */
  23:Generated_Source\PSoC6\pdl\drivers/peripheral/tcpwm/cy_tcpwm.h **** 
  24:Generated_Source\PSoC6\pdl\drivers/peripheral/tcpwm/cy_tcpwm.h **** /**
  25:Generated_Source\PSoC6\pdl\drivers/peripheral/tcpwm/cy_tcpwm.h **** * \addtogroup group_tcpwm
  26:Generated_Source\PSoC6\pdl\drivers/peripheral/tcpwm/cy_tcpwm.h **** * \{
  27:Generated_Source\PSoC6\pdl\drivers/peripheral/tcpwm/cy_tcpwm.h **** * 
  28:Generated_Source\PSoC6\pdl\drivers/peripheral/tcpwm/cy_tcpwm.h **** * The TCPWM driver is a multifunction driver that implements Timer Counter, 
  29:Generated_Source\PSoC6\pdl\drivers/peripheral/tcpwm/cy_tcpwm.h **** * PWM, and Quadrature Decoder functionality using the TCPWM block.
  30:Generated_Source\PSoC6\pdl\drivers/peripheral/tcpwm/cy_tcpwm.h **** *
  31:Generated_Source\PSoC6\pdl\drivers/peripheral/tcpwm/cy_tcpwm.h **** * Each TCPWM block is a collection of counters that can all be triggered 
  32:Generated_Source\PSoC6\pdl\drivers/peripheral/tcpwm/cy_tcpwm.h **** * simultaneously. For each function call, the base register address of 
  33:Generated_Source\PSoC6\pdl\drivers/peripheral/tcpwm/cy_tcpwm.h **** * the TCPWM being used must be passed first, followed by the index of 
  34:Generated_Source\PSoC6\pdl\drivers/peripheral/tcpwm/cy_tcpwm.h **** * the counter you want to touch next. 
  35:Generated_Source\PSoC6\pdl\drivers/peripheral/tcpwm/cy_tcpwm.h **** * For some functions, you can manage multiple counters simultaneously. You 
  36:Generated_Source\PSoC6\pdl\drivers/peripheral/tcpwm/cy_tcpwm.h **** * provide a bit field representing each counter, rather than the single counter 
  37:Generated_Source\PSoC6\pdl\drivers/peripheral/tcpwm/cy_tcpwm.h **** * index). 
  38:Generated_Source\PSoC6\pdl\drivers/peripheral/tcpwm/cy_tcpwm.h **** *
  39:Generated_Source\PSoC6\pdl\drivers/peripheral/tcpwm/cy_tcpwm.h **** * The TCPWM supports three operating modes:
  40:Generated_Source\PSoC6\pdl\drivers/peripheral/tcpwm/cy_tcpwm.h **** * * Timer/Counter
  41:Generated_Source\PSoC6\pdl\drivers/peripheral/tcpwm/cy_tcpwm.h **** * * PWM
  42:Generated_Source\PSoC6\pdl\drivers/peripheral/tcpwm/cy_tcpwm.h **** * * Quadrature Decoder
  43:Generated_Source\PSoC6\pdl\drivers/peripheral/tcpwm/cy_tcpwm.h **** *
  44:Generated_Source\PSoC6\pdl\drivers/peripheral/tcpwm/cy_tcpwm.h **** * \n
ARM GAS  C:\Users\rober\AppData\Local\Temp\ccBCZTBX.s 			page 11


  45:Generated_Source\PSoC6\pdl\drivers/peripheral/tcpwm/cy_tcpwm.h **** * \b Timer/Counter
  46:Generated_Source\PSoC6\pdl\drivers/peripheral/tcpwm/cy_tcpwm.h **** *
  47:Generated_Source\PSoC6\pdl\drivers/peripheral/tcpwm/cy_tcpwm.h **** * Use this mode whenever a specific timing interval or measurement is 
  48:Generated_Source\PSoC6\pdl\drivers/peripheral/tcpwm/cy_tcpwm.h **** * needed. Examples include:
  49:Generated_Source\PSoC6\pdl\drivers/peripheral/tcpwm/cy_tcpwm.h **** * * Creating a periodic interrupt for running other system tasks
  50:Generated_Source\PSoC6\pdl\drivers/peripheral/tcpwm/cy_tcpwm.h **** * * Measuring frequency of an input signal
  51:Generated_Source\PSoC6\pdl\drivers/peripheral/tcpwm/cy_tcpwm.h **** * * Measuring pulse width of an input signal
  52:Generated_Source\PSoC6\pdl\drivers/peripheral/tcpwm/cy_tcpwm.h **** * * Measuring time between two external events
  53:Generated_Source\PSoC6\pdl\drivers/peripheral/tcpwm/cy_tcpwm.h **** * * Counting events
  54:Generated_Source\PSoC6\pdl\drivers/peripheral/tcpwm/cy_tcpwm.h **** * * Triggering other system resources after x number events
  55:Generated_Source\PSoC6\pdl\drivers/peripheral/tcpwm/cy_tcpwm.h **** * * Capturing time stamps when events occur
  56:Generated_Source\PSoC6\pdl\drivers/peripheral/tcpwm/cy_tcpwm.h **** *
  57:Generated_Source\PSoC6\pdl\drivers/peripheral/tcpwm/cy_tcpwm.h **** * The Timer/Counter has the following features:
  58:Generated_Source\PSoC6\pdl\drivers/peripheral/tcpwm/cy_tcpwm.h **** * * 16- or 32-bit Timer/Counter
  59:Generated_Source\PSoC6\pdl\drivers/peripheral/tcpwm/cy_tcpwm.h **** * * Programmable Period Register
  60:Generated_Source\PSoC6\pdl\drivers/peripheral/tcpwm/cy_tcpwm.h **** * * Programmable Compare Register. Compare value can be swapped with a 
  61:Generated_Source\PSoC6\pdl\drivers/peripheral/tcpwm/cy_tcpwm.h **** * buffered compare value on comparison event
  62:Generated_Source\PSoC6\pdl\drivers/peripheral/tcpwm/cy_tcpwm.h **** * * Capture with buffer register
  63:Generated_Source\PSoC6\pdl\drivers/peripheral/tcpwm/cy_tcpwm.h **** * * Count Up, Count Down, or Count Up and Down Counting modes
  64:Generated_Source\PSoC6\pdl\drivers/peripheral/tcpwm/cy_tcpwm.h **** * * Continuous or One Shot Run modes
  65:Generated_Source\PSoC6\pdl\drivers/peripheral/tcpwm/cy_tcpwm.h **** * * Interrupt and Output on Overflow, Underflow, Capture, or Compare 
  66:Generated_Source\PSoC6\pdl\drivers/peripheral/tcpwm/cy_tcpwm.h **** * * Start, Reload, Stop, Capture, and Count Inputs
  67:Generated_Source\PSoC6\pdl\drivers/peripheral/tcpwm/cy_tcpwm.h **** *
  68:Generated_Source\PSoC6\pdl\drivers/peripheral/tcpwm/cy_tcpwm.h **** * \n
  69:Generated_Source\PSoC6\pdl\drivers/peripheral/tcpwm/cy_tcpwm.h **** * \b PWM
  70:Generated_Source\PSoC6\pdl\drivers/peripheral/tcpwm/cy_tcpwm.h **** *
  71:Generated_Source\PSoC6\pdl\drivers/peripheral/tcpwm/cy_tcpwm.h **** * Use this mode when an output square wave is needed with a specific 
  72:Generated_Source\PSoC6\pdl\drivers/peripheral/tcpwm/cy_tcpwm.h **** * period and duty cycle, such as:
  73:Generated_Source\PSoC6\pdl\drivers/peripheral/tcpwm/cy_tcpwm.h **** * * Creating arbitrary square wave outputs
  74:Generated_Source\PSoC6\pdl\drivers/peripheral/tcpwm/cy_tcpwm.h **** * * Driving an LED (changing the brightness)
  75:Generated_Source\PSoC6\pdl\drivers/peripheral/tcpwm/cy_tcpwm.h **** * * Driving Motors (dead time assertion available)
  76:Generated_Source\PSoC6\pdl\drivers/peripheral/tcpwm/cy_tcpwm.h **** *
  77:Generated_Source\PSoC6\pdl\drivers/peripheral/tcpwm/cy_tcpwm.h **** * The PWM has the following features:
  78:Generated_Source\PSoC6\pdl\drivers/peripheral/tcpwm/cy_tcpwm.h **** * * 16- or 32-bit Counter
  79:Generated_Source\PSoC6\pdl\drivers/peripheral/tcpwm/cy_tcpwm.h **** * * Two Programmable Period registers that can be swapped
  80:Generated_Source\PSoC6\pdl\drivers/peripheral/tcpwm/cy_tcpwm.h **** * * Two Output Compare registers that can be swapped on overflow and/or 
  81:Generated_Source\PSoC6\pdl\drivers/peripheral/tcpwm/cy_tcpwm.h **** * underflow
  82:Generated_Source\PSoC6\pdl\drivers/peripheral/tcpwm/cy_tcpwm.h **** * * Left Aligned, Right Aligned, Center Aligned, and Asymmetric Aligned modes
  83:Generated_Source\PSoC6\pdl\drivers/peripheral/tcpwm/cy_tcpwm.h **** * * Continuous or One Shot run modes
  84:Generated_Source\PSoC6\pdl\drivers/peripheral/tcpwm/cy_tcpwm.h **** * * Pseudo Random mode
  85:Generated_Source\PSoC6\pdl\drivers/peripheral/tcpwm/cy_tcpwm.h **** * * Two PWM outputs with Dead Time insertion, and programmable polarity
  86:Generated_Source\PSoC6\pdl\drivers/peripheral/tcpwm/cy_tcpwm.h **** * * Interrupt and Output on Overflow, Underflow, or Compare 
  87:Generated_Source\PSoC6\pdl\drivers/peripheral/tcpwm/cy_tcpwm.h **** * * Start, Reload, Stop, Swap (Capture), and Count Inputs
  88:Generated_Source\PSoC6\pdl\drivers/peripheral/tcpwm/cy_tcpwm.h **** * * Multiple Components can be synchronized together for applications 
  89:Generated_Source\PSoC6\pdl\drivers/peripheral/tcpwm/cy_tcpwm.h **** * such as three phase motor control
  90:Generated_Source\PSoC6\pdl\drivers/peripheral/tcpwm/cy_tcpwm.h **** *
  91:Generated_Source\PSoC6\pdl\drivers/peripheral/tcpwm/cy_tcpwm.h **** * \n
  92:Generated_Source\PSoC6\pdl\drivers/peripheral/tcpwm/cy_tcpwm.h **** * \b Quadrature \b Decoder
  93:Generated_Source\PSoC6\pdl\drivers/peripheral/tcpwm/cy_tcpwm.h **** *
  94:Generated_Source\PSoC6\pdl\drivers/peripheral/tcpwm/cy_tcpwm.h **** * A quadrature decoder is used to decode the output of a quadrature encoder. 
  95:Generated_Source\PSoC6\pdl\drivers/peripheral/tcpwm/cy_tcpwm.h **** * A quadrature encoder senses the position, velocity, and direction of 
  96:Generated_Source\PSoC6\pdl\drivers/peripheral/tcpwm/cy_tcpwm.h **** * an object (for example a rotating axle, or a spinning mouse ball). 
  97:Generated_Source\PSoC6\pdl\drivers/peripheral/tcpwm/cy_tcpwm.h **** * A quadrature decoder can also be used for precision measurement of speed, 
  98:Generated_Source\PSoC6\pdl\drivers/peripheral/tcpwm/cy_tcpwm.h **** * acceleration, and position of a motor's rotor, or with a rotary switch to 
  99:Generated_Source\PSoC6\pdl\drivers/peripheral/tcpwm/cy_tcpwm.h **** * determine user input. \n
 100:Generated_Source\PSoC6\pdl\drivers/peripheral/tcpwm/cy_tcpwm.h **** * 
 101:Generated_Source\PSoC6\pdl\drivers/peripheral/tcpwm/cy_tcpwm.h **** * The Quadrature Decoder has the following features:
ARM GAS  C:\Users\rober\AppData\Local\Temp\ccBCZTBX.s 			page 12


 102:Generated_Source\PSoC6\pdl\drivers/peripheral/tcpwm/cy_tcpwm.h **** * * 16- or 32-bit Counter
 103:Generated_Source\PSoC6\pdl\drivers/peripheral/tcpwm/cy_tcpwm.h **** * * Counter Resolution of x1, x2, and x4 the frequency of the phiA (Count) and 
 104:Generated_Source\PSoC6\pdl\drivers/peripheral/tcpwm/cy_tcpwm.h **** * phiB (Start) inputs
 105:Generated_Source\PSoC6\pdl\drivers/peripheral/tcpwm/cy_tcpwm.h **** * * Index Input to determine absolute position
 106:Generated_Source\PSoC6\pdl\drivers/peripheral/tcpwm/cy_tcpwm.h **** * * A positive edge on phiA increments the counter when phiB is 0 and decrements
 107:Generated_Source\PSoC6\pdl\drivers/peripheral/tcpwm/cy_tcpwm.h **** * the counter when phiB is 1
 108:Generated_Source\PSoC6\pdl\drivers/peripheral/tcpwm/cy_tcpwm.h **** *
 109:Generated_Source\PSoC6\pdl\drivers/peripheral/tcpwm/cy_tcpwm.h **** * \section group_tcpwm_configuration Configuration Considerations
 110:Generated_Source\PSoC6\pdl\drivers/peripheral/tcpwm/cy_tcpwm.h **** *
 111:Generated_Source\PSoC6\pdl\drivers/peripheral/tcpwm/cy_tcpwm.h **** * For each mode, the TCPWM driver has a configuration structure, an Init 
 112:Generated_Source\PSoC6\pdl\drivers/peripheral/tcpwm/cy_tcpwm.h **** * function, and an Enable function. 
 113:Generated_Source\PSoC6\pdl\drivers/peripheral/tcpwm/cy_tcpwm.h **** *
 114:Generated_Source\PSoC6\pdl\drivers/peripheral/tcpwm/cy_tcpwm.h **** * Provide the configuration parameters in the appropriate structure (see
 115:Generated_Source\PSoC6\pdl\drivers/peripheral/tcpwm/cy_tcpwm.h **** * Counter \ref group_tcpwm_data_structures_counter, PWM 
 116:Generated_Source\PSoC6\pdl\drivers/peripheral/tcpwm/cy_tcpwm.h **** * \ref group_tcpwm_data_structures_pwm, or QuadDec 
 117:Generated_Source\PSoC6\pdl\drivers/peripheral/tcpwm/cy_tcpwm.h **** * \ref group_tcpwm_data_structures_quaddec). 
 118:Generated_Source\PSoC6\pdl\drivers/peripheral/tcpwm/cy_tcpwm.h **** * Then call the appropriate Init function: 
 119:Generated_Source\PSoC6\pdl\drivers/peripheral/tcpwm/cy_tcpwm.h **** * \ref Cy_TCPWM_Counter_Init, \ref Cy_TCPWM_PWM_Init, or 
 120:Generated_Source\PSoC6\pdl\drivers/peripheral/tcpwm/cy_tcpwm.h **** * \ref Cy_TCPWM_QuadDec_Init. Provide the address of the filled structure as a 
 121:Generated_Source\PSoC6\pdl\drivers/peripheral/tcpwm/cy_tcpwm.h **** * parameter. To enable the counter, call the appropriate Enable function: 
 122:Generated_Source\PSoC6\pdl\drivers/peripheral/tcpwm/cy_tcpwm.h **** * \ref Cy_TCPWM_Counter_Enable, \ref Cy_TCPWM_PWM_Enable, or 
 123:Generated_Source\PSoC6\pdl\drivers/peripheral/tcpwm/cy_tcpwm.h **** * \ref Cy_TCPWM_QuadDec_Enable).
 124:Generated_Source\PSoC6\pdl\drivers/peripheral/tcpwm/cy_tcpwm.h **** *
 125:Generated_Source\PSoC6\pdl\drivers/peripheral/tcpwm/cy_tcpwm.h **** * Many functions work with an individual counter. You can also manage multiple 
 126:Generated_Source\PSoC6\pdl\drivers/peripheral/tcpwm/cy_tcpwm.h **** * counters simultaneously for certain functions. These are listed in the 
 127:Generated_Source\PSoC6\pdl\drivers/peripheral/tcpwm/cy_tcpwm.h **** * \ref group_tcpwm_functions_common 
 128:Generated_Source\PSoC6\pdl\drivers/peripheral/tcpwm/cy_tcpwm.h **** * section of the TCPWM. You can enable, disable, or trigger (in various ways) 
 129:Generated_Source\PSoC6\pdl\drivers/peripheral/tcpwm/cy_tcpwm.h **** * multiple counters simultaneously. For these functions you provide a bit field 
 130:Generated_Source\PSoC6\pdl\drivers/peripheral/tcpwm/cy_tcpwm.h **** * representing each counter in the TCPWM you want to control. You can 
 131:Generated_Source\PSoC6\pdl\drivers/peripheral/tcpwm/cy_tcpwm.h **** * represent the bit field as an ORed mask of each counter, like 
 132:Generated_Source\PSoC6\pdl\drivers/peripheral/tcpwm/cy_tcpwm.h **** * ((1U << cntNumX) | (1U << cntNumX) | (1U << cntNumX)), where X is the counter 
 133:Generated_Source\PSoC6\pdl\drivers/peripheral/tcpwm/cy_tcpwm.h **** * number from 0 to 31.
 134:Generated_Source\PSoC6\pdl\drivers/peripheral/tcpwm/cy_tcpwm.h **** *
 135:Generated_Source\PSoC6\pdl\drivers/peripheral/tcpwm/cy_tcpwm.h **** * \note
 136:Generated_Source\PSoC6\pdl\drivers/peripheral/tcpwm/cy_tcpwm.h **** * * If none of the input terminals (start, reload(index)) are used, the 
 137:Generated_Source\PSoC6\pdl\drivers/peripheral/tcpwm/cy_tcpwm.h **** * software event \ref Cy_TCPWM_TriggerStart or 
 138:Generated_Source\PSoC6\pdl\drivers/peripheral/tcpwm/cy_tcpwm.h **** * \ref Cy_TCPWM_TriggerReloadOrIndex must be called to start the counting.
 139:Generated_Source\PSoC6\pdl\drivers/peripheral/tcpwm/cy_tcpwm.h **** * * If count input terminal is not used, the \ref CY_TCPWM_INPUT_LEVEL macro 
 140:Generated_Source\PSoC6\pdl\drivers/peripheral/tcpwm/cy_tcpwm.h **** * should be set for the countInputMode parameter and the \ref CY_TCPWM_INPUT_1 
 141:Generated_Source\PSoC6\pdl\drivers/peripheral/tcpwm/cy_tcpwm.h **** * macro should be set for the countInputMode parameter in the configuration 
 142:Generated_Source\PSoC6\pdl\drivers/peripheral/tcpwm/cy_tcpwm.h **** * structure of the appropriate mode(Counter 
 143:Generated_Source\PSoC6\pdl\drivers/peripheral/tcpwm/cy_tcpwm.h **** * \ref group_tcpwm_data_structures_counter, PWM 
 144:Generated_Source\PSoC6\pdl\drivers/peripheral/tcpwm/cy_tcpwm.h **** * \ref group_tcpwm_data_structures_pwm, or QuadDec 
 145:Generated_Source\PSoC6\pdl\drivers/peripheral/tcpwm/cy_tcpwm.h **** * \ref group_tcpwm_data_structures_quaddec).
 146:Generated_Source\PSoC6\pdl\drivers/peripheral/tcpwm/cy_tcpwm.h **** *
 147:Generated_Source\PSoC6\pdl\drivers/peripheral/tcpwm/cy_tcpwm.h **** * \section group_tcpwm_more_information More Information
 148:Generated_Source\PSoC6\pdl\drivers/peripheral/tcpwm/cy_tcpwm.h **** *
 149:Generated_Source\PSoC6\pdl\drivers/peripheral/tcpwm/cy_tcpwm.h **** * For more information on the TCPWM peripheral, refer to the technical 
 150:Generated_Source\PSoC6\pdl\drivers/peripheral/tcpwm/cy_tcpwm.h **** * reference manual (TRM).
 151:Generated_Source\PSoC6\pdl\drivers/peripheral/tcpwm/cy_tcpwm.h **** *
 152:Generated_Source\PSoC6\pdl\drivers/peripheral/tcpwm/cy_tcpwm.h **** * \section group_tcpwm_MISRA MISRA-C Compliance 
 153:Generated_Source\PSoC6\pdl\drivers/peripheral/tcpwm/cy_tcpwm.h **** * <table class="doxtable">
 154:Generated_Source\PSoC6\pdl\drivers/peripheral/tcpwm/cy_tcpwm.h **** *   <tr>
 155:Generated_Source\PSoC6\pdl\drivers/peripheral/tcpwm/cy_tcpwm.h **** *     <th>MISRA Rule</th>
 156:Generated_Source\PSoC6\pdl\drivers/peripheral/tcpwm/cy_tcpwm.h **** *     <th>Rule Class (Required/Advisory)</th>
 157:Generated_Source\PSoC6\pdl\drivers/peripheral/tcpwm/cy_tcpwm.h **** *     <th>Rule Description</th>
 158:Generated_Source\PSoC6\pdl\drivers/peripheral/tcpwm/cy_tcpwm.h **** *     <th>Description of Deviation(s)</th>
ARM GAS  C:\Users\rober\AppData\Local\Temp\ccBCZTBX.s 			page 13


 159:Generated_Source\PSoC6\pdl\drivers/peripheral/tcpwm/cy_tcpwm.h **** *   </tr>
 160:Generated_Source\PSoC6\pdl\drivers/peripheral/tcpwm/cy_tcpwm.h **** *   <tr>
 161:Generated_Source\PSoC6\pdl\drivers/peripheral/tcpwm/cy_tcpwm.h **** *     <td>14.2</td>
 162:Generated_Source\PSoC6\pdl\drivers/peripheral/tcpwm/cy_tcpwm.h **** *     <td>R</td>
 163:Generated_Source\PSoC6\pdl\drivers/peripheral/tcpwm/cy_tcpwm.h **** *     <td>All non-null statements shall either: a) have at least one side-effect
 164:Generated_Source\PSoC6\pdl\drivers/peripheral/tcpwm/cy_tcpwm.h **** *         however executed, or b) cause control flow to change.</td>
 165:Generated_Source\PSoC6\pdl\drivers/peripheral/tcpwm/cy_tcpwm.h **** *     <td>The unused function parameters are cast to void. This statement
 166:Generated_Source\PSoC6\pdl\drivers/peripheral/tcpwm/cy_tcpwm.h **** *         has no side-effect and is used to suppress a compiler warning.</td>
 167:Generated_Source\PSoC6\pdl\drivers/peripheral/tcpwm/cy_tcpwm.h **** *   </tr>
 168:Generated_Source\PSoC6\pdl\drivers/peripheral/tcpwm/cy_tcpwm.h **** * </table>
 169:Generated_Source\PSoC6\pdl\drivers/peripheral/tcpwm/cy_tcpwm.h **** *
 170:Generated_Source\PSoC6\pdl\drivers/peripheral/tcpwm/cy_tcpwm.h **** * \section group_tcpwm_changelog Changelog
 171:Generated_Source\PSoC6\pdl\drivers/peripheral/tcpwm/cy_tcpwm.h **** * <table class="doxtable">
 172:Generated_Source\PSoC6\pdl\drivers/peripheral/tcpwm/cy_tcpwm.h **** *   <tr><th>Version</th><th>Changes</th><th>Reason for Change</th></tr>
 173:Generated_Source\PSoC6\pdl\drivers/peripheral/tcpwm/cy_tcpwm.h **** *   <tr>
 174:Generated_Source\PSoC6\pdl\drivers/peripheral/tcpwm/cy_tcpwm.h **** *     <td>1.0.1</td>
 175:Generated_Source\PSoC6\pdl\drivers/peripheral/tcpwm/cy_tcpwm.h **** *     <td>Added a deviation to the MISRA Compliance section.
 176:Generated_Source\PSoC6\pdl\drivers/peripheral/tcpwm/cy_tcpwm.h **** *         Added function-level code snippets.</td>
 177:Generated_Source\PSoC6\pdl\drivers/peripheral/tcpwm/cy_tcpwm.h **** *     <td>Documentation update and clarification</td>
 178:Generated_Source\PSoC6\pdl\drivers/peripheral/tcpwm/cy_tcpwm.h **** *   </tr>
 179:Generated_Source\PSoC6\pdl\drivers/peripheral/tcpwm/cy_tcpwm.h **** *   <tr>
 180:Generated_Source\PSoC6\pdl\drivers/peripheral/tcpwm/cy_tcpwm.h **** *     <td>1.0</td>
 181:Generated_Source\PSoC6\pdl\drivers/peripheral/tcpwm/cy_tcpwm.h **** *     <td>Initial version</td>
 182:Generated_Source\PSoC6\pdl\drivers/peripheral/tcpwm/cy_tcpwm.h **** *     <td></td>
 183:Generated_Source\PSoC6\pdl\drivers/peripheral/tcpwm/cy_tcpwm.h **** *   </tr>
 184:Generated_Source\PSoC6\pdl\drivers/peripheral/tcpwm/cy_tcpwm.h **** * </table>
 185:Generated_Source\PSoC6\pdl\drivers/peripheral/tcpwm/cy_tcpwm.h **** */
 186:Generated_Source\PSoC6\pdl\drivers/peripheral/tcpwm/cy_tcpwm.h **** 
 187:Generated_Source\PSoC6\pdl\drivers/peripheral/tcpwm/cy_tcpwm.h **** /** \} group_tcpwm */
 188:Generated_Source\PSoC6\pdl\drivers/peripheral/tcpwm/cy_tcpwm.h **** 
 189:Generated_Source\PSoC6\pdl\drivers/peripheral/tcpwm/cy_tcpwm.h **** /**
 190:Generated_Source\PSoC6\pdl\drivers/peripheral/tcpwm/cy_tcpwm.h **** * \addtogroup group_tcpwm_common
 191:Generated_Source\PSoC6\pdl\drivers/peripheral/tcpwm/cy_tcpwm.h **** * Common API for the Timer Counter PWM Block.
 192:Generated_Source\PSoC6\pdl\drivers/peripheral/tcpwm/cy_tcpwm.h **** * \{
 193:Generated_Source\PSoC6\pdl\drivers/peripheral/tcpwm/cy_tcpwm.h **** * \defgroup group_tcpwm_macros_common           Macros
 194:Generated_Source\PSoC6\pdl\drivers/peripheral/tcpwm/cy_tcpwm.h **** * \defgroup group_tcpwm_functions_common        Functions
 195:Generated_Source\PSoC6\pdl\drivers/peripheral/tcpwm/cy_tcpwm.h **** * \defgroup group_tcpwm_data_structures_common  Data Structures
 196:Generated_Source\PSoC6\pdl\drivers/peripheral/tcpwm/cy_tcpwm.h **** * \defgroup group_tcpwm_enums Enumerated Types
 197:Generated_Source\PSoC6\pdl\drivers/peripheral/tcpwm/cy_tcpwm.h **** */
 198:Generated_Source\PSoC6\pdl\drivers/peripheral/tcpwm/cy_tcpwm.h **** 
 199:Generated_Source\PSoC6\pdl\drivers/peripheral/tcpwm/cy_tcpwm.h **** 
 200:Generated_Source\PSoC6\pdl\drivers/peripheral/tcpwm/cy_tcpwm.h **** #if !defined(CY_TCPWM_H)
 201:Generated_Source\PSoC6\pdl\drivers/peripheral/tcpwm/cy_tcpwm.h **** #define CY_TCPWM_H
 202:Generated_Source\PSoC6\pdl\drivers/peripheral/tcpwm/cy_tcpwm.h **** 
 203:Generated_Source\PSoC6\pdl\drivers/peripheral/tcpwm/cy_tcpwm.h **** #include <stdint.h>
 204:Generated_Source\PSoC6\pdl\drivers/peripheral/tcpwm/cy_tcpwm.h **** #include <stdbool.h>
 205:Generated_Source\PSoC6\pdl\drivers/peripheral/tcpwm/cy_tcpwm.h **** #include <stddef.h>
 206:Generated_Source\PSoC6\pdl\drivers/peripheral/tcpwm/cy_tcpwm.h **** #include "syslib/cy_syslib.h"
 207:Generated_Source\PSoC6\pdl\drivers/peripheral/tcpwm/cy_tcpwm.h **** #include "cy_device_headers.h"
 208:Generated_Source\PSoC6\pdl\drivers/peripheral/tcpwm/cy_tcpwm.h **** 
 209:Generated_Source\PSoC6\pdl\drivers/peripheral/tcpwm/cy_tcpwm.h **** #ifndef CY_IP_MXTCPWM
 210:Generated_Source\PSoC6\pdl\drivers/peripheral/tcpwm/cy_tcpwm.h ****     #error "The TCPWM driver is not supported on this device"
 211:Generated_Source\PSoC6\pdl\drivers/peripheral/tcpwm/cy_tcpwm.h **** #endif
 212:Generated_Source\PSoC6\pdl\drivers/peripheral/tcpwm/cy_tcpwm.h **** 
 213:Generated_Source\PSoC6\pdl\drivers/peripheral/tcpwm/cy_tcpwm.h **** #if defined(__cplusplus)
 214:Generated_Source\PSoC6\pdl\drivers/peripheral/tcpwm/cy_tcpwm.h **** extern "C" {
 215:Generated_Source\PSoC6\pdl\drivers/peripheral/tcpwm/cy_tcpwm.h **** #endif
ARM GAS  C:\Users\rober\AppData\Local\Temp\ccBCZTBX.s 			page 14


 216:Generated_Source\PSoC6\pdl\drivers/peripheral/tcpwm/cy_tcpwm.h **** 
 217:Generated_Source\PSoC6\pdl\drivers/peripheral/tcpwm/cy_tcpwm.h **** /**
 218:Generated_Source\PSoC6\pdl\drivers/peripheral/tcpwm/cy_tcpwm.h **** * \addtogroup group_tcpwm_macros_common
 219:Generated_Source\PSoC6\pdl\drivers/peripheral/tcpwm/cy_tcpwm.h **** * \{
 220:Generated_Source\PSoC6\pdl\drivers/peripheral/tcpwm/cy_tcpwm.h **** */
 221:Generated_Source\PSoC6\pdl\drivers/peripheral/tcpwm/cy_tcpwm.h **** 
 222:Generated_Source\PSoC6\pdl\drivers/peripheral/tcpwm/cy_tcpwm.h **** /** Driver major version */
 223:Generated_Source\PSoC6\pdl\drivers/peripheral/tcpwm/cy_tcpwm.h **** #define CY_TCPWM_DRV_VERSION_MAJOR       1
 224:Generated_Source\PSoC6\pdl\drivers/peripheral/tcpwm/cy_tcpwm.h **** 
 225:Generated_Source\PSoC6\pdl\drivers/peripheral/tcpwm/cy_tcpwm.h **** /** Driver minor version */
 226:Generated_Source\PSoC6\pdl\drivers/peripheral/tcpwm/cy_tcpwm.h **** #define CY_TCPWM_DRV_VERSION_MINOR       0
 227:Generated_Source\PSoC6\pdl\drivers/peripheral/tcpwm/cy_tcpwm.h **** 
 228:Generated_Source\PSoC6\pdl\drivers/peripheral/tcpwm/cy_tcpwm.h **** 
 229:Generated_Source\PSoC6\pdl\drivers/peripheral/tcpwm/cy_tcpwm.h **** /******************************************************************************
 230:Generated_Source\PSoC6\pdl\drivers/peripheral/tcpwm/cy_tcpwm.h **** * API Constants
 231:Generated_Source\PSoC6\pdl\drivers/peripheral/tcpwm/cy_tcpwm.h **** ******************************************************************************/
 232:Generated_Source\PSoC6\pdl\drivers/peripheral/tcpwm/cy_tcpwm.h **** 
 233:Generated_Source\PSoC6\pdl\drivers/peripheral/tcpwm/cy_tcpwm.h **** /** TCPWM driver identifier */
 234:Generated_Source\PSoC6\pdl\drivers/peripheral/tcpwm/cy_tcpwm.h **** #define CY_TCPWM_ID                     (CY_PDL_DRV_ID(0x2DU))
 235:Generated_Source\PSoC6\pdl\drivers/peripheral/tcpwm/cy_tcpwm.h **** 
 236:Generated_Source\PSoC6\pdl\drivers/peripheral/tcpwm/cy_tcpwm.h **** /** \defgroup group_tcpwm_input_selection  TCPWM Input Selection
 237:Generated_Source\PSoC6\pdl\drivers/peripheral/tcpwm/cy_tcpwm.h **** * \{
 238:Generated_Source\PSoC6\pdl\drivers/peripheral/tcpwm/cy_tcpwm.h **** * Selects which input to use
 239:Generated_Source\PSoC6\pdl\drivers/peripheral/tcpwm/cy_tcpwm.h **** */
 240:Generated_Source\PSoC6\pdl\drivers/peripheral/tcpwm/cy_tcpwm.h **** #define CY_TCPWM_INPUT_0                (0U)  /**< Input is tied to logic 0 */
 241:Generated_Source\PSoC6\pdl\drivers/peripheral/tcpwm/cy_tcpwm.h **** #define CY_TCPWM_INPUT_1                (1U)  /**< Input is tied to logic 1 */
 242:Generated_Source\PSoC6\pdl\drivers/peripheral/tcpwm/cy_tcpwm.h **** #define CY_TCPWM_INPUT_TRIG_0           (2U)  /**< Input is connected to the trigger input 0 */
 243:Generated_Source\PSoC6\pdl\drivers/peripheral/tcpwm/cy_tcpwm.h **** #define CY_TCPWM_INPUT_TRIG_1           (3U)  /**< Input is connected to the trigger input 1 */
 244:Generated_Source\PSoC6\pdl\drivers/peripheral/tcpwm/cy_tcpwm.h **** #define CY_TCPWM_INPUT_TRIG_2           (4U)  /**< Input is connected to the trigger input 2 */
 245:Generated_Source\PSoC6\pdl\drivers/peripheral/tcpwm/cy_tcpwm.h **** #define CY_TCPWM_INPUT_TRIG_3           (5U)  /**< Input is connected to the trigger input 3 */
 246:Generated_Source\PSoC6\pdl\drivers/peripheral/tcpwm/cy_tcpwm.h **** #define CY_TCPWM_INPUT_TRIG_4           (6U)  /**< Input is connected to the trigger input 4 */
 247:Generated_Source\PSoC6\pdl\drivers/peripheral/tcpwm/cy_tcpwm.h **** #define CY_TCPWM_INPUT_TRIG_5           (7U)  /**< Input is connected to the trigger input 5 */
 248:Generated_Source\PSoC6\pdl\drivers/peripheral/tcpwm/cy_tcpwm.h **** #define CY_TCPWM_INPUT_TRIG_6           (8U)  /**< Input is connected to the trigger input 6 */
 249:Generated_Source\PSoC6\pdl\drivers/peripheral/tcpwm/cy_tcpwm.h **** #define CY_TCPWM_INPUT_TRIG_7           (9U)  /**< Input is connected to the trigger input 7 */
 250:Generated_Source\PSoC6\pdl\drivers/peripheral/tcpwm/cy_tcpwm.h **** #define CY_TCPWM_INPUT_TRIG_8           (10U) /**< Input is connected to the trigger input 8 */
 251:Generated_Source\PSoC6\pdl\drivers/peripheral/tcpwm/cy_tcpwm.h **** #define CY_TCPWM_INPUT_TRIG_9           (11U) /**< Input is connected to the trigger input 9 */
 252:Generated_Source\PSoC6\pdl\drivers/peripheral/tcpwm/cy_tcpwm.h **** #define CY_TCPWM_INPUT_TRIG_10          (12U) /**< Input is connected to the trigger input 10 */
 253:Generated_Source\PSoC6\pdl\drivers/peripheral/tcpwm/cy_tcpwm.h **** #define CY_TCPWM_INPUT_TRIG_11          (13U) /**< Input is connected to the trigger input 11 */
 254:Generated_Source\PSoC6\pdl\drivers/peripheral/tcpwm/cy_tcpwm.h **** #define CY_TCPWM_INPUT_TRIG_12          (14U) /**< Input is connected to the trigger input 12 */
 255:Generated_Source\PSoC6\pdl\drivers/peripheral/tcpwm/cy_tcpwm.h **** #define CY_TCPWM_INPUT_TRIG_13          (15U) /**< Input is connected to the trigger input 13 */
 256:Generated_Source\PSoC6\pdl\drivers/peripheral/tcpwm/cy_tcpwm.h **** 
 257:Generated_Source\PSoC6\pdl\drivers/peripheral/tcpwm/cy_tcpwm.h **** /** Input is defined by Creator, and Init() function does not need to configure input */
 258:Generated_Source\PSoC6\pdl\drivers/peripheral/tcpwm/cy_tcpwm.h **** #define CY_TCPWM_INPUT_CREATOR          (0xFFFFFFFFU)
 259:Generated_Source\PSoC6\pdl\drivers/peripheral/tcpwm/cy_tcpwm.h **** /** \} group_tcpwm_input_selection */
 260:Generated_Source\PSoC6\pdl\drivers/peripheral/tcpwm/cy_tcpwm.h **** 
 261:Generated_Source\PSoC6\pdl\drivers/peripheral/tcpwm/cy_tcpwm.h **** /**
 262:Generated_Source\PSoC6\pdl\drivers/peripheral/tcpwm/cy_tcpwm.h **** * \defgroup group_tcpwm_input_modes  Input Modes
 263:Generated_Source\PSoC6\pdl\drivers/peripheral/tcpwm/cy_tcpwm.h **** * \{
 264:Generated_Source\PSoC6\pdl\drivers/peripheral/tcpwm/cy_tcpwm.h **** * Configures how TCPWM inputs behave
 265:Generated_Source\PSoC6\pdl\drivers/peripheral/tcpwm/cy_tcpwm.h **** */
 266:Generated_Source\PSoC6\pdl\drivers/peripheral/tcpwm/cy_tcpwm.h **** /** A rising edge triggers the event (Capture, Start, Reload, etc..) */
 267:Generated_Source\PSoC6\pdl\drivers/peripheral/tcpwm/cy_tcpwm.h **** #define CY_TCPWM_INPUT_RISINGEDGE       (0U)
 268:Generated_Source\PSoC6\pdl\drivers/peripheral/tcpwm/cy_tcpwm.h **** /** A falling edge triggers the event (Capture, Start, Reload, etc..) */
 269:Generated_Source\PSoC6\pdl\drivers/peripheral/tcpwm/cy_tcpwm.h **** #define CY_TCPWM_INPUT_FALLINGEDGE      (1U)
 270:Generated_Source\PSoC6\pdl\drivers/peripheral/tcpwm/cy_tcpwm.h **** /** A rising edge or falling edge triggers the event (Capture, Start, Reload, etc..) */
 271:Generated_Source\PSoC6\pdl\drivers/peripheral/tcpwm/cy_tcpwm.h **** #define CY_TCPWM_INPUT_EITHEREDGE       (2U)
 272:Generated_Source\PSoC6\pdl\drivers/peripheral/tcpwm/cy_tcpwm.h **** /** The event is triggered on each edge of the TCPWM clock if the input is high */
ARM GAS  C:\Users\rober\AppData\Local\Temp\ccBCZTBX.s 			page 15


 273:Generated_Source\PSoC6\pdl\drivers/peripheral/tcpwm/cy_tcpwm.h **** #define CY_TCPWM_INPUT_LEVEL            (3U)
 274:Generated_Source\PSoC6\pdl\drivers/peripheral/tcpwm/cy_tcpwm.h **** /** \} group_tcpwm_input_modes */
 275:Generated_Source\PSoC6\pdl\drivers/peripheral/tcpwm/cy_tcpwm.h **** 
 276:Generated_Source\PSoC6\pdl\drivers/peripheral/tcpwm/cy_tcpwm.h **** /**
 277:Generated_Source\PSoC6\pdl\drivers/peripheral/tcpwm/cy_tcpwm.h **** * \defgroup group_tcpwm_interrupt_sources  Interrupt Sources
 278:Generated_Source\PSoC6\pdl\drivers/peripheral/tcpwm/cy_tcpwm.h **** * \{
 279:Generated_Source\PSoC6\pdl\drivers/peripheral/tcpwm/cy_tcpwm.h **** * Interrupt Sources 
 280:Generated_Source\PSoC6\pdl\drivers/peripheral/tcpwm/cy_tcpwm.h **** */
 281:Generated_Source\PSoC6\pdl\drivers/peripheral/tcpwm/cy_tcpwm.h **** #define CY_TCPWM_INT_ON_TC              (1U) /**< Interrupt on Terminal count(TC) */
 282:Generated_Source\PSoC6\pdl\drivers/peripheral/tcpwm/cy_tcpwm.h **** #define CY_TCPWM_INT_ON_CC              (2U) /**< Interrupt on Compare/Capture(CC) */
 283:Generated_Source\PSoC6\pdl\drivers/peripheral/tcpwm/cy_tcpwm.h **** #define CY_TCPWM_INT_NONE               (0U) /**< No Interrupt */
 284:Generated_Source\PSoC6\pdl\drivers/peripheral/tcpwm/cy_tcpwm.h **** #define CY_TCPWM_INT_ON_CC_OR_TC        (3U) /**< Interrupt on TC or CC */
 285:Generated_Source\PSoC6\pdl\drivers/peripheral/tcpwm/cy_tcpwm.h **** /** \} group_tcpwm_interrupt_sources */
 286:Generated_Source\PSoC6\pdl\drivers/peripheral/tcpwm/cy_tcpwm.h **** 
 287:Generated_Source\PSoC6\pdl\drivers/peripheral/tcpwm/cy_tcpwm.h **** 
 288:Generated_Source\PSoC6\pdl\drivers/peripheral/tcpwm/cy_tcpwm.h **** /***************************************
 289:Generated_Source\PSoC6\pdl\drivers/peripheral/tcpwm/cy_tcpwm.h **** *        Registers Constants
 290:Generated_Source\PSoC6\pdl\drivers/peripheral/tcpwm/cy_tcpwm.h **** ***************************************/
 291:Generated_Source\PSoC6\pdl\drivers/peripheral/tcpwm/cy_tcpwm.h **** 
 292:Generated_Source\PSoC6\pdl\drivers/peripheral/tcpwm/cy_tcpwm.h **** /**
 293:Generated_Source\PSoC6\pdl\drivers/peripheral/tcpwm/cy_tcpwm.h **** * \defgroup group_tcpwm_reg_const Default registers constants
 294:Generated_Source\PSoC6\pdl\drivers/peripheral/tcpwm/cy_tcpwm.h **** * \{
 295:Generated_Source\PSoC6\pdl\drivers/peripheral/tcpwm/cy_tcpwm.h **** * Default constants for CNT Registers
 296:Generated_Source\PSoC6\pdl\drivers/peripheral/tcpwm/cy_tcpwm.h **** */
 297:Generated_Source\PSoC6\pdl\drivers/peripheral/tcpwm/cy_tcpwm.h **** #define CY_TCPWM_CNT_CTRL_DEFAULT           (0x0U) /**< Default value for CTRL register */
 298:Generated_Source\PSoC6\pdl\drivers/peripheral/tcpwm/cy_tcpwm.h **** #define CY_TCPWM_CNT_COUNTER_DEFAULT        (0x0U) /**< Default value for COUNTER register */
 299:Generated_Source\PSoC6\pdl\drivers/peripheral/tcpwm/cy_tcpwm.h **** #define CY_TCPWM_CNT_CC_DEFAULT             (0xFFFFFFFFU) /**< Default value for CC register */
 300:Generated_Source\PSoC6\pdl\drivers/peripheral/tcpwm/cy_tcpwm.h **** #define CY_TCPWM_CNT_CC_BUFF_DEFAULT        (0xFFFFFFFFU) /**< Default value for CC_BUFF register *
 301:Generated_Source\PSoC6\pdl\drivers/peripheral/tcpwm/cy_tcpwm.h **** #define CY_TCPWM_CNT_PERIOD_DEFAULT         (0xFFFFFFFFU) /**< Default value for PERIOD register */
 302:Generated_Source\PSoC6\pdl\drivers/peripheral/tcpwm/cy_tcpwm.h **** #define CY_TCPWM_CNT_PERIOD_BUFF_DEFAULT    (0xFFFFFFFFU) /**< Default value for PERIOD_BUFF regist
 303:Generated_Source\PSoC6\pdl\drivers/peripheral/tcpwm/cy_tcpwm.h **** #define CY_TCPWM_CNT_TR_CTRL0_DEFAULT       (0x10U)  /**< Default value for TR_CTRL0 register */
 304:Generated_Source\PSoC6\pdl\drivers/peripheral/tcpwm/cy_tcpwm.h **** #define CY_TCPWM_CNT_TR_CTRL1_DEFAULT       (0x3FFU) /**< Default value for TR_CTRL1 register */
 305:Generated_Source\PSoC6\pdl\drivers/peripheral/tcpwm/cy_tcpwm.h **** #define CY_TCPWM_CNT_TR_CTRL2_DEFAULT       (0x3FU)  /**< Default value for TR_CTRL2 register */
 306:Generated_Source\PSoC6\pdl\drivers/peripheral/tcpwm/cy_tcpwm.h **** #define CY_TCPWM_CNT_INTR_DEFAULT           (0x3U)   /**< Default value for INTR register */
 307:Generated_Source\PSoC6\pdl\drivers/peripheral/tcpwm/cy_tcpwm.h **** #define CY_TCPWM_CNT_INTR_SET_DEFAULT       (0x0U)   /**< Default value for INTR_SET register */
 308:Generated_Source\PSoC6\pdl\drivers/peripheral/tcpwm/cy_tcpwm.h **** #define CY_TCPWM_CNT_INTR_MASK_DEFAULT      (0x0U)   /**< Default value for INTR_MASK register */
 309:Generated_Source\PSoC6\pdl\drivers/peripheral/tcpwm/cy_tcpwm.h **** /** \} group_tcpwm_reg_const */
 310:Generated_Source\PSoC6\pdl\drivers/peripheral/tcpwm/cy_tcpwm.h **** 
 311:Generated_Source\PSoC6\pdl\drivers/peripheral/tcpwm/cy_tcpwm.h **** /** Position of Up counting counter status */
 312:Generated_Source\PSoC6\pdl\drivers/peripheral/tcpwm/cy_tcpwm.h **** #define CY_TCPWM_CNT_STATUS_UP_POS          (0x1U)
 313:Generated_Source\PSoC6\pdl\drivers/peripheral/tcpwm/cy_tcpwm.h **** /** Initial value for the counter in the Up counting mode */
 314:Generated_Source\PSoC6\pdl\drivers/peripheral/tcpwm/cy_tcpwm.h **** #define CY_TCPWM_CNT_UP_INIT_VAL            (0x0U)
 315:Generated_Source\PSoC6\pdl\drivers/peripheral/tcpwm/cy_tcpwm.h **** /** Initial value for the counter in the Up/Down counting modes */
 316:Generated_Source\PSoC6\pdl\drivers/peripheral/tcpwm/cy_tcpwm.h **** #define CY_TCPWM_CNT_UP_DOWN_INIT_VAL       (0x1U)
 317:Generated_Source\PSoC6\pdl\drivers/peripheral/tcpwm/cy_tcpwm.h **** /** \} group_tcpwm_macros_common */
 318:Generated_Source\PSoC6\pdl\drivers/peripheral/tcpwm/cy_tcpwm.h **** 
 319:Generated_Source\PSoC6\pdl\drivers/peripheral/tcpwm/cy_tcpwm.h **** 
 320:Generated_Source\PSoC6\pdl\drivers/peripheral/tcpwm/cy_tcpwm.h **** /*******************************************************************************
 321:Generated_Source\PSoC6\pdl\drivers/peripheral/tcpwm/cy_tcpwm.h ****  * Enumerations
 322:Generated_Source\PSoC6\pdl\drivers/peripheral/tcpwm/cy_tcpwm.h ****  ******************************************************************************/
 323:Generated_Source\PSoC6\pdl\drivers/peripheral/tcpwm/cy_tcpwm.h **** 
 324:Generated_Source\PSoC6\pdl\drivers/peripheral/tcpwm/cy_tcpwm.h ****  /**
 325:Generated_Source\PSoC6\pdl\drivers/peripheral/tcpwm/cy_tcpwm.h **** * \addtogroup group_tcpwm_enums
 326:Generated_Source\PSoC6\pdl\drivers/peripheral/tcpwm/cy_tcpwm.h **** * \{
 327:Generated_Source\PSoC6\pdl\drivers/peripheral/tcpwm/cy_tcpwm.h **** */
 328:Generated_Source\PSoC6\pdl\drivers/peripheral/tcpwm/cy_tcpwm.h **** 
 329:Generated_Source\PSoC6\pdl\drivers/peripheral/tcpwm/cy_tcpwm.h **** /** TCPWM status definitions */
ARM GAS  C:\Users\rober\AppData\Local\Temp\ccBCZTBX.s 			page 16


 330:Generated_Source\PSoC6\pdl\drivers/peripheral/tcpwm/cy_tcpwm.h **** typedef enum 
 331:Generated_Source\PSoC6\pdl\drivers/peripheral/tcpwm/cy_tcpwm.h **** {
 332:Generated_Source\PSoC6\pdl\drivers/peripheral/tcpwm/cy_tcpwm.h ****     CY_TCPWM_SUCCESS = 0x00U,                                           /**< Successful */
 333:Generated_Source\PSoC6\pdl\drivers/peripheral/tcpwm/cy_tcpwm.h ****     CY_TCPWM_BAD_PARAM = CY_TCPWM_ID | CY_PDL_STATUS_ERROR | 0x01U,     /**< One or more invalid pa
 334:Generated_Source\PSoC6\pdl\drivers/peripheral/tcpwm/cy_tcpwm.h **** } cy_en_tcpwm_status_t;
 335:Generated_Source\PSoC6\pdl\drivers/peripheral/tcpwm/cy_tcpwm.h **** /** \} group_tcpwm_enums */
 336:Generated_Source\PSoC6\pdl\drivers/peripheral/tcpwm/cy_tcpwm.h ****  
 337:Generated_Source\PSoC6\pdl\drivers/peripheral/tcpwm/cy_tcpwm.h **** /*******************************************************************************
 338:Generated_Source\PSoC6\pdl\drivers/peripheral/tcpwm/cy_tcpwm.h **** *        Function Prototypes
 339:Generated_Source\PSoC6\pdl\drivers/peripheral/tcpwm/cy_tcpwm.h **** *******************************************************************************/
 340:Generated_Source\PSoC6\pdl\drivers/peripheral/tcpwm/cy_tcpwm.h **** 
 341:Generated_Source\PSoC6\pdl\drivers/peripheral/tcpwm/cy_tcpwm.h **** /**
 342:Generated_Source\PSoC6\pdl\drivers/peripheral/tcpwm/cy_tcpwm.h **** * \addtogroup group_tcpwm_functions_common
 343:Generated_Source\PSoC6\pdl\drivers/peripheral/tcpwm/cy_tcpwm.h **** * \{
 344:Generated_Source\PSoC6\pdl\drivers/peripheral/tcpwm/cy_tcpwm.h **** */
 345:Generated_Source\PSoC6\pdl\drivers/peripheral/tcpwm/cy_tcpwm.h **** 
 346:Generated_Source\PSoC6\pdl\drivers/peripheral/tcpwm/cy_tcpwm.h **** __STATIC_INLINE void Cy_TCPWM_Enable_Multiple(TCPWM_Type *base, uint32_t counters);
 347:Generated_Source\PSoC6\pdl\drivers/peripheral/tcpwm/cy_tcpwm.h **** __STATIC_INLINE void Cy_TCPWM_Disable_Multiple(TCPWM_Type *base, uint32_t counters);
 348:Generated_Source\PSoC6\pdl\drivers/peripheral/tcpwm/cy_tcpwm.h **** __STATIC_INLINE void Cy_TCPWM_TriggerStart(TCPWM_Type *base, uint32_t counters);
 349:Generated_Source\PSoC6\pdl\drivers/peripheral/tcpwm/cy_tcpwm.h **** __STATIC_INLINE void Cy_TCPWM_TriggerReloadOrIndex(TCPWM_Type *base, uint32_t counters);
 350:Generated_Source\PSoC6\pdl\drivers/peripheral/tcpwm/cy_tcpwm.h **** __STATIC_INLINE void Cy_TCPWM_TriggerStopOrKill(TCPWM_Type *base, uint32_t counters);
 351:Generated_Source\PSoC6\pdl\drivers/peripheral/tcpwm/cy_tcpwm.h **** __STATIC_INLINE void Cy_TCPWM_TriggerCaptureOrSwap(TCPWM_Type *base, uint32_t counters);
 352:Generated_Source\PSoC6\pdl\drivers/peripheral/tcpwm/cy_tcpwm.h **** __STATIC_INLINE uint32_t Cy_TCPWM_GetInterruptStatus(TCPWM_Type const *base, uint32_t cntNum);
 353:Generated_Source\PSoC6\pdl\drivers/peripheral/tcpwm/cy_tcpwm.h **** __STATIC_INLINE void Cy_TCPWM_ClearInterrupt(TCPWM_Type *base, uint32_t cntNum, uint32_t source);
 354:Generated_Source\PSoC6\pdl\drivers/peripheral/tcpwm/cy_tcpwm.h **** __STATIC_INLINE void Cy_TCPWM_SetInterrupt(TCPWM_Type *base, uint32_t cntNum, uint32_t source);
 355:Generated_Source\PSoC6\pdl\drivers/peripheral/tcpwm/cy_tcpwm.h **** __STATIC_INLINE void Cy_TCPWM_SetInterruptMask(TCPWM_Type *base, uint32_t cntNum, uint32_t mask);
 356:Generated_Source\PSoC6\pdl\drivers/peripheral/tcpwm/cy_tcpwm.h **** __STATIC_INLINE uint32_t Cy_TCPWM_GetInterruptMask(TCPWM_Type const *base, uint32_t cntNum);
 357:Generated_Source\PSoC6\pdl\drivers/peripheral/tcpwm/cy_tcpwm.h **** __STATIC_INLINE uint32_t Cy_TCPWM_GetInterruptStatusMasked(TCPWM_Type const *base, uint32_t cntNum)
 358:Generated_Source\PSoC6\pdl\drivers/peripheral/tcpwm/cy_tcpwm.h **** 
 359:Generated_Source\PSoC6\pdl\drivers/peripheral/tcpwm/cy_tcpwm.h **** 
 360:Generated_Source\PSoC6\pdl\drivers/peripheral/tcpwm/cy_tcpwm.h **** /*******************************************************************************
 361:Generated_Source\PSoC6\pdl\drivers/peripheral/tcpwm/cy_tcpwm.h **** * Function Name: Cy_TCPWM_Enable_Multiple
 362:Generated_Source\PSoC6\pdl\drivers/peripheral/tcpwm/cy_tcpwm.h **** ****************************************************************************//**
 363:Generated_Source\PSoC6\pdl\drivers/peripheral/tcpwm/cy_tcpwm.h **** *
 364:Generated_Source\PSoC6\pdl\drivers/peripheral/tcpwm/cy_tcpwm.h **** * Enables the counter(s) in the TCPWM block. Multiple blocks can be started 
 365:Generated_Source\PSoC6\pdl\drivers/peripheral/tcpwm/cy_tcpwm.h **** * simultaneously.
 366:Generated_Source\PSoC6\pdl\drivers/peripheral/tcpwm/cy_tcpwm.h **** *
 367:Generated_Source\PSoC6\pdl\drivers/peripheral/tcpwm/cy_tcpwm.h **** * \param base
 368:Generated_Source\PSoC6\pdl\drivers/peripheral/tcpwm/cy_tcpwm.h **** * The pointer to a TCPWM instance.
 369:Generated_Source\PSoC6\pdl\drivers/peripheral/tcpwm/cy_tcpwm.h **** *
 370:Generated_Source\PSoC6\pdl\drivers/peripheral/tcpwm/cy_tcpwm.h **** * \param counters
 371:Generated_Source\PSoC6\pdl\drivers/peripheral/tcpwm/cy_tcpwm.h **** * A bit field representing each counter in the TCPWM block.
 372:Generated_Source\PSoC6\pdl\drivers/peripheral/tcpwm/cy_tcpwm.h **** *
 373:Generated_Source\PSoC6\pdl\drivers/peripheral/tcpwm/cy_tcpwm.h **** * \funcusage
 374:Generated_Source\PSoC6\pdl\drivers/peripheral/tcpwm/cy_tcpwm.h **** * \snippet tcpwm/tcpwm_v1_0_counter_sut_01.cydsn/main_cm4.c snippet_Cy_TCPWM_Enable_Multiple
 375:Generated_Source\PSoC6\pdl\drivers/peripheral/tcpwm/cy_tcpwm.h **** *
 376:Generated_Source\PSoC6\pdl\drivers/peripheral/tcpwm/cy_tcpwm.h **** *******************************************************************************/
 377:Generated_Source\PSoC6\pdl\drivers/peripheral/tcpwm/cy_tcpwm.h **** __STATIC_INLINE void Cy_TCPWM_Enable_Multiple(TCPWM_Type *base, uint32_t counters)
 378:Generated_Source\PSoC6\pdl\drivers/peripheral/tcpwm/cy_tcpwm.h **** {
 379:Generated_Source\PSoC6\pdl\drivers/peripheral/tcpwm/cy_tcpwm.h ****     base->CTRL_SET = counters;
 380:Generated_Source\PSoC6\pdl\drivers/peripheral/tcpwm/cy_tcpwm.h **** }
 381:Generated_Source\PSoC6\pdl\drivers/peripheral/tcpwm/cy_tcpwm.h **** 
 382:Generated_Source\PSoC6\pdl\drivers/peripheral/tcpwm/cy_tcpwm.h **** 
 383:Generated_Source\PSoC6\pdl\drivers/peripheral/tcpwm/cy_tcpwm.h **** /*******************************************************************************
 384:Generated_Source\PSoC6\pdl\drivers/peripheral/tcpwm/cy_tcpwm.h **** * Function Name: Cy_TCPWM_Disable_Multiple
 385:Generated_Source\PSoC6\pdl\drivers/peripheral/tcpwm/cy_tcpwm.h **** ****************************************************************************//**
 386:Generated_Source\PSoC6\pdl\drivers/peripheral/tcpwm/cy_tcpwm.h **** *
ARM GAS  C:\Users\rober\AppData\Local\Temp\ccBCZTBX.s 			page 17


 387:Generated_Source\PSoC6\pdl\drivers/peripheral/tcpwm/cy_tcpwm.h **** * Disables the counter(s) in the TCPWM block. Multiple TCPWM can be disabled 
 388:Generated_Source\PSoC6\pdl\drivers/peripheral/tcpwm/cy_tcpwm.h **** * simultaneously.
 389:Generated_Source\PSoC6\pdl\drivers/peripheral/tcpwm/cy_tcpwm.h **** *
 390:Generated_Source\PSoC6\pdl\drivers/peripheral/tcpwm/cy_tcpwm.h **** * \param base
 391:Generated_Source\PSoC6\pdl\drivers/peripheral/tcpwm/cy_tcpwm.h **** * The pointer to a TCPWM instance.
 392:Generated_Source\PSoC6\pdl\drivers/peripheral/tcpwm/cy_tcpwm.h **** *
 393:Generated_Source\PSoC6\pdl\drivers/peripheral/tcpwm/cy_tcpwm.h **** * \param counters
 394:Generated_Source\PSoC6\pdl\drivers/peripheral/tcpwm/cy_tcpwm.h **** * A bit field representing each counter in the TCPWM block.
 395:Generated_Source\PSoC6\pdl\drivers/peripheral/tcpwm/cy_tcpwm.h **** *
 396:Generated_Source\PSoC6\pdl\drivers/peripheral/tcpwm/cy_tcpwm.h **** * \funcusage
 397:Generated_Source\PSoC6\pdl\drivers/peripheral/tcpwm/cy_tcpwm.h **** * \snippet tcpwm/tcpwm_v1_0_counter_sut_01.cydsn/main_cm4.c snippet_Cy_TCPWM_Disable_Multiple
 398:Generated_Source\PSoC6\pdl\drivers/peripheral/tcpwm/cy_tcpwm.h **** *
 399:Generated_Source\PSoC6\pdl\drivers/peripheral/tcpwm/cy_tcpwm.h **** *******************************************************************************/
 400:Generated_Source\PSoC6\pdl\drivers/peripheral/tcpwm/cy_tcpwm.h **** __STATIC_INLINE void Cy_TCPWM_Disable_Multiple(TCPWM_Type *base, uint32_t counters)
 401:Generated_Source\PSoC6\pdl\drivers/peripheral/tcpwm/cy_tcpwm.h **** {
 402:Generated_Source\PSoC6\pdl\drivers/peripheral/tcpwm/cy_tcpwm.h ****     base->CTRL_CLR = counters;
 403:Generated_Source\PSoC6\pdl\drivers/peripheral/tcpwm/cy_tcpwm.h **** }
 404:Generated_Source\PSoC6\pdl\drivers/peripheral/tcpwm/cy_tcpwm.h **** 
 405:Generated_Source\PSoC6\pdl\drivers/peripheral/tcpwm/cy_tcpwm.h **** 
 406:Generated_Source\PSoC6\pdl\drivers/peripheral/tcpwm/cy_tcpwm.h **** /*******************************************************************************
 407:Generated_Source\PSoC6\pdl\drivers/peripheral/tcpwm/cy_tcpwm.h **** * Function Name: Cy_TCPWM_TriggerStart
 408:Generated_Source\PSoC6\pdl\drivers/peripheral/tcpwm/cy_tcpwm.h **** ****************************************************************************//**
 409:Generated_Source\PSoC6\pdl\drivers/peripheral/tcpwm/cy_tcpwm.h **** *
 410:Generated_Source\PSoC6\pdl\drivers/peripheral/tcpwm/cy_tcpwm.h **** * Triggers a software start on the selected TCPWMs.
 411:Generated_Source\PSoC6\pdl\drivers/peripheral/tcpwm/cy_tcpwm.h **** *
 412:Generated_Source\PSoC6\pdl\drivers/peripheral/tcpwm/cy_tcpwm.h **** * \param base
 413:Generated_Source\PSoC6\pdl\drivers/peripheral/tcpwm/cy_tcpwm.h **** * The pointer to a TCPWM instance.
 414:Generated_Source\PSoC6\pdl\drivers/peripheral/tcpwm/cy_tcpwm.h **** *
 415:Generated_Source\PSoC6\pdl\drivers/peripheral/tcpwm/cy_tcpwm.h **** * \param counters
 416:Generated_Source\PSoC6\pdl\drivers/peripheral/tcpwm/cy_tcpwm.h **** * A bit field representing each counter in the TCPWM block.
 417:Generated_Source\PSoC6\pdl\drivers/peripheral/tcpwm/cy_tcpwm.h **** *
 418:Generated_Source\PSoC6\pdl\drivers/peripheral/tcpwm/cy_tcpwm.h **** * \funcusage
 419:Generated_Source\PSoC6\pdl\drivers/peripheral/tcpwm/cy_tcpwm.h **** * \snippet tcpwm/tcpwm_v1_0_counter_sut_01.cydsn/main_cm4.c snippet_Cy_TCPWM_Enable_Multiple
 420:Generated_Source\PSoC6\pdl\drivers/peripheral/tcpwm/cy_tcpwm.h **** *
 421:Generated_Source\PSoC6\pdl\drivers/peripheral/tcpwm/cy_tcpwm.h **** *******************************************************************************/
 422:Generated_Source\PSoC6\pdl\drivers/peripheral/tcpwm/cy_tcpwm.h **** __STATIC_INLINE  void Cy_TCPWM_TriggerStart(TCPWM_Type *base, uint32_t counters)
 423:Generated_Source\PSoC6\pdl\drivers/peripheral/tcpwm/cy_tcpwm.h **** {
 424:Generated_Source\PSoC6\pdl\drivers/peripheral/tcpwm/cy_tcpwm.h ****     base->CMD_START = counters;
 425:Generated_Source\PSoC6\pdl\drivers/peripheral/tcpwm/cy_tcpwm.h **** }
 426:Generated_Source\PSoC6\pdl\drivers/peripheral/tcpwm/cy_tcpwm.h **** 
 427:Generated_Source\PSoC6\pdl\drivers/peripheral/tcpwm/cy_tcpwm.h **** 
 428:Generated_Source\PSoC6\pdl\drivers/peripheral/tcpwm/cy_tcpwm.h **** /*******************************************************************************
 429:Generated_Source\PSoC6\pdl\drivers/peripheral/tcpwm/cy_tcpwm.h **** * Function Name: Cy_TCPWM_TriggerReloadOrIndex
 430:Generated_Source\PSoC6\pdl\drivers/peripheral/tcpwm/cy_tcpwm.h **** ****************************************************************************//**
 431:Generated_Source\PSoC6\pdl\drivers/peripheral/tcpwm/cy_tcpwm.h **** *
 432:Generated_Source\PSoC6\pdl\drivers/peripheral/tcpwm/cy_tcpwm.h **** * Triggers a software reload event (or index in QuadDec mode).
 433:Generated_Source\PSoC6\pdl\drivers/peripheral/tcpwm/cy_tcpwm.h **** *
 434:Generated_Source\PSoC6\pdl\drivers/peripheral/tcpwm/cy_tcpwm.h **** * \param base
 435:Generated_Source\PSoC6\pdl\drivers/peripheral/tcpwm/cy_tcpwm.h **** * The pointer to a TCPWM instance
 436:Generated_Source\PSoC6\pdl\drivers/peripheral/tcpwm/cy_tcpwm.h **** *
 437:Generated_Source\PSoC6\pdl\drivers/peripheral/tcpwm/cy_tcpwm.h **** * \param counters
 438:Generated_Source\PSoC6\pdl\drivers/peripheral/tcpwm/cy_tcpwm.h **** * A bit field representing each counter in the TCPWM block.
 439:Generated_Source\PSoC6\pdl\drivers/peripheral/tcpwm/cy_tcpwm.h **** *
 440:Generated_Source\PSoC6\pdl\drivers/peripheral/tcpwm/cy_tcpwm.h **** * \funcusage
 441:Generated_Source\PSoC6\pdl\drivers/peripheral/tcpwm/cy_tcpwm.h **** * \snippet tcpwm/tcpwm_v1_0_counter_sut_01.cydsn/main_cm4.c snippet_Cy_TCPWM_TriggerReloadOrIndex
 442:Generated_Source\PSoC6\pdl\drivers/peripheral/tcpwm/cy_tcpwm.h **** *
 443:Generated_Source\PSoC6\pdl\drivers/peripheral/tcpwm/cy_tcpwm.h **** *******************************************************************************/
ARM GAS  C:\Users\rober\AppData\Local\Temp\ccBCZTBX.s 			page 18


 444:Generated_Source\PSoC6\pdl\drivers/peripheral/tcpwm/cy_tcpwm.h **** __STATIC_INLINE void Cy_TCPWM_TriggerReloadOrIndex(TCPWM_Type *base, uint32_t counters)
 445:Generated_Source\PSoC6\pdl\drivers/peripheral/tcpwm/cy_tcpwm.h **** {
 446:Generated_Source\PSoC6\pdl\drivers/peripheral/tcpwm/cy_tcpwm.h ****     base->CMD_RELOAD = counters;
 447:Generated_Source\PSoC6\pdl\drivers/peripheral/tcpwm/cy_tcpwm.h **** }
 448:Generated_Source\PSoC6\pdl\drivers/peripheral/tcpwm/cy_tcpwm.h **** 
 449:Generated_Source\PSoC6\pdl\drivers/peripheral/tcpwm/cy_tcpwm.h **** 
 450:Generated_Source\PSoC6\pdl\drivers/peripheral/tcpwm/cy_tcpwm.h **** /*******************************************************************************
 451:Generated_Source\PSoC6\pdl\drivers/peripheral/tcpwm/cy_tcpwm.h **** * Function Name: Cy_TCPWM_TriggerStopOrKill
 452:Generated_Source\PSoC6\pdl\drivers/peripheral/tcpwm/cy_tcpwm.h **** ****************************************************************************//**
 453:Generated_Source\PSoC6\pdl\drivers/peripheral/tcpwm/cy_tcpwm.h **** *
 454:Generated_Source\PSoC6\pdl\drivers/peripheral/tcpwm/cy_tcpwm.h **** * Triggers a stop in the Timer Counter mode, or a kill in the PWM mode.
 455:Generated_Source\PSoC6\pdl\drivers/peripheral/tcpwm/cy_tcpwm.h **** *
 456:Generated_Source\PSoC6\pdl\drivers/peripheral/tcpwm/cy_tcpwm.h **** * \param base
 457:Generated_Source\PSoC6\pdl\drivers/peripheral/tcpwm/cy_tcpwm.h **** * The pointer to a TCPWM instance.
 458:Generated_Source\PSoC6\pdl\drivers/peripheral/tcpwm/cy_tcpwm.h **** *
 459:Generated_Source\PSoC6\pdl\drivers/peripheral/tcpwm/cy_tcpwm.h **** * \param counters
 460:Generated_Source\PSoC6\pdl\drivers/peripheral/tcpwm/cy_tcpwm.h **** * A bit field representing each counter in the TCPWM block.
 461:Generated_Source\PSoC6\pdl\drivers/peripheral/tcpwm/cy_tcpwm.h **** *
 462:Generated_Source\PSoC6\pdl\drivers/peripheral/tcpwm/cy_tcpwm.h **** * \funcusage
 463:Generated_Source\PSoC6\pdl\drivers/peripheral/tcpwm/cy_tcpwm.h **** * \snippet tcpwm/tcpwm_v1_0_counter_sut_01.cydsn/main_cm4.c snippet_Cy_TCPWM_TriggerStopOrKill
 464:Generated_Source\PSoC6\pdl\drivers/peripheral/tcpwm/cy_tcpwm.h **** *
 465:Generated_Source\PSoC6\pdl\drivers/peripheral/tcpwm/cy_tcpwm.h **** *******************************************************************************/
 466:Generated_Source\PSoC6\pdl\drivers/peripheral/tcpwm/cy_tcpwm.h **** __STATIC_INLINE void Cy_TCPWM_TriggerStopOrKill(TCPWM_Type *base, uint32_t counters)
 467:Generated_Source\PSoC6\pdl\drivers/peripheral/tcpwm/cy_tcpwm.h **** {
 468:Generated_Source\PSoC6\pdl\drivers/peripheral/tcpwm/cy_tcpwm.h ****     base->CMD_STOP = counters;
 469:Generated_Source\PSoC6\pdl\drivers/peripheral/tcpwm/cy_tcpwm.h **** }
 470:Generated_Source\PSoC6\pdl\drivers/peripheral/tcpwm/cy_tcpwm.h **** 
 471:Generated_Source\PSoC6\pdl\drivers/peripheral/tcpwm/cy_tcpwm.h **** 
 472:Generated_Source\PSoC6\pdl\drivers/peripheral/tcpwm/cy_tcpwm.h **** /*******************************************************************************
 473:Generated_Source\PSoC6\pdl\drivers/peripheral/tcpwm/cy_tcpwm.h **** * Function Name: Cy_TCPWM_TriggerCaptureOrSwap
 474:Generated_Source\PSoC6\pdl\drivers/peripheral/tcpwm/cy_tcpwm.h **** ****************************************************************************//**
 475:Generated_Source\PSoC6\pdl\drivers/peripheral/tcpwm/cy_tcpwm.h **** *
 476:Generated_Source\PSoC6\pdl\drivers/peripheral/tcpwm/cy_tcpwm.h **** * Triggers a Capture in the Timer Counter mode, and a Swap in the PWM mode.
 477:Generated_Source\PSoC6\pdl\drivers/peripheral/tcpwm/cy_tcpwm.h **** *
 478:Generated_Source\PSoC6\pdl\drivers/peripheral/tcpwm/cy_tcpwm.h **** * \param base
 479:Generated_Source\PSoC6\pdl\drivers/peripheral/tcpwm/cy_tcpwm.h **** * The pointer to a TCPWM instance.
 480:Generated_Source\PSoC6\pdl\drivers/peripheral/tcpwm/cy_tcpwm.h **** *
 481:Generated_Source\PSoC6\pdl\drivers/peripheral/tcpwm/cy_tcpwm.h **** * \param counters
 482:Generated_Source\PSoC6\pdl\drivers/peripheral/tcpwm/cy_tcpwm.h **** * A bit field representing each counter in the TCPWM block.
 483:Generated_Source\PSoC6\pdl\drivers/peripheral/tcpwm/cy_tcpwm.h **** *
 484:Generated_Source\PSoC6\pdl\drivers/peripheral/tcpwm/cy_tcpwm.h **** * \funcusage
 485:Generated_Source\PSoC6\pdl\drivers/peripheral/tcpwm/cy_tcpwm.h **** * \snippet tcpwm/tcpwm_v1_0_counter_sut_01.cydsn/main_cm4.c snippet_Cy_TCPWM_Counter_Capture
 486:Generated_Source\PSoC6\pdl\drivers/peripheral/tcpwm/cy_tcpwm.h **** *
 487:Generated_Source\PSoC6\pdl\drivers/peripheral/tcpwm/cy_tcpwm.h **** *******************************************************************************/
 488:Generated_Source\PSoC6\pdl\drivers/peripheral/tcpwm/cy_tcpwm.h **** __STATIC_INLINE void Cy_TCPWM_TriggerCaptureOrSwap(TCPWM_Type *base, uint32_t counters)
 489:Generated_Source\PSoC6\pdl\drivers/peripheral/tcpwm/cy_tcpwm.h **** {
 490:Generated_Source\PSoC6\pdl\drivers/peripheral/tcpwm/cy_tcpwm.h ****     base->CMD_CAPTURE = counters;
 491:Generated_Source\PSoC6\pdl\drivers/peripheral/tcpwm/cy_tcpwm.h **** }
 492:Generated_Source\PSoC6\pdl\drivers/peripheral/tcpwm/cy_tcpwm.h **** 
 493:Generated_Source\PSoC6\pdl\drivers/peripheral/tcpwm/cy_tcpwm.h **** 
 494:Generated_Source\PSoC6\pdl\drivers/peripheral/tcpwm/cy_tcpwm.h **** /*******************************************************************************
 495:Generated_Source\PSoC6\pdl\drivers/peripheral/tcpwm/cy_tcpwm.h **** * Function Name: Cy_TCPWM_GetInterruptStatus
 496:Generated_Source\PSoC6\pdl\drivers/peripheral/tcpwm/cy_tcpwm.h **** ****************************************************************************//**
 497:Generated_Source\PSoC6\pdl\drivers/peripheral/tcpwm/cy_tcpwm.h **** *
 498:Generated_Source\PSoC6\pdl\drivers/peripheral/tcpwm/cy_tcpwm.h **** * Returns which event triggered the interrupt.
 499:Generated_Source\PSoC6\pdl\drivers/peripheral/tcpwm/cy_tcpwm.h **** *
 500:Generated_Source\PSoC6\pdl\drivers/peripheral/tcpwm/cy_tcpwm.h **** * \param base
ARM GAS  C:\Users\rober\AppData\Local\Temp\ccBCZTBX.s 			page 19


 501:Generated_Source\PSoC6\pdl\drivers/peripheral/tcpwm/cy_tcpwm.h **** * The pointer to a TCPWM instance.
 502:Generated_Source\PSoC6\pdl\drivers/peripheral/tcpwm/cy_tcpwm.h **** *
 503:Generated_Source\PSoC6\pdl\drivers/peripheral/tcpwm/cy_tcpwm.h **** * \param cntNum 
 504:Generated_Source\PSoC6\pdl\drivers/peripheral/tcpwm/cy_tcpwm.h **** * The Counter instance number in the selected TCPWM.
 505:Generated_Source\PSoC6\pdl\drivers/peripheral/tcpwm/cy_tcpwm.h **** *
 506:Generated_Source\PSoC6\pdl\drivers/peripheral/tcpwm/cy_tcpwm.h **** * \return 
 507:Generated_Source\PSoC6\pdl\drivers/peripheral/tcpwm/cy_tcpwm.h **** *. See \ref group_tcpwm_interrupt_sources
 508:Generated_Source\PSoC6\pdl\drivers/peripheral/tcpwm/cy_tcpwm.h **** *
 509:Generated_Source\PSoC6\pdl\drivers/peripheral/tcpwm/cy_tcpwm.h **** * \funcusage
 510:Generated_Source\PSoC6\pdl\drivers/peripheral/tcpwm/cy_tcpwm.h **** * \snippet tcpwm/tcpwm_v1_0_counter_sut_01.cydsn/main_cm4.c snippet_Cy_TCPWM_GetInterruptStatus
 511:Generated_Source\PSoC6\pdl\drivers/peripheral/tcpwm/cy_tcpwm.h **** *
 512:Generated_Source\PSoC6\pdl\drivers/peripheral/tcpwm/cy_tcpwm.h **** *******************************************************************************/
 513:Generated_Source\PSoC6\pdl\drivers/peripheral/tcpwm/cy_tcpwm.h **** __STATIC_INLINE uint32_t Cy_TCPWM_GetInterruptStatus(TCPWM_Type const *base, uint32_t cntNum)
 514:Generated_Source\PSoC6\pdl\drivers/peripheral/tcpwm/cy_tcpwm.h **** {
 515:Generated_Source\PSoC6\pdl\drivers/peripheral/tcpwm/cy_tcpwm.h ****     return(base->CNT[cntNum].INTR);
 516:Generated_Source\PSoC6\pdl\drivers/peripheral/tcpwm/cy_tcpwm.h **** }
 517:Generated_Source\PSoC6\pdl\drivers/peripheral/tcpwm/cy_tcpwm.h **** 
 518:Generated_Source\PSoC6\pdl\drivers/peripheral/tcpwm/cy_tcpwm.h **** 
 519:Generated_Source\PSoC6\pdl\drivers/peripheral/tcpwm/cy_tcpwm.h **** /*******************************************************************************
 520:Generated_Source\PSoC6\pdl\drivers/peripheral/tcpwm/cy_tcpwm.h **** * Function Name: Cy_TCPWM_ClearInterrupt
 521:Generated_Source\PSoC6\pdl\drivers/peripheral/tcpwm/cy_tcpwm.h **** ****************************************************************************//**
 522:Generated_Source\PSoC6\pdl\drivers/peripheral/tcpwm/cy_tcpwm.h **** *
 523:Generated_Source\PSoC6\pdl\drivers/peripheral/tcpwm/cy_tcpwm.h **** * Clears Active Interrupt Source
 524:Generated_Source\PSoC6\pdl\drivers/peripheral/tcpwm/cy_tcpwm.h **** *
 525:Generated_Source\PSoC6\pdl\drivers/peripheral/tcpwm/cy_tcpwm.h **** * \param base
 526:Generated_Source\PSoC6\pdl\drivers/peripheral/tcpwm/cy_tcpwm.h **** * The pointer to a TCPWM instance.
 527:Generated_Source\PSoC6\pdl\drivers/peripheral/tcpwm/cy_tcpwm.h **** *
 528:Generated_Source\PSoC6\pdl\drivers/peripheral/tcpwm/cy_tcpwm.h **** * \param cntNum 
 529:Generated_Source\PSoC6\pdl\drivers/peripheral/tcpwm/cy_tcpwm.h **** * The Counter instance number in the selected TCPWM.
 530:Generated_Source\PSoC6\pdl\drivers/peripheral/tcpwm/cy_tcpwm.h **** *
 531:Generated_Source\PSoC6\pdl\drivers/peripheral/tcpwm/cy_tcpwm.h **** * \param source
 532:Generated_Source\PSoC6\pdl\drivers/peripheral/tcpwm/cy_tcpwm.h **** * source to clear. See \ref group_tcpwm_interrupt_sources
 533:Generated_Source\PSoC6\pdl\drivers/peripheral/tcpwm/cy_tcpwm.h **** *
 534:Generated_Source\PSoC6\pdl\drivers/peripheral/tcpwm/cy_tcpwm.h **** * \funcusage
 535:Generated_Source\PSoC6\pdl\drivers/peripheral/tcpwm/cy_tcpwm.h **** * \snippet tcpwm/tcpwm_v1_0_counter_sut_01.cydsn/main_cm4.c snippet_Cy_TCPWM_GetInterruptStatusMask
 536:Generated_Source\PSoC6\pdl\drivers/peripheral/tcpwm/cy_tcpwm.h **** *
 537:Generated_Source\PSoC6\pdl\drivers/peripheral/tcpwm/cy_tcpwm.h **** *******************************************************************************/
 538:Generated_Source\PSoC6\pdl\drivers/peripheral/tcpwm/cy_tcpwm.h **** __STATIC_INLINE void Cy_TCPWM_ClearInterrupt(TCPWM_Type *base, uint32_t cntNum,  uint32_t source)
 539:Generated_Source\PSoC6\pdl\drivers/peripheral/tcpwm/cy_tcpwm.h **** {
 540:Generated_Source\PSoC6\pdl\drivers/peripheral/tcpwm/cy_tcpwm.h ****     base->CNT[cntNum].INTR = source;
  95              		.loc 2 540 0
  96 0002 294B     		ldr	r3, .L9
  97 0004 0122     		movs	r2, #1
  98 0006 C3F87021 		str	r2, [r3, #368]
 541:Generated_Source\PSoC6\pdl\drivers/peripheral/tcpwm/cy_tcpwm.h ****     (void)base->CNT[cntNum].INTR;
  99              		.loc 2 541 0
 100 000a D3F87031 		ldr	r3, [r3, #368]
 101              	.LVL8:
 102              	.LBE24:
 103              	.LBE23:
 433:main_cm4.c    ****     /* Clear the terminal count interrupt */
 434:main_cm4.c    ****     Cy_TCPWM_ClearInterrupt(Timer_HW, Timer_CNT_NUM, CY_TCPWM_INT_ON_TC);
 435:main_cm4.c    ****     
 436:main_cm4.c    ****     if(programStarted)
 104              		.loc 1 436 0
 105 000e 274B     		ldr	r3, .L9+4
 106 0010 93F8B835 		ldrb	r3, [r3, #1464]	@ zero_extendqisi2
ARM GAS  C:\Users\rober\AppData\Local\Temp\ccBCZTBX.s 			page 20


 107 0014 002B     		cmp	r3, #0
 108 0016 46D0     		beq	.L5
 109              	.LVL9:
 110              	.LBB25:
 437:main_cm4.c    ****     {
 438:main_cm4.c    ****         int min = 0;
 439:main_cm4.c    ****         int max = 300;
 440:main_cm4.c    ****         static int pointCounter = 10;
 441:main_cm4.c    ****     
 442:main_cm4.c    ****         static int randomTemperature1 = 0;
 443:main_cm4.c    ****         static int randomTemperature2 = 0;
 444:main_cm4.c    ****             
 445:main_cm4.c    ****         randomTemperature2 = (rand() % (max - min + 1)) + min;
 111              		.loc 1 445 0
 112 0018 FFF7FEFF 		bl	rand
 113              	.LVL10:
 114 001c 244B     		ldr	r3, .L9+8
 115 001e 83FB0032 		smull	r3, r2, r3, r0
 116 0022 C317     		asrs	r3, r0, #31
 117 0024 C3EB6213 		rsb	r3, r3, r2, asr #5
 118 0028 40F22D12 		movw	r2, #301
 119 002c 02FB1303 		mls	r3, r2, r3, r0
 120 0030 1E4C     		ldr	r4, .L9+4
 121 0032 C4F8BC35 		str	r3, [r4, #1468]
 446:main_cm4.c    ****             
 447:main_cm4.c    ****         GUI_DrawLine((pointCounter-10) / 2 + 30, 150 - randomTemperature1/2, pointCounter / 2 + 30,
 122              		.loc 1 447 0
 123 0036 1F4D     		ldr	r5, .L9+12
 124 0038 2A68     		ldr	r2, [r5]
 125 003a A2F10A00 		sub	r0, r2, #10
 126 003e 00EBD070 		add	r0, r0, r0, lsr #31
 127 0042 4010     		asrs	r0, r0, #1
 128 0044 D4F8C015 		ldr	r1, [r4, #1472]
 129 0048 01EBD171 		add	r1, r1, r1, lsr #31
 130 004c 4910     		asrs	r1, r1, #1
 131 004e 02EBD272 		add	r2, r2, r2, lsr #31
 132 0052 5210     		asrs	r2, r2, #1
 133 0054 03EBD373 		add	r3, r3, r3, lsr #31
 134 0058 5B10     		asrs	r3, r3, #1
 135 005a C3F19603 		rsb	r3, r3, #150
 136 005e 1E32     		adds	r2, r2, #30
 137 0060 C1F19601 		rsb	r1, r1, #150
 138 0064 1E30     		adds	r0, r0, #30
 139 0066 FFF7FEFF 		bl	GUI_DrawLine
 140              	.LVL11:
 448:main_cm4.c    **** 
 449:main_cm4.c    ****         UpdateDisplay(CY_EINK_PARTIAL, true);
 141              		.loc 1 449 0
 142 006a 0121     		movs	r1, #1
 143 006c 0020     		movs	r0, #0
 144 006e FFF7FEFF 		bl	UpdateDisplay
 145              	.LVL12:
 450:main_cm4.c    ****         randomTemperature1 = randomTemperature2;
 146              		.loc 1 450 0
 147 0072 D4F8BC35 		ldr	r3, [r4, #1468]
 148 0076 C4F8C035 		str	r3, [r4, #1472]
 451:main_cm4.c    ****         pointCounter+=10;
ARM GAS  C:\Users\rober\AppData\Local\Temp\ccBCZTBX.s 			page 21


 149              		.loc 1 451 0
 150 007a 2B68     		ldr	r3, [r5]
 151 007c 0A33     		adds	r3, r3, #10
 152 007e 2B60     		str	r3, [r5]
 452:main_cm4.c    ****         
 453:main_cm4.c    ****         if(Status_SW2_Read() == 0 || pointCounter >= maxTimeInGraph){
 153              		.loc 1 453 0
 154 0080 FFF7FEFF 		bl	Status_SW2_Read
 155              	.LVL13:
 156 0084 20B1     		cbz	r0, .L7
 157              		.loc 1 453 0 is_stmt 0 discriminator 1
 158 0086 2A68     		ldr	r2, [r5]
 159 0088 D4F8C435 		ldr	r3, [r4, #1476]
 160 008c 9A42     		cmp	r2, r3
 161 008e 0ADB     		blt	.L5
 162              	.L7:
 454:main_cm4.c    ****             programStarted = false;
 163              		.loc 1 454 0 is_stmt 1
 164 0090 064B     		ldr	r3, .L9+4
 165 0092 0022     		movs	r2, #0
 166 0094 83F8B825 		strb	r2, [r3, #1464]
 455:main_cm4.c    ****             pointCounter = 10;
 167              		.loc 1 455 0
 168 0098 0A20     		movs	r0, #10
 169 009a 0649     		ldr	r1, .L9+12
 170 009c 0860     		str	r0, [r1]
 456:main_cm4.c    ****             randomTemperature1 = 0;
 171              		.loc 1 456 0
 172 009e C3F8C025 		str	r2, [r3, #1472]
 457:main_cm4.c    ****             randomTemperature2 = 0;
 173              		.loc 1 457 0
 174 00a2 C3F8BC25 		str	r2, [r3, #1468]
 175              	.LVL14:
 176              	.L5:
 177 00a6 38BD     		pop	{r3, r4, r5, pc}
 178              	.L10:
 179              		.align	2
 180              	.L9:
 181 00a8 00003840 		.word	1077411840
 182 00ac F8100000 		.word	.LANCHOR1
 183 00b0 4B48371B 		.word	456607819
 184 00b4 00000000 		.word	.LANCHOR2
 185              	.LBE25:
 186              		.cfi_endproc
 187              	.LFE611:
 188              		.size	TimerInterruptHandler, .-TimerInterruptHandler
 189              		.section	.text.ShowStartupScreen,"ax",%progbits
 190              		.align	2
 191              		.global	ShowStartupScreen
 192              		.thumb
 193              		.thumb_func
 194              		.type	ShowStartupScreen, %function
 195              	ShowStartupScreen:
 196              	.LFB605:
 126:main_cm4.c    ****     /* Set foreground and background color and font size */
 197              		.loc 1 126 0
 198              		.cfi_startproc
ARM GAS  C:\Users\rober\AppData\Local\Temp\ccBCZTBX.s 			page 22


 199              		@ args = 0, pretend = 0, frame = 0
 200              		@ frame_needed = 0, uses_anonymous_args = 0
 201 0000 08B5     		push	{r3, lr}
 202              		.cfi_def_cfa_offset 8
 203              		.cfi_offset 3, -8
 204              		.cfi_offset 14, -4
 128:main_cm4.c    ****     GUI_SetColor(GUI_BLACK);
 205              		.loc 1 128 0
 206 0002 1748     		ldr	r0, .L13
 207 0004 FFF7FEFF 		bl	GUI_SetFont
 208              	.LVL15:
 129:main_cm4.c    ****     GUI_SetBkColor(GUI_WHITE);
 209              		.loc 1 129 0
 210 0008 0020     		movs	r0, #0
 211 000a FFF7FEFF 		bl	GUI_SetColor
 212              	.LVL16:
 130:main_cm4.c    ****     GUI_Clear();
 213              		.loc 1 130 0
 214 000e 6FF07F40 		mvn	r0, #-16777216
 215 0012 FFF7FEFF 		bl	GUI_SetBkColor
 216              	.LVL17:
 131:main_cm4.c    **** 
 217              		.loc 1 131 0
 218 0016 FFF7FEFF 		bl	GUI_Clear
 219              	.LVL18:
 133:main_cm4.c    ****     GUI_SetTextAlign(GUI_TA_HCENTER);
 220              		.loc 1 133 0
 221 001a 0222     		movs	r2, #2
 222 001c 1146     		mov	r1, r2
 223 001e 1148     		ldr	r0, .L13+4
 224 0020 FFF7FEFF 		bl	GUI_DrawBitmap
 225              	.LVL19:
 134:main_cm4.c    ****     GUI_DispStringAt("CYPRESS", 132, 85);
 226              		.loc 1 134 0
 227 0024 0220     		movs	r0, #2
 228 0026 FFF7FEFF 		bl	GUI_SetTextAlign
 229              	.LVL20:
 135:main_cm4.c    ****     GUI_SetTextAlign(GUI_TA_HCENTER);
 230              		.loc 1 135 0
 231 002a 5522     		movs	r2, #85
 232 002c 8421     		movs	r1, #132
 233 002e 0E48     		ldr	r0, .L13+8
 234 0030 FFF7FEFF 		bl	GUI_DispStringAt
 235              	.LVL21:
 136:main_cm4.c    ****     GUI_DispStringAt("EMWIN GRAPHICS", 132, 105);
 236              		.loc 1 136 0
 237 0034 0220     		movs	r0, #2
 238 0036 FFF7FEFF 		bl	GUI_SetTextAlign
 239              	.LVL22:
 137:main_cm4.c    ****     GUI_SetTextAlign(GUI_TA_HCENTER);
 240              		.loc 1 137 0
 241 003a 6922     		movs	r2, #105
 242 003c 8421     		movs	r1, #132
 243 003e 0B48     		ldr	r0, .L13+12
 244 0040 FFF7FEFF 		bl	GUI_DispStringAt
 245              	.LVL23:
 138:main_cm4.c    ****     GUI_DispStringAt("EINK DISPLAY DEMO", 132, 125);
ARM GAS  C:\Users\rober\AppData\Local\Temp\ccBCZTBX.s 			page 23


 246              		.loc 1 138 0
 247 0044 0220     		movs	r0, #2
 248 0046 FFF7FEFF 		bl	GUI_SetTextAlign
 249              	.LVL24:
 139:main_cm4.c    **** 
 250              		.loc 1 139 0
 251 004a 7D22     		movs	r2, #125
 252 004c 8421     		movs	r1, #132
 253 004e 0848     		ldr	r0, .L13+16
 254 0050 FFF7FEFF 		bl	GUI_DispStringAt
 255              	.LVL25:
 142:main_cm4.c    **** }
 256              		.loc 1 142 0
 257 0054 0121     		movs	r1, #1
 258 0056 0846     		mov	r0, r1
 259 0058 FFF7FEFF 		bl	UpdateDisplay
 260              	.LVL26:
 261 005c 08BD     		pop	{r3, pc}
 262              	.L14:
 263 005e 00BF     		.align	2
 264              	.L13:
 265 0060 00000000 		.word	GUI_Font16B_1
 266 0064 00000000 		.word	bmCypressLogoFullColor_PNG_1bpp
 267 0068 00000000 		.word	.LC7
 268 006c 08000000 		.word	.LC8
 269 0070 18000000 		.word	.LC9
 270              		.cfi_endproc
 271              	.LFE605:
 272              		.size	ShowStartupScreen, .-ShowStartupScreen
 273              		.section	.text.ClearScreen,"ax",%progbits
 274              		.align	2
 275              		.global	ClearScreen
 276              		.thumb
 277              		.thumb_func
 278              		.type	ClearScreen, %function
 279              	ClearScreen:
 280              	.LFB606:
 159:main_cm4.c    ****     GUI_SetColor(GUI_BLACK);
 281              		.loc 1 159 0
 282              		.cfi_startproc
 283              		@ args = 0, pretend = 0, frame = 0
 284              		@ frame_needed = 0, uses_anonymous_args = 0
 285 0000 08B5     		push	{r3, lr}
 286              		.cfi_def_cfa_offset 8
 287              		.cfi_offset 3, -8
 288              		.cfi_offset 14, -4
 160:main_cm4.c    ****     GUI_SetBkColor(GUI_WHITE);
 289              		.loc 1 160 0
 290 0002 0020     		movs	r0, #0
 291 0004 FFF7FEFF 		bl	GUI_SetColor
 292              	.LVL27:
 161:main_cm4.c    ****     GUI_Clear();
 293              		.loc 1 161 0
 294 0008 6FF07F40 		mvn	r0, #-16777216
 295 000c FFF7FEFF 		bl	GUI_SetBkColor
 296              	.LVL28:
 162:main_cm4.c    ****     UpdateDisplay(CY_EINK_FULL_4STAGE, true);
ARM GAS  C:\Users\rober\AppData\Local\Temp\ccBCZTBX.s 			page 24


 297              		.loc 1 162 0
 298 0010 FFF7FEFF 		bl	GUI_Clear
 299              	.LVL29:
 163:main_cm4.c    **** }
 300              		.loc 1 163 0
 301 0014 0121     		movs	r1, #1
 302 0016 0846     		mov	r0, r1
 303 0018 FFF7FEFF 		bl	UpdateDisplay
 304              	.LVL30:
 305 001c 08BD     		pop	{r3, pc}
 306              		.cfi_endproc
 307              	.LFE606:
 308              		.size	ClearScreen, .-ClearScreen
 309 001e 00BF     		.section	.text.WaitforSwitchPressAndRelease,"ax",%progbits
 310              		.align	2
 311              		.global	WaitforSwitchPressAndRelease
 312              		.thumb
 313              		.thumb_func
 314              		.type	WaitforSwitchPressAndRelease, %function
 315              	WaitforSwitchPressAndRelease:
 316              	.LFB607:
 195:main_cm4.c    ****     Cy_TCPWM_PWM_SetCompare0(PWM_HW, PWM_CNT_NUM, compareValue);
 317              		.loc 1 195 0
 318              		.cfi_startproc
 319              		@ args = 0, pretend = 0, frame = 0
 320              		@ frame_needed = 0, uses_anonymous_args = 0
 321 0000 08B5     		push	{r3, lr}
 322              		.cfi_def_cfa_offset 8
 323              		.cfi_offset 3, -8
 324              		.cfi_offset 14, -4
 196:main_cm4.c    ****     /* Wait for SW2 to be pressed */
 325              		.loc 1 196 0
 326 0002 264B     		ldr	r3, .L25
 327 0004 5A68     		ldr	r2, [r3, #4]
 328              	.LVL31:
 329              	.LBB26:
 330              	.LBB27:
 331              		.file 3 "Generated_Source\\PSoC6\\pdl\\drivers/peripheral/tcpwm/cy_tcpwm_pwm.h"
   1:Generated_Source\PSoC6\pdl\drivers/peripheral/tcpwm/cy_tcpwm_pwm.h **** /***************************************************************************//**
   2:Generated_Source\PSoC6\pdl\drivers/peripheral/tcpwm/cy_tcpwm_pwm.h **** * \file cy_tcpwm_pwm.h
   3:Generated_Source\PSoC6\pdl\drivers/peripheral/tcpwm/cy_tcpwm_pwm.h **** * \version 1.0.1
   4:Generated_Source\PSoC6\pdl\drivers/peripheral/tcpwm/cy_tcpwm_pwm.h **** *
   5:Generated_Source\PSoC6\pdl\drivers/peripheral/tcpwm/cy_tcpwm_pwm.h **** * \brief
   6:Generated_Source\PSoC6\pdl\drivers/peripheral/tcpwm/cy_tcpwm_pwm.h **** * The header file of the TCPWM PWM driver.
   7:Generated_Source\PSoC6\pdl\drivers/peripheral/tcpwm/cy_tcpwm_pwm.h **** *
   8:Generated_Source\PSoC6\pdl\drivers/peripheral/tcpwm/cy_tcpwm_pwm.h **** ********************************************************************************
   9:Generated_Source\PSoC6\pdl\drivers/peripheral/tcpwm/cy_tcpwm_pwm.h **** * \copyright
  10:Generated_Source\PSoC6\pdl\drivers/peripheral/tcpwm/cy_tcpwm_pwm.h **** * Copyright 2016-2018, Cypress Semiconductor Corporation. All rights reserved.
  11:Generated_Source\PSoC6\pdl\drivers/peripheral/tcpwm/cy_tcpwm_pwm.h **** * You may use this file only in accordance with the license, terms, conditions,
  12:Generated_Source\PSoC6\pdl\drivers/peripheral/tcpwm/cy_tcpwm_pwm.h **** * disclaimers, and limitations in the end user license agreement accompanying
  13:Generated_Source\PSoC6\pdl\drivers/peripheral/tcpwm/cy_tcpwm_pwm.h **** * the software package with which this file was provided.
  14:Generated_Source\PSoC6\pdl\drivers/peripheral/tcpwm/cy_tcpwm_pwm.h **** *******************************************************************************/
  15:Generated_Source\PSoC6\pdl\drivers/peripheral/tcpwm/cy_tcpwm_pwm.h **** 
  16:Generated_Source\PSoC6\pdl\drivers/peripheral/tcpwm/cy_tcpwm_pwm.h **** #if !defined(CY_TCPWM_PWM_H)
  17:Generated_Source\PSoC6\pdl\drivers/peripheral/tcpwm/cy_tcpwm_pwm.h **** #define CY_TCPWM_PWM_H
  18:Generated_Source\PSoC6\pdl\drivers/peripheral/tcpwm/cy_tcpwm_pwm.h **** 
  19:Generated_Source\PSoC6\pdl\drivers/peripheral/tcpwm/cy_tcpwm_pwm.h **** #include "cy_tcpwm.h"
ARM GAS  C:\Users\rober\AppData\Local\Temp\ccBCZTBX.s 			page 25


  20:Generated_Source\PSoC6\pdl\drivers/peripheral/tcpwm/cy_tcpwm_pwm.h **** 
  21:Generated_Source\PSoC6\pdl\drivers/peripheral/tcpwm/cy_tcpwm_pwm.h **** #if defined(__cplusplus)
  22:Generated_Source\PSoC6\pdl\drivers/peripheral/tcpwm/cy_tcpwm_pwm.h **** extern "C" {
  23:Generated_Source\PSoC6\pdl\drivers/peripheral/tcpwm/cy_tcpwm_pwm.h **** #endif
  24:Generated_Source\PSoC6\pdl\drivers/peripheral/tcpwm/cy_tcpwm_pwm.h **** 
  25:Generated_Source\PSoC6\pdl\drivers/peripheral/tcpwm/cy_tcpwm_pwm.h **** /**
  26:Generated_Source\PSoC6\pdl\drivers/peripheral/tcpwm/cy_tcpwm_pwm.h **** * \addtogroup group_tcpwm_pwm
  27:Generated_Source\PSoC6\pdl\drivers/peripheral/tcpwm/cy_tcpwm_pwm.h **** * Driver API for PWM.
  28:Generated_Source\PSoC6\pdl\drivers/peripheral/tcpwm/cy_tcpwm_pwm.h **** * \{
  29:Generated_Source\PSoC6\pdl\drivers/peripheral/tcpwm/cy_tcpwm_pwm.h **** */
  30:Generated_Source\PSoC6\pdl\drivers/peripheral/tcpwm/cy_tcpwm_pwm.h **** 
  31:Generated_Source\PSoC6\pdl\drivers/peripheral/tcpwm/cy_tcpwm_pwm.h **** /**
  32:Generated_Source\PSoC6\pdl\drivers/peripheral/tcpwm/cy_tcpwm_pwm.h **** * \defgroup group_tcpwm_macros_pwm          Macros
  33:Generated_Source\PSoC6\pdl\drivers/peripheral/tcpwm/cy_tcpwm_pwm.h **** * \defgroup group_tcpwm_functions_pwm       Functions
  34:Generated_Source\PSoC6\pdl\drivers/peripheral/tcpwm/cy_tcpwm_pwm.h **** * \defgroup group_tcpwm_data_structures_pwm Data Structures
  35:Generated_Source\PSoC6\pdl\drivers/peripheral/tcpwm/cy_tcpwm_pwm.h **** * \} */
  36:Generated_Source\PSoC6\pdl\drivers/peripheral/tcpwm/cy_tcpwm_pwm.h **** 
  37:Generated_Source\PSoC6\pdl\drivers/peripheral/tcpwm/cy_tcpwm_pwm.h **** /**
  38:Generated_Source\PSoC6\pdl\drivers/peripheral/tcpwm/cy_tcpwm_pwm.h **** * \addtogroup group_tcpwm_data_structures_pwm
  39:Generated_Source\PSoC6\pdl\drivers/peripheral/tcpwm/cy_tcpwm_pwm.h **** * \{
  40:Generated_Source\PSoC6\pdl\drivers/peripheral/tcpwm/cy_tcpwm_pwm.h **** */
  41:Generated_Source\PSoC6\pdl\drivers/peripheral/tcpwm/cy_tcpwm_pwm.h **** 
  42:Generated_Source\PSoC6\pdl\drivers/peripheral/tcpwm/cy_tcpwm_pwm.h **** /** PWM configuration structure */
  43:Generated_Source\PSoC6\pdl\drivers/peripheral/tcpwm/cy_tcpwm_pwm.h **** typedef struct cy_stc_tcpwm_pwm_config
  44:Generated_Source\PSoC6\pdl\drivers/peripheral/tcpwm/cy_tcpwm_pwm.h **** {
  45:Generated_Source\PSoC6\pdl\drivers/peripheral/tcpwm/cy_tcpwm_pwm.h ****     uint32_t    pwmMode;            /**< Sets the PWM mode. See \ref group_tcpwm_pwm_modes */
  46:Generated_Source\PSoC6\pdl\drivers/peripheral/tcpwm/cy_tcpwm_pwm.h ****     /** Sets the clock prescaler inside the TCWPM block. See \ref group_tcpwm_pwm_clk_prescalers */
  47:Generated_Source\PSoC6\pdl\drivers/peripheral/tcpwm/cy_tcpwm_pwm.h ****     uint32_t     clockPrescaler;
  48:Generated_Source\PSoC6\pdl\drivers/peripheral/tcpwm/cy_tcpwm_pwm.h ****     uint32_t    pwmAlignment;       /**< Sets the PWM alignment. See \ref group_tcpwm_pwm_alignment
  49:Generated_Source\PSoC6\pdl\drivers/peripheral/tcpwm/cy_tcpwm_pwm.h ****     uint32_t    deadTimeClocks;     /**< The number of dead time-clocks if PWM with dead time is ch
  50:Generated_Source\PSoC6\pdl\drivers/peripheral/tcpwm/cy_tcpwm_pwm.h ****     uint32_t    runMode;            /**< Sets the PWM run mode. See \ref group_tcpwm_pwm_run_modes 
  51:Generated_Source\PSoC6\pdl\drivers/peripheral/tcpwm/cy_tcpwm_pwm.h ****     uint32_t    period0;            /**< Sets the period0 of the pwm */
  52:Generated_Source\PSoC6\pdl\drivers/peripheral/tcpwm/cy_tcpwm_pwm.h ****     uint32_t    period1;            /**< Sets the period1 of the pwm */
  53:Generated_Source\PSoC6\pdl\drivers/peripheral/tcpwm/cy_tcpwm_pwm.h ****     bool        enablePeriodSwap;   /**< Enables swapping of period 0 and period 1 on terminal coun
  54:Generated_Source\PSoC6\pdl\drivers/peripheral/tcpwm/cy_tcpwm_pwm.h ****     uint32_t    compare0;           /**< Sets the value for Compare0 */
  55:Generated_Source\PSoC6\pdl\drivers/peripheral/tcpwm/cy_tcpwm_pwm.h ****     uint32_t    compare1;           /**< Sets the value for Compare1 */
  56:Generated_Source\PSoC6\pdl\drivers/peripheral/tcpwm/cy_tcpwm_pwm.h ****     bool        enableCompareSwap;  /**< If enabled, the compare values are swapped on the terminal
  57:Generated_Source\PSoC6\pdl\drivers/peripheral/tcpwm/cy_tcpwm_pwm.h ****     /** Enables an interrupt on the terminal count, capture or compare. See \ref group_tcpwm_interr
  58:Generated_Source\PSoC6\pdl\drivers/peripheral/tcpwm/cy_tcpwm_pwm.h ****     uint32_t    interruptSources;
  59:Generated_Source\PSoC6\pdl\drivers/peripheral/tcpwm/cy_tcpwm_pwm.h ****     uint32_t    invertPWMOut;       /**< Inverts the PWM output */
  60:Generated_Source\PSoC6\pdl\drivers/peripheral/tcpwm/cy_tcpwm_pwm.h ****     uint32_t    invertPWMOutN;      /**< Inverts the PWM_n output */
  61:Generated_Source\PSoC6\pdl\drivers/peripheral/tcpwm/cy_tcpwm_pwm.h ****     uint32_t    killMode;           /**< Configures the PWM kill modes. See \ref group_tcpwm_pwm_ki
  62:Generated_Source\PSoC6\pdl\drivers/peripheral/tcpwm/cy_tcpwm_pwm.h ****     uint32_t    swapInputMode;      /**< Configures how the swap input behaves. See \ref group_tcpw
  63:Generated_Source\PSoC6\pdl\drivers/peripheral/tcpwm/cy_tcpwm_pwm.h ****     /** Selects which input the swap uses. Inputs are device-specific. See \ref group_tcpwm_input_s
  64:Generated_Source\PSoC6\pdl\drivers/peripheral/tcpwm/cy_tcpwm_pwm.h ****     uint32_t    swapInput;
  65:Generated_Source\PSoC6\pdl\drivers/peripheral/tcpwm/cy_tcpwm_pwm.h ****     uint32_t    reloadInputMode;    /**< Configures how the reload input behaves. See \ref group_tc
  66:Generated_Source\PSoC6\pdl\drivers/peripheral/tcpwm/cy_tcpwm_pwm.h ****     /** Selects which input the reload uses. The inputs are device-specific. See \ref group_tcpwm_i
  67:Generated_Source\PSoC6\pdl\drivers/peripheral/tcpwm/cy_tcpwm_pwm.h ****     uint32_t    reloadInput;            
  68:Generated_Source\PSoC6\pdl\drivers/peripheral/tcpwm/cy_tcpwm_pwm.h ****     uint32_t    startInputMode;     /**< Configures how the start input behaves. See \ref group_tcp
  69:Generated_Source\PSoC6\pdl\drivers/peripheral/tcpwm/cy_tcpwm_pwm.h ****     /** Selects which input the start uses. The inputs are device-specific. See \ref group_tcpwm_in
  70:Generated_Source\PSoC6\pdl\drivers/peripheral/tcpwm/cy_tcpwm_pwm.h ****     uint32_t    startInput;                
  71:Generated_Source\PSoC6\pdl\drivers/peripheral/tcpwm/cy_tcpwm_pwm.h ****     uint32_t    killInputMode;      /**< Configures how the kill input behaves. See \ref group_tcpw
  72:Generated_Source\PSoC6\pdl\drivers/peripheral/tcpwm/cy_tcpwm_pwm.h ****     /** Selects which input the kill uses. The inputs are device-specific. See \ref group_tcpwm_inp
  73:Generated_Source\PSoC6\pdl\drivers/peripheral/tcpwm/cy_tcpwm_pwm.h ****     uint32_t    killInput;
  74:Generated_Source\PSoC6\pdl\drivers/peripheral/tcpwm/cy_tcpwm_pwm.h ****     uint32_t    countInputMode;     /**< Configures how the count input behaves. See \ref group_tcp
  75:Generated_Source\PSoC6\pdl\drivers/peripheral/tcpwm/cy_tcpwm_pwm.h ****     /** Selects which input the count uses. The inputs are device-specific. See \ref group_tcpwm_in
  76:Generated_Source\PSoC6\pdl\drivers/peripheral/tcpwm/cy_tcpwm_pwm.h ****     uint32_t    countInput;
ARM GAS  C:\Users\rober\AppData\Local\Temp\ccBCZTBX.s 			page 26


  77:Generated_Source\PSoC6\pdl\drivers/peripheral/tcpwm/cy_tcpwm_pwm.h **** }cy_stc_tcpwm_pwm_config_t;
  78:Generated_Source\PSoC6\pdl\drivers/peripheral/tcpwm/cy_tcpwm_pwm.h **** /** \} group_tcpwm_data_structures_pwm */
  79:Generated_Source\PSoC6\pdl\drivers/peripheral/tcpwm/cy_tcpwm_pwm.h **** 
  80:Generated_Source\PSoC6\pdl\drivers/peripheral/tcpwm/cy_tcpwm_pwm.h **** /**
  81:Generated_Source\PSoC6\pdl\drivers/peripheral/tcpwm/cy_tcpwm_pwm.h **** * \addtogroup group_tcpwm_macros_pwm
  82:Generated_Source\PSoC6\pdl\drivers/peripheral/tcpwm/cy_tcpwm_pwm.h **** * \{
  83:Generated_Source\PSoC6\pdl\drivers/peripheral/tcpwm/cy_tcpwm_pwm.h **** * \defgroup group_tcpwm_pwm_run_modes PWM run modes
  84:Generated_Source\PSoC6\pdl\drivers/peripheral/tcpwm/cy_tcpwm_pwm.h **** * \{
  85:Generated_Source\PSoC6\pdl\drivers/peripheral/tcpwm/cy_tcpwm_pwm.h **** * Run modes for the pwm timer.
  86:Generated_Source\PSoC6\pdl\drivers/peripheral/tcpwm/cy_tcpwm_pwm.h **** */
  87:Generated_Source\PSoC6\pdl\drivers/peripheral/tcpwm/cy_tcpwm_pwm.h **** #define CY_TCPWM_PWM_ONESHOT            (1U)    /**< Counter runs once and then stops */
  88:Generated_Source\PSoC6\pdl\drivers/peripheral/tcpwm/cy_tcpwm_pwm.h **** #define CY_TCPWM_PWM_CONTINUOUS         (0U)    /**< Counter runs forever */
  89:Generated_Source\PSoC6\pdl\drivers/peripheral/tcpwm/cy_tcpwm_pwm.h **** /** \} group_tcpwm_pwm_run_modes */
  90:Generated_Source\PSoC6\pdl\drivers/peripheral/tcpwm/cy_tcpwm_pwm.h **** 
  91:Generated_Source\PSoC6\pdl\drivers/peripheral/tcpwm/cy_tcpwm_pwm.h **** /** \defgroup group_tcpwm_pwm_modes PWM modes 
  92:Generated_Source\PSoC6\pdl\drivers/peripheral/tcpwm/cy_tcpwm_pwm.h **** * \{
  93:Generated_Source\PSoC6\pdl\drivers/peripheral/tcpwm/cy_tcpwm_pwm.h **** * Sets the PWM modes.
  94:Generated_Source\PSoC6\pdl\drivers/peripheral/tcpwm/cy_tcpwm_pwm.h **** */
  95:Generated_Source\PSoC6\pdl\drivers/peripheral/tcpwm/cy_tcpwm_pwm.h **** #define CY_TCPWM_PWM_MODE_PWM           (4U) /**< Standard PWM Mode*/
  96:Generated_Source\PSoC6\pdl\drivers/peripheral/tcpwm/cy_tcpwm_pwm.h **** #define CY_TCPWM_PWM_MODE_DEADTIME      (5U)    /**< PWM with deadtime mode*/
  97:Generated_Source\PSoC6\pdl\drivers/peripheral/tcpwm/cy_tcpwm_pwm.h **** #define CY_TCPWM_PWM_MODE_PSEUDORANDOM  (6U)    /**< Pseudo Random PWM */
  98:Generated_Source\PSoC6\pdl\drivers/peripheral/tcpwm/cy_tcpwm_pwm.h **** /** \} group_tcpwm_pwm_modes */
  99:Generated_Source\PSoC6\pdl\drivers/peripheral/tcpwm/cy_tcpwm_pwm.h **** 
 100:Generated_Source\PSoC6\pdl\drivers/peripheral/tcpwm/cy_tcpwm_pwm.h **** /** \defgroup group_tcpwm_pwm_alignment PWM Alignment
 101:Generated_Source\PSoC6\pdl\drivers/peripheral/tcpwm/cy_tcpwm_pwm.h **** * Sets the alignment of the PWM.
 102:Generated_Source\PSoC6\pdl\drivers/peripheral/tcpwm/cy_tcpwm_pwm.h **** * \{
 103:Generated_Source\PSoC6\pdl\drivers/peripheral/tcpwm/cy_tcpwm_pwm.h **** */
 104:Generated_Source\PSoC6\pdl\drivers/peripheral/tcpwm/cy_tcpwm_pwm.h **** #define CY_TCPWM_PWM_LEFT_ALIGN         (0U)     /**< PWM is left aligned, meaning it starts high *
 105:Generated_Source\PSoC6\pdl\drivers/peripheral/tcpwm/cy_tcpwm_pwm.h **** #define CY_TCPWM_PWM_RIGHT_ALIGN        (1U)        /**< PWM is right aligned, meaning it starts lo
 106:Generated_Source\PSoC6\pdl\drivers/peripheral/tcpwm/cy_tcpwm_pwm.h **** /** PWM is centered aligned, terminal count only occurs on underflow */
 107:Generated_Source\PSoC6\pdl\drivers/peripheral/tcpwm/cy_tcpwm_pwm.h **** #define CY_TCPWM_PWM_CENTER_ALIGN       (2U)
 108:Generated_Source\PSoC6\pdl\drivers/peripheral/tcpwm/cy_tcpwm_pwm.h **** /** PWM is asymmetrically aligned, terminal count occurs on overflow and underflow */
 109:Generated_Source\PSoC6\pdl\drivers/peripheral/tcpwm/cy_tcpwm_pwm.h **** #define CY_TCPWM_PWM_ASYMMETRIC_ALIGN   (3U)
 110:Generated_Source\PSoC6\pdl\drivers/peripheral/tcpwm/cy_tcpwm_pwm.h **** /** \} group_tcpwm_pwm_alignment */
 111:Generated_Source\PSoC6\pdl\drivers/peripheral/tcpwm/cy_tcpwm_pwm.h **** 
 112:Generated_Source\PSoC6\pdl\drivers/peripheral/tcpwm/cy_tcpwm_pwm.h **** /** \defgroup group_tcpwm_pwm_kill_modes PWM kill modes
 113:Generated_Source\PSoC6\pdl\drivers/peripheral/tcpwm/cy_tcpwm_pwm.h **** * Sets the kill mode for the PWM.
 114:Generated_Source\PSoC6\pdl\drivers/peripheral/tcpwm/cy_tcpwm_pwm.h **** * \{
 115:Generated_Source\PSoC6\pdl\drivers/peripheral/tcpwm/cy_tcpwm_pwm.h **** */
 116:Generated_Source\PSoC6\pdl\drivers/peripheral/tcpwm/cy_tcpwm_pwm.h **** #define CY_TCPWM_PWM_STOP_ON_KILL       (2U)    /**< PWM stops counting on kill */
 117:Generated_Source\PSoC6\pdl\drivers/peripheral/tcpwm/cy_tcpwm_pwm.h **** #define CY_TCPWM_PWM_SYNCH_KILL         (1U)    /**< PWM output is killed after next TC*/
 118:Generated_Source\PSoC6\pdl\drivers/peripheral/tcpwm/cy_tcpwm_pwm.h **** #define CY_TCPWM_PWM_ASYNC_KILL         (0U)    /**< PWM output is killed instantly */
 119:Generated_Source\PSoC6\pdl\drivers/peripheral/tcpwm/cy_tcpwm_pwm.h **** /** \} group_tcpwm_pwm_kill_modes */
 120:Generated_Source\PSoC6\pdl\drivers/peripheral/tcpwm/cy_tcpwm_pwm.h **** 
 121:Generated_Source\PSoC6\pdl\drivers/peripheral/tcpwm/cy_tcpwm_pwm.h **** /** \defgroup group_tcpwm_pwm_clk_prescalers PWM CLK Prescaler values
 122:Generated_Source\PSoC6\pdl\drivers/peripheral/tcpwm/cy_tcpwm_pwm.h **** * \{
 123:Generated_Source\PSoC6\pdl\drivers/peripheral/tcpwm/cy_tcpwm_pwm.h **** * Clock prescaler values.
 124:Generated_Source\PSoC6\pdl\drivers/peripheral/tcpwm/cy_tcpwm_pwm.h **** */
 125:Generated_Source\PSoC6\pdl\drivers/peripheral/tcpwm/cy_tcpwm_pwm.h **** #define CY_TCPWM_PWM_PRESCALER_DIVBY_1      (0U) /**< Divide by 1 */
 126:Generated_Source\PSoC6\pdl\drivers/peripheral/tcpwm/cy_tcpwm_pwm.h **** #define CY_TCPWM_PWM_PRESCALER_DIVBY_2      (1U) /**< Divide by 2 */
 127:Generated_Source\PSoC6\pdl\drivers/peripheral/tcpwm/cy_tcpwm_pwm.h **** #define CY_TCPWM_PWM_PRESCALER_DIVBY_4      (2U) /**< Divide by 4 */
 128:Generated_Source\PSoC6\pdl\drivers/peripheral/tcpwm/cy_tcpwm_pwm.h **** #define CY_TCPWM_PWM_PRESCALER_DIVBY_8      (3U) /**< Divide by 8 */
 129:Generated_Source\PSoC6\pdl\drivers/peripheral/tcpwm/cy_tcpwm_pwm.h **** #define CY_TCPWM_PWM_PRESCALER_DIVBY_16     (4U) /**< Divide by 16 */
 130:Generated_Source\PSoC6\pdl\drivers/peripheral/tcpwm/cy_tcpwm_pwm.h **** #define CY_TCPWM_PWM_PRESCALER_DIVBY_32     (5U) /**< Divide by 32 */
 131:Generated_Source\PSoC6\pdl\drivers/peripheral/tcpwm/cy_tcpwm_pwm.h **** #define CY_TCPWM_PWM_PRESCALER_DIVBY_64     (6U) /**< Divide by 64 */
 132:Generated_Source\PSoC6\pdl\drivers/peripheral/tcpwm/cy_tcpwm_pwm.h **** #define CY_TCPWM_PWM_PRESCALER_DIVBY_128    (7U) /**< Divide by 128 */
 133:Generated_Source\PSoC6\pdl\drivers/peripheral/tcpwm/cy_tcpwm_pwm.h **** /** \} group_tcpwm_pwm_clk_prescalers */
ARM GAS  C:\Users\rober\AppData\Local\Temp\ccBCZTBX.s 			page 27


 134:Generated_Source\PSoC6\pdl\drivers/peripheral/tcpwm/cy_tcpwm_pwm.h **** 
 135:Generated_Source\PSoC6\pdl\drivers/peripheral/tcpwm/cy_tcpwm_pwm.h **** /** \defgroup group_tcpwm_pwm_output_invert PWM output invert
 136:Generated_Source\PSoC6\pdl\drivers/peripheral/tcpwm/cy_tcpwm_pwm.h **** * \{
 137:Generated_Source\PSoC6\pdl\drivers/peripheral/tcpwm/cy_tcpwm_pwm.h **** * Output invert modes.
 138:Generated_Source\PSoC6\pdl\drivers/peripheral/tcpwm/cy_tcpwm_pwm.h **** */
 139:Generated_Source\PSoC6\pdl\drivers/peripheral/tcpwm/cy_tcpwm_pwm.h **** #define CY_TCPWM_PWM_INVERT_ENABLE          (1U)  /**< Invert the output mode */
 140:Generated_Source\PSoC6\pdl\drivers/peripheral/tcpwm/cy_tcpwm_pwm.h **** #define CY_TCPWM_PWM_INVERT_DISABLE         (0U)  /**< Do not invert the output mode */
 141:Generated_Source\PSoC6\pdl\drivers/peripheral/tcpwm/cy_tcpwm_pwm.h **** /** \} group_tcpwm_pwm_output_invert */
 142:Generated_Source\PSoC6\pdl\drivers/peripheral/tcpwm/cy_tcpwm_pwm.h **** 
 143:Generated_Source\PSoC6\pdl\drivers/peripheral/tcpwm/cy_tcpwm_pwm.h **** /** \defgroup group_tcpwm_pwm_status PWM Status
 144:Generated_Source\PSoC6\pdl\drivers/peripheral/tcpwm/cy_tcpwm_pwm.h **** * \{
 145:Generated_Source\PSoC6\pdl\drivers/peripheral/tcpwm/cy_tcpwm_pwm.h **** * The counter status.
 146:Generated_Source\PSoC6\pdl\drivers/peripheral/tcpwm/cy_tcpwm_pwm.h **** */
 147:Generated_Source\PSoC6\pdl\drivers/peripheral/tcpwm/cy_tcpwm_pwm.h **** #define CY_TCPWM_PWM_STATUS_DOWN_COUNTING   (0x1UL)        /**< PWM is down counting */
 148:Generated_Source\PSoC6\pdl\drivers/peripheral/tcpwm/cy_tcpwm_pwm.h **** #define CY_TCPWM_PWM_STATUS_UP_COUNTING     (0x2UL)        /**< PWM is up counting */
 149:Generated_Source\PSoC6\pdl\drivers/peripheral/tcpwm/cy_tcpwm_pwm.h **** #define CY_TCPWM_PWM_STATUS_COUNTER_RUNNING (TCPWM_CNT_STATUS_RUNNING_Msk)     /**< PWM counter is 
 150:Generated_Source\PSoC6\pdl\drivers/peripheral/tcpwm/cy_tcpwm_pwm.h **** /** \} group_tcpwm_pwm_status */
 151:Generated_Source\PSoC6\pdl\drivers/peripheral/tcpwm/cy_tcpwm_pwm.h **** 
 152:Generated_Source\PSoC6\pdl\drivers/peripheral/tcpwm/cy_tcpwm_pwm.h **** 
 153:Generated_Source\PSoC6\pdl\drivers/peripheral/tcpwm/cy_tcpwm_pwm.h **** /***************************************
 154:Generated_Source\PSoC6\pdl\drivers/peripheral/tcpwm/cy_tcpwm_pwm.h **** *        Registers Constants
 155:Generated_Source\PSoC6\pdl\drivers/peripheral/tcpwm/cy_tcpwm_pwm.h **** ***************************************/
 156:Generated_Source\PSoC6\pdl\drivers/peripheral/tcpwm/cy_tcpwm_pwm.h **** 
 157:Generated_Source\PSoC6\pdl\drivers/peripheral/tcpwm/cy_tcpwm_pwm.h **** /** \cond INTERNAL */
 158:Generated_Source\PSoC6\pdl\drivers/peripheral/tcpwm/cy_tcpwm_pwm.h **** #define CY_TCPWM_PWM_CTRL_SYNC_KILL_OR_STOP_ON_KILL_POS  (2U)
 159:Generated_Source\PSoC6\pdl\drivers/peripheral/tcpwm/cy_tcpwm_pwm.h **** #define CY_TCPWM_PWM_CTRL_SYNC_KILL_OR_STOP_ON_KILL_MASK (0x3UL << CY_TCPWM_PWM_CTRL_SYNC_KILL_OR_S
 160:Generated_Source\PSoC6\pdl\drivers/peripheral/tcpwm/cy_tcpwm_pwm.h **** /** \endcond */
 161:Generated_Source\PSoC6\pdl\drivers/peripheral/tcpwm/cy_tcpwm_pwm.h **** 
 162:Generated_Source\PSoC6\pdl\drivers/peripheral/tcpwm/cy_tcpwm_pwm.h **** /** \defgroup group_tcpwm_pwm_output_configuration PWM output signal configuration
 163:Generated_Source\PSoC6\pdl\drivers/peripheral/tcpwm/cy_tcpwm_pwm.h **** * \{
 164:Generated_Source\PSoC6\pdl\drivers/peripheral/tcpwm/cy_tcpwm_pwm.h **** * The configuration of PWM output signal for PWM alignment.
 165:Generated_Source\PSoC6\pdl\drivers/peripheral/tcpwm/cy_tcpwm_pwm.h **** */
 166:Generated_Source\PSoC6\pdl\drivers/peripheral/tcpwm/cy_tcpwm_pwm.h **** #define CY_TCPWM_PWM_TR_CTRL2_SET           (0UL) /**< Set define for PWM output signal configurati
 167:Generated_Source\PSoC6\pdl\drivers/peripheral/tcpwm/cy_tcpwm_pwm.h **** #define CY_TCPWM_PWM_TR_CTRL2_CLEAR         (1UL) /**< Clear define for PWM output signal configura
 168:Generated_Source\PSoC6\pdl\drivers/peripheral/tcpwm/cy_tcpwm_pwm.h **** #define CY_TCPWM_PWM_TR_CTRL2_INVERT        (2UL) /**< Invert define for PWM output signal configur
 169:Generated_Source\PSoC6\pdl\drivers/peripheral/tcpwm/cy_tcpwm_pwm.h **** #define CY_TCPWM_PWM_TR_CTRL2_NO_CHANGE     (3UL) /**< No change define for PWM output signal confi
 170:Generated_Source\PSoC6\pdl\drivers/peripheral/tcpwm/cy_tcpwm_pwm.h **** 
 171:Generated_Source\PSoC6\pdl\drivers/peripheral/tcpwm/cy_tcpwm_pwm.h **** /** The configuration of PWM output signal in Pseudo Random Mode */
 172:Generated_Source\PSoC6\pdl\drivers/peripheral/tcpwm/cy_tcpwm_pwm.h **** #define CY_TCPWM_PWM_MODE_PR         (_VAL2FLD(TCPWM_CNT_TR_CTRL2_CC_MATCH_MODE, CY_TCPWM_PWM_TR_CT
 173:Generated_Source\PSoC6\pdl\drivers/peripheral/tcpwm/cy_tcpwm_pwm.h ****                                       _VAL2FLD(TCPWM_CNT_TR_CTRL2_OVERFLOW_MODE, CY_TCPWM_PWM_TR_CT
 174:Generated_Source\PSoC6\pdl\drivers/peripheral/tcpwm/cy_tcpwm_pwm.h ****                                       _VAL2FLD(TCPWM_CNT_TR_CTRL2_UNDERFLOW_MODE, CY_TCPWM_PWM_TR_C
 175:Generated_Source\PSoC6\pdl\drivers/peripheral/tcpwm/cy_tcpwm_pwm.h **** 
 176:Generated_Source\PSoC6\pdl\drivers/peripheral/tcpwm/cy_tcpwm_pwm.h **** /** The configuration of PWM output signal for Left alignment */
 177:Generated_Source\PSoC6\pdl\drivers/peripheral/tcpwm/cy_tcpwm_pwm.h **** #define CY_TCPWM_PWM_MODE_LEFT       (_VAL2FLD(TCPWM_CNT_TR_CTRL2_CC_MATCH_MODE, CY_TCPWM_PWM_TR_CT
 178:Generated_Source\PSoC6\pdl\drivers/peripheral/tcpwm/cy_tcpwm_pwm.h ****                                       _VAL2FLD(TCPWM_CNT_TR_CTRL2_OVERFLOW_MODE, CY_TCPWM_PWM_TR_CT
 179:Generated_Source\PSoC6\pdl\drivers/peripheral/tcpwm/cy_tcpwm_pwm.h ****                                       _VAL2FLD(TCPWM_CNT_TR_CTRL2_UNDERFLOW_MODE, CY_TCPWM_PWM_TR_C
 180:Generated_Source\PSoC6\pdl\drivers/peripheral/tcpwm/cy_tcpwm_pwm.h **** 
 181:Generated_Source\PSoC6\pdl\drivers/peripheral/tcpwm/cy_tcpwm_pwm.h **** /** The configuration of PWM output signal for Right alignment */
 182:Generated_Source\PSoC6\pdl\drivers/peripheral/tcpwm/cy_tcpwm_pwm.h **** #define CY_TCPWM_PWM_MODE_RIGHT      (_VAL2FLD(TCPWM_CNT_TR_CTRL2_CC_MATCH_MODE, CY_TCPWM_PWM_TR_CT
 183:Generated_Source\PSoC6\pdl\drivers/peripheral/tcpwm/cy_tcpwm_pwm.h ****                                       _VAL2FLD(TCPWM_CNT_TR_CTRL2_OVERFLOW_MODE, CY_TCPWM_PWM_TR_CT
 184:Generated_Source\PSoC6\pdl\drivers/peripheral/tcpwm/cy_tcpwm_pwm.h ****                                       _VAL2FLD(TCPWM_CNT_TR_CTRL2_UNDERFLOW_MODE, CY_TCPWM_PWM_TR_C
 185:Generated_Source\PSoC6\pdl\drivers/peripheral/tcpwm/cy_tcpwm_pwm.h **** 
 186:Generated_Source\PSoC6\pdl\drivers/peripheral/tcpwm/cy_tcpwm_pwm.h **** /** The configuration of PWM output signal for Center and Asymmetric alignment */
 187:Generated_Source\PSoC6\pdl\drivers/peripheral/tcpwm/cy_tcpwm_pwm.h **** #define CY_TCPWM_PWM_MODE_CNTR_OR_ASYMM (_VAL2FLD(TCPWM_CNT_TR_CTRL2_CC_MATCH_MODE, CY_TCPWM_PWM_TR
 188:Generated_Source\PSoC6\pdl\drivers/peripheral/tcpwm/cy_tcpwm_pwm.h ****                                          _VAL2FLD(TCPWM_CNT_TR_CTRL2_OVERFLOW_MODE, CY_TCPWM_PWM_TR
 189:Generated_Source\PSoC6\pdl\drivers/peripheral/tcpwm/cy_tcpwm_pwm.h ****                                          _VAL2FLD(TCPWM_CNT_TR_CTRL2_UNDERFLOW_MODE, CY_TCPWM_PWM_T
 190:Generated_Source\PSoC6\pdl\drivers/peripheral/tcpwm/cy_tcpwm_pwm.h **** /** \} group_tcpwm_pwm_output_configuration */
ARM GAS  C:\Users\rober\AppData\Local\Temp\ccBCZTBX.s 			page 28


 191:Generated_Source\PSoC6\pdl\drivers/peripheral/tcpwm/cy_tcpwm_pwm.h **** /** \} group_tcpwm_macros_pwm */
 192:Generated_Source\PSoC6\pdl\drivers/peripheral/tcpwm/cy_tcpwm_pwm.h **** 
 193:Generated_Source\PSoC6\pdl\drivers/peripheral/tcpwm/cy_tcpwm_pwm.h **** 
 194:Generated_Source\PSoC6\pdl\drivers/peripheral/tcpwm/cy_tcpwm_pwm.h **** /*******************************************************************************
 195:Generated_Source\PSoC6\pdl\drivers/peripheral/tcpwm/cy_tcpwm_pwm.h **** *        Function Prototypes
 196:Generated_Source\PSoC6\pdl\drivers/peripheral/tcpwm/cy_tcpwm_pwm.h **** *******************************************************************************/
 197:Generated_Source\PSoC6\pdl\drivers/peripheral/tcpwm/cy_tcpwm_pwm.h **** 
 198:Generated_Source\PSoC6\pdl\drivers/peripheral/tcpwm/cy_tcpwm_pwm.h **** /**
 199:Generated_Source\PSoC6\pdl\drivers/peripheral/tcpwm/cy_tcpwm_pwm.h **** * \addtogroup group_tcpwm_functions_pwm
 200:Generated_Source\PSoC6\pdl\drivers/peripheral/tcpwm/cy_tcpwm_pwm.h **** * \{
 201:Generated_Source\PSoC6\pdl\drivers/peripheral/tcpwm/cy_tcpwm_pwm.h **** */
 202:Generated_Source\PSoC6\pdl\drivers/peripheral/tcpwm/cy_tcpwm_pwm.h **** 
 203:Generated_Source\PSoC6\pdl\drivers/peripheral/tcpwm/cy_tcpwm_pwm.h **** cy_en_tcpwm_status_t Cy_TCPWM_PWM_Init(TCPWM_Type *base, uint32_t cntNum, cy_stc_tcpwm_pwm_config_t
 204:Generated_Source\PSoC6\pdl\drivers/peripheral/tcpwm/cy_tcpwm_pwm.h **** void Cy_TCPWM_PWM_DeInit(TCPWM_Type *base, uint32_t cntNum, cy_stc_tcpwm_pwm_config_t const *config
 205:Generated_Source\PSoC6\pdl\drivers/peripheral/tcpwm/cy_tcpwm_pwm.h **** __STATIC_INLINE void Cy_TCPWM_PWM_Enable(TCPWM_Type *base, uint32_t cntNum);
 206:Generated_Source\PSoC6\pdl\drivers/peripheral/tcpwm/cy_tcpwm_pwm.h **** __STATIC_INLINE void Cy_TCPWM_PWM_Disable(TCPWM_Type *base, uint32_t cntNum);
 207:Generated_Source\PSoC6\pdl\drivers/peripheral/tcpwm/cy_tcpwm_pwm.h **** __STATIC_INLINE uint32_t Cy_TCPWM_PWM_GetStatus(TCPWM_Type const *base, uint32_t cntNum);
 208:Generated_Source\PSoC6\pdl\drivers/peripheral/tcpwm/cy_tcpwm_pwm.h **** __STATIC_INLINE void Cy_TCPWM_PWM_SetCompare0(TCPWM_Type *base, uint32_t cntNum, uint32_t compare0)
 209:Generated_Source\PSoC6\pdl\drivers/peripheral/tcpwm/cy_tcpwm_pwm.h **** __STATIC_INLINE uint32_t Cy_TCPWM_PWM_GetCompare0(TCPWM_Type const *base, uint32_t cntNum);
 210:Generated_Source\PSoC6\pdl\drivers/peripheral/tcpwm/cy_tcpwm_pwm.h **** __STATIC_INLINE void Cy_TCPWM_PWM_SetCompare1(TCPWM_Type *base, uint32_t cntNum, uint32_t compare1)
 211:Generated_Source\PSoC6\pdl\drivers/peripheral/tcpwm/cy_tcpwm_pwm.h **** __STATIC_INLINE uint32_t Cy_TCPWM_PWM_GetCompare1(TCPWM_Type const *base, uint32_t cntNum);
 212:Generated_Source\PSoC6\pdl\drivers/peripheral/tcpwm/cy_tcpwm_pwm.h **** __STATIC_INLINE void Cy_TCPWM_PWM_EnableCompareSwap(TCPWM_Type *base, uint32_t cntNum, bool enable)
 213:Generated_Source\PSoC6\pdl\drivers/peripheral/tcpwm/cy_tcpwm_pwm.h **** __STATIC_INLINE void Cy_TCPWM_PWM_SetCounter(TCPWM_Type *base, uint32_t cntNum, uint32_t count);
 214:Generated_Source\PSoC6\pdl\drivers/peripheral/tcpwm/cy_tcpwm_pwm.h **** __STATIC_INLINE uint32_t Cy_TCPWM_PWM_GetCounter(TCPWM_Type const *base, uint32_t cntNum);
 215:Generated_Source\PSoC6\pdl\drivers/peripheral/tcpwm/cy_tcpwm_pwm.h **** __STATIC_INLINE void Cy_TCPWM_PWM_SetPeriod0(TCPWM_Type *base, uint32_t cntNum, uint32_t period0);
 216:Generated_Source\PSoC6\pdl\drivers/peripheral/tcpwm/cy_tcpwm_pwm.h **** __STATIC_INLINE uint32_t Cy_TCPWM_PWM_GetPeriod0(TCPWM_Type const *base, uint32_t cntNum);
 217:Generated_Source\PSoC6\pdl\drivers/peripheral/tcpwm/cy_tcpwm_pwm.h **** __STATIC_INLINE void Cy_TCPWM_PWM_SetPeriod1(TCPWM_Type *base, uint32_t cntNum, uint32_t period1);
 218:Generated_Source\PSoC6\pdl\drivers/peripheral/tcpwm/cy_tcpwm_pwm.h **** __STATIC_INLINE uint32_t Cy_TCPWM_PWM_GetPeriod1(TCPWM_Type const *base, uint32_t cntNum);
 219:Generated_Source\PSoC6\pdl\drivers/peripheral/tcpwm/cy_tcpwm_pwm.h **** __STATIC_INLINE void Cy_TCPWM_PWM_EnablePeriodSwap(TCPWM_Type *base, uint32_t cntNum, bool enable);
 220:Generated_Source\PSoC6\pdl\drivers/peripheral/tcpwm/cy_tcpwm_pwm.h **** 
 221:Generated_Source\PSoC6\pdl\drivers/peripheral/tcpwm/cy_tcpwm_pwm.h **** 
 222:Generated_Source\PSoC6\pdl\drivers/peripheral/tcpwm/cy_tcpwm_pwm.h **** /*******************************************************************************
 223:Generated_Source\PSoC6\pdl\drivers/peripheral/tcpwm/cy_tcpwm_pwm.h **** * Function Name: Cy_TCPWM_PWM_Enable
 224:Generated_Source\PSoC6\pdl\drivers/peripheral/tcpwm/cy_tcpwm_pwm.h **** ****************************************************************************//**
 225:Generated_Source\PSoC6\pdl\drivers/peripheral/tcpwm/cy_tcpwm_pwm.h **** *
 226:Generated_Source\PSoC6\pdl\drivers/peripheral/tcpwm/cy_tcpwm_pwm.h **** * Enables the counter in the TCPWM block for the PWM operation.
 227:Generated_Source\PSoC6\pdl\drivers/peripheral/tcpwm/cy_tcpwm_pwm.h **** *
 228:Generated_Source\PSoC6\pdl\drivers/peripheral/tcpwm/cy_tcpwm_pwm.h **** * \param base
 229:Generated_Source\PSoC6\pdl\drivers/peripheral/tcpwm/cy_tcpwm_pwm.h **** * The pointer to a TCPWM instance.
 230:Generated_Source\PSoC6\pdl\drivers/peripheral/tcpwm/cy_tcpwm_pwm.h **** *
 231:Generated_Source\PSoC6\pdl\drivers/peripheral/tcpwm/cy_tcpwm_pwm.h **** * \param cntNum 
 232:Generated_Source\PSoC6\pdl\drivers/peripheral/tcpwm/cy_tcpwm_pwm.h **** * The Counter instance number in the selected TCPWM.
 233:Generated_Source\PSoC6\pdl\drivers/peripheral/tcpwm/cy_tcpwm_pwm.h **** *
 234:Generated_Source\PSoC6\pdl\drivers/peripheral/tcpwm/cy_tcpwm_pwm.h **** * \funcusage
 235:Generated_Source\PSoC6\pdl\drivers/peripheral/tcpwm/cy_tcpwm_pwm.h **** * \snippet tcpwm/tcpwm_v1_0_pwm_sut_01.cydsn/main_cm4.c snippet_Cy_TCPWM_PWM_Init
 236:Generated_Source\PSoC6\pdl\drivers/peripheral/tcpwm/cy_tcpwm_pwm.h **** *
 237:Generated_Source\PSoC6\pdl\drivers/peripheral/tcpwm/cy_tcpwm_pwm.h **** *******************************************************************************/
 238:Generated_Source\PSoC6\pdl\drivers/peripheral/tcpwm/cy_tcpwm_pwm.h **** __STATIC_INLINE void Cy_TCPWM_PWM_Enable(TCPWM_Type *base, uint32_t cntNum)
 239:Generated_Source\PSoC6\pdl\drivers/peripheral/tcpwm/cy_tcpwm_pwm.h **** {
 240:Generated_Source\PSoC6\pdl\drivers/peripheral/tcpwm/cy_tcpwm_pwm.h ****     base->CTRL_SET = (1UL << cntNum);  
 241:Generated_Source\PSoC6\pdl\drivers/peripheral/tcpwm/cy_tcpwm_pwm.h **** }
 242:Generated_Source\PSoC6\pdl\drivers/peripheral/tcpwm/cy_tcpwm_pwm.h **** 
 243:Generated_Source\PSoC6\pdl\drivers/peripheral/tcpwm/cy_tcpwm_pwm.h **** /*******************************************************************************
 244:Generated_Source\PSoC6\pdl\drivers/peripheral/tcpwm/cy_tcpwm_pwm.h **** * Function Name: Cy_TCPWM_PWM_Disable
 245:Generated_Source\PSoC6\pdl\drivers/peripheral/tcpwm/cy_tcpwm_pwm.h **** ****************************************************************************//**
 246:Generated_Source\PSoC6\pdl\drivers/peripheral/tcpwm/cy_tcpwm_pwm.h **** *
 247:Generated_Source\PSoC6\pdl\drivers/peripheral/tcpwm/cy_tcpwm_pwm.h **** * Disables the counter in the TCPWM block.
ARM GAS  C:\Users\rober\AppData\Local\Temp\ccBCZTBX.s 			page 29


 248:Generated_Source\PSoC6\pdl\drivers/peripheral/tcpwm/cy_tcpwm_pwm.h **** *
 249:Generated_Source\PSoC6\pdl\drivers/peripheral/tcpwm/cy_tcpwm_pwm.h **** * \param base
 250:Generated_Source\PSoC6\pdl\drivers/peripheral/tcpwm/cy_tcpwm_pwm.h **** * The pointer to a TCPWM instance.
 251:Generated_Source\PSoC6\pdl\drivers/peripheral/tcpwm/cy_tcpwm_pwm.h **** *
 252:Generated_Source\PSoC6\pdl\drivers/peripheral/tcpwm/cy_tcpwm_pwm.h **** * \param cntNum 
 253:Generated_Source\PSoC6\pdl\drivers/peripheral/tcpwm/cy_tcpwm_pwm.h **** * The Counter instance number in the selected TCPWM.
 254:Generated_Source\PSoC6\pdl\drivers/peripheral/tcpwm/cy_tcpwm_pwm.h **** *
 255:Generated_Source\PSoC6\pdl\drivers/peripheral/tcpwm/cy_tcpwm_pwm.h **** * \funcusage
 256:Generated_Source\PSoC6\pdl\drivers/peripheral/tcpwm/cy_tcpwm_pwm.h **** * \snippet tcpwm/tcpwm_v1_0_pwm_sut_01.cydsn/main_cm4.c snippet_Cy_TCPWM_PWM_DeInit
 257:Generated_Source\PSoC6\pdl\drivers/peripheral/tcpwm/cy_tcpwm_pwm.h **** *
 258:Generated_Source\PSoC6\pdl\drivers/peripheral/tcpwm/cy_tcpwm_pwm.h **** *******************************************************************************/
 259:Generated_Source\PSoC6\pdl\drivers/peripheral/tcpwm/cy_tcpwm_pwm.h **** __STATIC_INLINE void Cy_TCPWM_PWM_Disable(TCPWM_Type *base, uint32_t cntNum)
 260:Generated_Source\PSoC6\pdl\drivers/peripheral/tcpwm/cy_tcpwm_pwm.h **** {
 261:Generated_Source\PSoC6\pdl\drivers/peripheral/tcpwm/cy_tcpwm_pwm.h ****     base->CTRL_CLR = (1UL << cntNum);
 262:Generated_Source\PSoC6\pdl\drivers/peripheral/tcpwm/cy_tcpwm_pwm.h **** }
 263:Generated_Source\PSoC6\pdl\drivers/peripheral/tcpwm/cy_tcpwm_pwm.h **** 
 264:Generated_Source\PSoC6\pdl\drivers/peripheral/tcpwm/cy_tcpwm_pwm.h **** 
 265:Generated_Source\PSoC6\pdl\drivers/peripheral/tcpwm/cy_tcpwm_pwm.h **** /*******************************************************************************
 266:Generated_Source\PSoC6\pdl\drivers/peripheral/tcpwm/cy_tcpwm_pwm.h **** * Function Name: Cy_TCPWM_PWM_GetStatus
 267:Generated_Source\PSoC6\pdl\drivers/peripheral/tcpwm/cy_tcpwm_pwm.h **** ****************************************************************************//**
 268:Generated_Source\PSoC6\pdl\drivers/peripheral/tcpwm/cy_tcpwm_pwm.h **** *
 269:Generated_Source\PSoC6\pdl\drivers/peripheral/tcpwm/cy_tcpwm_pwm.h **** * Returns the status of the PWM.
 270:Generated_Source\PSoC6\pdl\drivers/peripheral/tcpwm/cy_tcpwm_pwm.h **** *
 271:Generated_Source\PSoC6\pdl\drivers/peripheral/tcpwm/cy_tcpwm_pwm.h **** * \param base
 272:Generated_Source\PSoC6\pdl\drivers/peripheral/tcpwm/cy_tcpwm_pwm.h **** * The pointer to a TCPWM instance.
 273:Generated_Source\PSoC6\pdl\drivers/peripheral/tcpwm/cy_tcpwm_pwm.h **** *
 274:Generated_Source\PSoC6\pdl\drivers/peripheral/tcpwm/cy_tcpwm_pwm.h **** * \param cntNum 
 275:Generated_Source\PSoC6\pdl\drivers/peripheral/tcpwm/cy_tcpwm_pwm.h **** * The Counter instance number in the selected TCPWM.
 276:Generated_Source\PSoC6\pdl\drivers/peripheral/tcpwm/cy_tcpwm_pwm.h **** *
 277:Generated_Source\PSoC6\pdl\drivers/peripheral/tcpwm/cy_tcpwm_pwm.h **** * \return
 278:Generated_Source\PSoC6\pdl\drivers/peripheral/tcpwm/cy_tcpwm_pwm.h **** * The status. See \ref group_tcpwm_pwm_status
 279:Generated_Source\PSoC6\pdl\drivers/peripheral/tcpwm/cy_tcpwm_pwm.h **** *
 280:Generated_Source\PSoC6\pdl\drivers/peripheral/tcpwm/cy_tcpwm_pwm.h **** * \funcusage
 281:Generated_Source\PSoC6\pdl\drivers/peripheral/tcpwm/cy_tcpwm_pwm.h **** * \snippet tcpwm/tcpwm_v1_0_pwm_sut_01.cydsn/main_cm4.c snippet_Cy_TCPWM_PWM_GetStatus
 282:Generated_Source\PSoC6\pdl\drivers/peripheral/tcpwm/cy_tcpwm_pwm.h **** *
 283:Generated_Source\PSoC6\pdl\drivers/peripheral/tcpwm/cy_tcpwm_pwm.h **** *******************************************************************************/
 284:Generated_Source\PSoC6\pdl\drivers/peripheral/tcpwm/cy_tcpwm_pwm.h **** __STATIC_INLINE uint32_t Cy_TCPWM_PWM_GetStatus(TCPWM_Type const *base, uint32_t cntNum)
 285:Generated_Source\PSoC6\pdl\drivers/peripheral/tcpwm/cy_tcpwm_pwm.h **** {
 286:Generated_Source\PSoC6\pdl\drivers/peripheral/tcpwm/cy_tcpwm_pwm.h ****     uint32_t status = base->CNT[cntNum].STATUS;
 287:Generated_Source\PSoC6\pdl\drivers/peripheral/tcpwm/cy_tcpwm_pwm.h ****     
 288:Generated_Source\PSoC6\pdl\drivers/peripheral/tcpwm/cy_tcpwm_pwm.h ****     /* Generates proper up counting status, does not generated by HW */
 289:Generated_Source\PSoC6\pdl\drivers/peripheral/tcpwm/cy_tcpwm_pwm.h ****     status &= ~CY_TCPWM_PWM_STATUS_UP_COUNTING;
 290:Generated_Source\PSoC6\pdl\drivers/peripheral/tcpwm/cy_tcpwm_pwm.h ****     status |= ((~status & CY_TCPWM_PWM_STATUS_DOWN_COUNTING & (status >> TCPWM_CNT_STATUS_RUNNING_P
 291:Generated_Source\PSoC6\pdl\drivers/peripheral/tcpwm/cy_tcpwm_pwm.h ****                CY_TCPWM_CNT_STATUS_UP_POS);
 292:Generated_Source\PSoC6\pdl\drivers/peripheral/tcpwm/cy_tcpwm_pwm.h ****     
 293:Generated_Source\PSoC6\pdl\drivers/peripheral/tcpwm/cy_tcpwm_pwm.h ****     return(status);
 294:Generated_Source\PSoC6\pdl\drivers/peripheral/tcpwm/cy_tcpwm_pwm.h **** }
 295:Generated_Source\PSoC6\pdl\drivers/peripheral/tcpwm/cy_tcpwm_pwm.h **** 
 296:Generated_Source\PSoC6\pdl\drivers/peripheral/tcpwm/cy_tcpwm_pwm.h **** 
 297:Generated_Source\PSoC6\pdl\drivers/peripheral/tcpwm/cy_tcpwm_pwm.h **** /*******************************************************************************
 298:Generated_Source\PSoC6\pdl\drivers/peripheral/tcpwm/cy_tcpwm_pwm.h **** * Function Name: Cy_TCPWM_PWM_SetCompare0
 299:Generated_Source\PSoC6\pdl\drivers/peripheral/tcpwm/cy_tcpwm_pwm.h **** ****************************************************************************//**
 300:Generated_Source\PSoC6\pdl\drivers/peripheral/tcpwm/cy_tcpwm_pwm.h **** *
 301:Generated_Source\PSoC6\pdl\drivers/peripheral/tcpwm/cy_tcpwm_pwm.h **** * Sets the compare value for Compare0 when the compare mode enabled.
 302:Generated_Source\PSoC6\pdl\drivers/peripheral/tcpwm/cy_tcpwm_pwm.h **** *
 303:Generated_Source\PSoC6\pdl\drivers/peripheral/tcpwm/cy_tcpwm_pwm.h **** * \param base
 304:Generated_Source\PSoC6\pdl\drivers/peripheral/tcpwm/cy_tcpwm_pwm.h **** * The pointer to a TCPWM instance.
ARM GAS  C:\Users\rober\AppData\Local\Temp\ccBCZTBX.s 			page 30


 305:Generated_Source\PSoC6\pdl\drivers/peripheral/tcpwm/cy_tcpwm_pwm.h **** *
 306:Generated_Source\PSoC6\pdl\drivers/peripheral/tcpwm/cy_tcpwm_pwm.h **** * \param cntNum 
 307:Generated_Source\PSoC6\pdl\drivers/peripheral/tcpwm/cy_tcpwm_pwm.h **** * The Counter instance number in the selected TCPWM.
 308:Generated_Source\PSoC6\pdl\drivers/peripheral/tcpwm/cy_tcpwm_pwm.h **** *
 309:Generated_Source\PSoC6\pdl\drivers/peripheral/tcpwm/cy_tcpwm_pwm.h **** * \param compare0
 310:Generated_Source\PSoC6\pdl\drivers/peripheral/tcpwm/cy_tcpwm_pwm.h **** * The Compare0 value.
 311:Generated_Source\PSoC6\pdl\drivers/peripheral/tcpwm/cy_tcpwm_pwm.h **** *
 312:Generated_Source\PSoC6\pdl\drivers/peripheral/tcpwm/cy_tcpwm_pwm.h **** * \funcusage
 313:Generated_Source\PSoC6\pdl\drivers/peripheral/tcpwm/cy_tcpwm_pwm.h **** * \snippet tcpwm/tcpwm_v1_0_pwm_sut_01.cydsn/main_cm4.c snippet_Cy_TCPWM_PWM_SetCompare0
 314:Generated_Source\PSoC6\pdl\drivers/peripheral/tcpwm/cy_tcpwm_pwm.h **** *
 315:Generated_Source\PSoC6\pdl\drivers/peripheral/tcpwm/cy_tcpwm_pwm.h **** *******************************************************************************/
 316:Generated_Source\PSoC6\pdl\drivers/peripheral/tcpwm/cy_tcpwm_pwm.h **** __STATIC_INLINE void Cy_TCPWM_PWM_SetCompare0(TCPWM_Type *base, uint32_t cntNum,  uint32_t compare0
 317:Generated_Source\PSoC6\pdl\drivers/peripheral/tcpwm/cy_tcpwm_pwm.h **** {
 318:Generated_Source\PSoC6\pdl\drivers/peripheral/tcpwm/cy_tcpwm_pwm.h ****     base->CNT[cntNum].CC = compare0;
 332              		.loc 3 318 0
 333 0006 264B     		ldr	r3, .L25+4
 334 0008 C3F88C21 		str	r2, [r3, #396]
 335              	.LVL32:
 336              	.L18:
 337              	.LBE27:
 338              	.LBE26:
 198:main_cm4.c    ****     
 339              		.loc 1 198 0 discriminator 1
 340 000c FFF7FEFF 		bl	Status_SW2_Read
 341              	.LVL33:
 342 0010 0028     		cmp	r0, #0
 343 0012 FBD1     		bne	.L18
 344 0014 12E0     		b	.L19
 345              	.L20:
 203:main_cm4.c    ****         compareValue = (compareValue + 1) % 100;
 346              		.loc 1 203 0
 347 0016 2148     		ldr	r0, .L25
 348 0018 4368     		ldr	r3, [r0, #4]
 349              	.LVL34:
 350              	.LBB28:
 351              	.LBB29:
 352              		.loc 3 318 0
 353 001a 214A     		ldr	r2, .L25+4
 354 001c C2F88C31 		str	r3, [r2, #396]
 355              	.LVL35:
 356              	.LBE29:
 357              	.LBE28:
 204:main_cm4.c    ****         CyDelay(20);
 358              		.loc 1 204 0
 359 0020 0133     		adds	r3, r3, #1
 360 0022 204A     		ldr	r2, .L25+8
 361 0024 82FB0321 		smull	r2, r1, r2, r3
 362 0028 DA17     		asrs	r2, r3, #31
 363 002a C2EB6112 		rsb	r2, r2, r1, asr #5
 364 002e 6421     		movs	r1, #100
 365 0030 01FB1232 		mls	r2, r1, r2, r3
 366 0034 4260     		str	r2, [r0, #4]
 205:main_cm4.c    ****     };
 367              		.loc 1 205 0
 368 0036 1420     		movs	r0, #20
 369 0038 FFF7FEFF 		bl	Cy_SysLib_Delay
 370              	.LVL36:
ARM GAS  C:\Users\rober\AppData\Local\Temp\ccBCZTBX.s 			page 31


 371              	.L19:
 201:main_cm4.c    ****     {
 372              		.loc 1 201 0
 373 003c FFF7FEFF 		bl	Status_SW2_Read
 374              	.LVL37:
 375 0040 0028     		cmp	r0, #0
 376 0042 E8D0     		beq	.L20
 208:main_cm4.c    ****     {
 377              		.loc 1 208 0
 378 0044 184B     		ldr	r3, .L25+12
 379 0046 D3F8C835 		ldr	r3, [r3, #1480]
 380 004a 012B     		cmp	r3, #1
 381 004c 09D1     		bne	.L21
 210:main_cm4.c    ****         which_data_table = 1;
 382              		.loc 1 210 0
 383 004e 164B     		ldr	r3, .L25+12
 384 0050 0022     		movs	r2, #0
 385 0052 C3F8CC25 		str	r2, [r3, #1484]
 211:main_cm4.c    ****         modeSwitch = 0;
 386              		.loc 1 211 0
 387 0056 0120     		movs	r0, #1
 388 0058 1049     		ldr	r1, .L25
 389 005a 8860     		str	r0, [r1, #8]
 212:main_cm4.c    ****     }
 390              		.loc 1 212 0
 391 005c C3F8C825 		str	r2, [r3, #1480]
 392 0060 08BD     		pop	{r3, pc}
 393              	.L21:
 214:main_cm4.c    ****     {
 394              		.loc 1 214 0
 395 0062 114A     		ldr	r2, .L25+12
 396 0064 D2F8CC35 		ldr	r3, [r2, #1484]
 397 0068 0633     		adds	r3, r3, #6
 398 006a D2F8D025 		ldr	r2, [r2, #1488]
 399 006e 9342     		cmp	r3, r2
 400 0070 03DA     		bge	.L23
 216:main_cm4.c    ****     }
 401              		.loc 1 216 0
 402 0072 0D4A     		ldr	r2, .L25+12
 403 0074 C2F8CC35 		str	r3, [r2, #1484]
 404 0078 08BD     		pop	{r3, pc}
 405              	.L23:
 220:main_cm4.c    ****         which_data_table++;
 406              		.loc 1 220 0
 407 007a 0022     		movs	r2, #0
 408 007c 0A4B     		ldr	r3, .L25+12
 409 007e C3F8CC25 		str	r2, [r3, #1484]
 221:main_cm4.c    ****         
 410              		.loc 1 221 0
 411 0082 064A     		ldr	r2, .L25
 412 0084 9368     		ldr	r3, [r2, #8]
 413 0086 0133     		adds	r3, r3, #1
 414 0088 9360     		str	r3, [r2, #8]
 223:main_cm4.c    ****             which_data_table = 1;
 415              		.loc 1 223 0
 416 008a 032B     		cmp	r3, #3
 417 008c 04D1     		bne	.L17
ARM GAS  C:\Users\rober\AppData\Local\Temp\ccBCZTBX.s 			page 32


 224:main_cm4.c    ****             modeSwitch = 1;
 418              		.loc 1 224 0
 419 008e 0123     		movs	r3, #1
 420 0090 9360     		str	r3, [r2, #8]
 225:main_cm4.c    ****         }
 421              		.loc 1 225 0
 422 0092 054A     		ldr	r2, .L25+12
 423 0094 C2F8C835 		str	r3, [r2, #1480]
 424              	.L17:
 425 0098 08BD     		pop	{r3, pc}
 426              	.L26:
 427 009a 00BF     		.align	2
 428              	.L25:
 429 009c 00000000 		.word	.LANCHOR2
 430 00a0 00003840 		.word	1077411840
 431 00a4 1F85EB51 		.word	1374389535
 432 00a8 F8100000 		.word	.LANCHOR1
 433              		.cfi_endproc
 434              	.LFE607:
 435              		.size	WaitforSwitchPressAndRelease, .-WaitforSwitchPressAndRelease
 436              		.section	.text.InitGraph,"ax",%progbits
 437              		.align	2
 438              		.global	InitGraph
 439              		.thumb
 440              		.thumb_func
 441              		.type	InitGraph, %function
 442              	InitGraph:
 443              	.LFB608:
 250:main_cm4.c    ****         /* Set font size, foreground and background colors */
 444              		.loc 1 250 0
 445              		.cfi_startproc
 446              		@ args = 0, pretend = 0, frame = 0
 447              		@ frame_needed = 0, uses_anonymous_args = 0
 448 0000 08B5     		push	{r3, lr}
 449              		.cfi_def_cfa_offset 8
 450              		.cfi_offset 3, -8
 451              		.cfi_offset 14, -4
 252:main_cm4.c    ****     GUI_SetBkColor(GUI_WHITE);
 452              		.loc 1 252 0
 453 0002 0020     		movs	r0, #0
 454 0004 FFF7FEFF 		bl	GUI_SetColor
 455              	.LVL38:
 253:main_cm4.c    ****     GUI_SetTextMode(GUI_TM_NORMAL);
 456              		.loc 1 253 0
 457 0008 6FF07F40 		mvn	r0, #-16777216
 458 000c FFF7FEFF 		bl	GUI_SetBkColor
 459              	.LVL39:
 254:main_cm4.c    ****     GUI_SetTextStyle(GUI_TS_NORMAL);
 460              		.loc 1 254 0
 461 0010 0020     		movs	r0, #0
 462 0012 FFF7FEFF 		bl	GUI_SetTextMode
 463              	.LVL40:
 255:main_cm4.c    **** 
 464              		.loc 1 255 0
 465 0016 0020     		movs	r0, #0
 466 0018 FFF7FEFF 		bl	GUI_SetTextStyle
 467              	.LVL41:
ARM GAS  C:\Users\rober\AppData\Local\Temp\ccBCZTBX.s 			page 33


 258:main_cm4.c    **** 
 468              		.loc 1 258 0
 469 001c FFF7FEFF 		bl	GUI_Clear
 470              	.LVL42:
 261:main_cm4.c    ****     GUI_SetTextAlign(GUI_TA_HCENTER);
 471              		.loc 1 261 0
 472 0020 0548     		ldr	r0, .L29
 473 0022 FFF7FEFF 		bl	GUI_SetFont
 474              	.LVL43:
 262:main_cm4.c    ****     GUI_DispStringAt("LINE GRAPH DEMO", 132, 5);
 475              		.loc 1 262 0
 476 0026 0220     		movs	r0, #2
 477 0028 FFF7FEFF 		bl	GUI_SetTextAlign
 478              	.LVL44:
 263:main_cm4.c    **** }
 479              		.loc 1 263 0
 480 002c 0522     		movs	r2, #5
 481 002e 8421     		movs	r1, #132
 482 0030 0248     		ldr	r0, .L29+4
 483 0032 FFF7FEFF 		bl	GUI_DispStringAt
 484              	.LVL45:
 485 0036 08BD     		pop	{r3, pc}
 486              	.L30:
 487              		.align	2
 488              	.L29:
 489 0038 00000000 		.word	GUI_Font13B_1
 490 003c 2C000000 		.word	.LC10
 491              		.cfi_endproc
 492              	.LFE608:
 493              		.size	InitGraph, .-InitGraph
 494              		.section	.text.ShowGraph_WithUpdate,"ax",%progbits
 495              		.align	2
 496              		.global	ShowGraph_WithUpdate
 497              		.thumb
 498              		.thumb_func
 499              		.type	ShowGraph_WithUpdate, %function
 500              	ShowGraph_WithUpdate:
 501              	.LFB609:
 286:main_cm4.c    ****     ClearScreen();
 502              		.loc 1 286 0
 503              		.cfi_startproc
 504              		@ args = 0, pretend = 0, frame = 128
 505              		@ frame_needed = 1, uses_anonymous_args = 0
 506 0000 2DE9F043 		push	{r4, r5, r6, r7, r8, r9, lr}
 507              		.cfi_def_cfa_offset 28
 508              		.cfi_offset 4, -28
 509              		.cfi_offset 5, -24
 510              		.cfi_offset 6, -20
 511              		.cfi_offset 7, -16
 512              		.cfi_offset 8, -12
 513              		.cfi_offset 9, -8
 514              		.cfi_offset 14, -4
 515 0004 A1B0     		sub	sp, sp, #132
 516              		.cfi_def_cfa_offset 160
 517 0006 00AF     		add	r7, sp, #0
 518              		.cfi_def_cfa_register 7
 287:main_cm4.c    ****     
ARM GAS  C:\Users\rober\AppData\Local\Temp\ccBCZTBX.s 			page 34


 519              		.loc 1 287 0
 520 0008 FFF7FEFF 		bl	ClearScreen
 521              	.LVL46:
 289:main_cm4.c    ****     
 522              		.loc 1 289 0
 523 000c 644A     		ldr	r2, .L51
 524 000e D2F8D435 		ldr	r3, [r2, #1492]
 525 0012 0133     		adds	r3, r3, #1
 526 0014 C2F8D435 		str	r3, [r2, #1492]
 291:main_cm4.c    ****         whichData = 1;
 527              		.loc 1 291 0
 528 0018 032B     		cmp	r3, #3
 529 001a 03D1     		bne	.L32
 292:main_cm4.c    ****     }
 530              		.loc 1 292 0
 531 001c 0122     		movs	r2, #1
 532 001e 604B     		ldr	r3, .L51
 533 0020 C3F8D425 		str	r2, [r3, #1492]
 534              	.L32:
 535              	.LVL47:
 297:main_cm4.c    ****     {
 536              		.loc 1 297 0
 537 0024 5E4B     		ldr	r3, .L51
 538 0026 D3F8D435 		ldr	r3, [r3, #1492]
 539 002a 012B     		cmp	r3, #1
 540 002c 03D0     		beq	.L45
 301:main_cm4.c    ****     {
 541              		.loc 1 301 0
 542 002e 022B     		cmp	r3, #2
 543 0030 03D0     		beq	.L46
 295:main_cm4.c    ****     
 544              		.loc 1 295 0
 545 0032 0024     		movs	r4, #0
 546 0034 02E0     		b	.L33
 547              	.L45:
 299:main_cm4.c    ****     }
 548              		.loc 1 299 0
 549 0036 0524     		movs	r4, #5
 550 0038 00E0     		b	.L33
 551              	.L46:
 303:main_cm4.c    ****     }
 552              		.loc 1 303 0
 553 003a 0C24     		movs	r4, #12
 554              	.L33:
 555              	.LVL48:
 306:main_cm4.c    ****     
 556              		.loc 1 306 0
 557 003c 04F1FF38 		add	r8, r4, #-1
 558              	.LVL49:
 559 0040 E200     		lsls	r2, r4, #3
 560 0042 0832     		adds	r2, r2, #8
 561 0044 ADEB020D 		sub	sp, sp, r2
 562 0048 6E46     		mov	r6, sp
 563              	.LVL50:
 308:main_cm4.c    ****     {
 564              		.loc 1 308 0
 565 004a 012B     		cmp	r3, #1
ARM GAS  C:\Users\rober\AppData\Local\Temp\ccBCZTBX.s 			page 35


 566 004c 0FD1     		bne	.L49
 567 004e 0AE0     		b	.L47
 568              	.LVL51:
 569              	.L36:
 570              	.LBB30:
 311:main_cm4.c    ****             data[i].time = reflowData[i].time;
 571              		.loc 1 311 0 discriminator 3
 572 0050 D900     		lsls	r1, r3, #3
 573 0052 544A     		ldr	r2, .L51+4
 574 0054 0A44     		add	r2, r2, r1
 575 0056 1069     		ldr	r0, [r2, #16]
 576 0058 3144     		add	r1, r1, r6
 577 005a 4860     		str	r0, [r1, #4]
 312:main_cm4.c    ****         }
 578              		.loc 1 312 0 discriminator 3
 579 005c D268     		ldr	r2, [r2, #12]
 580 005e 46F83320 		str	r2, [r6, r3, lsl #3]
 310:main_cm4.c    ****             data[i].temperature = reflowData[i].temperature;
 581              		.loc 1 310 0 discriminator 3
 582 0062 0133     		adds	r3, r3, #1
 583              	.LVL52:
 584 0064 00E0     		b	.L34
 585              	.LVL53:
 586              	.L47:
 587              	.LBE30:
 588 0066 0023     		movs	r3, #0
 589              	.L34:
 590              	.LVL54:
 591              	.LBB31:
 310:main_cm4.c    ****             data[i].temperature = reflowData[i].temperature;
 592              		.loc 1 310 0 is_stmt 0 discriminator 1
 593 0068 9C42     		cmp	r4, r3
 594 006a F1DC     		bgt	.L36
 595 006c 10E0     		b	.L37
 596              	.LVL55:
 597              	.L49:
 598              	.LBE31:
 315:main_cm4.c    ****     {
 599              		.loc 1 315 0 is_stmt 1
 600 006e 022B     		cmp	r3, #2
 601 0070 0ED1     		bne	.L37
 602 0072 0AE0     		b	.L48
 603              	.LVL56:
 604              	.L39:
 605              	.LBB32:
 318:main_cm4.c    ****             data[i].time = leadData[i].time;
 606              		.loc 1 318 0 discriminator 3
 607 0074 D900     		lsls	r1, r3, #3
 608 0076 4B4A     		ldr	r2, .L51+4
 609 0078 0A44     		add	r2, r2, r1
 610 007a 906B     		ldr	r0, [r2, #56]
 611 007c 3144     		add	r1, r1, r6
 612 007e 4860     		str	r0, [r1, #4]
 319:main_cm4.c    ****         }
 613              		.loc 1 319 0 discriminator 3
 614 0080 526B     		ldr	r2, [r2, #52]
 615 0082 46F83320 		str	r2, [r6, r3, lsl #3]
ARM GAS  C:\Users\rober\AppData\Local\Temp\ccBCZTBX.s 			page 36


 317:main_cm4.c    ****             data[i].temperature = leadData[i].temperature;
 616              		.loc 1 317 0 discriminator 3
 617 0086 0133     		adds	r3, r3, #1
 618              	.LVL57:
 619 0088 00E0     		b	.L38
 620              	.LVL58:
 621              	.L48:
 622              	.LBE32:
 623 008a 0023     		movs	r3, #0
 624              	.L38:
 625              	.LVL59:
 626              	.LBB33:
 317:main_cm4.c    ****             data[i].temperature = leadData[i].temperature;
 627              		.loc 1 317 0 is_stmt 0 discriminator 1
 628 008c 9C42     		cmp	r4, r3
 629 008e F1DC     		bgt	.L39
 630              	.LVL60:
 631              	.L37:
 632              	.LBE33:
 324:main_cm4.c    ****     char yAxisLabels[6][4] = {"0", "60", "120", "180", "240", "300"};
 633              		.loc 1 324 0 is_stmt 1
 634 0090 454C     		ldr	r4, .L51+8
 635              	.LVL61:
 636 0092 07F1500E 		add	lr, r7, #80
 637 0096 04F1300C 		add	ip, r4, #48
 638              	.L40:
 639 009a 7546     		mov	r5, lr
 640 009c 2068     		ldr	r0, [r4]	@ unaligned
 641 009e 6168     		ldr	r1, [r4, #4]	@ unaligned
 642 00a0 A268     		ldr	r2, [r4, #8]	@ unaligned
 643 00a2 E368     		ldr	r3, [r4, #12]	@ unaligned
 644 00a4 0FC5     		stmia	r5!, {r0, r1, r2, r3}
 645 00a6 1034     		adds	r4, r4, #16
 646 00a8 AE46     		mov	lr, r5
 647 00aa 6445     		cmp	r4, ip
 648 00ac F5D1     		bne	.L40
 325:main_cm4.c    ****     int xAxisTicks[8] = {30, 60, 90, 120, 150, 180, 210, 240};
 649              		.loc 1 325 0
 650 00ae 3E4C     		ldr	r4, .L51+8
 651 00b0 07F13805 		add	r5, r7, #56
 652 00b4 A646     		mov	lr, r4
 653 00b6 5EF8300F 		ldr	r0, [lr, #48]!	@ unaligned
 654 00ba DEF80410 		ldr	r1, [lr, #4]	@ unaligned
 655 00be DEF80820 		ldr	r2, [lr, #8]	@ unaligned
 656 00c2 DEF80C30 		ldr	r3, [lr, #12]	@ unaligned
 657 00c6 0FC5     		stmia	r5!, {r0, r1, r2, r3}
 658 00c8 DEF81000 		ldr	r0, [lr, #16]	@ unaligned
 659 00cc DEF81410 		ldr	r1, [lr, #20]	@ unaligned
 660 00d0 03C5     		stmia	r5!, {r0, r1}
 326:main_cm4.c    ****     int yAxisTicks[6] = {20, 50, 80, 110, 140, 170};
 661              		.loc 1 326 0
 662 00d2 07F11805 		add	r5, r7, #24
 663 00d6 04F1480E 		add	lr, r4, #72
 664 00da BEE80F00 		ldmia	lr!, {r0, r1, r2, r3}
 665 00de 0FC5     		stmia	r5!, {r0, r1, r2, r3}
 666 00e0 9EE80F00 		ldmia	lr, {r0, r1, r2, r3}
 667 00e4 85E80F00 		stmia	r5, {r0, r1, r2, r3}
ARM GAS  C:\Users\rober\AppData\Local\Temp\ccBCZTBX.s 			page 37


 327:main_cm4.c    ****     
 668              		.loc 1 327 0
 669 00e8 3D46     		mov	r5, r7
 670 00ea 6834     		adds	r4, r4, #104
 671 00ec 0FCC     		ldmia	r4!, {r0, r1, r2, r3}
 672 00ee 0FC5     		stmia	r5!, {r0, r1, r2, r3}
 673 00f0 94E80300 		ldmia	r4, {r0, r1}
 674 00f4 85E80300 		stmia	r5, {r0, r1}
 330:main_cm4.c    ****     
 675              		.loc 1 330 0
 676 00f8 9623     		movs	r3, #150
 677 00fa FE22     		movs	r2, #254
 678 00fc 1421     		movs	r1, #20
 679 00fe 0A20     		movs	r0, #10
 680 0100 FFF7FEFF 		bl	GUI_ClearRect
 681              	.LVL62:
 333:main_cm4.c    ****     GUI_DrawLine(30, 150, 250, 150); // X axis
 682              		.loc 1 333 0
 683 0104 C823     		movs	r3, #200
 684 0106 1E22     		movs	r2, #30
 685 0108 1421     		movs	r1, #20
 686 010a 1046     		mov	r0, r2
 687 010c FFF7FEFF 		bl	GUI_DrawLine
 688              	.LVL63:
 334:main_cm4.c    **** 
 689              		.loc 1 334 0
 690 0110 9623     		movs	r3, #150
 691 0112 FA22     		movs	r2, #250
 692 0114 1946     		mov	r1, r3
 693 0116 1E20     		movs	r0, #30
 694 0118 FFF7FEFF 		bl	GUI_DrawLine
 695              	.LVL64:
 696              	.LBB34:
 337:main_cm4.c    ****         GUI_DrawLine(xAxisTicks[i], 150, xAxisTicks[i], 155);
 697              		.loc 1 337 0
 698 011c 0024     		movs	r4, #0
 699 011e 17E0     		b	.L41
 700              	.LVL65:
 701              	.L42:
 338:main_cm4.c    ****         GUI_DispStringAt(xAxisLabels[i], xAxisTicks[i] - 10, 155);
 702              		.loc 1 338 0 discriminator 3
 703 0120 07F18003 		add	r3, r7, #128
 704 0124 03EB8403 		add	r3, r3, r4, lsl #2
 705 0128 53F8685C 		ldr	r5, [r3, #-104]
 706 012c 9B23     		movs	r3, #155
 707 012e 2A46     		mov	r2, r5
 708 0130 9621     		movs	r1, #150
 709 0132 2846     		mov	r0, r5
 710 0134 FFF7FEFF 		bl	GUI_DrawLine
 711              	.LVL66:
 339:main_cm4.c    ****     }
 712              		.loc 1 339 0 discriminator 3
 713 0138 04EB4403 		add	r3, r4, r4, lsl #1
 714 013c 5800     		lsls	r0, r3, #1
 715 013e 9B22     		movs	r2, #155
 716 0140 A5F10A01 		sub	r1, r5, #10
 717 0144 07F15003 		add	r3, r7, #80
ARM GAS  C:\Users\rober\AppData\Local\Temp\ccBCZTBX.s 			page 38


 718 0148 1844     		add	r0, r0, r3
 719 014a FFF7FEFF 		bl	GUI_DispStringAt
 720              	.LVL67:
 337:main_cm4.c    ****         GUI_DrawLine(xAxisTicks[i], 150, xAxisTicks[i], 155);
 721              		.loc 1 337 0 discriminator 3
 722 014e 0134     		adds	r4, r4, #1
 723              	.LVL68:
 724              	.L41:
 337:main_cm4.c    ****         GUI_DrawLine(xAxisTicks[i], 150, xAxisTicks[i], 155);
 725              		.loc 1 337 0 is_stmt 0 discriminator 1
 726 0150 072C     		cmp	r4, #7
 727 0152 E5DD     		ble	.L42
 728 0154 0024     		movs	r4, #0
 729              	.LVL69:
 730 0156 15E0     		b	.L43
 731              	.LVL70:
 732              	.L44:
 733              	.LBE34:
 734              	.LBB35:
 343:main_cm4.c    ****         GUI_DispStringAt(yAxisLabels[i], 5, 170 - yAxisTicks[i] - 6);
 735              		.loc 1 343 0 is_stmt 1 discriminator 3
 736 0158 A500     		lsls	r5, r4, #2
 737 015a 07F18003 		add	r3, r7, #128
 738 015e 2B44     		add	r3, r3, r5
 739 0160 53F8809C 		ldr	r9, [r3, #-128]
 740 0164 C9F1AA01 		rsb	r1, r9, #170
 741 0168 0B46     		mov	r3, r1
 742 016a 1E22     		movs	r2, #30
 743 016c 1920     		movs	r0, #25
 744 016e FFF7FEFF 		bl	GUI_DrawLine
 745              	.LVL71:
 344:main_cm4.c    ****     }
 746              		.loc 1 344 0 discriminator 3
 747 0172 C9F1A402 		rsb	r2, r9, #164
 748 0176 0521     		movs	r1, #5
 749 0178 07F13803 		add	r3, r7, #56
 750 017c 5819     		adds	r0, r3, r5
 751 017e FFF7FEFF 		bl	GUI_DispStringAt
 752              	.LVL72:
 342:main_cm4.c    ****         GUI_DrawLine(25, 170 - yAxisTicks[i], 30, 170 - yAxisTicks[i]);
 753              		.loc 1 342 0 discriminator 3
 754 0182 0134     		adds	r4, r4, #1
 755              	.LVL73:
 756              	.L43:
 342:main_cm4.c    ****         GUI_DrawLine(25, 170 - yAxisTicks[i], 30, 170 - yAxisTicks[i]);
 757              		.loc 1 342 0 is_stmt 0 discriminator 1
 758 0184 052C     		cmp	r4, #5
 759 0186 E7DD     		ble	.L44
 760              	.LBE35:
 347:main_cm4.c    ****     programStarted = true;
 761              		.loc 1 347 0 is_stmt 1
 762 0188 56F83820 		ldr	r2, [r6, r8, lsl #3]
 763 018c 044B     		ldr	r3, .L51
 764 018e C3F8C425 		str	r2, [r3, #1476]
 348:main_cm4.c    **** }
 765              		.loc 1 348 0
 766 0192 0122     		movs	r2, #1
ARM GAS  C:\Users\rober\AppData\Local\Temp\ccBCZTBX.s 			page 39


 767 0194 83F8B825 		strb	r2, [r3, #1464]
 349:main_cm4.c    **** 
 768              		.loc 1 349 0
 769 0198 8437     		adds	r7, r7, #132
 770              		.cfi_def_cfa_offset 28
 771 019a BD46     		mov	sp, r7
 772              		.cfi_def_cfa_register 13
 773              		@ sp needed
 774 019c BDE8F083 		pop	{r4, r5, r6, r7, r8, r9, pc}
 775              	.LVL74:
 776              	.L52:
 777              		.align	2
 778              	.L51:
 779 01a0 F8100000 		.word	.LANCHOR1
 780 01a4 00000000 		.word	.LANCHOR2
 781 01a8 00000000 		.word	.LANCHOR3
 782              		.cfi_endproc
 783              	.LFE609:
 784              		.size	ShowGraph_WithUpdate, .-ShowGraph_WithUpdate
 785              		.section	.text.ShowTable,"ax",%progbits
 786              		.align	2
 787              		.global	ShowTable
 788              		.thumb
 789              		.thumb_func
 790              		.type	ShowTable, %function
 791              	ShowTable:
 792              	.LFB610:
 352:main_cm4.c    ****     ClearScreen();
 793              		.loc 1 352 0
 794              		.cfi_startproc
 795              		@ args = 0, pretend = 0, frame = 32
 796              		@ frame_needed = 1, uses_anonymous_args = 0
 797 0000 2DE9F041 		push	{r4, r5, r6, r7, r8, lr}
 798              		.cfi_def_cfa_offset 24
 799              		.cfi_offset 4, -24
 800              		.cfi_offset 5, -20
 801              		.cfi_offset 6, -16
 802              		.cfi_offset 7, -12
 803              		.cfi_offset 8, -8
 804              		.cfi_offset 14, -4
 805 0004 88B0     		sub	sp, sp, #32
 806              		.cfi_def_cfa_offset 56
 807 0006 00AF     		add	r7, sp, #0
 808              		.cfi_def_cfa_register 7
 353:main_cm4.c    ****     
 809              		.loc 1 353 0
 810 0008 FFF7FEFF 		bl	ClearScreen
 811              	.LVL75:
 356:main_cm4.c    ****     GUI_SetBkColor(GUI_WHITE);
 812              		.loc 1 356 0
 813 000c 0020     		movs	r0, #0
 814 000e FFF7FEFF 		bl	GUI_SetColor
 815              	.LVL76:
 357:main_cm4.c    ****     GUI_SetTextMode(GUI_TM_NORMAL);
 816              		.loc 1 357 0
 817 0012 6FF07F40 		mvn	r0, #-16777216
 818 0016 FFF7FEFF 		bl	GUI_SetBkColor
ARM GAS  C:\Users\rober\AppData\Local\Temp\ccBCZTBX.s 			page 40


 819              	.LVL77:
 358:main_cm4.c    ****     GUI_SetTextStyle(GUI_TS_NORMAL);
 820              		.loc 1 358 0
 821 001a 0020     		movs	r0, #0
 822 001c FFF7FEFF 		bl	GUI_SetTextMode
 823              	.LVL78:
 359:main_cm4.c    **** 
 824              		.loc 1 359 0
 825 0020 0020     		movs	r0, #0
 826 0022 FFF7FEFF 		bl	GUI_SetTextStyle
 827              	.LVL79:
 362:main_cm4.c    ****     
 828              		.loc 1 362 0
 829 0026 FFF7FEFF 		bl	GUI_Clear
 830              	.LVL80:
 366:main_cm4.c    ****     {
 831              		.loc 1 366 0
 832 002a 4E4B     		ldr	r3, .L68
 833 002c 9B68     		ldr	r3, [r3, #8]
 834 002e 012B     		cmp	r3, #1
 835 0030 03D0     		beq	.L65
 370:main_cm4.c    ****     {
 836              		.loc 1 370 0
 837 0032 022B     		cmp	r3, #2
 838 0034 03D0     		beq	.L66
 364:main_cm4.c    ****     
 839              		.loc 1 364 0
 840 0036 0026     		movs	r6, #0
 841 0038 02E0     		b	.L54
 842              	.L65:
 368:main_cm4.c    ****     }
 843              		.loc 1 368 0
 844 003a 0526     		movs	r6, #5
 845 003c 00E0     		b	.L54
 846              	.L66:
 372:main_cm4.c    ****     }
 847              		.loc 1 372 0
 848 003e 0C26     		movs	r6, #12
 849              	.L54:
 850              	.LVL81:
 375:main_cm4.c    ****     
 851              		.loc 1 375 0
 852 0040 494A     		ldr	r2, .L68+4
 853 0042 C2F8D065 		str	r6, [r2, #1488]
 854              	.LVL82:
 377:main_cm4.c    ****     
 855              		.loc 1 377 0
 856 0046 F200     		lsls	r2, r6, #3
 857 0048 0832     		adds	r2, r2, #8
 858 004a ADEB020D 		sub	sp, sp, r2
 859 004e 6D46     		mov	r5, sp
 860              	.LVL83:
 379:main_cm4.c    ****     
 861              		.loc 1 379 0
 862 0050 464A     		ldr	r2, .L68+8
 863 0052 92E80300 		ldmia	r2, {r0, r1}
 864 0056 07F12002 		add	r2, r7, #32
ARM GAS  C:\Users\rober\AppData\Local\Temp\ccBCZTBX.s 			page 41


 865 005a 02E90300 		stmdb	r2, {r0, r1}
 381:main_cm4.c    ****     {
 866              		.loc 1 381 0
 867 005e 012B     		cmp	r3, #1
 868 0060 10D1     		bne	.L55
 869              	.LBB36:
 383:main_cm4.c    ****             data[i].temperature = reflowData[i].temperature;
 870              		.loc 1 383 0
 871 0062 414B     		ldr	r3, .L68+4
 872 0064 D3F8CC35 		ldr	r3, [r3, #1484]
 873              	.LVL84:
 874 0068 09E0     		b	.L56
 875              	.L57:
 384:main_cm4.c    ****             data[i].time = reflowData[i].time;
 876              		.loc 1 384 0 discriminator 3
 877 006a D900     		lsls	r1, r3, #3
 878 006c 3D4A     		ldr	r2, .L68
 879 006e 0A44     		add	r2, r2, r1
 880 0070 1069     		ldr	r0, [r2, #16]
 881 0072 2944     		add	r1, r1, r5
 882 0074 4860     		str	r0, [r1, #4]
 385:main_cm4.c    ****         }
 883              		.loc 1 385 0 discriminator 3
 884 0076 D268     		ldr	r2, [r2, #12]
 885 0078 45F83320 		str	r2, [r5, r3, lsl #3]
 383:main_cm4.c    ****             data[i].temperature = reflowData[i].temperature;
 886              		.loc 1 383 0 discriminator 3
 887 007c 0133     		adds	r3, r3, #1
 888              	.LVL85:
 889              	.L56:
 383:main_cm4.c    ****             data[i].temperature = reflowData[i].temperature;
 890              		.loc 1 383 0 is_stmt 0 discriminator 1
 891 007e 9E42     		cmp	r6, r3
 892 0080 F3DC     		bgt	.L57
 893 0082 11E0     		b	.L58
 894              	.LVL86:
 895              	.L55:
 896              	.LBE36:
 388:main_cm4.c    ****     {
 897              		.loc 1 388 0 is_stmt 1
 898 0084 022B     		cmp	r3, #2
 899 0086 0FD1     		bne	.L58
 900              	.LBB37:
 390:main_cm4.c    ****             data[i].temperature = leadData[i].temperature;
 901              		.loc 1 390 0
 902 0088 374B     		ldr	r3, .L68+4
 903 008a D3F8CC35 		ldr	r3, [r3, #1484]
 904              	.LVL87:
 905 008e 09E0     		b	.L59
 906              	.L60:
 391:main_cm4.c    ****             data[i].time = leadData[i].time;
 907              		.loc 1 391 0 discriminator 3
 908 0090 D900     		lsls	r1, r3, #3
 909 0092 344A     		ldr	r2, .L68
 910 0094 0A44     		add	r2, r2, r1
 911 0096 906B     		ldr	r0, [r2, #56]
 912 0098 2944     		add	r1, r1, r5
ARM GAS  C:\Users\rober\AppData\Local\Temp\ccBCZTBX.s 			page 42


 913 009a 4860     		str	r0, [r1, #4]
 392:main_cm4.c    ****         }
 914              		.loc 1 392 0 discriminator 3
 915 009c 526B     		ldr	r2, [r2, #52]
 916 009e 45F83320 		str	r2, [r5, r3, lsl #3]
 390:main_cm4.c    ****             data[i].temperature = leadData[i].temperature;
 917              		.loc 1 390 0 discriminator 3
 918 00a2 0133     		adds	r3, r3, #1
 919              	.LVL88:
 920              	.L59:
 390:main_cm4.c    ****             data[i].temperature = leadData[i].temperature;
 921              		.loc 1 390 0 is_stmt 0 discriminator 1
 922 00a4 9E42     		cmp	r6, r3
 923 00a6 F3DC     		bgt	.L60
 924              	.LVL89:
 925              	.L58:
 926              	.LBE37:
 397:main_cm4.c    ****     GUI_SetTextAlign(GUI_TA_HCENTER);
 927              		.loc 1 397 0 is_stmt 1
 928 00a8 3148     		ldr	r0, .L68+12
 929 00aa FFF7FEFF 		bl	GUI_SetFont
 930              	.LVL90:
 398:main_cm4.c    ****     GUI_DispStringAt(data_title[which_data_table-1], 132, 5);
 931              		.loc 1 398 0
 932 00ae 0220     		movs	r0, #2
 933 00b0 FFF7FEFF 		bl	GUI_SetTextAlign
 934              	.LVL91:
 399:main_cm4.c    ****     
 935              		.loc 1 399 0
 936 00b4 2B4B     		ldr	r3, .L68
 937 00b6 9B68     		ldr	r3, [r3, #8]
 938 00b8 013B     		subs	r3, r3, #1
 939 00ba 07F12002 		add	r2, r7, #32
 940 00be 02EB8303 		add	r3, r2, r3, lsl #2
 941 00c2 0522     		movs	r2, #5
 942 00c4 8421     		movs	r1, #132
 943 00c6 53F8080C 		ldr	r0, [r3, #-8]
 944 00ca FFF7FEFF 		bl	GUI_DispStringAt
 945              	.LVL92:
 401:main_cm4.c    ****     
 946              		.loc 1 401 0
 947 00ce 264B     		ldr	r3, .L68+4
 948 00d0 D3F8CC45 		ldr	r4, [r3, #1484]
 949 00d4 A31D     		adds	r3, r4, #6
 950              	.LVL93:
 403:main_cm4.c    ****     {
 951              		.loc 1 403 0
 952 00d6 9E42     		cmp	r6, r3
 953 00d8 3ADB     		blt	.L62
 401:main_cm4.c    ****     
 954              		.loc 1 401 0
 955 00da 1E46     		mov	r6, r3
 956              	.LVL94:
 957              	.LBB38:
 409:main_cm4.c    ****     {   
 958              		.loc 1 409 0
 959 00dc 38E0     		b	.L62
ARM GAS  C:\Users\rober\AppData\Local\Temp\ccBCZTBX.s 			page 43


 960              	.LVL95:
 961              	.L64:
 962              	.LBB39:
 411:main_cm4.c    ****         {
 963              		.loc 1 411 0
 964 00de 224B     		ldr	r3, .L68+4
 965 00e0 D3F8CC35 		ldr	r3, [r3, #1484]
 966 00e4 9C42     		cmp	r4, r3
 967 00e6 09D1     		bne	.L63
 413:main_cm4.c    ****             GUI_DispStringAt("Temperature (C deg)", 100, 30);
 968              		.loc 1 413 0
 969 00e8 1E22     		movs	r2, #30
 970 00ea 1421     		movs	r1, #20
 971 00ec 2148     		ldr	r0, .L68+16
 972 00ee FFF7FEFF 		bl	GUI_DispStringAt
 973              	.LVL96:
 414:main_cm4.c    ****         }
 974              		.loc 1 414 0
 975 00f2 1E22     		movs	r2, #30
 976 00f4 6421     		movs	r1, #100
 977 00f6 2048     		ldr	r0, .L68+20
 978 00f8 FFF7FEFF 		bl	GUI_DispStringAt
 979              	.LVL97:
 980              	.L63:
 420:main_cm4.c    ****         sprintf(dataString, "%d", data[i].temperature);
 981              		.loc 1 420 0 discriminator 2
 982 00fc DFF87C80 		ldr	r8, .L68+24
 983 0100 55F83420 		ldr	r2, [r5, r4, lsl #3]
 984 0104 4146     		mov	r1, r8
 985 0106 3846     		mov	r0, r7
 986 0108 FFF7FEFF 		bl	sprintf
 987              	.LVL98:
 421:main_cm4.c    ****         
 988              		.loc 1 421 0 discriminator 2
 989 010c 05EBC403 		add	r3, r5, r4, lsl #3
 990 0110 5A68     		ldr	r2, [r3, #4]
 991 0112 4146     		mov	r1, r8
 992 0114 07F10C00 		add	r0, r7, #12
 993 0118 FFF7FEFF 		bl	sprintf
 994              	.LVL99:
 423:main_cm4.c    ****         GUI_DispStringAt(dataString, 100, 50 + (i-start_point) * 20);
 995              		.loc 1 423 0 discriminator 2
 996 011c DFF84880 		ldr	r8, .L68+4
 997 0120 D8F8CC35 		ldr	r3, [r8, #1484]
 998 0124 E31A     		subs	r3, r4, r3
 999 0126 03EB8303 		add	r3, r3, r3, lsl #2
 1000 012a 9A00     		lsls	r2, r3, #2
 1001 012c 3232     		adds	r2, r2, #50
 1002 012e 1421     		movs	r1, #20
 1003 0130 3846     		mov	r0, r7
 1004 0132 FFF7FEFF 		bl	GUI_DispStringAt
 1005              	.LVL100:
 424:main_cm4.c    ****     }
 1006              		.loc 1 424 0 discriminator 2
 1007 0136 D8F8CC35 		ldr	r3, [r8, #1484]
 1008 013a E31A     		subs	r3, r4, r3
 1009 013c 03EB8303 		add	r3, r3, r3, lsl #2
ARM GAS  C:\Users\rober\AppData\Local\Temp\ccBCZTBX.s 			page 44


 1010 0140 9A00     		lsls	r2, r3, #2
 1011 0142 3232     		adds	r2, r2, #50
 1012 0144 6421     		movs	r1, #100
 1013 0146 07F10C00 		add	r0, r7, #12
 1014 014a FFF7FEFF 		bl	GUI_DispStringAt
 1015              	.LVL101:
 1016              	.LBE39:
 409:main_cm4.c    ****     {   
 1017              		.loc 1 409 0 discriminator 2
 1018 014e 0134     		adds	r4, r4, #1
 1019              	.LVL102:
 1020              	.L62:
 409:main_cm4.c    ****     {   
 1021              		.loc 1 409 0 is_stmt 0 discriminator 1
 1022 0150 A642     		cmp	r6, r4
 1023 0152 C4DC     		bgt	.L64
 1024              	.LBE38:
 428:main_cm4.c    **** }
 1025              		.loc 1 428 0 is_stmt 1
 1026 0154 0121     		movs	r1, #1
 1027 0156 0020     		movs	r0, #0
 1028 0158 FFF7FEFF 		bl	UpdateDisplay
 1029              	.LVL103:
 429:main_cm4.c    **** 
 1030              		.loc 1 429 0
 1031 015c 2037     		adds	r7, r7, #32
 1032              		.cfi_def_cfa_offset 24
 1033 015e BD46     		mov	sp, r7
 1034              		.cfi_def_cfa_register 13
 1035              		@ sp needed
 1036 0160 BDE8F081 		pop	{r4, r5, r6, r7, r8, pc}
 1037              	.LVL104:
 1038              	.L69:
 1039              		.align	2
 1040              	.L68:
 1041 0164 00000000 		.word	.LANCHOR2
 1042 0168 F8100000 		.word	.LANCHOR1
 1043 016c 80000000 		.word	.LANCHOR3+128
 1044 0170 00000000 		.word	GUI_Font13B_1
 1045 0174 3C000000 		.word	.LC12
 1046 0178 48000000 		.word	.LC13
 1047 017c 5C000000 		.word	.LC14
 1048              		.cfi_endproc
 1049              	.LFE610:
 1050              		.size	ShowTable, .-ShowTable
 1051              		.section	.text.Init_Interrupts,"ax",%progbits
 1052              		.align	2
 1053              		.global	Init_Interrupts
 1054              		.thumb
 1055              		.thumb_func
 1056              		.type	Init_Interrupts, %function
 1057              	Init_Interrupts:
 1058              	.LFB612:
 458:main_cm4.c    ****         }
 459:main_cm4.c    ****     }
 460:main_cm4.c    **** }
 461:main_cm4.c    **** 
ARM GAS  C:\Users\rober\AppData\Local\Temp\ccBCZTBX.s 			page 45


 462:main_cm4.c    **** void Init_Interrupts()
 463:main_cm4.c    **** {
 1059              		.loc 1 463 0
 1060              		.cfi_startproc
 1061              		@ args = 0, pretend = 0, frame = 0
 1062              		@ frame_needed = 0, uses_anonymous_args = 0
 1063 0000 10B5     		push	{r4, lr}
 1064              		.cfi_def_cfa_offset 8
 1065              		.cfi_offset 4, -8
 1066              		.cfi_offset 14, -4
 464:main_cm4.c    ****     /* Initialize the interrupt vector table with the timer interrupt handler
 465:main_cm4.c    ****     * address and assign priority. */
 466:main_cm4.c    ****     Cy_SysInt_Init(&isrTimer_cfg, TimerInterruptHandler);
 1067              		.loc 1 466 0
 1068 0002 154C     		ldr	r4, .L74
 1069 0004 1549     		ldr	r1, .L74+4
 1070 0006 2046     		mov	r0, r4
 1071 0008 FFF7FEFF 		bl	Cy_SysInt_Init
 1072              	.LVL105:
 467:main_cm4.c    ****     NVIC_ClearPendingIRQ(isrTimer_cfg.intrSrc);/* Clears the interrupt */
 1073              		.loc 1 467 0
 1074 000c B4F90030 		ldrsh	r3, [r4]
 1075              	.LVL106:
 1076              	.LBB40:
 1077              	.LBB41:
 1078              		.file 4 "Generated_Source\\PSoC6\\pdl\\cmsis/include/core_cm4.h"
   1:Generated_Source\PSoC6\pdl\cmsis/include/core_cm4.h **** /**************************************************************************//**
   2:Generated_Source\PSoC6\pdl\cmsis/include/core_cm4.h ****  * @file     core_cm4.h
   3:Generated_Source\PSoC6\pdl\cmsis/include/core_cm4.h ****  * @brief    CMSIS Cortex-M4 Core Peripheral Access Layer Header File
   4:Generated_Source\PSoC6\pdl\cmsis/include/core_cm4.h ****  * @version  V5.0.1
   5:Generated_Source\PSoC6\pdl\cmsis/include/core_cm4.h ****  * @date     30. January 2017
   6:Generated_Source\PSoC6\pdl\cmsis/include/core_cm4.h ****  ******************************************************************************/
   7:Generated_Source\PSoC6\pdl\cmsis/include/core_cm4.h **** /*
   8:Generated_Source\PSoC6\pdl\cmsis/include/core_cm4.h ****  * Copyright (c) 2009-2016 ARM Limited. All rights reserved.
   9:Generated_Source\PSoC6\pdl\cmsis/include/core_cm4.h ****  *
  10:Generated_Source\PSoC6\pdl\cmsis/include/core_cm4.h ****  * SPDX-License-Identifier: Apache-2.0
  11:Generated_Source\PSoC6\pdl\cmsis/include/core_cm4.h ****  *
  12:Generated_Source\PSoC6\pdl\cmsis/include/core_cm4.h ****  * Licensed under the Apache License, Version 2.0 (the License); you may
  13:Generated_Source\PSoC6\pdl\cmsis/include/core_cm4.h ****  * not use this file except in compliance with the License.
  14:Generated_Source\PSoC6\pdl\cmsis/include/core_cm4.h ****  * You may obtain a copy of the License at
  15:Generated_Source\PSoC6\pdl\cmsis/include/core_cm4.h ****  *
  16:Generated_Source\PSoC6\pdl\cmsis/include/core_cm4.h ****  * www.apache.org/licenses/LICENSE-2.0
  17:Generated_Source\PSoC6\pdl\cmsis/include/core_cm4.h ****  *
  18:Generated_Source\PSoC6\pdl\cmsis/include/core_cm4.h ****  * Unless required by applicable law or agreed to in writing, software
  19:Generated_Source\PSoC6\pdl\cmsis/include/core_cm4.h ****  * distributed under the License is distributed on an AS IS BASIS, WITHOUT
  20:Generated_Source\PSoC6\pdl\cmsis/include/core_cm4.h ****  * WARRANTIES OR CONDITIONS OF ANY KIND, either express or implied.
  21:Generated_Source\PSoC6\pdl\cmsis/include/core_cm4.h ****  * See the License for the specific language governing permissions and
  22:Generated_Source\PSoC6\pdl\cmsis/include/core_cm4.h ****  * limitations under the License.
  23:Generated_Source\PSoC6\pdl\cmsis/include/core_cm4.h ****  */
  24:Generated_Source\PSoC6\pdl\cmsis/include/core_cm4.h **** 
  25:Generated_Source\PSoC6\pdl\cmsis/include/core_cm4.h **** #if   defined ( __ICCARM__ )
  26:Generated_Source\PSoC6\pdl\cmsis/include/core_cm4.h ****  #pragma system_include         /* treat file as system include file for MISRA check */
  27:Generated_Source\PSoC6\pdl\cmsis/include/core_cm4.h **** #elif defined (__ARMCC_VERSION) && (__ARMCC_VERSION >= 6010050)
  28:Generated_Source\PSoC6\pdl\cmsis/include/core_cm4.h ****   #pragma clang system_header   /* treat file as system include file */
  29:Generated_Source\PSoC6\pdl\cmsis/include/core_cm4.h **** #endif
  30:Generated_Source\PSoC6\pdl\cmsis/include/core_cm4.h **** 
  31:Generated_Source\PSoC6\pdl\cmsis/include/core_cm4.h **** #ifndef __CORE_CM4_H_GENERIC
ARM GAS  C:\Users\rober\AppData\Local\Temp\ccBCZTBX.s 			page 46


  32:Generated_Source\PSoC6\pdl\cmsis/include/core_cm4.h **** #define __CORE_CM4_H_GENERIC
  33:Generated_Source\PSoC6\pdl\cmsis/include/core_cm4.h **** 
  34:Generated_Source\PSoC6\pdl\cmsis/include/core_cm4.h **** #include <stdint.h>
  35:Generated_Source\PSoC6\pdl\cmsis/include/core_cm4.h **** 
  36:Generated_Source\PSoC6\pdl\cmsis/include/core_cm4.h **** #ifdef __cplusplus
  37:Generated_Source\PSoC6\pdl\cmsis/include/core_cm4.h ****  extern "C" {
  38:Generated_Source\PSoC6\pdl\cmsis/include/core_cm4.h **** #endif
  39:Generated_Source\PSoC6\pdl\cmsis/include/core_cm4.h **** 
  40:Generated_Source\PSoC6\pdl\cmsis/include/core_cm4.h **** /**
  41:Generated_Source\PSoC6\pdl\cmsis/include/core_cm4.h ****   \page CMSIS_MISRA_Exceptions  MISRA-C:2004 Compliance Exceptions
  42:Generated_Source\PSoC6\pdl\cmsis/include/core_cm4.h ****   CMSIS violates the following MISRA-C:2004 rules:
  43:Generated_Source\PSoC6\pdl\cmsis/include/core_cm4.h **** 
  44:Generated_Source\PSoC6\pdl\cmsis/include/core_cm4.h ****    \li Required Rule 8.5, object/function definition in header file.<br>
  45:Generated_Source\PSoC6\pdl\cmsis/include/core_cm4.h ****      Function definitions in header files are used to allow 'inlining'.
  46:Generated_Source\PSoC6\pdl\cmsis/include/core_cm4.h **** 
  47:Generated_Source\PSoC6\pdl\cmsis/include/core_cm4.h ****    \li Required Rule 18.4, declaration of union type or object of union type: '{...}'.<br>
  48:Generated_Source\PSoC6\pdl\cmsis/include/core_cm4.h ****      Unions are used for effective representation of core registers.
  49:Generated_Source\PSoC6\pdl\cmsis/include/core_cm4.h **** 
  50:Generated_Source\PSoC6\pdl\cmsis/include/core_cm4.h ****    \li Advisory Rule 19.7, Function-like macro defined.<br>
  51:Generated_Source\PSoC6\pdl\cmsis/include/core_cm4.h ****      Function-like macros are used to allow more efficient code.
  52:Generated_Source\PSoC6\pdl\cmsis/include/core_cm4.h ****  */
  53:Generated_Source\PSoC6\pdl\cmsis/include/core_cm4.h **** 
  54:Generated_Source\PSoC6\pdl\cmsis/include/core_cm4.h **** 
  55:Generated_Source\PSoC6\pdl\cmsis/include/core_cm4.h **** /*******************************************************************************
  56:Generated_Source\PSoC6\pdl\cmsis/include/core_cm4.h ****  *                 CMSIS definitions
  57:Generated_Source\PSoC6\pdl\cmsis/include/core_cm4.h ****  ******************************************************************************/
  58:Generated_Source\PSoC6\pdl\cmsis/include/core_cm4.h **** /**
  59:Generated_Source\PSoC6\pdl\cmsis/include/core_cm4.h ****   \ingroup Cortex_M4
  60:Generated_Source\PSoC6\pdl\cmsis/include/core_cm4.h ****   @{
  61:Generated_Source\PSoC6\pdl\cmsis/include/core_cm4.h ****  */
  62:Generated_Source\PSoC6\pdl\cmsis/include/core_cm4.h **** 
  63:Generated_Source\PSoC6\pdl\cmsis/include/core_cm4.h **** /*  CMSIS CM4 definitions */
  64:Generated_Source\PSoC6\pdl\cmsis/include/core_cm4.h **** #define __CM4_CMSIS_VERSION_MAIN  ( 5U)                                  /*!< [31:16] CMSIS HAL mai
  65:Generated_Source\PSoC6\pdl\cmsis/include/core_cm4.h **** #define __CM4_CMSIS_VERSION_SUB   ( 0U)                                  /*!< [15:0]  CMSIS HAL sub
  66:Generated_Source\PSoC6\pdl\cmsis/include/core_cm4.h **** #define __CM4_CMSIS_VERSION       ((__CM4_CMSIS_VERSION_MAIN << 16U) | \
  67:Generated_Source\PSoC6\pdl\cmsis/include/core_cm4.h ****                                     __CM4_CMSIS_VERSION_SUB           )  /*!< CMSIS HAL version num
  68:Generated_Source\PSoC6\pdl\cmsis/include/core_cm4.h **** 
  69:Generated_Source\PSoC6\pdl\cmsis/include/core_cm4.h **** #define __CORTEX_M                (4U)                                   /*!< Cortex-M Core */
  70:Generated_Source\PSoC6\pdl\cmsis/include/core_cm4.h **** 
  71:Generated_Source\PSoC6\pdl\cmsis/include/core_cm4.h **** /** __FPU_USED indicates whether an FPU is used or not.
  72:Generated_Source\PSoC6\pdl\cmsis/include/core_cm4.h ****     For this, __FPU_PRESENT has to be checked prior to making use of FPU specific registers and fun
  73:Generated_Source\PSoC6\pdl\cmsis/include/core_cm4.h **** */
  74:Generated_Source\PSoC6\pdl\cmsis/include/core_cm4.h **** #if defined ( __CC_ARM )
  75:Generated_Source\PSoC6\pdl\cmsis/include/core_cm4.h ****   #if defined __TARGET_FPU_VFP
  76:Generated_Source\PSoC6\pdl\cmsis/include/core_cm4.h ****     #if defined (__FPU_PRESENT) && (__FPU_PRESENT == 1U)
  77:Generated_Source\PSoC6\pdl\cmsis/include/core_cm4.h ****       #define __FPU_USED       1U
  78:Generated_Source\PSoC6\pdl\cmsis/include/core_cm4.h ****     #else
  79:Generated_Source\PSoC6\pdl\cmsis/include/core_cm4.h ****       #error "Compiler generates FPU instructions for a device without an FPU (check __FPU_PRESENT)
  80:Generated_Source\PSoC6\pdl\cmsis/include/core_cm4.h ****       #define __FPU_USED       0U
  81:Generated_Source\PSoC6\pdl\cmsis/include/core_cm4.h ****     #endif
  82:Generated_Source\PSoC6\pdl\cmsis/include/core_cm4.h ****   #else
  83:Generated_Source\PSoC6\pdl\cmsis/include/core_cm4.h ****     #define __FPU_USED         0U
  84:Generated_Source\PSoC6\pdl\cmsis/include/core_cm4.h ****   #endif
  85:Generated_Source\PSoC6\pdl\cmsis/include/core_cm4.h **** 
  86:Generated_Source\PSoC6\pdl\cmsis/include/core_cm4.h **** #elif defined (__ARMCC_VERSION) && (__ARMCC_VERSION >= 6010050)
  87:Generated_Source\PSoC6\pdl\cmsis/include/core_cm4.h ****   #if defined __ARM_PCS_VFP
  88:Generated_Source\PSoC6\pdl\cmsis/include/core_cm4.h ****     #if defined (__FPU_PRESENT) && (__FPU_PRESENT == 1U)
ARM GAS  C:\Users\rober\AppData\Local\Temp\ccBCZTBX.s 			page 47


  89:Generated_Source\PSoC6\pdl\cmsis/include/core_cm4.h ****       #define __FPU_USED       1U
  90:Generated_Source\PSoC6\pdl\cmsis/include/core_cm4.h ****     #else
  91:Generated_Source\PSoC6\pdl\cmsis/include/core_cm4.h ****       #warning "Compiler generates FPU instructions for a device without an FPU (check __FPU_PRESEN
  92:Generated_Source\PSoC6\pdl\cmsis/include/core_cm4.h ****       #define __FPU_USED       0U
  93:Generated_Source\PSoC6\pdl\cmsis/include/core_cm4.h ****     #endif
  94:Generated_Source\PSoC6\pdl\cmsis/include/core_cm4.h ****   #else
  95:Generated_Source\PSoC6\pdl\cmsis/include/core_cm4.h ****     #define __FPU_USED         0U
  96:Generated_Source\PSoC6\pdl\cmsis/include/core_cm4.h ****   #endif
  97:Generated_Source\PSoC6\pdl\cmsis/include/core_cm4.h **** 
  98:Generated_Source\PSoC6\pdl\cmsis/include/core_cm4.h **** #elif defined ( __GNUC__ )
  99:Generated_Source\PSoC6\pdl\cmsis/include/core_cm4.h ****   #if defined (__VFP_FP__) && !defined(__SOFTFP__)
 100:Generated_Source\PSoC6\pdl\cmsis/include/core_cm4.h ****     #if defined (__FPU_PRESENT) && (__FPU_PRESENT == 1U)
 101:Generated_Source\PSoC6\pdl\cmsis/include/core_cm4.h ****       #define __FPU_USED       1U
 102:Generated_Source\PSoC6\pdl\cmsis/include/core_cm4.h ****     #else
 103:Generated_Source\PSoC6\pdl\cmsis/include/core_cm4.h ****       #error "Compiler generates FPU instructions for a device without an FPU (check __FPU_PRESENT)
 104:Generated_Source\PSoC6\pdl\cmsis/include/core_cm4.h ****       #define __FPU_USED       0U
 105:Generated_Source\PSoC6\pdl\cmsis/include/core_cm4.h ****     #endif
 106:Generated_Source\PSoC6\pdl\cmsis/include/core_cm4.h ****   #else
 107:Generated_Source\PSoC6\pdl\cmsis/include/core_cm4.h ****     #define __FPU_USED         0U
 108:Generated_Source\PSoC6\pdl\cmsis/include/core_cm4.h ****   #endif
 109:Generated_Source\PSoC6\pdl\cmsis/include/core_cm4.h **** 
 110:Generated_Source\PSoC6\pdl\cmsis/include/core_cm4.h **** #elif defined ( __ICCARM__ )
 111:Generated_Source\PSoC6\pdl\cmsis/include/core_cm4.h ****   #if defined __ARMVFP__
 112:Generated_Source\PSoC6\pdl\cmsis/include/core_cm4.h ****     #if defined (__FPU_PRESENT) && (__FPU_PRESENT == 1U)
 113:Generated_Source\PSoC6\pdl\cmsis/include/core_cm4.h ****       #define __FPU_USED       1U
 114:Generated_Source\PSoC6\pdl\cmsis/include/core_cm4.h ****     #else
 115:Generated_Source\PSoC6\pdl\cmsis/include/core_cm4.h ****       #error "Compiler generates FPU instructions for a device without an FPU (check __FPU_PRESENT)
 116:Generated_Source\PSoC6\pdl\cmsis/include/core_cm4.h ****       #define __FPU_USED       0U
 117:Generated_Source\PSoC6\pdl\cmsis/include/core_cm4.h ****     #endif
 118:Generated_Source\PSoC6\pdl\cmsis/include/core_cm4.h ****   #else
 119:Generated_Source\PSoC6\pdl\cmsis/include/core_cm4.h ****     #define __FPU_USED         0U
 120:Generated_Source\PSoC6\pdl\cmsis/include/core_cm4.h ****   #endif
 121:Generated_Source\PSoC6\pdl\cmsis/include/core_cm4.h **** 
 122:Generated_Source\PSoC6\pdl\cmsis/include/core_cm4.h **** #elif defined ( __TI_ARM__ )
 123:Generated_Source\PSoC6\pdl\cmsis/include/core_cm4.h ****   #if defined __TI_VFP_SUPPORT__
 124:Generated_Source\PSoC6\pdl\cmsis/include/core_cm4.h ****     #if defined (__FPU_PRESENT) && (__FPU_PRESENT == 1U)
 125:Generated_Source\PSoC6\pdl\cmsis/include/core_cm4.h ****       #define __FPU_USED       1U
 126:Generated_Source\PSoC6\pdl\cmsis/include/core_cm4.h ****     #else
 127:Generated_Source\PSoC6\pdl\cmsis/include/core_cm4.h ****       #error "Compiler generates FPU instructions for a device without an FPU (check __FPU_PRESENT)
 128:Generated_Source\PSoC6\pdl\cmsis/include/core_cm4.h ****       #define __FPU_USED       0U
 129:Generated_Source\PSoC6\pdl\cmsis/include/core_cm4.h ****     #endif
 130:Generated_Source\PSoC6\pdl\cmsis/include/core_cm4.h ****   #else
 131:Generated_Source\PSoC6\pdl\cmsis/include/core_cm4.h ****     #define __FPU_USED         0U
 132:Generated_Source\PSoC6\pdl\cmsis/include/core_cm4.h ****   #endif
 133:Generated_Source\PSoC6\pdl\cmsis/include/core_cm4.h **** 
 134:Generated_Source\PSoC6\pdl\cmsis/include/core_cm4.h **** #elif defined ( __TASKING__ )
 135:Generated_Source\PSoC6\pdl\cmsis/include/core_cm4.h ****   #if defined __FPU_VFP__
 136:Generated_Source\PSoC6\pdl\cmsis/include/core_cm4.h ****     #if defined (__FPU_PRESENT) && (__FPU_PRESENT == 1U)
 137:Generated_Source\PSoC6\pdl\cmsis/include/core_cm4.h ****       #define __FPU_USED       1U
 138:Generated_Source\PSoC6\pdl\cmsis/include/core_cm4.h ****     #else
 139:Generated_Source\PSoC6\pdl\cmsis/include/core_cm4.h ****       #error "Compiler generates FPU instructions for a device without an FPU (check __FPU_PRESENT)
 140:Generated_Source\PSoC6\pdl\cmsis/include/core_cm4.h ****       #define __FPU_USED       0U
 141:Generated_Source\PSoC6\pdl\cmsis/include/core_cm4.h ****     #endif
 142:Generated_Source\PSoC6\pdl\cmsis/include/core_cm4.h ****   #else
 143:Generated_Source\PSoC6\pdl\cmsis/include/core_cm4.h ****     #define __FPU_USED         0U
 144:Generated_Source\PSoC6\pdl\cmsis/include/core_cm4.h ****   #endif
 145:Generated_Source\PSoC6\pdl\cmsis/include/core_cm4.h **** 
ARM GAS  C:\Users\rober\AppData\Local\Temp\ccBCZTBX.s 			page 48


 146:Generated_Source\PSoC6\pdl\cmsis/include/core_cm4.h **** #elif defined ( __CSMC__ )
 147:Generated_Source\PSoC6\pdl\cmsis/include/core_cm4.h ****   #if ( __CSMC__ & 0x400U)
 148:Generated_Source\PSoC6\pdl\cmsis/include/core_cm4.h ****     #if defined (__FPU_PRESENT) && (__FPU_PRESENT == 1U)
 149:Generated_Source\PSoC6\pdl\cmsis/include/core_cm4.h ****       #define __FPU_USED       1U
 150:Generated_Source\PSoC6\pdl\cmsis/include/core_cm4.h ****     #else
 151:Generated_Source\PSoC6\pdl\cmsis/include/core_cm4.h ****       #error "Compiler generates FPU instructions for a device without an FPU (check __FPU_PRESENT)
 152:Generated_Source\PSoC6\pdl\cmsis/include/core_cm4.h ****       #define __FPU_USED       0U
 153:Generated_Source\PSoC6\pdl\cmsis/include/core_cm4.h ****     #endif
 154:Generated_Source\PSoC6\pdl\cmsis/include/core_cm4.h ****   #else
 155:Generated_Source\PSoC6\pdl\cmsis/include/core_cm4.h ****     #define __FPU_USED         0U
 156:Generated_Source\PSoC6\pdl\cmsis/include/core_cm4.h ****   #endif
 157:Generated_Source\PSoC6\pdl\cmsis/include/core_cm4.h **** 
 158:Generated_Source\PSoC6\pdl\cmsis/include/core_cm4.h **** #endif
 159:Generated_Source\PSoC6\pdl\cmsis/include/core_cm4.h **** 
 160:Generated_Source\PSoC6\pdl\cmsis/include/core_cm4.h **** #include "cmsis_compiler.h"               /* CMSIS compiler specific defines */
 161:Generated_Source\PSoC6\pdl\cmsis/include/core_cm4.h **** 
 162:Generated_Source\PSoC6\pdl\cmsis/include/core_cm4.h **** 
 163:Generated_Source\PSoC6\pdl\cmsis/include/core_cm4.h **** #ifdef __cplusplus
 164:Generated_Source\PSoC6\pdl\cmsis/include/core_cm4.h **** }
 165:Generated_Source\PSoC6\pdl\cmsis/include/core_cm4.h **** #endif
 166:Generated_Source\PSoC6\pdl\cmsis/include/core_cm4.h **** 
 167:Generated_Source\PSoC6\pdl\cmsis/include/core_cm4.h **** #endif /* __CORE_CM4_H_GENERIC */
 168:Generated_Source\PSoC6\pdl\cmsis/include/core_cm4.h **** 
 169:Generated_Source\PSoC6\pdl\cmsis/include/core_cm4.h **** #ifndef __CMSIS_GENERIC
 170:Generated_Source\PSoC6\pdl\cmsis/include/core_cm4.h **** 
 171:Generated_Source\PSoC6\pdl\cmsis/include/core_cm4.h **** #ifndef __CORE_CM4_H_DEPENDANT
 172:Generated_Source\PSoC6\pdl\cmsis/include/core_cm4.h **** #define __CORE_CM4_H_DEPENDANT
 173:Generated_Source\PSoC6\pdl\cmsis/include/core_cm4.h **** 
 174:Generated_Source\PSoC6\pdl\cmsis/include/core_cm4.h **** #ifdef __cplusplus
 175:Generated_Source\PSoC6\pdl\cmsis/include/core_cm4.h ****  extern "C" {
 176:Generated_Source\PSoC6\pdl\cmsis/include/core_cm4.h **** #endif
 177:Generated_Source\PSoC6\pdl\cmsis/include/core_cm4.h **** 
 178:Generated_Source\PSoC6\pdl\cmsis/include/core_cm4.h **** /* check device defines and use defaults */
 179:Generated_Source\PSoC6\pdl\cmsis/include/core_cm4.h **** #if defined __CHECK_DEVICE_DEFINES
 180:Generated_Source\PSoC6\pdl\cmsis/include/core_cm4.h ****   #ifndef __CM4_REV
 181:Generated_Source\PSoC6\pdl\cmsis/include/core_cm4.h ****     #define __CM4_REV               0x0000U
 182:Generated_Source\PSoC6\pdl\cmsis/include/core_cm4.h ****     #warning "__CM4_REV not defined in device header file; using default!"
 183:Generated_Source\PSoC6\pdl\cmsis/include/core_cm4.h ****   #endif
 184:Generated_Source\PSoC6\pdl\cmsis/include/core_cm4.h **** 
 185:Generated_Source\PSoC6\pdl\cmsis/include/core_cm4.h ****   #ifndef __FPU_PRESENT
 186:Generated_Source\PSoC6\pdl\cmsis/include/core_cm4.h ****     #define __FPU_PRESENT             0U
 187:Generated_Source\PSoC6\pdl\cmsis/include/core_cm4.h ****     #warning "__FPU_PRESENT not defined in device header file; using default!"
 188:Generated_Source\PSoC6\pdl\cmsis/include/core_cm4.h ****   #endif
 189:Generated_Source\PSoC6\pdl\cmsis/include/core_cm4.h **** 
 190:Generated_Source\PSoC6\pdl\cmsis/include/core_cm4.h ****   #ifndef __MPU_PRESENT
 191:Generated_Source\PSoC6\pdl\cmsis/include/core_cm4.h ****     #define __MPU_PRESENT             0U
 192:Generated_Source\PSoC6\pdl\cmsis/include/core_cm4.h ****     #warning "__MPU_PRESENT not defined in device header file; using default!"
 193:Generated_Source\PSoC6\pdl\cmsis/include/core_cm4.h ****   #endif
 194:Generated_Source\PSoC6\pdl\cmsis/include/core_cm4.h **** 
 195:Generated_Source\PSoC6\pdl\cmsis/include/core_cm4.h ****   #ifndef __NVIC_PRIO_BITS
 196:Generated_Source\PSoC6\pdl\cmsis/include/core_cm4.h ****     #define __NVIC_PRIO_BITS          3U
 197:Generated_Source\PSoC6\pdl\cmsis/include/core_cm4.h ****     #warning "__NVIC_PRIO_BITS not defined in device header file; using default!"
 198:Generated_Source\PSoC6\pdl\cmsis/include/core_cm4.h ****   #endif
 199:Generated_Source\PSoC6\pdl\cmsis/include/core_cm4.h **** 
 200:Generated_Source\PSoC6\pdl\cmsis/include/core_cm4.h ****   #ifndef __Vendor_SysTickConfig
 201:Generated_Source\PSoC6\pdl\cmsis/include/core_cm4.h ****     #define __Vendor_SysTickConfig    0U
 202:Generated_Source\PSoC6\pdl\cmsis/include/core_cm4.h ****     #warning "__Vendor_SysTickConfig not defined in device header file; using default!"
ARM GAS  C:\Users\rober\AppData\Local\Temp\ccBCZTBX.s 			page 49


 203:Generated_Source\PSoC6\pdl\cmsis/include/core_cm4.h ****   #endif
 204:Generated_Source\PSoC6\pdl\cmsis/include/core_cm4.h **** #endif
 205:Generated_Source\PSoC6\pdl\cmsis/include/core_cm4.h **** 
 206:Generated_Source\PSoC6\pdl\cmsis/include/core_cm4.h **** /* IO definitions (access restrictions to peripheral registers) */
 207:Generated_Source\PSoC6\pdl\cmsis/include/core_cm4.h **** /**
 208:Generated_Source\PSoC6\pdl\cmsis/include/core_cm4.h ****     \defgroup CMSIS_glob_defs CMSIS Global Defines
 209:Generated_Source\PSoC6\pdl\cmsis/include/core_cm4.h **** 
 210:Generated_Source\PSoC6\pdl\cmsis/include/core_cm4.h ****     <strong>IO Type Qualifiers</strong> are used
 211:Generated_Source\PSoC6\pdl\cmsis/include/core_cm4.h ****     \li to specify the access to peripheral variables.
 212:Generated_Source\PSoC6\pdl\cmsis/include/core_cm4.h ****     \li for automatic generation of peripheral register debug information.
 213:Generated_Source\PSoC6\pdl\cmsis/include/core_cm4.h **** */
 214:Generated_Source\PSoC6\pdl\cmsis/include/core_cm4.h **** #ifdef __cplusplus
 215:Generated_Source\PSoC6\pdl\cmsis/include/core_cm4.h ****   #define   __I     volatile             /*!< Defines 'read only' permissions */
 216:Generated_Source\PSoC6\pdl\cmsis/include/core_cm4.h **** #else
 217:Generated_Source\PSoC6\pdl\cmsis/include/core_cm4.h ****   #define   __I     volatile const       /*!< Defines 'read only' permissions */
 218:Generated_Source\PSoC6\pdl\cmsis/include/core_cm4.h **** #endif
 219:Generated_Source\PSoC6\pdl\cmsis/include/core_cm4.h **** #define     __O     volatile             /*!< Defines 'write only' permissions */
 220:Generated_Source\PSoC6\pdl\cmsis/include/core_cm4.h **** #define     __IO    volatile             /*!< Defines 'read / write' permissions */
 221:Generated_Source\PSoC6\pdl\cmsis/include/core_cm4.h **** 
 222:Generated_Source\PSoC6\pdl\cmsis/include/core_cm4.h **** /* following defines should be used for structure members */
 223:Generated_Source\PSoC6\pdl\cmsis/include/core_cm4.h **** #define     __IM     volatile const      /*! Defines 'read only' structure member permissions */
 224:Generated_Source\PSoC6\pdl\cmsis/include/core_cm4.h **** #define     __OM     volatile            /*! Defines 'write only' structure member permissions */
 225:Generated_Source\PSoC6\pdl\cmsis/include/core_cm4.h **** #define     __IOM    volatile            /*! Defines 'read / write' structure member permissions */
 226:Generated_Source\PSoC6\pdl\cmsis/include/core_cm4.h **** 
 227:Generated_Source\PSoC6\pdl\cmsis/include/core_cm4.h **** /*@} end of group Cortex_M4 */
 228:Generated_Source\PSoC6\pdl\cmsis/include/core_cm4.h **** 
 229:Generated_Source\PSoC6\pdl\cmsis/include/core_cm4.h **** 
 230:Generated_Source\PSoC6\pdl\cmsis/include/core_cm4.h **** 
 231:Generated_Source\PSoC6\pdl\cmsis/include/core_cm4.h **** /*******************************************************************************
 232:Generated_Source\PSoC6\pdl\cmsis/include/core_cm4.h ****  *                 Register Abstraction
 233:Generated_Source\PSoC6\pdl\cmsis/include/core_cm4.h ****   Core Register contain:
 234:Generated_Source\PSoC6\pdl\cmsis/include/core_cm4.h ****   - Core Register
 235:Generated_Source\PSoC6\pdl\cmsis/include/core_cm4.h ****   - Core NVIC Register
 236:Generated_Source\PSoC6\pdl\cmsis/include/core_cm4.h ****   - Core SCB Register
 237:Generated_Source\PSoC6\pdl\cmsis/include/core_cm4.h ****   - Core SysTick Register
 238:Generated_Source\PSoC6\pdl\cmsis/include/core_cm4.h ****   - Core Debug Register
 239:Generated_Source\PSoC6\pdl\cmsis/include/core_cm4.h ****   - Core MPU Register
 240:Generated_Source\PSoC6\pdl\cmsis/include/core_cm4.h ****   - Core FPU Register
 241:Generated_Source\PSoC6\pdl\cmsis/include/core_cm4.h ****  ******************************************************************************/
 242:Generated_Source\PSoC6\pdl\cmsis/include/core_cm4.h **** /**
 243:Generated_Source\PSoC6\pdl\cmsis/include/core_cm4.h ****   \defgroup CMSIS_core_register Defines and Type Definitions
 244:Generated_Source\PSoC6\pdl\cmsis/include/core_cm4.h ****   \brief Type definitions and defines for Cortex-M processor based devices.
 245:Generated_Source\PSoC6\pdl\cmsis/include/core_cm4.h **** */
 246:Generated_Source\PSoC6\pdl\cmsis/include/core_cm4.h **** 
 247:Generated_Source\PSoC6\pdl\cmsis/include/core_cm4.h **** /**
 248:Generated_Source\PSoC6\pdl\cmsis/include/core_cm4.h ****   \ingroup    CMSIS_core_register
 249:Generated_Source\PSoC6\pdl\cmsis/include/core_cm4.h ****   \defgroup   CMSIS_CORE  Status and Control Registers
 250:Generated_Source\PSoC6\pdl\cmsis/include/core_cm4.h ****   \brief      Core Register type definitions.
 251:Generated_Source\PSoC6\pdl\cmsis/include/core_cm4.h ****   @{
 252:Generated_Source\PSoC6\pdl\cmsis/include/core_cm4.h ****  */
 253:Generated_Source\PSoC6\pdl\cmsis/include/core_cm4.h **** 
 254:Generated_Source\PSoC6\pdl\cmsis/include/core_cm4.h **** /**
 255:Generated_Source\PSoC6\pdl\cmsis/include/core_cm4.h ****   \brief  Union type to access the Application Program Status Register (APSR).
 256:Generated_Source\PSoC6\pdl\cmsis/include/core_cm4.h ****  */
 257:Generated_Source\PSoC6\pdl\cmsis/include/core_cm4.h **** typedef union
 258:Generated_Source\PSoC6\pdl\cmsis/include/core_cm4.h **** {
 259:Generated_Source\PSoC6\pdl\cmsis/include/core_cm4.h ****   struct
ARM GAS  C:\Users\rober\AppData\Local\Temp\ccBCZTBX.s 			page 50


 260:Generated_Source\PSoC6\pdl\cmsis/include/core_cm4.h ****   {
 261:Generated_Source\PSoC6\pdl\cmsis/include/core_cm4.h ****     uint32_t _reserved0:16;              /*!< bit:  0..15  Reserved */
 262:Generated_Source\PSoC6\pdl\cmsis/include/core_cm4.h ****     uint32_t GE:4;                       /*!< bit: 16..19  Greater than or Equal flags */
 263:Generated_Source\PSoC6\pdl\cmsis/include/core_cm4.h ****     uint32_t _reserved1:7;               /*!< bit: 20..26  Reserved */
 264:Generated_Source\PSoC6\pdl\cmsis/include/core_cm4.h ****     uint32_t Q:1;                        /*!< bit:     27  Saturation condition flag */
 265:Generated_Source\PSoC6\pdl\cmsis/include/core_cm4.h ****     uint32_t V:1;                        /*!< bit:     28  Overflow condition code flag */
 266:Generated_Source\PSoC6\pdl\cmsis/include/core_cm4.h ****     uint32_t C:1;                        /*!< bit:     29  Carry condition code flag */
 267:Generated_Source\PSoC6\pdl\cmsis/include/core_cm4.h ****     uint32_t Z:1;                        /*!< bit:     30  Zero condition code flag */
 268:Generated_Source\PSoC6\pdl\cmsis/include/core_cm4.h ****     uint32_t N:1;                        /*!< bit:     31  Negative condition code flag */
 269:Generated_Source\PSoC6\pdl\cmsis/include/core_cm4.h ****   } b;                                   /*!< Structure used for bit  access */
 270:Generated_Source\PSoC6\pdl\cmsis/include/core_cm4.h ****   uint32_t w;                            /*!< Type      used for word access */
 271:Generated_Source\PSoC6\pdl\cmsis/include/core_cm4.h **** } APSR_Type;
 272:Generated_Source\PSoC6\pdl\cmsis/include/core_cm4.h **** 
 273:Generated_Source\PSoC6\pdl\cmsis/include/core_cm4.h **** /* APSR Register Definitions */
 274:Generated_Source\PSoC6\pdl\cmsis/include/core_cm4.h **** #define APSR_N_Pos                         31U                                            /*!< APSR
 275:Generated_Source\PSoC6\pdl\cmsis/include/core_cm4.h **** #define APSR_N_Msk                         (1UL << APSR_N_Pos)                            /*!< APSR
 276:Generated_Source\PSoC6\pdl\cmsis/include/core_cm4.h **** 
 277:Generated_Source\PSoC6\pdl\cmsis/include/core_cm4.h **** #define APSR_Z_Pos                         30U                                            /*!< APSR
 278:Generated_Source\PSoC6\pdl\cmsis/include/core_cm4.h **** #define APSR_Z_Msk                         (1UL << APSR_Z_Pos)                            /*!< APSR
 279:Generated_Source\PSoC6\pdl\cmsis/include/core_cm4.h **** 
 280:Generated_Source\PSoC6\pdl\cmsis/include/core_cm4.h **** #define APSR_C_Pos                         29U                                            /*!< APSR
 281:Generated_Source\PSoC6\pdl\cmsis/include/core_cm4.h **** #define APSR_C_Msk                         (1UL << APSR_C_Pos)                            /*!< APSR
 282:Generated_Source\PSoC6\pdl\cmsis/include/core_cm4.h **** 
 283:Generated_Source\PSoC6\pdl\cmsis/include/core_cm4.h **** #define APSR_V_Pos                         28U                                            /*!< APSR
 284:Generated_Source\PSoC6\pdl\cmsis/include/core_cm4.h **** #define APSR_V_Msk                         (1UL << APSR_V_Pos)                            /*!< APSR
 285:Generated_Source\PSoC6\pdl\cmsis/include/core_cm4.h **** 
 286:Generated_Source\PSoC6\pdl\cmsis/include/core_cm4.h **** #define APSR_Q_Pos                         27U                                            /*!< APSR
 287:Generated_Source\PSoC6\pdl\cmsis/include/core_cm4.h **** #define APSR_Q_Msk                         (1UL << APSR_Q_Pos)                            /*!< APSR
 288:Generated_Source\PSoC6\pdl\cmsis/include/core_cm4.h **** 
 289:Generated_Source\PSoC6\pdl\cmsis/include/core_cm4.h **** #define APSR_GE_Pos                        16U                                            /*!< APSR
 290:Generated_Source\PSoC6\pdl\cmsis/include/core_cm4.h **** #define APSR_GE_Msk                        (0xFUL << APSR_GE_Pos)                         /*!< APSR
 291:Generated_Source\PSoC6\pdl\cmsis/include/core_cm4.h **** 
 292:Generated_Source\PSoC6\pdl\cmsis/include/core_cm4.h **** 
 293:Generated_Source\PSoC6\pdl\cmsis/include/core_cm4.h **** /**
 294:Generated_Source\PSoC6\pdl\cmsis/include/core_cm4.h ****   \brief  Union type to access the Interrupt Program Status Register (IPSR).
 295:Generated_Source\PSoC6\pdl\cmsis/include/core_cm4.h ****  */
 296:Generated_Source\PSoC6\pdl\cmsis/include/core_cm4.h **** typedef union
 297:Generated_Source\PSoC6\pdl\cmsis/include/core_cm4.h **** {
 298:Generated_Source\PSoC6\pdl\cmsis/include/core_cm4.h ****   struct
 299:Generated_Source\PSoC6\pdl\cmsis/include/core_cm4.h ****   {
 300:Generated_Source\PSoC6\pdl\cmsis/include/core_cm4.h ****     uint32_t ISR:9;                      /*!< bit:  0.. 8  Exception number */
 301:Generated_Source\PSoC6\pdl\cmsis/include/core_cm4.h ****     uint32_t _reserved0:23;              /*!< bit:  9..31  Reserved */
 302:Generated_Source\PSoC6\pdl\cmsis/include/core_cm4.h ****   } b;                                   /*!< Structure used for bit  access */
 303:Generated_Source\PSoC6\pdl\cmsis/include/core_cm4.h ****   uint32_t w;                            /*!< Type      used for word access */
 304:Generated_Source\PSoC6\pdl\cmsis/include/core_cm4.h **** } IPSR_Type;
 305:Generated_Source\PSoC6\pdl\cmsis/include/core_cm4.h **** 
 306:Generated_Source\PSoC6\pdl\cmsis/include/core_cm4.h **** /* IPSR Register Definitions */
 307:Generated_Source\PSoC6\pdl\cmsis/include/core_cm4.h **** #define IPSR_ISR_Pos                        0U                                            /*!< IPSR
 308:Generated_Source\PSoC6\pdl\cmsis/include/core_cm4.h **** #define IPSR_ISR_Msk                       (0x1FFUL /*<< IPSR_ISR_Pos*/)                  /*!< IPSR
 309:Generated_Source\PSoC6\pdl\cmsis/include/core_cm4.h **** 
 310:Generated_Source\PSoC6\pdl\cmsis/include/core_cm4.h **** 
 311:Generated_Source\PSoC6\pdl\cmsis/include/core_cm4.h **** /**
 312:Generated_Source\PSoC6\pdl\cmsis/include/core_cm4.h ****   \brief  Union type to access the Special-Purpose Program Status Registers (xPSR).
 313:Generated_Source\PSoC6\pdl\cmsis/include/core_cm4.h ****  */
 314:Generated_Source\PSoC6\pdl\cmsis/include/core_cm4.h **** typedef union
 315:Generated_Source\PSoC6\pdl\cmsis/include/core_cm4.h **** {
 316:Generated_Source\PSoC6\pdl\cmsis/include/core_cm4.h ****   struct
ARM GAS  C:\Users\rober\AppData\Local\Temp\ccBCZTBX.s 			page 51


 317:Generated_Source\PSoC6\pdl\cmsis/include/core_cm4.h ****   {
 318:Generated_Source\PSoC6\pdl\cmsis/include/core_cm4.h ****     uint32_t ISR:9;                      /*!< bit:  0.. 8  Exception number */
 319:Generated_Source\PSoC6\pdl\cmsis/include/core_cm4.h ****     uint32_t _reserved0:1;               /*!< bit:      9  Reserved */
 320:Generated_Source\PSoC6\pdl\cmsis/include/core_cm4.h ****     uint32_t ICI_IT_1:6;                 /*!< bit: 10..15  ICI/IT part 1 */
 321:Generated_Source\PSoC6\pdl\cmsis/include/core_cm4.h ****     uint32_t GE:4;                       /*!< bit: 16..19  Greater than or Equal flags */
 322:Generated_Source\PSoC6\pdl\cmsis/include/core_cm4.h ****     uint32_t _reserved1:4;               /*!< bit: 20..23  Reserved */
 323:Generated_Source\PSoC6\pdl\cmsis/include/core_cm4.h ****     uint32_t T:1;                        /*!< bit:     24  Thumb bit */
 324:Generated_Source\PSoC6\pdl\cmsis/include/core_cm4.h ****     uint32_t ICI_IT_2:2;                 /*!< bit: 25..26  ICI/IT part 2 */
 325:Generated_Source\PSoC6\pdl\cmsis/include/core_cm4.h ****     uint32_t Q:1;                        /*!< bit:     27  Saturation condition flag */
 326:Generated_Source\PSoC6\pdl\cmsis/include/core_cm4.h ****     uint32_t V:1;                        /*!< bit:     28  Overflow condition code flag */
 327:Generated_Source\PSoC6\pdl\cmsis/include/core_cm4.h ****     uint32_t C:1;                        /*!< bit:     29  Carry condition code flag */
 328:Generated_Source\PSoC6\pdl\cmsis/include/core_cm4.h ****     uint32_t Z:1;                        /*!< bit:     30  Zero condition code flag */
 329:Generated_Source\PSoC6\pdl\cmsis/include/core_cm4.h ****     uint32_t N:1;                        /*!< bit:     31  Negative condition code flag */
 330:Generated_Source\PSoC6\pdl\cmsis/include/core_cm4.h ****   } b;                                   /*!< Structure used for bit  access */
 331:Generated_Source\PSoC6\pdl\cmsis/include/core_cm4.h ****   uint32_t w;                            /*!< Type      used for word access */
 332:Generated_Source\PSoC6\pdl\cmsis/include/core_cm4.h **** } xPSR_Type;
 333:Generated_Source\PSoC6\pdl\cmsis/include/core_cm4.h **** 
 334:Generated_Source\PSoC6\pdl\cmsis/include/core_cm4.h **** /* xPSR Register Definitions */
 335:Generated_Source\PSoC6\pdl\cmsis/include/core_cm4.h **** #define xPSR_N_Pos                         31U                                            /*!< xPSR
 336:Generated_Source\PSoC6\pdl\cmsis/include/core_cm4.h **** #define xPSR_N_Msk                         (1UL << xPSR_N_Pos)                            /*!< xPSR
 337:Generated_Source\PSoC6\pdl\cmsis/include/core_cm4.h **** 
 338:Generated_Source\PSoC6\pdl\cmsis/include/core_cm4.h **** #define xPSR_Z_Pos                         30U                                            /*!< xPSR
 339:Generated_Source\PSoC6\pdl\cmsis/include/core_cm4.h **** #define xPSR_Z_Msk                         (1UL << xPSR_Z_Pos)                            /*!< xPSR
 340:Generated_Source\PSoC6\pdl\cmsis/include/core_cm4.h **** 
 341:Generated_Source\PSoC6\pdl\cmsis/include/core_cm4.h **** #define xPSR_C_Pos                         29U                                            /*!< xPSR
 342:Generated_Source\PSoC6\pdl\cmsis/include/core_cm4.h **** #define xPSR_C_Msk                         (1UL << xPSR_C_Pos)                            /*!< xPSR
 343:Generated_Source\PSoC6\pdl\cmsis/include/core_cm4.h **** 
 344:Generated_Source\PSoC6\pdl\cmsis/include/core_cm4.h **** #define xPSR_V_Pos                         28U                                            /*!< xPSR
 345:Generated_Source\PSoC6\pdl\cmsis/include/core_cm4.h **** #define xPSR_V_Msk                         (1UL << xPSR_V_Pos)                            /*!< xPSR
 346:Generated_Source\PSoC6\pdl\cmsis/include/core_cm4.h **** 
 347:Generated_Source\PSoC6\pdl\cmsis/include/core_cm4.h **** #define xPSR_Q_Pos                         27U                                            /*!< xPSR
 348:Generated_Source\PSoC6\pdl\cmsis/include/core_cm4.h **** #define xPSR_Q_Msk                         (1UL << xPSR_Q_Pos)                            /*!< xPSR
 349:Generated_Source\PSoC6\pdl\cmsis/include/core_cm4.h **** 
 350:Generated_Source\PSoC6\pdl\cmsis/include/core_cm4.h **** #define xPSR_ICI_IT_2_Pos                  25U                                            /*!< xPSR
 351:Generated_Source\PSoC6\pdl\cmsis/include/core_cm4.h **** #define xPSR_ICI_IT_2_Msk                  (3UL << xPSR_ICI_IT_2_Pos)                     /*!< xPSR
 352:Generated_Source\PSoC6\pdl\cmsis/include/core_cm4.h **** 
 353:Generated_Source\PSoC6\pdl\cmsis/include/core_cm4.h **** #define xPSR_T_Pos                         24U                                            /*!< xPSR
 354:Generated_Source\PSoC6\pdl\cmsis/include/core_cm4.h **** #define xPSR_T_Msk                         (1UL << xPSR_T_Pos)                            /*!< xPSR
 355:Generated_Source\PSoC6\pdl\cmsis/include/core_cm4.h **** 
 356:Generated_Source\PSoC6\pdl\cmsis/include/core_cm4.h **** #define xPSR_GE_Pos                        16U                                            /*!< xPSR
 357:Generated_Source\PSoC6\pdl\cmsis/include/core_cm4.h **** #define xPSR_GE_Msk                        (0xFUL << xPSR_GE_Pos)                         /*!< xPSR
 358:Generated_Source\PSoC6\pdl\cmsis/include/core_cm4.h **** 
 359:Generated_Source\PSoC6\pdl\cmsis/include/core_cm4.h **** #define xPSR_ICI_IT_1_Pos                  10U                                            /*!< xPSR
 360:Generated_Source\PSoC6\pdl\cmsis/include/core_cm4.h **** #define xPSR_ICI_IT_1_Msk                  (0x3FUL << xPSR_ICI_IT_1_Pos)                  /*!< xPSR
 361:Generated_Source\PSoC6\pdl\cmsis/include/core_cm4.h **** 
 362:Generated_Source\PSoC6\pdl\cmsis/include/core_cm4.h **** #define xPSR_ISR_Pos                        0U                                            /*!< xPSR
 363:Generated_Source\PSoC6\pdl\cmsis/include/core_cm4.h **** #define xPSR_ISR_Msk                       (0x1FFUL /*<< xPSR_ISR_Pos*/)                  /*!< xPSR
 364:Generated_Source\PSoC6\pdl\cmsis/include/core_cm4.h **** 
 365:Generated_Source\PSoC6\pdl\cmsis/include/core_cm4.h **** 
 366:Generated_Source\PSoC6\pdl\cmsis/include/core_cm4.h **** /**
 367:Generated_Source\PSoC6\pdl\cmsis/include/core_cm4.h ****   \brief  Union type to access the Control Registers (CONTROL).
 368:Generated_Source\PSoC6\pdl\cmsis/include/core_cm4.h ****  */
 369:Generated_Source\PSoC6\pdl\cmsis/include/core_cm4.h **** typedef union
 370:Generated_Source\PSoC6\pdl\cmsis/include/core_cm4.h **** {
 371:Generated_Source\PSoC6\pdl\cmsis/include/core_cm4.h ****   struct
 372:Generated_Source\PSoC6\pdl\cmsis/include/core_cm4.h ****   {
 373:Generated_Source\PSoC6\pdl\cmsis/include/core_cm4.h ****     uint32_t nPRIV:1;                    /*!< bit:      0  Execution privilege in Thread mode */
ARM GAS  C:\Users\rober\AppData\Local\Temp\ccBCZTBX.s 			page 52


 374:Generated_Source\PSoC6\pdl\cmsis/include/core_cm4.h ****     uint32_t SPSEL:1;                    /*!< bit:      1  Stack to be used */
 375:Generated_Source\PSoC6\pdl\cmsis/include/core_cm4.h ****     uint32_t FPCA:1;                     /*!< bit:      2  FP extension active flag */
 376:Generated_Source\PSoC6\pdl\cmsis/include/core_cm4.h ****     uint32_t _reserved0:29;              /*!< bit:  3..31  Reserved */
 377:Generated_Source\PSoC6\pdl\cmsis/include/core_cm4.h ****   } b;                                   /*!< Structure used for bit  access */
 378:Generated_Source\PSoC6\pdl\cmsis/include/core_cm4.h ****   uint32_t w;                            /*!< Type      used for word access */
 379:Generated_Source\PSoC6\pdl\cmsis/include/core_cm4.h **** } CONTROL_Type;
 380:Generated_Source\PSoC6\pdl\cmsis/include/core_cm4.h **** 
 381:Generated_Source\PSoC6\pdl\cmsis/include/core_cm4.h **** /* CONTROL Register Definitions */
 382:Generated_Source\PSoC6\pdl\cmsis/include/core_cm4.h **** #define CONTROL_FPCA_Pos                    2U                                            /*!< CONT
 383:Generated_Source\PSoC6\pdl\cmsis/include/core_cm4.h **** #define CONTROL_FPCA_Msk                   (1UL << CONTROL_FPCA_Pos)                      /*!< CONT
 384:Generated_Source\PSoC6\pdl\cmsis/include/core_cm4.h **** 
 385:Generated_Source\PSoC6\pdl\cmsis/include/core_cm4.h **** #define CONTROL_SPSEL_Pos                   1U                                            /*!< CONT
 386:Generated_Source\PSoC6\pdl\cmsis/include/core_cm4.h **** #define CONTROL_SPSEL_Msk                  (1UL << CONTROL_SPSEL_Pos)                     /*!< CONT
 387:Generated_Source\PSoC6\pdl\cmsis/include/core_cm4.h **** 
 388:Generated_Source\PSoC6\pdl\cmsis/include/core_cm4.h **** #define CONTROL_nPRIV_Pos                   0U                                            /*!< CONT
 389:Generated_Source\PSoC6\pdl\cmsis/include/core_cm4.h **** #define CONTROL_nPRIV_Msk                  (1UL /*<< CONTROL_nPRIV_Pos*/)                 /*!< CONT
 390:Generated_Source\PSoC6\pdl\cmsis/include/core_cm4.h **** 
 391:Generated_Source\PSoC6\pdl\cmsis/include/core_cm4.h **** /*@} end of group CMSIS_CORE */
 392:Generated_Source\PSoC6\pdl\cmsis/include/core_cm4.h **** 
 393:Generated_Source\PSoC6\pdl\cmsis/include/core_cm4.h **** 
 394:Generated_Source\PSoC6\pdl\cmsis/include/core_cm4.h **** /**
 395:Generated_Source\PSoC6\pdl\cmsis/include/core_cm4.h ****   \ingroup    CMSIS_core_register
 396:Generated_Source\PSoC6\pdl\cmsis/include/core_cm4.h ****   \defgroup   CMSIS_NVIC  Nested Vectored Interrupt Controller (NVIC)
 397:Generated_Source\PSoC6\pdl\cmsis/include/core_cm4.h ****   \brief      Type definitions for the NVIC Registers
 398:Generated_Source\PSoC6\pdl\cmsis/include/core_cm4.h ****   @{
 399:Generated_Source\PSoC6\pdl\cmsis/include/core_cm4.h ****  */
 400:Generated_Source\PSoC6\pdl\cmsis/include/core_cm4.h **** 
 401:Generated_Source\PSoC6\pdl\cmsis/include/core_cm4.h **** /**
 402:Generated_Source\PSoC6\pdl\cmsis/include/core_cm4.h ****   \brief  Structure type to access the Nested Vectored Interrupt Controller (NVIC).
 403:Generated_Source\PSoC6\pdl\cmsis/include/core_cm4.h ****  */
 404:Generated_Source\PSoC6\pdl\cmsis/include/core_cm4.h **** typedef struct
 405:Generated_Source\PSoC6\pdl\cmsis/include/core_cm4.h **** {
 406:Generated_Source\PSoC6\pdl\cmsis/include/core_cm4.h ****   __IOM uint32_t ISER[8U];               /*!< Offset: 0x000 (R/W)  Interrupt Set Enable Register */
 407:Generated_Source\PSoC6\pdl\cmsis/include/core_cm4.h ****         uint32_t RESERVED0[24U];
 408:Generated_Source\PSoC6\pdl\cmsis/include/core_cm4.h ****   __IOM uint32_t ICER[8U];               /*!< Offset: 0x080 (R/W)  Interrupt Clear Enable Register 
 409:Generated_Source\PSoC6\pdl\cmsis/include/core_cm4.h ****         uint32_t RSERVED1[24U];
 410:Generated_Source\PSoC6\pdl\cmsis/include/core_cm4.h ****   __IOM uint32_t ISPR[8U];               /*!< Offset: 0x100 (R/W)  Interrupt Set Pending Register *
 411:Generated_Source\PSoC6\pdl\cmsis/include/core_cm4.h ****         uint32_t RESERVED2[24U];
 412:Generated_Source\PSoC6\pdl\cmsis/include/core_cm4.h ****   __IOM uint32_t ICPR[8U];               /*!< Offset: 0x180 (R/W)  Interrupt Clear Pending Register
 413:Generated_Source\PSoC6\pdl\cmsis/include/core_cm4.h ****         uint32_t RESERVED3[24U];
 414:Generated_Source\PSoC6\pdl\cmsis/include/core_cm4.h ****   __IOM uint32_t IABR[8U];               /*!< Offset: 0x200 (R/W)  Interrupt Active bit Register */
 415:Generated_Source\PSoC6\pdl\cmsis/include/core_cm4.h ****         uint32_t RESERVED4[56U];
 416:Generated_Source\PSoC6\pdl\cmsis/include/core_cm4.h ****   __IOM uint8_t  IP[240U];               /*!< Offset: 0x300 (R/W)  Interrupt Priority Register (8Bi
 417:Generated_Source\PSoC6\pdl\cmsis/include/core_cm4.h ****         uint32_t RESERVED5[644U];
 418:Generated_Source\PSoC6\pdl\cmsis/include/core_cm4.h ****   __OM  uint32_t STIR;                   /*!< Offset: 0xE00 ( /W)  Software Trigger Interrupt Regis
 419:Generated_Source\PSoC6\pdl\cmsis/include/core_cm4.h **** }  NVIC_Type;
 420:Generated_Source\PSoC6\pdl\cmsis/include/core_cm4.h **** 
 421:Generated_Source\PSoC6\pdl\cmsis/include/core_cm4.h **** /* Software Triggered Interrupt Register Definitions */
 422:Generated_Source\PSoC6\pdl\cmsis/include/core_cm4.h **** #define NVIC_STIR_INTID_Pos                 0U                                         /*!< STIR: I
 423:Generated_Source\PSoC6\pdl\cmsis/include/core_cm4.h **** #define NVIC_STIR_INTID_Msk                (0x1FFUL /*<< NVIC_STIR_INTID_Pos*/)        /*!< STIR: I
 424:Generated_Source\PSoC6\pdl\cmsis/include/core_cm4.h **** 
 425:Generated_Source\PSoC6\pdl\cmsis/include/core_cm4.h **** /*@} end of group CMSIS_NVIC */
 426:Generated_Source\PSoC6\pdl\cmsis/include/core_cm4.h **** 
 427:Generated_Source\PSoC6\pdl\cmsis/include/core_cm4.h **** 
 428:Generated_Source\PSoC6\pdl\cmsis/include/core_cm4.h **** /**
 429:Generated_Source\PSoC6\pdl\cmsis/include/core_cm4.h ****   \ingroup  CMSIS_core_register
 430:Generated_Source\PSoC6\pdl\cmsis/include/core_cm4.h ****   \defgroup CMSIS_SCB     System Control Block (SCB)
ARM GAS  C:\Users\rober\AppData\Local\Temp\ccBCZTBX.s 			page 53


 431:Generated_Source\PSoC6\pdl\cmsis/include/core_cm4.h ****   \brief    Type definitions for the System Control Block Registers
 432:Generated_Source\PSoC6\pdl\cmsis/include/core_cm4.h ****   @{
 433:Generated_Source\PSoC6\pdl\cmsis/include/core_cm4.h ****  */
 434:Generated_Source\PSoC6\pdl\cmsis/include/core_cm4.h **** 
 435:Generated_Source\PSoC6\pdl\cmsis/include/core_cm4.h **** /**
 436:Generated_Source\PSoC6\pdl\cmsis/include/core_cm4.h ****   \brief  Structure type to access the System Control Block (SCB).
 437:Generated_Source\PSoC6\pdl\cmsis/include/core_cm4.h ****  */
 438:Generated_Source\PSoC6\pdl\cmsis/include/core_cm4.h **** typedef struct
 439:Generated_Source\PSoC6\pdl\cmsis/include/core_cm4.h **** {
 440:Generated_Source\PSoC6\pdl\cmsis/include/core_cm4.h ****   __IM  uint32_t CPUID;                  /*!< Offset: 0x000 (R/ )  CPUID Base Register */
 441:Generated_Source\PSoC6\pdl\cmsis/include/core_cm4.h ****   __IOM uint32_t ICSR;                   /*!< Offset: 0x004 (R/W)  Interrupt Control and State Regi
 442:Generated_Source\PSoC6\pdl\cmsis/include/core_cm4.h ****   __IOM uint32_t VTOR;                   /*!< Offset: 0x008 (R/W)  Vector Table Offset Register */
 443:Generated_Source\PSoC6\pdl\cmsis/include/core_cm4.h ****   __IOM uint32_t AIRCR;                  /*!< Offset: 0x00C (R/W)  Application Interrupt and Reset 
 444:Generated_Source\PSoC6\pdl\cmsis/include/core_cm4.h ****   __IOM uint32_t SCR;                    /*!< Offset: 0x010 (R/W)  System Control Register */
 445:Generated_Source\PSoC6\pdl\cmsis/include/core_cm4.h ****   __IOM uint32_t CCR;                    /*!< Offset: 0x014 (R/W)  Configuration Control Register *
 446:Generated_Source\PSoC6\pdl\cmsis/include/core_cm4.h ****   __IOM uint8_t  SHP[12U];               /*!< Offset: 0x018 (R/W)  System Handlers Priority Registe
 447:Generated_Source\PSoC6\pdl\cmsis/include/core_cm4.h ****   __IOM uint32_t SHCSR;                  /*!< Offset: 0x024 (R/W)  System Handler Control and State
 448:Generated_Source\PSoC6\pdl\cmsis/include/core_cm4.h ****   __IOM uint32_t CFSR;                   /*!< Offset: 0x028 (R/W)  Configurable Fault Status Regist
 449:Generated_Source\PSoC6\pdl\cmsis/include/core_cm4.h ****   __IOM uint32_t HFSR;                   /*!< Offset: 0x02C (R/W)  HardFault Status Register */
 450:Generated_Source\PSoC6\pdl\cmsis/include/core_cm4.h ****   __IOM uint32_t DFSR;                   /*!< Offset: 0x030 (R/W)  Debug Fault Status Register */
 451:Generated_Source\PSoC6\pdl\cmsis/include/core_cm4.h ****   __IOM uint32_t MMFAR;                  /*!< Offset: 0x034 (R/W)  MemManage Fault Address Register
 452:Generated_Source\PSoC6\pdl\cmsis/include/core_cm4.h ****   __IOM uint32_t BFAR;                   /*!< Offset: 0x038 (R/W)  BusFault Address Register */
 453:Generated_Source\PSoC6\pdl\cmsis/include/core_cm4.h ****   __IOM uint32_t AFSR;                   /*!< Offset: 0x03C (R/W)  Auxiliary Fault Status Register 
 454:Generated_Source\PSoC6\pdl\cmsis/include/core_cm4.h ****   __IM  uint32_t PFR[2U];                /*!< Offset: 0x040 (R/ )  Processor Feature Register */
 455:Generated_Source\PSoC6\pdl\cmsis/include/core_cm4.h ****   __IM  uint32_t DFR;                    /*!< Offset: 0x048 (R/ )  Debug Feature Register */
 456:Generated_Source\PSoC6\pdl\cmsis/include/core_cm4.h ****   __IM  uint32_t ADR;                    /*!< Offset: 0x04C (R/ )  Auxiliary Feature Register */
 457:Generated_Source\PSoC6\pdl\cmsis/include/core_cm4.h ****   __IM  uint32_t MMFR[4U];               /*!< Offset: 0x050 (R/ )  Memory Model Feature Register */
 458:Generated_Source\PSoC6\pdl\cmsis/include/core_cm4.h ****   __IM  uint32_t ISAR[5U];               /*!< Offset: 0x060 (R/ )  Instruction Set Attributes Regis
 459:Generated_Source\PSoC6\pdl\cmsis/include/core_cm4.h ****         uint32_t RESERVED0[5U];
 460:Generated_Source\PSoC6\pdl\cmsis/include/core_cm4.h ****   __IOM uint32_t CPACR;                  /*!< Offset: 0x088 (R/W)  Coprocessor Access Control Regis
 461:Generated_Source\PSoC6\pdl\cmsis/include/core_cm4.h **** } SCB_Type;
 462:Generated_Source\PSoC6\pdl\cmsis/include/core_cm4.h **** 
 463:Generated_Source\PSoC6\pdl\cmsis/include/core_cm4.h **** /* SCB CPUID Register Definitions */
 464:Generated_Source\PSoC6\pdl\cmsis/include/core_cm4.h **** #define SCB_CPUID_IMPLEMENTER_Pos          24U                                            /*!< SCB 
 465:Generated_Source\PSoC6\pdl\cmsis/include/core_cm4.h **** #define SCB_CPUID_IMPLEMENTER_Msk          (0xFFUL << SCB_CPUID_IMPLEMENTER_Pos)          /*!< SCB 
 466:Generated_Source\PSoC6\pdl\cmsis/include/core_cm4.h **** 
 467:Generated_Source\PSoC6\pdl\cmsis/include/core_cm4.h **** #define SCB_CPUID_VARIANT_Pos              20U                                            /*!< SCB 
 468:Generated_Source\PSoC6\pdl\cmsis/include/core_cm4.h **** #define SCB_CPUID_VARIANT_Msk              (0xFUL << SCB_CPUID_VARIANT_Pos)               /*!< SCB 
 469:Generated_Source\PSoC6\pdl\cmsis/include/core_cm4.h **** 
 470:Generated_Source\PSoC6\pdl\cmsis/include/core_cm4.h **** #define SCB_CPUID_ARCHITECTURE_Pos         16U                                            /*!< SCB 
 471:Generated_Source\PSoC6\pdl\cmsis/include/core_cm4.h **** #define SCB_CPUID_ARCHITECTURE_Msk         (0xFUL << SCB_CPUID_ARCHITECTURE_Pos)          /*!< SCB 
 472:Generated_Source\PSoC6\pdl\cmsis/include/core_cm4.h **** 
 473:Generated_Source\PSoC6\pdl\cmsis/include/core_cm4.h **** #define SCB_CPUID_PARTNO_Pos                4U                                            /*!< SCB 
 474:Generated_Source\PSoC6\pdl\cmsis/include/core_cm4.h **** #define SCB_CPUID_PARTNO_Msk               (0xFFFUL << SCB_CPUID_PARTNO_Pos)              /*!< SCB 
 475:Generated_Source\PSoC6\pdl\cmsis/include/core_cm4.h **** 
 476:Generated_Source\PSoC6\pdl\cmsis/include/core_cm4.h **** #define SCB_CPUID_REVISION_Pos              0U                                            /*!< SCB 
 477:Generated_Source\PSoC6\pdl\cmsis/include/core_cm4.h **** #define SCB_CPUID_REVISION_Msk             (0xFUL /*<< SCB_CPUID_REVISION_Pos*/)          /*!< SCB 
 478:Generated_Source\PSoC6\pdl\cmsis/include/core_cm4.h **** 
 479:Generated_Source\PSoC6\pdl\cmsis/include/core_cm4.h **** /* SCB Interrupt Control State Register Definitions */
 480:Generated_Source\PSoC6\pdl\cmsis/include/core_cm4.h **** #define SCB_ICSR_NMIPENDSET_Pos            31U                                            /*!< SCB 
 481:Generated_Source\PSoC6\pdl\cmsis/include/core_cm4.h **** #define SCB_ICSR_NMIPENDSET_Msk            (1UL << SCB_ICSR_NMIPENDSET_Pos)               /*!< SCB 
 482:Generated_Source\PSoC6\pdl\cmsis/include/core_cm4.h **** 
 483:Generated_Source\PSoC6\pdl\cmsis/include/core_cm4.h **** #define SCB_ICSR_PENDSVSET_Pos             28U                                            /*!< SCB 
 484:Generated_Source\PSoC6\pdl\cmsis/include/core_cm4.h **** #define SCB_ICSR_PENDSVSET_Msk             (1UL << SCB_ICSR_PENDSVSET_Pos)                /*!< SCB 
 485:Generated_Source\PSoC6\pdl\cmsis/include/core_cm4.h **** 
 486:Generated_Source\PSoC6\pdl\cmsis/include/core_cm4.h **** #define SCB_ICSR_PENDSVCLR_Pos             27U                                            /*!< SCB 
 487:Generated_Source\PSoC6\pdl\cmsis/include/core_cm4.h **** #define SCB_ICSR_PENDSVCLR_Msk             (1UL << SCB_ICSR_PENDSVCLR_Pos)                /*!< SCB 
ARM GAS  C:\Users\rober\AppData\Local\Temp\ccBCZTBX.s 			page 54


 488:Generated_Source\PSoC6\pdl\cmsis/include/core_cm4.h **** 
 489:Generated_Source\PSoC6\pdl\cmsis/include/core_cm4.h **** #define SCB_ICSR_PENDSTSET_Pos             26U                                            /*!< SCB 
 490:Generated_Source\PSoC6\pdl\cmsis/include/core_cm4.h **** #define SCB_ICSR_PENDSTSET_Msk             (1UL << SCB_ICSR_PENDSTSET_Pos)                /*!< SCB 
 491:Generated_Source\PSoC6\pdl\cmsis/include/core_cm4.h **** 
 492:Generated_Source\PSoC6\pdl\cmsis/include/core_cm4.h **** #define SCB_ICSR_PENDSTCLR_Pos             25U                                            /*!< SCB 
 493:Generated_Source\PSoC6\pdl\cmsis/include/core_cm4.h **** #define SCB_ICSR_PENDSTCLR_Msk             (1UL << SCB_ICSR_PENDSTCLR_Pos)                /*!< SCB 
 494:Generated_Source\PSoC6\pdl\cmsis/include/core_cm4.h **** 
 495:Generated_Source\PSoC6\pdl\cmsis/include/core_cm4.h **** #define SCB_ICSR_ISRPREEMPT_Pos            23U                                            /*!< SCB 
 496:Generated_Source\PSoC6\pdl\cmsis/include/core_cm4.h **** #define SCB_ICSR_ISRPREEMPT_Msk            (1UL << SCB_ICSR_ISRPREEMPT_Pos)               /*!< SCB 
 497:Generated_Source\PSoC6\pdl\cmsis/include/core_cm4.h **** 
 498:Generated_Source\PSoC6\pdl\cmsis/include/core_cm4.h **** #define SCB_ICSR_ISRPENDING_Pos            22U                                            /*!< SCB 
 499:Generated_Source\PSoC6\pdl\cmsis/include/core_cm4.h **** #define SCB_ICSR_ISRPENDING_Msk            (1UL << SCB_ICSR_ISRPENDING_Pos)               /*!< SCB 
 500:Generated_Source\PSoC6\pdl\cmsis/include/core_cm4.h **** 
 501:Generated_Source\PSoC6\pdl\cmsis/include/core_cm4.h **** #define SCB_ICSR_VECTPENDING_Pos           12U                                            /*!< SCB 
 502:Generated_Source\PSoC6\pdl\cmsis/include/core_cm4.h **** #define SCB_ICSR_VECTPENDING_Msk           (0x1FFUL << SCB_ICSR_VECTPENDING_Pos)          /*!< SCB 
 503:Generated_Source\PSoC6\pdl\cmsis/include/core_cm4.h **** 
 504:Generated_Source\PSoC6\pdl\cmsis/include/core_cm4.h **** #define SCB_ICSR_RETTOBASE_Pos             11U                                            /*!< SCB 
 505:Generated_Source\PSoC6\pdl\cmsis/include/core_cm4.h **** #define SCB_ICSR_RETTOBASE_Msk             (1UL << SCB_ICSR_RETTOBASE_Pos)                /*!< SCB 
 506:Generated_Source\PSoC6\pdl\cmsis/include/core_cm4.h **** 
 507:Generated_Source\PSoC6\pdl\cmsis/include/core_cm4.h **** #define SCB_ICSR_VECTACTIVE_Pos             0U                                            /*!< SCB 
 508:Generated_Source\PSoC6\pdl\cmsis/include/core_cm4.h **** #define SCB_ICSR_VECTACTIVE_Msk            (0x1FFUL /*<< SCB_ICSR_VECTACTIVE_Pos*/)       /*!< SCB 
 509:Generated_Source\PSoC6\pdl\cmsis/include/core_cm4.h **** 
 510:Generated_Source\PSoC6\pdl\cmsis/include/core_cm4.h **** /* SCB Vector Table Offset Register Definitions */
 511:Generated_Source\PSoC6\pdl\cmsis/include/core_cm4.h **** #define SCB_VTOR_TBLOFF_Pos                 7U                                            /*!< SCB 
 512:Generated_Source\PSoC6\pdl\cmsis/include/core_cm4.h **** #define SCB_VTOR_TBLOFF_Msk                (0x1FFFFFFUL << SCB_VTOR_TBLOFF_Pos)           /*!< SCB 
 513:Generated_Source\PSoC6\pdl\cmsis/include/core_cm4.h **** 
 514:Generated_Source\PSoC6\pdl\cmsis/include/core_cm4.h **** /* SCB Application Interrupt and Reset Control Register Definitions */
 515:Generated_Source\PSoC6\pdl\cmsis/include/core_cm4.h **** #define SCB_AIRCR_VECTKEY_Pos              16U                                            /*!< SCB 
 516:Generated_Source\PSoC6\pdl\cmsis/include/core_cm4.h **** #define SCB_AIRCR_VECTKEY_Msk              (0xFFFFUL << SCB_AIRCR_VECTKEY_Pos)            /*!< SCB 
 517:Generated_Source\PSoC6\pdl\cmsis/include/core_cm4.h **** 
 518:Generated_Source\PSoC6\pdl\cmsis/include/core_cm4.h **** #define SCB_AIRCR_VECTKEYSTAT_Pos          16U                                            /*!< SCB 
 519:Generated_Source\PSoC6\pdl\cmsis/include/core_cm4.h **** #define SCB_AIRCR_VECTKEYSTAT_Msk          (0xFFFFUL << SCB_AIRCR_VECTKEYSTAT_Pos)        /*!< SCB 
 520:Generated_Source\PSoC6\pdl\cmsis/include/core_cm4.h **** 
 521:Generated_Source\PSoC6\pdl\cmsis/include/core_cm4.h **** #define SCB_AIRCR_ENDIANESS_Pos            15U                                            /*!< SCB 
 522:Generated_Source\PSoC6\pdl\cmsis/include/core_cm4.h **** #define SCB_AIRCR_ENDIANESS_Msk            (1UL << SCB_AIRCR_ENDIANESS_Pos)               /*!< SCB 
 523:Generated_Source\PSoC6\pdl\cmsis/include/core_cm4.h **** 
 524:Generated_Source\PSoC6\pdl\cmsis/include/core_cm4.h **** #define SCB_AIRCR_PRIGROUP_Pos              8U                                            /*!< SCB 
 525:Generated_Source\PSoC6\pdl\cmsis/include/core_cm4.h **** #define SCB_AIRCR_PRIGROUP_Msk             (7UL << SCB_AIRCR_PRIGROUP_Pos)                /*!< SCB 
 526:Generated_Source\PSoC6\pdl\cmsis/include/core_cm4.h **** 
 527:Generated_Source\PSoC6\pdl\cmsis/include/core_cm4.h **** #define SCB_AIRCR_SYSRESETREQ_Pos           2U                                            /*!< SCB 
 528:Generated_Source\PSoC6\pdl\cmsis/include/core_cm4.h **** #define SCB_AIRCR_SYSRESETREQ_Msk          (1UL << SCB_AIRCR_SYSRESETREQ_Pos)             /*!< SCB 
 529:Generated_Source\PSoC6\pdl\cmsis/include/core_cm4.h **** 
 530:Generated_Source\PSoC6\pdl\cmsis/include/core_cm4.h **** #define SCB_AIRCR_VECTCLRACTIVE_Pos         1U                                            /*!< SCB 
 531:Generated_Source\PSoC6\pdl\cmsis/include/core_cm4.h **** #define SCB_AIRCR_VECTCLRACTIVE_Msk        (1UL << SCB_AIRCR_VECTCLRACTIVE_Pos)           /*!< SCB 
 532:Generated_Source\PSoC6\pdl\cmsis/include/core_cm4.h **** 
 533:Generated_Source\PSoC6\pdl\cmsis/include/core_cm4.h **** #define SCB_AIRCR_VECTRESET_Pos             0U                                            /*!< SCB 
 534:Generated_Source\PSoC6\pdl\cmsis/include/core_cm4.h **** #define SCB_AIRCR_VECTRESET_Msk            (1UL /*<< SCB_AIRCR_VECTRESET_Pos*/)           /*!< SCB 
 535:Generated_Source\PSoC6\pdl\cmsis/include/core_cm4.h **** 
 536:Generated_Source\PSoC6\pdl\cmsis/include/core_cm4.h **** /* SCB System Control Register Definitions */
 537:Generated_Source\PSoC6\pdl\cmsis/include/core_cm4.h **** #define SCB_SCR_SEVONPEND_Pos               4U                                            /*!< SCB 
 538:Generated_Source\PSoC6\pdl\cmsis/include/core_cm4.h **** #define SCB_SCR_SEVONPEND_Msk              (1UL << SCB_SCR_SEVONPEND_Pos)                 /*!< SCB 
 539:Generated_Source\PSoC6\pdl\cmsis/include/core_cm4.h **** 
 540:Generated_Source\PSoC6\pdl\cmsis/include/core_cm4.h **** #define SCB_SCR_SLEEPDEEP_Pos               2U                                            /*!< SCB 
 541:Generated_Source\PSoC6\pdl\cmsis/include/core_cm4.h **** #define SCB_SCR_SLEEPDEEP_Msk              (1UL << SCB_SCR_SLEEPDEEP_Pos)                 /*!< SCB 
 542:Generated_Source\PSoC6\pdl\cmsis/include/core_cm4.h **** 
 543:Generated_Source\PSoC6\pdl\cmsis/include/core_cm4.h **** #define SCB_SCR_SLEEPONEXIT_Pos             1U                                            /*!< SCB 
 544:Generated_Source\PSoC6\pdl\cmsis/include/core_cm4.h **** #define SCB_SCR_SLEEPONEXIT_Msk            (1UL << SCB_SCR_SLEEPONEXIT_Pos)               /*!< SCB 
ARM GAS  C:\Users\rober\AppData\Local\Temp\ccBCZTBX.s 			page 55


 545:Generated_Source\PSoC6\pdl\cmsis/include/core_cm4.h **** 
 546:Generated_Source\PSoC6\pdl\cmsis/include/core_cm4.h **** /* SCB Configuration Control Register Definitions */
 547:Generated_Source\PSoC6\pdl\cmsis/include/core_cm4.h **** #define SCB_CCR_STKALIGN_Pos                9U                                            /*!< SCB 
 548:Generated_Source\PSoC6\pdl\cmsis/include/core_cm4.h **** #define SCB_CCR_STKALIGN_Msk               (1UL << SCB_CCR_STKALIGN_Pos)                  /*!< SCB 
 549:Generated_Source\PSoC6\pdl\cmsis/include/core_cm4.h **** 
 550:Generated_Source\PSoC6\pdl\cmsis/include/core_cm4.h **** #define SCB_CCR_BFHFNMIGN_Pos               8U                                            /*!< SCB 
 551:Generated_Source\PSoC6\pdl\cmsis/include/core_cm4.h **** #define SCB_CCR_BFHFNMIGN_Msk              (1UL << SCB_CCR_BFHFNMIGN_Pos)                 /*!< SCB 
 552:Generated_Source\PSoC6\pdl\cmsis/include/core_cm4.h **** 
 553:Generated_Source\PSoC6\pdl\cmsis/include/core_cm4.h **** #define SCB_CCR_DIV_0_TRP_Pos               4U                                            /*!< SCB 
 554:Generated_Source\PSoC6\pdl\cmsis/include/core_cm4.h **** #define SCB_CCR_DIV_0_TRP_Msk              (1UL << SCB_CCR_DIV_0_TRP_Pos)                 /*!< SCB 
 555:Generated_Source\PSoC6\pdl\cmsis/include/core_cm4.h **** 
 556:Generated_Source\PSoC6\pdl\cmsis/include/core_cm4.h **** #define SCB_CCR_UNALIGN_TRP_Pos             3U                                            /*!< SCB 
 557:Generated_Source\PSoC6\pdl\cmsis/include/core_cm4.h **** #define SCB_CCR_UNALIGN_TRP_Msk            (1UL << SCB_CCR_UNALIGN_TRP_Pos)               /*!< SCB 
 558:Generated_Source\PSoC6\pdl\cmsis/include/core_cm4.h **** 
 559:Generated_Source\PSoC6\pdl\cmsis/include/core_cm4.h **** #define SCB_CCR_USERSETMPEND_Pos            1U                                            /*!< SCB 
 560:Generated_Source\PSoC6\pdl\cmsis/include/core_cm4.h **** #define SCB_CCR_USERSETMPEND_Msk           (1UL << SCB_CCR_USERSETMPEND_Pos)              /*!< SCB 
 561:Generated_Source\PSoC6\pdl\cmsis/include/core_cm4.h **** 
 562:Generated_Source\PSoC6\pdl\cmsis/include/core_cm4.h **** #define SCB_CCR_NONBASETHRDENA_Pos          0U                                            /*!< SCB 
 563:Generated_Source\PSoC6\pdl\cmsis/include/core_cm4.h **** #define SCB_CCR_NONBASETHRDENA_Msk         (1UL /*<< SCB_CCR_NONBASETHRDENA_Pos*/)        /*!< SCB 
 564:Generated_Source\PSoC6\pdl\cmsis/include/core_cm4.h **** 
 565:Generated_Source\PSoC6\pdl\cmsis/include/core_cm4.h **** /* SCB System Handler Control and State Register Definitions */
 566:Generated_Source\PSoC6\pdl\cmsis/include/core_cm4.h **** #define SCB_SHCSR_USGFAULTENA_Pos          18U                                            /*!< SCB 
 567:Generated_Source\PSoC6\pdl\cmsis/include/core_cm4.h **** #define SCB_SHCSR_USGFAULTENA_Msk          (1UL << SCB_SHCSR_USGFAULTENA_Pos)             /*!< SCB 
 568:Generated_Source\PSoC6\pdl\cmsis/include/core_cm4.h **** 
 569:Generated_Source\PSoC6\pdl\cmsis/include/core_cm4.h **** #define SCB_SHCSR_BUSFAULTENA_Pos          17U                                            /*!< SCB 
 570:Generated_Source\PSoC6\pdl\cmsis/include/core_cm4.h **** #define SCB_SHCSR_BUSFAULTENA_Msk          (1UL << SCB_SHCSR_BUSFAULTENA_Pos)             /*!< SCB 
 571:Generated_Source\PSoC6\pdl\cmsis/include/core_cm4.h **** 
 572:Generated_Source\PSoC6\pdl\cmsis/include/core_cm4.h **** #define SCB_SHCSR_MEMFAULTENA_Pos          16U                                            /*!< SCB 
 573:Generated_Source\PSoC6\pdl\cmsis/include/core_cm4.h **** #define SCB_SHCSR_MEMFAULTENA_Msk          (1UL << SCB_SHCSR_MEMFAULTENA_Pos)             /*!< SCB 
 574:Generated_Source\PSoC6\pdl\cmsis/include/core_cm4.h **** 
 575:Generated_Source\PSoC6\pdl\cmsis/include/core_cm4.h **** #define SCB_SHCSR_SVCALLPENDED_Pos         15U                                            /*!< SCB 
 576:Generated_Source\PSoC6\pdl\cmsis/include/core_cm4.h **** #define SCB_SHCSR_SVCALLPENDED_Msk         (1UL << SCB_SHCSR_SVCALLPENDED_Pos)            /*!< SCB 
 577:Generated_Source\PSoC6\pdl\cmsis/include/core_cm4.h **** 
 578:Generated_Source\PSoC6\pdl\cmsis/include/core_cm4.h **** #define SCB_SHCSR_BUSFAULTPENDED_Pos       14U                                            /*!< SCB 
 579:Generated_Source\PSoC6\pdl\cmsis/include/core_cm4.h **** #define SCB_SHCSR_BUSFAULTPENDED_Msk       (1UL << SCB_SHCSR_BUSFAULTPENDED_Pos)          /*!< SCB 
 580:Generated_Source\PSoC6\pdl\cmsis/include/core_cm4.h **** 
 581:Generated_Source\PSoC6\pdl\cmsis/include/core_cm4.h **** #define SCB_SHCSR_MEMFAULTPENDED_Pos       13U                                            /*!< SCB 
 582:Generated_Source\PSoC6\pdl\cmsis/include/core_cm4.h **** #define SCB_SHCSR_MEMFAULTPENDED_Msk       (1UL << SCB_SHCSR_MEMFAULTPENDED_Pos)          /*!< SCB 
 583:Generated_Source\PSoC6\pdl\cmsis/include/core_cm4.h **** 
 584:Generated_Source\PSoC6\pdl\cmsis/include/core_cm4.h **** #define SCB_SHCSR_USGFAULTPENDED_Pos       12U                                            /*!< SCB 
 585:Generated_Source\PSoC6\pdl\cmsis/include/core_cm4.h **** #define SCB_SHCSR_USGFAULTPENDED_Msk       (1UL << SCB_SHCSR_USGFAULTPENDED_Pos)          /*!< SCB 
 586:Generated_Source\PSoC6\pdl\cmsis/include/core_cm4.h **** 
 587:Generated_Source\PSoC6\pdl\cmsis/include/core_cm4.h **** #define SCB_SHCSR_SYSTICKACT_Pos           11U                                            /*!< SCB 
 588:Generated_Source\PSoC6\pdl\cmsis/include/core_cm4.h **** #define SCB_SHCSR_SYSTICKACT_Msk           (1UL << SCB_SHCSR_SYSTICKACT_Pos)              /*!< SCB 
 589:Generated_Source\PSoC6\pdl\cmsis/include/core_cm4.h **** 
 590:Generated_Source\PSoC6\pdl\cmsis/include/core_cm4.h **** #define SCB_SHCSR_PENDSVACT_Pos            10U                                            /*!< SCB 
 591:Generated_Source\PSoC6\pdl\cmsis/include/core_cm4.h **** #define SCB_SHCSR_PENDSVACT_Msk            (1UL << SCB_SHCSR_PENDSVACT_Pos)               /*!< SCB 
 592:Generated_Source\PSoC6\pdl\cmsis/include/core_cm4.h **** 
 593:Generated_Source\PSoC6\pdl\cmsis/include/core_cm4.h **** #define SCB_SHCSR_MONITORACT_Pos            8U                                            /*!< SCB 
 594:Generated_Source\PSoC6\pdl\cmsis/include/core_cm4.h **** #define SCB_SHCSR_MONITORACT_Msk           (1UL << SCB_SHCSR_MONITORACT_Pos)              /*!< SCB 
 595:Generated_Source\PSoC6\pdl\cmsis/include/core_cm4.h **** 
 596:Generated_Source\PSoC6\pdl\cmsis/include/core_cm4.h **** #define SCB_SHCSR_SVCALLACT_Pos             7U                                            /*!< SCB 
 597:Generated_Source\PSoC6\pdl\cmsis/include/core_cm4.h **** #define SCB_SHCSR_SVCALLACT_Msk            (1UL << SCB_SHCSR_SVCALLACT_Pos)               /*!< SCB 
 598:Generated_Source\PSoC6\pdl\cmsis/include/core_cm4.h **** 
 599:Generated_Source\PSoC6\pdl\cmsis/include/core_cm4.h **** #define SCB_SHCSR_USGFAULTACT_Pos           3U                                            /*!< SCB 
 600:Generated_Source\PSoC6\pdl\cmsis/include/core_cm4.h **** #define SCB_SHCSR_USGFAULTACT_Msk          (1UL << SCB_SHCSR_USGFAULTACT_Pos)             /*!< SCB 
 601:Generated_Source\PSoC6\pdl\cmsis/include/core_cm4.h **** 
ARM GAS  C:\Users\rober\AppData\Local\Temp\ccBCZTBX.s 			page 56


 602:Generated_Source\PSoC6\pdl\cmsis/include/core_cm4.h **** #define SCB_SHCSR_BUSFAULTACT_Pos           1U                                            /*!< SCB 
 603:Generated_Source\PSoC6\pdl\cmsis/include/core_cm4.h **** #define SCB_SHCSR_BUSFAULTACT_Msk          (1UL << SCB_SHCSR_BUSFAULTACT_Pos)             /*!< SCB 
 604:Generated_Source\PSoC6\pdl\cmsis/include/core_cm4.h **** 
 605:Generated_Source\PSoC6\pdl\cmsis/include/core_cm4.h **** #define SCB_SHCSR_MEMFAULTACT_Pos           0U                                            /*!< SCB 
 606:Generated_Source\PSoC6\pdl\cmsis/include/core_cm4.h **** #define SCB_SHCSR_MEMFAULTACT_Msk          (1UL /*<< SCB_SHCSR_MEMFAULTACT_Pos*/)         /*!< SCB 
 607:Generated_Source\PSoC6\pdl\cmsis/include/core_cm4.h **** 
 608:Generated_Source\PSoC6\pdl\cmsis/include/core_cm4.h **** /* SCB Configurable Fault Status Register Definitions */
 609:Generated_Source\PSoC6\pdl\cmsis/include/core_cm4.h **** #define SCB_CFSR_USGFAULTSR_Pos            16U                                            /*!< SCB 
 610:Generated_Source\PSoC6\pdl\cmsis/include/core_cm4.h **** #define SCB_CFSR_USGFAULTSR_Msk            (0xFFFFUL << SCB_CFSR_USGFAULTSR_Pos)          /*!< SCB 
 611:Generated_Source\PSoC6\pdl\cmsis/include/core_cm4.h **** 
 612:Generated_Source\PSoC6\pdl\cmsis/include/core_cm4.h **** #define SCB_CFSR_BUSFAULTSR_Pos             8U                                            /*!< SCB 
 613:Generated_Source\PSoC6\pdl\cmsis/include/core_cm4.h **** #define SCB_CFSR_BUSFAULTSR_Msk            (0xFFUL << SCB_CFSR_BUSFAULTSR_Pos)            /*!< SCB 
 614:Generated_Source\PSoC6\pdl\cmsis/include/core_cm4.h **** 
 615:Generated_Source\PSoC6\pdl\cmsis/include/core_cm4.h **** #define SCB_CFSR_MEMFAULTSR_Pos             0U                                            /*!< SCB 
 616:Generated_Source\PSoC6\pdl\cmsis/include/core_cm4.h **** #define SCB_CFSR_MEMFAULTSR_Msk            (0xFFUL /*<< SCB_CFSR_MEMFAULTSR_Pos*/)        /*!< SCB 
 617:Generated_Source\PSoC6\pdl\cmsis/include/core_cm4.h **** 
 618:Generated_Source\PSoC6\pdl\cmsis/include/core_cm4.h **** /* MemManage Fault Status Register (part of SCB Configurable Fault Status Register) */
 619:Generated_Source\PSoC6\pdl\cmsis/include/core_cm4.h **** #define SCB_CFSR_MMARVALID_Pos             (SCB_SHCSR_MEMFAULTACT_Pos + 7U)               /*!< SCB 
 620:Generated_Source\PSoC6\pdl\cmsis/include/core_cm4.h **** #define SCB_CFSR_MMARVALID_Msk             (1UL << SCB_CFSR_MMARVALID_Pos)                /*!< SCB 
 621:Generated_Source\PSoC6\pdl\cmsis/include/core_cm4.h **** 
 622:Generated_Source\PSoC6\pdl\cmsis/include/core_cm4.h **** #define SCB_CFSR_MLSPERR_Pos               (SCB_SHCSR_MEMFAULTACT_Pos + 5U)               /*!< SCB 
 623:Generated_Source\PSoC6\pdl\cmsis/include/core_cm4.h **** #define SCB_CFSR_MLSPERR_Msk               (1UL << SCB_CFSR_MLSPERR_Pos)                  /*!< SCB 
 624:Generated_Source\PSoC6\pdl\cmsis/include/core_cm4.h **** 
 625:Generated_Source\PSoC6\pdl\cmsis/include/core_cm4.h **** #define SCB_CFSR_MSTKERR_Pos               (SCB_SHCSR_MEMFAULTACT_Pos + 4U)               /*!< SCB 
 626:Generated_Source\PSoC6\pdl\cmsis/include/core_cm4.h **** #define SCB_CFSR_MSTKERR_Msk               (1UL << SCB_CFSR_MSTKERR_Pos)                  /*!< SCB 
 627:Generated_Source\PSoC6\pdl\cmsis/include/core_cm4.h **** 
 628:Generated_Source\PSoC6\pdl\cmsis/include/core_cm4.h **** #define SCB_CFSR_MUNSTKERR_Pos             (SCB_SHCSR_MEMFAULTACT_Pos + 3U)               /*!< SCB 
 629:Generated_Source\PSoC6\pdl\cmsis/include/core_cm4.h **** #define SCB_CFSR_MUNSTKERR_Msk             (1UL << SCB_CFSR_MUNSTKERR_Pos)                /*!< SCB 
 630:Generated_Source\PSoC6\pdl\cmsis/include/core_cm4.h **** 
 631:Generated_Source\PSoC6\pdl\cmsis/include/core_cm4.h **** #define SCB_CFSR_DACCVIOL_Pos              (SCB_SHCSR_MEMFAULTACT_Pos + 1U)               /*!< SCB 
 632:Generated_Source\PSoC6\pdl\cmsis/include/core_cm4.h **** #define SCB_CFSR_DACCVIOL_Msk              (1UL << SCB_CFSR_DACCVIOL_Pos)                 /*!< SCB 
 633:Generated_Source\PSoC6\pdl\cmsis/include/core_cm4.h **** 
 634:Generated_Source\PSoC6\pdl\cmsis/include/core_cm4.h **** #define SCB_CFSR_IACCVIOL_Pos              (SCB_SHCSR_MEMFAULTACT_Pos + 0U)               /*!< SCB 
 635:Generated_Source\PSoC6\pdl\cmsis/include/core_cm4.h **** #define SCB_CFSR_IACCVIOL_Msk              (1UL /*<< SCB_CFSR_IACCVIOL_Pos*/)             /*!< SCB 
 636:Generated_Source\PSoC6\pdl\cmsis/include/core_cm4.h **** 
 637:Generated_Source\PSoC6\pdl\cmsis/include/core_cm4.h **** /* BusFault Status Register (part of SCB Configurable Fault Status Register) */
 638:Generated_Source\PSoC6\pdl\cmsis/include/core_cm4.h **** #define SCB_CFSR_BFARVALID_Pos            (SCB_CFSR_BUSFAULTSR_Pos + 7U)                  /*!< SCB 
 639:Generated_Source\PSoC6\pdl\cmsis/include/core_cm4.h **** #define SCB_CFSR_BFARVALID_Msk            (1UL << SCB_CFSR_BFARVALID_Pos)                 /*!< SCB 
 640:Generated_Source\PSoC6\pdl\cmsis/include/core_cm4.h **** 
 641:Generated_Source\PSoC6\pdl\cmsis/include/core_cm4.h **** #define SCB_CFSR_LSPERR_Pos               (SCB_CFSR_BUSFAULTSR_Pos + 5U)                  /*!< SCB 
 642:Generated_Source\PSoC6\pdl\cmsis/include/core_cm4.h **** #define SCB_CFSR_LSPERR_Msk               (1UL << SCB_CFSR_LSPERR_Pos)                    /*!< SCB 
 643:Generated_Source\PSoC6\pdl\cmsis/include/core_cm4.h **** 
 644:Generated_Source\PSoC6\pdl\cmsis/include/core_cm4.h **** #define SCB_CFSR_STKERR_Pos               (SCB_CFSR_BUSFAULTSR_Pos + 4U)                  /*!< SCB 
 645:Generated_Source\PSoC6\pdl\cmsis/include/core_cm4.h **** #define SCB_CFSR_STKERR_Msk               (1UL << SCB_CFSR_STKERR_Pos)                    /*!< SCB 
 646:Generated_Source\PSoC6\pdl\cmsis/include/core_cm4.h **** 
 647:Generated_Source\PSoC6\pdl\cmsis/include/core_cm4.h **** #define SCB_CFSR_UNSTKERR_Pos             (SCB_CFSR_BUSFAULTSR_Pos + 3U)                  /*!< SCB 
 648:Generated_Source\PSoC6\pdl\cmsis/include/core_cm4.h **** #define SCB_CFSR_UNSTKERR_Msk             (1UL << SCB_CFSR_UNSTKERR_Pos)                  /*!< SCB 
 649:Generated_Source\PSoC6\pdl\cmsis/include/core_cm4.h **** 
 650:Generated_Source\PSoC6\pdl\cmsis/include/core_cm4.h **** #define SCB_CFSR_IMPRECISERR_Pos          (SCB_CFSR_BUSFAULTSR_Pos + 2U)                  /*!< SCB 
 651:Generated_Source\PSoC6\pdl\cmsis/include/core_cm4.h **** #define SCB_CFSR_IMPRECISERR_Msk          (1UL << SCB_CFSR_IMPRECISERR_Pos)               /*!< SCB 
 652:Generated_Source\PSoC6\pdl\cmsis/include/core_cm4.h **** 
 653:Generated_Source\PSoC6\pdl\cmsis/include/core_cm4.h **** #define SCB_CFSR_PRECISERR_Pos            (SCB_CFSR_BUSFAULTSR_Pos + 1U)                  /*!< SCB 
 654:Generated_Source\PSoC6\pdl\cmsis/include/core_cm4.h **** #define SCB_CFSR_PRECISERR_Msk            (1UL << SCB_CFSR_PRECISERR_Pos)                 /*!< SCB 
 655:Generated_Source\PSoC6\pdl\cmsis/include/core_cm4.h **** 
 656:Generated_Source\PSoC6\pdl\cmsis/include/core_cm4.h **** #define SCB_CFSR_IBUSERR_Pos              (SCB_CFSR_BUSFAULTSR_Pos + 0U)                  /*!< SCB 
 657:Generated_Source\PSoC6\pdl\cmsis/include/core_cm4.h **** #define SCB_CFSR_IBUSERR_Msk              (1UL << SCB_CFSR_IBUSERR_Pos)                   /*!< SCB 
 658:Generated_Source\PSoC6\pdl\cmsis/include/core_cm4.h **** 
ARM GAS  C:\Users\rober\AppData\Local\Temp\ccBCZTBX.s 			page 57


 659:Generated_Source\PSoC6\pdl\cmsis/include/core_cm4.h **** /* UsageFault Status Register (part of SCB Configurable Fault Status Register) */
 660:Generated_Source\PSoC6\pdl\cmsis/include/core_cm4.h **** #define SCB_CFSR_DIVBYZERO_Pos            (SCB_CFSR_USGFAULTSR_Pos + 9U)                  /*!< SCB 
 661:Generated_Source\PSoC6\pdl\cmsis/include/core_cm4.h **** #define SCB_CFSR_DIVBYZERO_Msk            (1UL << SCB_CFSR_DIVBYZERO_Pos)                 /*!< SCB 
 662:Generated_Source\PSoC6\pdl\cmsis/include/core_cm4.h **** 
 663:Generated_Source\PSoC6\pdl\cmsis/include/core_cm4.h **** #define SCB_CFSR_UNALIGNED_Pos            (SCB_CFSR_USGFAULTSR_Pos + 8U)                  /*!< SCB 
 664:Generated_Source\PSoC6\pdl\cmsis/include/core_cm4.h **** #define SCB_CFSR_UNALIGNED_Msk            (1UL << SCB_CFSR_UNALIGNED_Pos)                 /*!< SCB 
 665:Generated_Source\PSoC6\pdl\cmsis/include/core_cm4.h **** 
 666:Generated_Source\PSoC6\pdl\cmsis/include/core_cm4.h **** #define SCB_CFSR_NOCP_Pos                 (SCB_CFSR_USGFAULTSR_Pos + 3U)                  /*!< SCB 
 667:Generated_Source\PSoC6\pdl\cmsis/include/core_cm4.h **** #define SCB_CFSR_NOCP_Msk                 (1UL << SCB_CFSR_NOCP_Pos)                      /*!< SCB 
 668:Generated_Source\PSoC6\pdl\cmsis/include/core_cm4.h **** 
 669:Generated_Source\PSoC6\pdl\cmsis/include/core_cm4.h **** #define SCB_CFSR_INVPC_Pos                (SCB_CFSR_USGFAULTSR_Pos + 2U)                  /*!< SCB 
 670:Generated_Source\PSoC6\pdl\cmsis/include/core_cm4.h **** #define SCB_CFSR_INVPC_Msk                (1UL << SCB_CFSR_INVPC_Pos)                     /*!< SCB 
 671:Generated_Source\PSoC6\pdl\cmsis/include/core_cm4.h **** 
 672:Generated_Source\PSoC6\pdl\cmsis/include/core_cm4.h **** #define SCB_CFSR_INVSTATE_Pos             (SCB_CFSR_USGFAULTSR_Pos + 1U)                  /*!< SCB 
 673:Generated_Source\PSoC6\pdl\cmsis/include/core_cm4.h **** #define SCB_CFSR_INVSTATE_Msk             (1UL << SCB_CFSR_INVSTATE_Pos)                  /*!< SCB 
 674:Generated_Source\PSoC6\pdl\cmsis/include/core_cm4.h **** 
 675:Generated_Source\PSoC6\pdl\cmsis/include/core_cm4.h **** #define SCB_CFSR_UNDEFINSTR_Pos           (SCB_CFSR_USGFAULTSR_Pos + 0U)                  /*!< SCB 
 676:Generated_Source\PSoC6\pdl\cmsis/include/core_cm4.h **** #define SCB_CFSR_UNDEFINSTR_Msk           (1UL << SCB_CFSR_UNDEFINSTR_Pos)                /*!< SCB 
 677:Generated_Source\PSoC6\pdl\cmsis/include/core_cm4.h **** 
 678:Generated_Source\PSoC6\pdl\cmsis/include/core_cm4.h **** /* SCB Hard Fault Status Register Definitions */
 679:Generated_Source\PSoC6\pdl\cmsis/include/core_cm4.h **** #define SCB_HFSR_DEBUGEVT_Pos              31U                                            /*!< SCB 
 680:Generated_Source\PSoC6\pdl\cmsis/include/core_cm4.h **** #define SCB_HFSR_DEBUGEVT_Msk              (1UL << SCB_HFSR_DEBUGEVT_Pos)                 /*!< SCB 
 681:Generated_Source\PSoC6\pdl\cmsis/include/core_cm4.h **** 
 682:Generated_Source\PSoC6\pdl\cmsis/include/core_cm4.h **** #define SCB_HFSR_FORCED_Pos                30U                                            /*!< SCB 
 683:Generated_Source\PSoC6\pdl\cmsis/include/core_cm4.h **** #define SCB_HFSR_FORCED_Msk                (1UL << SCB_HFSR_FORCED_Pos)                   /*!< SCB 
 684:Generated_Source\PSoC6\pdl\cmsis/include/core_cm4.h **** 
 685:Generated_Source\PSoC6\pdl\cmsis/include/core_cm4.h **** #define SCB_HFSR_VECTTBL_Pos                1U                                            /*!< SCB 
 686:Generated_Source\PSoC6\pdl\cmsis/include/core_cm4.h **** #define SCB_HFSR_VECTTBL_Msk               (1UL << SCB_HFSR_VECTTBL_Pos)                  /*!< SCB 
 687:Generated_Source\PSoC6\pdl\cmsis/include/core_cm4.h **** 
 688:Generated_Source\PSoC6\pdl\cmsis/include/core_cm4.h **** /* SCB Debug Fault Status Register Definitions */
 689:Generated_Source\PSoC6\pdl\cmsis/include/core_cm4.h **** #define SCB_DFSR_EXTERNAL_Pos               4U                                            /*!< SCB 
 690:Generated_Source\PSoC6\pdl\cmsis/include/core_cm4.h **** #define SCB_DFSR_EXTERNAL_Msk              (1UL << SCB_DFSR_EXTERNAL_Pos)                 /*!< SCB 
 691:Generated_Source\PSoC6\pdl\cmsis/include/core_cm4.h **** 
 692:Generated_Source\PSoC6\pdl\cmsis/include/core_cm4.h **** #define SCB_DFSR_VCATCH_Pos                 3U                                            /*!< SCB 
 693:Generated_Source\PSoC6\pdl\cmsis/include/core_cm4.h **** #define SCB_DFSR_VCATCH_Msk                (1UL << SCB_DFSR_VCATCH_Pos)                   /*!< SCB 
 694:Generated_Source\PSoC6\pdl\cmsis/include/core_cm4.h **** 
 695:Generated_Source\PSoC6\pdl\cmsis/include/core_cm4.h **** #define SCB_DFSR_DWTTRAP_Pos                2U                                            /*!< SCB 
 696:Generated_Source\PSoC6\pdl\cmsis/include/core_cm4.h **** #define SCB_DFSR_DWTTRAP_Msk               (1UL << SCB_DFSR_DWTTRAP_Pos)                  /*!< SCB 
 697:Generated_Source\PSoC6\pdl\cmsis/include/core_cm4.h **** 
 698:Generated_Source\PSoC6\pdl\cmsis/include/core_cm4.h **** #define SCB_DFSR_BKPT_Pos                   1U                                            /*!< SCB 
 699:Generated_Source\PSoC6\pdl\cmsis/include/core_cm4.h **** #define SCB_DFSR_BKPT_Msk                  (1UL << SCB_DFSR_BKPT_Pos)                     /*!< SCB 
 700:Generated_Source\PSoC6\pdl\cmsis/include/core_cm4.h **** 
 701:Generated_Source\PSoC6\pdl\cmsis/include/core_cm4.h **** #define SCB_DFSR_HALTED_Pos                 0U                                            /*!< SCB 
 702:Generated_Source\PSoC6\pdl\cmsis/include/core_cm4.h **** #define SCB_DFSR_HALTED_Msk                (1UL /*<< SCB_DFSR_HALTED_Pos*/)               /*!< SCB 
 703:Generated_Source\PSoC6\pdl\cmsis/include/core_cm4.h **** 
 704:Generated_Source\PSoC6\pdl\cmsis/include/core_cm4.h **** /*@} end of group CMSIS_SCB */
 705:Generated_Source\PSoC6\pdl\cmsis/include/core_cm4.h **** 
 706:Generated_Source\PSoC6\pdl\cmsis/include/core_cm4.h **** 
 707:Generated_Source\PSoC6\pdl\cmsis/include/core_cm4.h **** /**
 708:Generated_Source\PSoC6\pdl\cmsis/include/core_cm4.h ****   \ingroup  CMSIS_core_register
 709:Generated_Source\PSoC6\pdl\cmsis/include/core_cm4.h ****   \defgroup CMSIS_SCnSCB System Controls not in SCB (SCnSCB)
 710:Generated_Source\PSoC6\pdl\cmsis/include/core_cm4.h ****   \brief    Type definitions for the System Control and ID Register not in the SCB
 711:Generated_Source\PSoC6\pdl\cmsis/include/core_cm4.h ****   @{
 712:Generated_Source\PSoC6\pdl\cmsis/include/core_cm4.h ****  */
 713:Generated_Source\PSoC6\pdl\cmsis/include/core_cm4.h **** 
 714:Generated_Source\PSoC6\pdl\cmsis/include/core_cm4.h **** /**
 715:Generated_Source\PSoC6\pdl\cmsis/include/core_cm4.h ****   \brief  Structure type to access the System Control and ID Register not in the SCB.
ARM GAS  C:\Users\rober\AppData\Local\Temp\ccBCZTBX.s 			page 58


 716:Generated_Source\PSoC6\pdl\cmsis/include/core_cm4.h ****  */
 717:Generated_Source\PSoC6\pdl\cmsis/include/core_cm4.h **** typedef struct
 718:Generated_Source\PSoC6\pdl\cmsis/include/core_cm4.h **** {
 719:Generated_Source\PSoC6\pdl\cmsis/include/core_cm4.h ****         uint32_t RESERVED0[1U];
 720:Generated_Source\PSoC6\pdl\cmsis/include/core_cm4.h ****   __IM  uint32_t ICTR;                   /*!< Offset: 0x004 (R/ )  Interrupt Controller Type Regist
 721:Generated_Source\PSoC6\pdl\cmsis/include/core_cm4.h ****   __IOM uint32_t ACTLR;                  /*!< Offset: 0x008 (R/W)  Auxiliary Control Register */
 722:Generated_Source\PSoC6\pdl\cmsis/include/core_cm4.h **** } SCnSCB_Type;
 723:Generated_Source\PSoC6\pdl\cmsis/include/core_cm4.h **** 
 724:Generated_Source\PSoC6\pdl\cmsis/include/core_cm4.h **** /* Interrupt Controller Type Register Definitions */
 725:Generated_Source\PSoC6\pdl\cmsis/include/core_cm4.h **** #define SCnSCB_ICTR_INTLINESNUM_Pos         0U                                         /*!< ICTR: I
 726:Generated_Source\PSoC6\pdl\cmsis/include/core_cm4.h **** #define SCnSCB_ICTR_INTLINESNUM_Msk        (0xFUL /*<< SCnSCB_ICTR_INTLINESNUM_Pos*/)  /*!< ICTR: I
 727:Generated_Source\PSoC6\pdl\cmsis/include/core_cm4.h **** 
 728:Generated_Source\PSoC6\pdl\cmsis/include/core_cm4.h **** /* Auxiliary Control Register Definitions */
 729:Generated_Source\PSoC6\pdl\cmsis/include/core_cm4.h **** #define SCnSCB_ACTLR_DISOOFP_Pos            9U                                         /*!< ACTLR: 
 730:Generated_Source\PSoC6\pdl\cmsis/include/core_cm4.h **** #define SCnSCB_ACTLR_DISOOFP_Msk           (1UL << SCnSCB_ACTLR_DISOOFP_Pos)           /*!< ACTLR: 
 731:Generated_Source\PSoC6\pdl\cmsis/include/core_cm4.h **** 
 732:Generated_Source\PSoC6\pdl\cmsis/include/core_cm4.h **** #define SCnSCB_ACTLR_DISFPCA_Pos            8U                                         /*!< ACTLR: 
 733:Generated_Source\PSoC6\pdl\cmsis/include/core_cm4.h **** #define SCnSCB_ACTLR_DISFPCA_Msk           (1UL << SCnSCB_ACTLR_DISFPCA_Pos)           /*!< ACTLR: 
 734:Generated_Source\PSoC6\pdl\cmsis/include/core_cm4.h **** 
 735:Generated_Source\PSoC6\pdl\cmsis/include/core_cm4.h **** #define SCnSCB_ACTLR_DISFOLD_Pos            2U                                         /*!< ACTLR: 
 736:Generated_Source\PSoC6\pdl\cmsis/include/core_cm4.h **** #define SCnSCB_ACTLR_DISFOLD_Msk           (1UL << SCnSCB_ACTLR_DISFOLD_Pos)           /*!< ACTLR: 
 737:Generated_Source\PSoC6\pdl\cmsis/include/core_cm4.h **** 
 738:Generated_Source\PSoC6\pdl\cmsis/include/core_cm4.h **** #define SCnSCB_ACTLR_DISDEFWBUF_Pos         1U                                         /*!< ACTLR: 
 739:Generated_Source\PSoC6\pdl\cmsis/include/core_cm4.h **** #define SCnSCB_ACTLR_DISDEFWBUF_Msk        (1UL << SCnSCB_ACTLR_DISDEFWBUF_Pos)        /*!< ACTLR: 
 740:Generated_Source\PSoC6\pdl\cmsis/include/core_cm4.h **** 
 741:Generated_Source\PSoC6\pdl\cmsis/include/core_cm4.h **** #define SCnSCB_ACTLR_DISMCYCINT_Pos         0U                                         /*!< ACTLR: 
 742:Generated_Source\PSoC6\pdl\cmsis/include/core_cm4.h **** #define SCnSCB_ACTLR_DISMCYCINT_Msk        (1UL /*<< SCnSCB_ACTLR_DISMCYCINT_Pos*/)    /*!< ACTLR: 
 743:Generated_Source\PSoC6\pdl\cmsis/include/core_cm4.h **** 
 744:Generated_Source\PSoC6\pdl\cmsis/include/core_cm4.h **** /*@} end of group CMSIS_SCnotSCB */
 745:Generated_Source\PSoC6\pdl\cmsis/include/core_cm4.h **** 
 746:Generated_Source\PSoC6\pdl\cmsis/include/core_cm4.h **** 
 747:Generated_Source\PSoC6\pdl\cmsis/include/core_cm4.h **** /**
 748:Generated_Source\PSoC6\pdl\cmsis/include/core_cm4.h ****   \ingroup  CMSIS_core_register
 749:Generated_Source\PSoC6\pdl\cmsis/include/core_cm4.h ****   \defgroup CMSIS_SysTick     System Tick Timer (SysTick)
 750:Generated_Source\PSoC6\pdl\cmsis/include/core_cm4.h ****   \brief    Type definitions for the System Timer Registers.
 751:Generated_Source\PSoC6\pdl\cmsis/include/core_cm4.h ****   @{
 752:Generated_Source\PSoC6\pdl\cmsis/include/core_cm4.h ****  */
 753:Generated_Source\PSoC6\pdl\cmsis/include/core_cm4.h **** 
 754:Generated_Source\PSoC6\pdl\cmsis/include/core_cm4.h **** /**
 755:Generated_Source\PSoC6\pdl\cmsis/include/core_cm4.h ****   \brief  Structure type to access the System Timer (SysTick).
 756:Generated_Source\PSoC6\pdl\cmsis/include/core_cm4.h ****  */
 757:Generated_Source\PSoC6\pdl\cmsis/include/core_cm4.h **** typedef struct
 758:Generated_Source\PSoC6\pdl\cmsis/include/core_cm4.h **** {
 759:Generated_Source\PSoC6\pdl\cmsis/include/core_cm4.h ****   __IOM uint32_t CTRL;                   /*!< Offset: 0x000 (R/W)  SysTick Control and Status Regis
 760:Generated_Source\PSoC6\pdl\cmsis/include/core_cm4.h ****   __IOM uint32_t LOAD;                   /*!< Offset: 0x004 (R/W)  SysTick Reload Value Register */
 761:Generated_Source\PSoC6\pdl\cmsis/include/core_cm4.h ****   __IOM uint32_t VAL;                    /*!< Offset: 0x008 (R/W)  SysTick Current Value Register *
 762:Generated_Source\PSoC6\pdl\cmsis/include/core_cm4.h ****   __IM  uint32_t CALIB;                  /*!< Offset: 0x00C (R/ )  SysTick Calibration Register */
 763:Generated_Source\PSoC6\pdl\cmsis/include/core_cm4.h **** } SysTick_Type;
 764:Generated_Source\PSoC6\pdl\cmsis/include/core_cm4.h **** 
 765:Generated_Source\PSoC6\pdl\cmsis/include/core_cm4.h **** /* SysTick Control / Status Register Definitions */
 766:Generated_Source\PSoC6\pdl\cmsis/include/core_cm4.h **** #define SysTick_CTRL_COUNTFLAG_Pos         16U                                            /*!< SysT
 767:Generated_Source\PSoC6\pdl\cmsis/include/core_cm4.h **** #define SysTick_CTRL_COUNTFLAG_Msk         (1UL << SysTick_CTRL_COUNTFLAG_Pos)            /*!< SysT
 768:Generated_Source\PSoC6\pdl\cmsis/include/core_cm4.h **** 
 769:Generated_Source\PSoC6\pdl\cmsis/include/core_cm4.h **** #define SysTick_CTRL_CLKSOURCE_Pos          2U                                            /*!< SysT
 770:Generated_Source\PSoC6\pdl\cmsis/include/core_cm4.h **** #define SysTick_CTRL_CLKSOURCE_Msk         (1UL << SysTick_CTRL_CLKSOURCE_Pos)            /*!< SysT
 771:Generated_Source\PSoC6\pdl\cmsis/include/core_cm4.h **** 
 772:Generated_Source\PSoC6\pdl\cmsis/include/core_cm4.h **** #define SysTick_CTRL_TICKINT_Pos            1U                                            /*!< SysT
ARM GAS  C:\Users\rober\AppData\Local\Temp\ccBCZTBX.s 			page 59


 773:Generated_Source\PSoC6\pdl\cmsis/include/core_cm4.h **** #define SysTick_CTRL_TICKINT_Msk           (1UL << SysTick_CTRL_TICKINT_Pos)              /*!< SysT
 774:Generated_Source\PSoC6\pdl\cmsis/include/core_cm4.h **** 
 775:Generated_Source\PSoC6\pdl\cmsis/include/core_cm4.h **** #define SysTick_CTRL_ENABLE_Pos             0U                                            /*!< SysT
 776:Generated_Source\PSoC6\pdl\cmsis/include/core_cm4.h **** #define SysTick_CTRL_ENABLE_Msk            (1UL /*<< SysTick_CTRL_ENABLE_Pos*/)           /*!< SysT
 777:Generated_Source\PSoC6\pdl\cmsis/include/core_cm4.h **** 
 778:Generated_Source\PSoC6\pdl\cmsis/include/core_cm4.h **** /* SysTick Reload Register Definitions */
 779:Generated_Source\PSoC6\pdl\cmsis/include/core_cm4.h **** #define SysTick_LOAD_RELOAD_Pos             0U                                            /*!< SysT
 780:Generated_Source\PSoC6\pdl\cmsis/include/core_cm4.h **** #define SysTick_LOAD_RELOAD_Msk            (0xFFFFFFUL /*<< SysTick_LOAD_RELOAD_Pos*/)    /*!< SysT
 781:Generated_Source\PSoC6\pdl\cmsis/include/core_cm4.h **** 
 782:Generated_Source\PSoC6\pdl\cmsis/include/core_cm4.h **** /* SysTick Current Register Definitions */
 783:Generated_Source\PSoC6\pdl\cmsis/include/core_cm4.h **** #define SysTick_VAL_CURRENT_Pos             0U                                            /*!< SysT
 784:Generated_Source\PSoC6\pdl\cmsis/include/core_cm4.h **** #define SysTick_VAL_CURRENT_Msk            (0xFFFFFFUL /*<< SysTick_VAL_CURRENT_Pos*/)    /*!< SysT
 785:Generated_Source\PSoC6\pdl\cmsis/include/core_cm4.h **** 
 786:Generated_Source\PSoC6\pdl\cmsis/include/core_cm4.h **** /* SysTick Calibration Register Definitions */
 787:Generated_Source\PSoC6\pdl\cmsis/include/core_cm4.h **** #define SysTick_CALIB_NOREF_Pos            31U                                            /*!< SysT
 788:Generated_Source\PSoC6\pdl\cmsis/include/core_cm4.h **** #define SysTick_CALIB_NOREF_Msk            (1UL << SysTick_CALIB_NOREF_Pos)               /*!< SysT
 789:Generated_Source\PSoC6\pdl\cmsis/include/core_cm4.h **** 
 790:Generated_Source\PSoC6\pdl\cmsis/include/core_cm4.h **** #define SysTick_CALIB_SKEW_Pos             30U                                            /*!< SysT
 791:Generated_Source\PSoC6\pdl\cmsis/include/core_cm4.h **** #define SysTick_CALIB_SKEW_Msk             (1UL << SysTick_CALIB_SKEW_Pos)                /*!< SysT
 792:Generated_Source\PSoC6\pdl\cmsis/include/core_cm4.h **** 
 793:Generated_Source\PSoC6\pdl\cmsis/include/core_cm4.h **** #define SysTick_CALIB_TENMS_Pos             0U                                            /*!< SysT
 794:Generated_Source\PSoC6\pdl\cmsis/include/core_cm4.h **** #define SysTick_CALIB_TENMS_Msk            (0xFFFFFFUL /*<< SysTick_CALIB_TENMS_Pos*/)    /*!< SysT
 795:Generated_Source\PSoC6\pdl\cmsis/include/core_cm4.h **** 
 796:Generated_Source\PSoC6\pdl\cmsis/include/core_cm4.h **** /*@} end of group CMSIS_SysTick */
 797:Generated_Source\PSoC6\pdl\cmsis/include/core_cm4.h **** 
 798:Generated_Source\PSoC6\pdl\cmsis/include/core_cm4.h **** 
 799:Generated_Source\PSoC6\pdl\cmsis/include/core_cm4.h **** /**
 800:Generated_Source\PSoC6\pdl\cmsis/include/core_cm4.h ****   \ingroup  CMSIS_core_register
 801:Generated_Source\PSoC6\pdl\cmsis/include/core_cm4.h ****   \defgroup CMSIS_ITM     Instrumentation Trace Macrocell (ITM)
 802:Generated_Source\PSoC6\pdl\cmsis/include/core_cm4.h ****   \brief    Type definitions for the Instrumentation Trace Macrocell (ITM)
 803:Generated_Source\PSoC6\pdl\cmsis/include/core_cm4.h ****   @{
 804:Generated_Source\PSoC6\pdl\cmsis/include/core_cm4.h ****  */
 805:Generated_Source\PSoC6\pdl\cmsis/include/core_cm4.h **** 
 806:Generated_Source\PSoC6\pdl\cmsis/include/core_cm4.h **** /**
 807:Generated_Source\PSoC6\pdl\cmsis/include/core_cm4.h ****   \brief  Structure type to access the Instrumentation Trace Macrocell Register (ITM).
 808:Generated_Source\PSoC6\pdl\cmsis/include/core_cm4.h ****  */
 809:Generated_Source\PSoC6\pdl\cmsis/include/core_cm4.h **** typedef struct
 810:Generated_Source\PSoC6\pdl\cmsis/include/core_cm4.h **** {
 811:Generated_Source\PSoC6\pdl\cmsis/include/core_cm4.h ****   __OM  union
 812:Generated_Source\PSoC6\pdl\cmsis/include/core_cm4.h ****   {
 813:Generated_Source\PSoC6\pdl\cmsis/include/core_cm4.h ****     __OM  uint8_t    u8;                 /*!< Offset: 0x000 ( /W)  ITM Stimulus Port 8-bit */
 814:Generated_Source\PSoC6\pdl\cmsis/include/core_cm4.h ****     __OM  uint16_t   u16;                /*!< Offset: 0x000 ( /W)  ITM Stimulus Port 16-bit */
 815:Generated_Source\PSoC6\pdl\cmsis/include/core_cm4.h ****     __OM  uint32_t   u32;                /*!< Offset: 0x000 ( /W)  ITM Stimulus Port 32-bit */
 816:Generated_Source\PSoC6\pdl\cmsis/include/core_cm4.h ****   }  PORT [32U];                         /*!< Offset: 0x000 ( /W)  ITM Stimulus Port Registers */
 817:Generated_Source\PSoC6\pdl\cmsis/include/core_cm4.h ****         uint32_t RESERVED0[864U];
 818:Generated_Source\PSoC6\pdl\cmsis/include/core_cm4.h ****   __IOM uint32_t TER;                    /*!< Offset: 0xE00 (R/W)  ITM Trace Enable Register */
 819:Generated_Source\PSoC6\pdl\cmsis/include/core_cm4.h ****         uint32_t RESERVED1[15U];
 820:Generated_Source\PSoC6\pdl\cmsis/include/core_cm4.h ****   __IOM uint32_t TPR;                    /*!< Offset: 0xE40 (R/W)  ITM Trace Privilege Register */
 821:Generated_Source\PSoC6\pdl\cmsis/include/core_cm4.h ****         uint32_t RESERVED2[15U];
 822:Generated_Source\PSoC6\pdl\cmsis/include/core_cm4.h ****   __IOM uint32_t TCR;                    /*!< Offset: 0xE80 (R/W)  ITM Trace Control Register */
 823:Generated_Source\PSoC6\pdl\cmsis/include/core_cm4.h ****         uint32_t RESERVED3[29U];
 824:Generated_Source\PSoC6\pdl\cmsis/include/core_cm4.h ****   __OM  uint32_t IWR;                    /*!< Offset: 0xEF8 ( /W)  ITM Integration Write Register *
 825:Generated_Source\PSoC6\pdl\cmsis/include/core_cm4.h ****   __IM  uint32_t IRR;                    /*!< Offset: 0xEFC (R/ )  ITM Integration Read Register */
 826:Generated_Source\PSoC6\pdl\cmsis/include/core_cm4.h ****   __IOM uint32_t IMCR;                   /*!< Offset: 0xF00 (R/W)  ITM Integration Mode Control Reg
 827:Generated_Source\PSoC6\pdl\cmsis/include/core_cm4.h ****         uint32_t RESERVED4[43U];
 828:Generated_Source\PSoC6\pdl\cmsis/include/core_cm4.h ****   __OM  uint32_t LAR;                    /*!< Offset: 0xFB0 ( /W)  ITM Lock Access Register */
 829:Generated_Source\PSoC6\pdl\cmsis/include/core_cm4.h ****   __IM  uint32_t LSR;                    /*!< Offset: 0xFB4 (R/ )  ITM Lock Status Register */
ARM GAS  C:\Users\rober\AppData\Local\Temp\ccBCZTBX.s 			page 60


 830:Generated_Source\PSoC6\pdl\cmsis/include/core_cm4.h ****         uint32_t RESERVED5[6U];
 831:Generated_Source\PSoC6\pdl\cmsis/include/core_cm4.h ****   __IM  uint32_t PID4;                   /*!< Offset: 0xFD0 (R/ )  ITM Peripheral Identification Re
 832:Generated_Source\PSoC6\pdl\cmsis/include/core_cm4.h ****   __IM  uint32_t PID5;                   /*!< Offset: 0xFD4 (R/ )  ITM Peripheral Identification Re
 833:Generated_Source\PSoC6\pdl\cmsis/include/core_cm4.h ****   __IM  uint32_t PID6;                   /*!< Offset: 0xFD8 (R/ )  ITM Peripheral Identification Re
 834:Generated_Source\PSoC6\pdl\cmsis/include/core_cm4.h ****   __IM  uint32_t PID7;                   /*!< Offset: 0xFDC (R/ )  ITM Peripheral Identification Re
 835:Generated_Source\PSoC6\pdl\cmsis/include/core_cm4.h ****   __IM  uint32_t PID0;                   /*!< Offset: 0xFE0 (R/ )  ITM Peripheral Identification Re
 836:Generated_Source\PSoC6\pdl\cmsis/include/core_cm4.h ****   __IM  uint32_t PID1;                   /*!< Offset: 0xFE4 (R/ )  ITM Peripheral Identification Re
 837:Generated_Source\PSoC6\pdl\cmsis/include/core_cm4.h ****   __IM  uint32_t PID2;                   /*!< Offset: 0xFE8 (R/ )  ITM Peripheral Identification Re
 838:Generated_Source\PSoC6\pdl\cmsis/include/core_cm4.h ****   __IM  uint32_t PID3;                   /*!< Offset: 0xFEC (R/ )  ITM Peripheral Identification Re
 839:Generated_Source\PSoC6\pdl\cmsis/include/core_cm4.h ****   __IM  uint32_t CID0;                   /*!< Offset: 0xFF0 (R/ )  ITM Component  Identification Re
 840:Generated_Source\PSoC6\pdl\cmsis/include/core_cm4.h ****   __IM  uint32_t CID1;                   /*!< Offset: 0xFF4 (R/ )  ITM Component  Identification Re
 841:Generated_Source\PSoC6\pdl\cmsis/include/core_cm4.h ****   __IM  uint32_t CID2;                   /*!< Offset: 0xFF8 (R/ )  ITM Component  Identification Re
 842:Generated_Source\PSoC6\pdl\cmsis/include/core_cm4.h ****   __IM  uint32_t CID3;                   /*!< Offset: 0xFFC (R/ )  ITM Component  Identification Re
 843:Generated_Source\PSoC6\pdl\cmsis/include/core_cm4.h **** } ITM_Type;
 844:Generated_Source\PSoC6\pdl\cmsis/include/core_cm4.h **** 
 845:Generated_Source\PSoC6\pdl\cmsis/include/core_cm4.h **** /* ITM Trace Privilege Register Definitions */
 846:Generated_Source\PSoC6\pdl\cmsis/include/core_cm4.h **** #define ITM_TPR_PRIVMASK_Pos                0U                                            /*!< ITM 
 847:Generated_Source\PSoC6\pdl\cmsis/include/core_cm4.h **** #define ITM_TPR_PRIVMASK_Msk               (0xFUL /*<< ITM_TPR_PRIVMASK_Pos*/)            /*!< ITM 
 848:Generated_Source\PSoC6\pdl\cmsis/include/core_cm4.h **** 
 849:Generated_Source\PSoC6\pdl\cmsis/include/core_cm4.h **** /* ITM Trace Control Register Definitions */
 850:Generated_Source\PSoC6\pdl\cmsis/include/core_cm4.h **** #define ITM_TCR_BUSY_Pos                   23U                                            /*!< ITM 
 851:Generated_Source\PSoC6\pdl\cmsis/include/core_cm4.h **** #define ITM_TCR_BUSY_Msk                   (1UL << ITM_TCR_BUSY_Pos)                      /*!< ITM 
 852:Generated_Source\PSoC6\pdl\cmsis/include/core_cm4.h **** 
 853:Generated_Source\PSoC6\pdl\cmsis/include/core_cm4.h **** #define ITM_TCR_TraceBusID_Pos             16U                                            /*!< ITM 
 854:Generated_Source\PSoC6\pdl\cmsis/include/core_cm4.h **** #define ITM_TCR_TraceBusID_Msk             (0x7FUL << ITM_TCR_TraceBusID_Pos)             /*!< ITM 
 855:Generated_Source\PSoC6\pdl\cmsis/include/core_cm4.h **** 
 856:Generated_Source\PSoC6\pdl\cmsis/include/core_cm4.h **** #define ITM_TCR_GTSFREQ_Pos                10U                                            /*!< ITM 
 857:Generated_Source\PSoC6\pdl\cmsis/include/core_cm4.h **** #define ITM_TCR_GTSFREQ_Msk                (3UL << ITM_TCR_GTSFREQ_Pos)                   /*!< ITM 
 858:Generated_Source\PSoC6\pdl\cmsis/include/core_cm4.h **** 
 859:Generated_Source\PSoC6\pdl\cmsis/include/core_cm4.h **** #define ITM_TCR_TSPrescale_Pos              8U                                            /*!< ITM 
 860:Generated_Source\PSoC6\pdl\cmsis/include/core_cm4.h **** #define ITM_TCR_TSPrescale_Msk             (3UL << ITM_TCR_TSPrescale_Pos)                /*!< ITM 
 861:Generated_Source\PSoC6\pdl\cmsis/include/core_cm4.h **** 
 862:Generated_Source\PSoC6\pdl\cmsis/include/core_cm4.h **** #define ITM_TCR_SWOENA_Pos                  4U                                            /*!< ITM 
 863:Generated_Source\PSoC6\pdl\cmsis/include/core_cm4.h **** #define ITM_TCR_SWOENA_Msk                 (1UL << ITM_TCR_SWOENA_Pos)                    /*!< ITM 
 864:Generated_Source\PSoC6\pdl\cmsis/include/core_cm4.h **** 
 865:Generated_Source\PSoC6\pdl\cmsis/include/core_cm4.h **** #define ITM_TCR_DWTENA_Pos                  3U                                            /*!< ITM 
 866:Generated_Source\PSoC6\pdl\cmsis/include/core_cm4.h **** #define ITM_TCR_DWTENA_Msk                 (1UL << ITM_TCR_DWTENA_Pos)                    /*!< ITM 
 867:Generated_Source\PSoC6\pdl\cmsis/include/core_cm4.h **** 
 868:Generated_Source\PSoC6\pdl\cmsis/include/core_cm4.h **** #define ITM_TCR_SYNCENA_Pos                 2U                                            /*!< ITM 
 869:Generated_Source\PSoC6\pdl\cmsis/include/core_cm4.h **** #define ITM_TCR_SYNCENA_Msk                (1UL << ITM_TCR_SYNCENA_Pos)                   /*!< ITM 
 870:Generated_Source\PSoC6\pdl\cmsis/include/core_cm4.h **** 
 871:Generated_Source\PSoC6\pdl\cmsis/include/core_cm4.h **** #define ITM_TCR_TSENA_Pos                   1U                                            /*!< ITM 
 872:Generated_Source\PSoC6\pdl\cmsis/include/core_cm4.h **** #define ITM_TCR_TSENA_Msk                  (1UL << ITM_TCR_TSENA_Pos)                     /*!< ITM 
 873:Generated_Source\PSoC6\pdl\cmsis/include/core_cm4.h **** 
 874:Generated_Source\PSoC6\pdl\cmsis/include/core_cm4.h **** #define ITM_TCR_ITMENA_Pos                  0U                                            /*!< ITM 
 875:Generated_Source\PSoC6\pdl\cmsis/include/core_cm4.h **** #define ITM_TCR_ITMENA_Msk                 (1UL /*<< ITM_TCR_ITMENA_Pos*/)                /*!< ITM 
 876:Generated_Source\PSoC6\pdl\cmsis/include/core_cm4.h **** 
 877:Generated_Source\PSoC6\pdl\cmsis/include/core_cm4.h **** /* ITM Integration Write Register Definitions */
 878:Generated_Source\PSoC6\pdl\cmsis/include/core_cm4.h **** #define ITM_IWR_ATVALIDM_Pos                0U                                            /*!< ITM 
 879:Generated_Source\PSoC6\pdl\cmsis/include/core_cm4.h **** #define ITM_IWR_ATVALIDM_Msk               (1UL /*<< ITM_IWR_ATVALIDM_Pos*/)              /*!< ITM 
 880:Generated_Source\PSoC6\pdl\cmsis/include/core_cm4.h **** 
 881:Generated_Source\PSoC6\pdl\cmsis/include/core_cm4.h **** /* ITM Integration Read Register Definitions */
 882:Generated_Source\PSoC6\pdl\cmsis/include/core_cm4.h **** #define ITM_IRR_ATREADYM_Pos                0U                                            /*!< ITM 
 883:Generated_Source\PSoC6\pdl\cmsis/include/core_cm4.h **** #define ITM_IRR_ATREADYM_Msk               (1UL /*<< ITM_IRR_ATREADYM_Pos*/)              /*!< ITM 
 884:Generated_Source\PSoC6\pdl\cmsis/include/core_cm4.h **** 
 885:Generated_Source\PSoC6\pdl\cmsis/include/core_cm4.h **** /* ITM Integration Mode Control Register Definitions */
 886:Generated_Source\PSoC6\pdl\cmsis/include/core_cm4.h **** #define ITM_IMCR_INTEGRATION_Pos            0U                                            /*!< ITM 
ARM GAS  C:\Users\rober\AppData\Local\Temp\ccBCZTBX.s 			page 61


 887:Generated_Source\PSoC6\pdl\cmsis/include/core_cm4.h **** #define ITM_IMCR_INTEGRATION_Msk           (1UL /*<< ITM_IMCR_INTEGRATION_Pos*/)          /*!< ITM 
 888:Generated_Source\PSoC6\pdl\cmsis/include/core_cm4.h **** 
 889:Generated_Source\PSoC6\pdl\cmsis/include/core_cm4.h **** /* ITM Lock Status Register Definitions */
 890:Generated_Source\PSoC6\pdl\cmsis/include/core_cm4.h **** #define ITM_LSR_ByteAcc_Pos                 2U                                            /*!< ITM 
 891:Generated_Source\PSoC6\pdl\cmsis/include/core_cm4.h **** #define ITM_LSR_ByteAcc_Msk                (1UL << ITM_LSR_ByteAcc_Pos)                   /*!< ITM 
 892:Generated_Source\PSoC6\pdl\cmsis/include/core_cm4.h **** 
 893:Generated_Source\PSoC6\pdl\cmsis/include/core_cm4.h **** #define ITM_LSR_Access_Pos                  1U                                            /*!< ITM 
 894:Generated_Source\PSoC6\pdl\cmsis/include/core_cm4.h **** #define ITM_LSR_Access_Msk                 (1UL << ITM_LSR_Access_Pos)                    /*!< ITM 
 895:Generated_Source\PSoC6\pdl\cmsis/include/core_cm4.h **** 
 896:Generated_Source\PSoC6\pdl\cmsis/include/core_cm4.h **** #define ITM_LSR_Present_Pos                 0U                                            /*!< ITM 
 897:Generated_Source\PSoC6\pdl\cmsis/include/core_cm4.h **** #define ITM_LSR_Present_Msk                (1UL /*<< ITM_LSR_Present_Pos*/)               /*!< ITM 
 898:Generated_Source\PSoC6\pdl\cmsis/include/core_cm4.h **** 
 899:Generated_Source\PSoC6\pdl\cmsis/include/core_cm4.h **** /*@}*/ /* end of group CMSIS_ITM */
 900:Generated_Source\PSoC6\pdl\cmsis/include/core_cm4.h **** 
 901:Generated_Source\PSoC6\pdl\cmsis/include/core_cm4.h **** 
 902:Generated_Source\PSoC6\pdl\cmsis/include/core_cm4.h **** /**
 903:Generated_Source\PSoC6\pdl\cmsis/include/core_cm4.h ****   \ingroup  CMSIS_core_register
 904:Generated_Source\PSoC6\pdl\cmsis/include/core_cm4.h ****   \defgroup CMSIS_DWT     Data Watchpoint and Trace (DWT)
 905:Generated_Source\PSoC6\pdl\cmsis/include/core_cm4.h ****   \brief    Type definitions for the Data Watchpoint and Trace (DWT)
 906:Generated_Source\PSoC6\pdl\cmsis/include/core_cm4.h ****   @{
 907:Generated_Source\PSoC6\pdl\cmsis/include/core_cm4.h ****  */
 908:Generated_Source\PSoC6\pdl\cmsis/include/core_cm4.h **** 
 909:Generated_Source\PSoC6\pdl\cmsis/include/core_cm4.h **** /**
 910:Generated_Source\PSoC6\pdl\cmsis/include/core_cm4.h ****   \brief  Structure type to access the Data Watchpoint and Trace Register (DWT).
 911:Generated_Source\PSoC6\pdl\cmsis/include/core_cm4.h ****  */
 912:Generated_Source\PSoC6\pdl\cmsis/include/core_cm4.h **** typedef struct
 913:Generated_Source\PSoC6\pdl\cmsis/include/core_cm4.h **** {
 914:Generated_Source\PSoC6\pdl\cmsis/include/core_cm4.h ****   __IOM uint32_t CTRL;                   /*!< Offset: 0x000 (R/W)  Control Register */
 915:Generated_Source\PSoC6\pdl\cmsis/include/core_cm4.h ****   __IOM uint32_t CYCCNT;                 /*!< Offset: 0x004 (R/W)  Cycle Count Register */
 916:Generated_Source\PSoC6\pdl\cmsis/include/core_cm4.h ****   __IOM uint32_t CPICNT;                 /*!< Offset: 0x008 (R/W)  CPI Count Register */
 917:Generated_Source\PSoC6\pdl\cmsis/include/core_cm4.h ****   __IOM uint32_t EXCCNT;                 /*!< Offset: 0x00C (R/W)  Exception Overhead Count Registe
 918:Generated_Source\PSoC6\pdl\cmsis/include/core_cm4.h ****   __IOM uint32_t SLEEPCNT;               /*!< Offset: 0x010 (R/W)  Sleep Count Register */
 919:Generated_Source\PSoC6\pdl\cmsis/include/core_cm4.h ****   __IOM uint32_t LSUCNT;                 /*!< Offset: 0x014 (R/W)  LSU Count Register */
 920:Generated_Source\PSoC6\pdl\cmsis/include/core_cm4.h ****   __IOM uint32_t FOLDCNT;                /*!< Offset: 0x018 (R/W)  Folded-instruction Count Registe
 921:Generated_Source\PSoC6\pdl\cmsis/include/core_cm4.h ****   __IM  uint32_t PCSR;                   /*!< Offset: 0x01C (R/ )  Program Counter Sample Register 
 922:Generated_Source\PSoC6\pdl\cmsis/include/core_cm4.h ****   __IOM uint32_t COMP0;                  /*!< Offset: 0x020 (R/W)  Comparator Register 0 */
 923:Generated_Source\PSoC6\pdl\cmsis/include/core_cm4.h ****   __IOM uint32_t MASK0;                  /*!< Offset: 0x024 (R/W)  Mask Register 0 */
 924:Generated_Source\PSoC6\pdl\cmsis/include/core_cm4.h ****   __IOM uint32_t FUNCTION0;              /*!< Offset: 0x028 (R/W)  Function Register 0 */
 925:Generated_Source\PSoC6\pdl\cmsis/include/core_cm4.h ****         uint32_t RESERVED0[1U];
 926:Generated_Source\PSoC6\pdl\cmsis/include/core_cm4.h ****   __IOM uint32_t COMP1;                  /*!< Offset: 0x030 (R/W)  Comparator Register 1 */
 927:Generated_Source\PSoC6\pdl\cmsis/include/core_cm4.h ****   __IOM uint32_t MASK1;                  /*!< Offset: 0x034 (R/W)  Mask Register 1 */
 928:Generated_Source\PSoC6\pdl\cmsis/include/core_cm4.h ****   __IOM uint32_t FUNCTION1;              /*!< Offset: 0x038 (R/W)  Function Register 1 */
 929:Generated_Source\PSoC6\pdl\cmsis/include/core_cm4.h ****         uint32_t RESERVED1[1U];
 930:Generated_Source\PSoC6\pdl\cmsis/include/core_cm4.h ****   __IOM uint32_t COMP2;                  /*!< Offset: 0x040 (R/W)  Comparator Register 2 */
 931:Generated_Source\PSoC6\pdl\cmsis/include/core_cm4.h ****   __IOM uint32_t MASK2;                  /*!< Offset: 0x044 (R/W)  Mask Register 2 */
 932:Generated_Source\PSoC6\pdl\cmsis/include/core_cm4.h ****   __IOM uint32_t FUNCTION2;              /*!< Offset: 0x048 (R/W)  Function Register 2 */
 933:Generated_Source\PSoC6\pdl\cmsis/include/core_cm4.h ****         uint32_t RESERVED2[1U];
 934:Generated_Source\PSoC6\pdl\cmsis/include/core_cm4.h ****   __IOM uint32_t COMP3;                  /*!< Offset: 0x050 (R/W)  Comparator Register 3 */
 935:Generated_Source\PSoC6\pdl\cmsis/include/core_cm4.h ****   __IOM uint32_t MASK3;                  /*!< Offset: 0x054 (R/W)  Mask Register 3 */
 936:Generated_Source\PSoC6\pdl\cmsis/include/core_cm4.h ****   __IOM uint32_t FUNCTION3;              /*!< Offset: 0x058 (R/W)  Function Register 3 */
 937:Generated_Source\PSoC6\pdl\cmsis/include/core_cm4.h **** } DWT_Type;
 938:Generated_Source\PSoC6\pdl\cmsis/include/core_cm4.h **** 
 939:Generated_Source\PSoC6\pdl\cmsis/include/core_cm4.h **** /* DWT Control Register Definitions */
 940:Generated_Source\PSoC6\pdl\cmsis/include/core_cm4.h **** #define DWT_CTRL_NUMCOMP_Pos               28U                                         /*!< DWT CTR
 941:Generated_Source\PSoC6\pdl\cmsis/include/core_cm4.h **** #define DWT_CTRL_NUMCOMP_Msk               (0xFUL << DWT_CTRL_NUMCOMP_Pos)             /*!< DWT CTR
 942:Generated_Source\PSoC6\pdl\cmsis/include/core_cm4.h **** 
 943:Generated_Source\PSoC6\pdl\cmsis/include/core_cm4.h **** #define DWT_CTRL_NOTRCPKT_Pos              27U                                         /*!< DWT CTR
ARM GAS  C:\Users\rober\AppData\Local\Temp\ccBCZTBX.s 			page 62


 944:Generated_Source\PSoC6\pdl\cmsis/include/core_cm4.h **** #define DWT_CTRL_NOTRCPKT_Msk              (0x1UL << DWT_CTRL_NOTRCPKT_Pos)            /*!< DWT CTR
 945:Generated_Source\PSoC6\pdl\cmsis/include/core_cm4.h **** 
 946:Generated_Source\PSoC6\pdl\cmsis/include/core_cm4.h **** #define DWT_CTRL_NOEXTTRIG_Pos             26U                                         /*!< DWT CTR
 947:Generated_Source\PSoC6\pdl\cmsis/include/core_cm4.h **** #define DWT_CTRL_NOEXTTRIG_Msk             (0x1UL << DWT_CTRL_NOEXTTRIG_Pos)           /*!< DWT CTR
 948:Generated_Source\PSoC6\pdl\cmsis/include/core_cm4.h **** 
 949:Generated_Source\PSoC6\pdl\cmsis/include/core_cm4.h **** #define DWT_CTRL_NOCYCCNT_Pos              25U                                         /*!< DWT CTR
 950:Generated_Source\PSoC6\pdl\cmsis/include/core_cm4.h **** #define DWT_CTRL_NOCYCCNT_Msk              (0x1UL << DWT_CTRL_NOCYCCNT_Pos)            /*!< DWT CTR
 951:Generated_Source\PSoC6\pdl\cmsis/include/core_cm4.h **** 
 952:Generated_Source\PSoC6\pdl\cmsis/include/core_cm4.h **** #define DWT_CTRL_NOPRFCNT_Pos              24U                                         /*!< DWT CTR
 953:Generated_Source\PSoC6\pdl\cmsis/include/core_cm4.h **** #define DWT_CTRL_NOPRFCNT_Msk              (0x1UL << DWT_CTRL_NOPRFCNT_Pos)            /*!< DWT CTR
 954:Generated_Source\PSoC6\pdl\cmsis/include/core_cm4.h **** 
 955:Generated_Source\PSoC6\pdl\cmsis/include/core_cm4.h **** #define DWT_CTRL_CYCEVTENA_Pos             22U                                         /*!< DWT CTR
 956:Generated_Source\PSoC6\pdl\cmsis/include/core_cm4.h **** #define DWT_CTRL_CYCEVTENA_Msk             (0x1UL << DWT_CTRL_CYCEVTENA_Pos)           /*!< DWT CTR
 957:Generated_Source\PSoC6\pdl\cmsis/include/core_cm4.h **** 
 958:Generated_Source\PSoC6\pdl\cmsis/include/core_cm4.h **** #define DWT_CTRL_FOLDEVTENA_Pos            21U                                         /*!< DWT CTR
 959:Generated_Source\PSoC6\pdl\cmsis/include/core_cm4.h **** #define DWT_CTRL_FOLDEVTENA_Msk            (0x1UL << DWT_CTRL_FOLDEVTENA_Pos)          /*!< DWT CTR
 960:Generated_Source\PSoC6\pdl\cmsis/include/core_cm4.h **** 
 961:Generated_Source\PSoC6\pdl\cmsis/include/core_cm4.h **** #define DWT_CTRL_LSUEVTENA_Pos             20U                                         /*!< DWT CTR
 962:Generated_Source\PSoC6\pdl\cmsis/include/core_cm4.h **** #define DWT_CTRL_LSUEVTENA_Msk             (0x1UL << DWT_CTRL_LSUEVTENA_Pos)           /*!< DWT CTR
 963:Generated_Source\PSoC6\pdl\cmsis/include/core_cm4.h **** 
 964:Generated_Source\PSoC6\pdl\cmsis/include/core_cm4.h **** #define DWT_CTRL_SLEEPEVTENA_Pos           19U                                         /*!< DWT CTR
 965:Generated_Source\PSoC6\pdl\cmsis/include/core_cm4.h **** #define DWT_CTRL_SLEEPEVTENA_Msk           (0x1UL << DWT_CTRL_SLEEPEVTENA_Pos)         /*!< DWT CTR
 966:Generated_Source\PSoC6\pdl\cmsis/include/core_cm4.h **** 
 967:Generated_Source\PSoC6\pdl\cmsis/include/core_cm4.h **** #define DWT_CTRL_EXCEVTENA_Pos             18U                                         /*!< DWT CTR
 968:Generated_Source\PSoC6\pdl\cmsis/include/core_cm4.h **** #define DWT_CTRL_EXCEVTENA_Msk             (0x1UL << DWT_CTRL_EXCEVTENA_Pos)           /*!< DWT CTR
 969:Generated_Source\PSoC6\pdl\cmsis/include/core_cm4.h **** 
 970:Generated_Source\PSoC6\pdl\cmsis/include/core_cm4.h **** #define DWT_CTRL_CPIEVTENA_Pos             17U                                         /*!< DWT CTR
 971:Generated_Source\PSoC6\pdl\cmsis/include/core_cm4.h **** #define DWT_CTRL_CPIEVTENA_Msk             (0x1UL << DWT_CTRL_CPIEVTENA_Pos)           /*!< DWT CTR
 972:Generated_Source\PSoC6\pdl\cmsis/include/core_cm4.h **** 
 973:Generated_Source\PSoC6\pdl\cmsis/include/core_cm4.h **** #define DWT_CTRL_EXCTRCENA_Pos             16U                                         /*!< DWT CTR
 974:Generated_Source\PSoC6\pdl\cmsis/include/core_cm4.h **** #define DWT_CTRL_EXCTRCENA_Msk             (0x1UL << DWT_CTRL_EXCTRCENA_Pos)           /*!< DWT CTR
 975:Generated_Source\PSoC6\pdl\cmsis/include/core_cm4.h **** 
 976:Generated_Source\PSoC6\pdl\cmsis/include/core_cm4.h **** #define DWT_CTRL_PCSAMPLENA_Pos            12U                                         /*!< DWT CTR
 977:Generated_Source\PSoC6\pdl\cmsis/include/core_cm4.h **** #define DWT_CTRL_PCSAMPLENA_Msk            (0x1UL << DWT_CTRL_PCSAMPLENA_Pos)          /*!< DWT CTR
 978:Generated_Source\PSoC6\pdl\cmsis/include/core_cm4.h **** 
 979:Generated_Source\PSoC6\pdl\cmsis/include/core_cm4.h **** #define DWT_CTRL_SYNCTAP_Pos               10U                                         /*!< DWT CTR
 980:Generated_Source\PSoC6\pdl\cmsis/include/core_cm4.h **** #define DWT_CTRL_SYNCTAP_Msk               (0x3UL << DWT_CTRL_SYNCTAP_Pos)             /*!< DWT CTR
 981:Generated_Source\PSoC6\pdl\cmsis/include/core_cm4.h **** 
 982:Generated_Source\PSoC6\pdl\cmsis/include/core_cm4.h **** #define DWT_CTRL_CYCTAP_Pos                 9U                                         /*!< DWT CTR
 983:Generated_Source\PSoC6\pdl\cmsis/include/core_cm4.h **** #define DWT_CTRL_CYCTAP_Msk                (0x1UL << DWT_CTRL_CYCTAP_Pos)              /*!< DWT CTR
 984:Generated_Source\PSoC6\pdl\cmsis/include/core_cm4.h **** 
 985:Generated_Source\PSoC6\pdl\cmsis/include/core_cm4.h **** #define DWT_CTRL_POSTINIT_Pos               5U                                         /*!< DWT CTR
 986:Generated_Source\PSoC6\pdl\cmsis/include/core_cm4.h **** #define DWT_CTRL_POSTINIT_Msk              (0xFUL << DWT_CTRL_POSTINIT_Pos)            /*!< DWT CTR
 987:Generated_Source\PSoC6\pdl\cmsis/include/core_cm4.h **** 
 988:Generated_Source\PSoC6\pdl\cmsis/include/core_cm4.h **** #define DWT_CTRL_POSTPRESET_Pos             1U                                         /*!< DWT CTR
 989:Generated_Source\PSoC6\pdl\cmsis/include/core_cm4.h **** #define DWT_CTRL_POSTPRESET_Msk            (0xFUL << DWT_CTRL_POSTPRESET_Pos)          /*!< DWT CTR
 990:Generated_Source\PSoC6\pdl\cmsis/include/core_cm4.h **** 
 991:Generated_Source\PSoC6\pdl\cmsis/include/core_cm4.h **** #define DWT_CTRL_CYCCNTENA_Pos              0U                                         /*!< DWT CTR
 992:Generated_Source\PSoC6\pdl\cmsis/include/core_cm4.h **** #define DWT_CTRL_CYCCNTENA_Msk             (0x1UL /*<< DWT_CTRL_CYCCNTENA_Pos*/)       /*!< DWT CTR
 993:Generated_Source\PSoC6\pdl\cmsis/include/core_cm4.h **** 
 994:Generated_Source\PSoC6\pdl\cmsis/include/core_cm4.h **** /* DWT CPI Count Register Definitions */
 995:Generated_Source\PSoC6\pdl\cmsis/include/core_cm4.h **** #define DWT_CPICNT_CPICNT_Pos               0U                                         /*!< DWT CPI
 996:Generated_Source\PSoC6\pdl\cmsis/include/core_cm4.h **** #define DWT_CPICNT_CPICNT_Msk              (0xFFUL /*<< DWT_CPICNT_CPICNT_Pos*/)       /*!< DWT CPI
 997:Generated_Source\PSoC6\pdl\cmsis/include/core_cm4.h **** 
 998:Generated_Source\PSoC6\pdl\cmsis/include/core_cm4.h **** /* DWT Exception Overhead Count Register Definitions */
 999:Generated_Source\PSoC6\pdl\cmsis/include/core_cm4.h **** #define DWT_EXCCNT_EXCCNT_Pos               0U                                         /*!< DWT EXC
1000:Generated_Source\PSoC6\pdl\cmsis/include/core_cm4.h **** #define DWT_EXCCNT_EXCCNT_Msk              (0xFFUL /*<< DWT_EXCCNT_EXCCNT_Pos*/)       /*!< DWT EXC
ARM GAS  C:\Users\rober\AppData\Local\Temp\ccBCZTBX.s 			page 63


1001:Generated_Source\PSoC6\pdl\cmsis/include/core_cm4.h **** 
1002:Generated_Source\PSoC6\pdl\cmsis/include/core_cm4.h **** /* DWT Sleep Count Register Definitions */
1003:Generated_Source\PSoC6\pdl\cmsis/include/core_cm4.h **** #define DWT_SLEEPCNT_SLEEPCNT_Pos           0U                                         /*!< DWT SLE
1004:Generated_Source\PSoC6\pdl\cmsis/include/core_cm4.h **** #define DWT_SLEEPCNT_SLEEPCNT_Msk          (0xFFUL /*<< DWT_SLEEPCNT_SLEEPCNT_Pos*/)   /*!< DWT SLE
1005:Generated_Source\PSoC6\pdl\cmsis/include/core_cm4.h **** 
1006:Generated_Source\PSoC6\pdl\cmsis/include/core_cm4.h **** /* DWT LSU Count Register Definitions */
1007:Generated_Source\PSoC6\pdl\cmsis/include/core_cm4.h **** #define DWT_LSUCNT_LSUCNT_Pos               0U                                         /*!< DWT LSU
1008:Generated_Source\PSoC6\pdl\cmsis/include/core_cm4.h **** #define DWT_LSUCNT_LSUCNT_Msk              (0xFFUL /*<< DWT_LSUCNT_LSUCNT_Pos*/)       /*!< DWT LSU
1009:Generated_Source\PSoC6\pdl\cmsis/include/core_cm4.h **** 
1010:Generated_Source\PSoC6\pdl\cmsis/include/core_cm4.h **** /* DWT Folded-instruction Count Register Definitions */
1011:Generated_Source\PSoC6\pdl\cmsis/include/core_cm4.h **** #define DWT_FOLDCNT_FOLDCNT_Pos             0U                                         /*!< DWT FOL
1012:Generated_Source\PSoC6\pdl\cmsis/include/core_cm4.h **** #define DWT_FOLDCNT_FOLDCNT_Msk            (0xFFUL /*<< DWT_FOLDCNT_FOLDCNT_Pos*/)     /*!< DWT FOL
1013:Generated_Source\PSoC6\pdl\cmsis/include/core_cm4.h **** 
1014:Generated_Source\PSoC6\pdl\cmsis/include/core_cm4.h **** /* DWT Comparator Mask Register Definitions */
1015:Generated_Source\PSoC6\pdl\cmsis/include/core_cm4.h **** #define DWT_MASK_MASK_Pos                   0U                                         /*!< DWT MAS
1016:Generated_Source\PSoC6\pdl\cmsis/include/core_cm4.h **** #define DWT_MASK_MASK_Msk                  (0x1FUL /*<< DWT_MASK_MASK_Pos*/)           /*!< DWT MAS
1017:Generated_Source\PSoC6\pdl\cmsis/include/core_cm4.h **** 
1018:Generated_Source\PSoC6\pdl\cmsis/include/core_cm4.h **** /* DWT Comparator Function Register Definitions */
1019:Generated_Source\PSoC6\pdl\cmsis/include/core_cm4.h **** #define DWT_FUNCTION_MATCHED_Pos           24U                                         /*!< DWT FUN
1020:Generated_Source\PSoC6\pdl\cmsis/include/core_cm4.h **** #define DWT_FUNCTION_MATCHED_Msk           (0x1UL << DWT_FUNCTION_MATCHED_Pos)         /*!< DWT FUN
1021:Generated_Source\PSoC6\pdl\cmsis/include/core_cm4.h **** 
1022:Generated_Source\PSoC6\pdl\cmsis/include/core_cm4.h **** #define DWT_FUNCTION_DATAVADDR1_Pos        16U                                         /*!< DWT FUN
1023:Generated_Source\PSoC6\pdl\cmsis/include/core_cm4.h **** #define DWT_FUNCTION_DATAVADDR1_Msk        (0xFUL << DWT_FUNCTION_DATAVADDR1_Pos)      /*!< DWT FUN
1024:Generated_Source\PSoC6\pdl\cmsis/include/core_cm4.h **** 
1025:Generated_Source\PSoC6\pdl\cmsis/include/core_cm4.h **** #define DWT_FUNCTION_DATAVADDR0_Pos        12U                                         /*!< DWT FUN
1026:Generated_Source\PSoC6\pdl\cmsis/include/core_cm4.h **** #define DWT_FUNCTION_DATAVADDR0_Msk        (0xFUL << DWT_FUNCTION_DATAVADDR0_Pos)      /*!< DWT FUN
1027:Generated_Source\PSoC6\pdl\cmsis/include/core_cm4.h **** 
1028:Generated_Source\PSoC6\pdl\cmsis/include/core_cm4.h **** #define DWT_FUNCTION_DATAVSIZE_Pos         10U                                         /*!< DWT FUN
1029:Generated_Source\PSoC6\pdl\cmsis/include/core_cm4.h **** #define DWT_FUNCTION_DATAVSIZE_Msk         (0x3UL << DWT_FUNCTION_DATAVSIZE_Pos)       /*!< DWT FUN
1030:Generated_Source\PSoC6\pdl\cmsis/include/core_cm4.h **** 
1031:Generated_Source\PSoC6\pdl\cmsis/include/core_cm4.h **** #define DWT_FUNCTION_LNK1ENA_Pos            9U                                         /*!< DWT FUN
1032:Generated_Source\PSoC6\pdl\cmsis/include/core_cm4.h **** #define DWT_FUNCTION_LNK1ENA_Msk           (0x1UL << DWT_FUNCTION_LNK1ENA_Pos)         /*!< DWT FUN
1033:Generated_Source\PSoC6\pdl\cmsis/include/core_cm4.h **** 
1034:Generated_Source\PSoC6\pdl\cmsis/include/core_cm4.h **** #define DWT_FUNCTION_DATAVMATCH_Pos         8U                                         /*!< DWT FUN
1035:Generated_Source\PSoC6\pdl\cmsis/include/core_cm4.h **** #define DWT_FUNCTION_DATAVMATCH_Msk        (0x1UL << DWT_FUNCTION_DATAVMATCH_Pos)      /*!< DWT FUN
1036:Generated_Source\PSoC6\pdl\cmsis/include/core_cm4.h **** 
1037:Generated_Source\PSoC6\pdl\cmsis/include/core_cm4.h **** #define DWT_FUNCTION_CYCMATCH_Pos           7U                                         /*!< DWT FUN
1038:Generated_Source\PSoC6\pdl\cmsis/include/core_cm4.h **** #define DWT_FUNCTION_CYCMATCH_Msk          (0x1UL << DWT_FUNCTION_CYCMATCH_Pos)        /*!< DWT FUN
1039:Generated_Source\PSoC6\pdl\cmsis/include/core_cm4.h **** 
1040:Generated_Source\PSoC6\pdl\cmsis/include/core_cm4.h **** #define DWT_FUNCTION_EMITRANGE_Pos          5U                                         /*!< DWT FUN
1041:Generated_Source\PSoC6\pdl\cmsis/include/core_cm4.h **** #define DWT_FUNCTION_EMITRANGE_Msk         (0x1UL << DWT_FUNCTION_EMITRANGE_Pos)       /*!< DWT FUN
1042:Generated_Source\PSoC6\pdl\cmsis/include/core_cm4.h **** 
1043:Generated_Source\PSoC6\pdl\cmsis/include/core_cm4.h **** #define DWT_FUNCTION_FUNCTION_Pos           0U                                         /*!< DWT FUN
1044:Generated_Source\PSoC6\pdl\cmsis/include/core_cm4.h **** #define DWT_FUNCTION_FUNCTION_Msk          (0xFUL /*<< DWT_FUNCTION_FUNCTION_Pos*/)    /*!< DWT FUN
1045:Generated_Source\PSoC6\pdl\cmsis/include/core_cm4.h **** 
1046:Generated_Source\PSoC6\pdl\cmsis/include/core_cm4.h **** /*@}*/ /* end of group CMSIS_DWT */
1047:Generated_Source\PSoC6\pdl\cmsis/include/core_cm4.h **** 
1048:Generated_Source\PSoC6\pdl\cmsis/include/core_cm4.h **** 
1049:Generated_Source\PSoC6\pdl\cmsis/include/core_cm4.h **** /**
1050:Generated_Source\PSoC6\pdl\cmsis/include/core_cm4.h ****   \ingroup  CMSIS_core_register
1051:Generated_Source\PSoC6\pdl\cmsis/include/core_cm4.h ****   \defgroup CMSIS_TPI     Trace Port Interface (TPI)
1052:Generated_Source\PSoC6\pdl\cmsis/include/core_cm4.h ****   \brief    Type definitions for the Trace Port Interface (TPI)
1053:Generated_Source\PSoC6\pdl\cmsis/include/core_cm4.h ****   @{
1054:Generated_Source\PSoC6\pdl\cmsis/include/core_cm4.h ****  */
1055:Generated_Source\PSoC6\pdl\cmsis/include/core_cm4.h **** 
1056:Generated_Source\PSoC6\pdl\cmsis/include/core_cm4.h **** /**
1057:Generated_Source\PSoC6\pdl\cmsis/include/core_cm4.h ****   \brief  Structure type to access the Trace Port Interface Register (TPI).
ARM GAS  C:\Users\rober\AppData\Local\Temp\ccBCZTBX.s 			page 64


1058:Generated_Source\PSoC6\pdl\cmsis/include/core_cm4.h ****  */
1059:Generated_Source\PSoC6\pdl\cmsis/include/core_cm4.h **** typedef struct
1060:Generated_Source\PSoC6\pdl\cmsis/include/core_cm4.h **** {
1061:Generated_Source\PSoC6\pdl\cmsis/include/core_cm4.h ****   __IOM uint32_t SSPSR;                  /*!< Offset: 0x000 (R/ )  Supported Parallel Port Size Reg
1062:Generated_Source\PSoC6\pdl\cmsis/include/core_cm4.h ****   __IOM uint32_t CSPSR;                  /*!< Offset: 0x004 (R/W)  Current Parallel Port Size Regis
1063:Generated_Source\PSoC6\pdl\cmsis/include/core_cm4.h ****         uint32_t RESERVED0[2U];
1064:Generated_Source\PSoC6\pdl\cmsis/include/core_cm4.h ****   __IOM uint32_t ACPR;                   /*!< Offset: 0x010 (R/W)  Asynchronous Clock Prescaler Reg
1065:Generated_Source\PSoC6\pdl\cmsis/include/core_cm4.h ****         uint32_t RESERVED1[55U];
1066:Generated_Source\PSoC6\pdl\cmsis/include/core_cm4.h ****   __IOM uint32_t SPPR;                   /*!< Offset: 0x0F0 (R/W)  Selected Pin Protocol Register *
1067:Generated_Source\PSoC6\pdl\cmsis/include/core_cm4.h ****         uint32_t RESERVED2[131U];
1068:Generated_Source\PSoC6\pdl\cmsis/include/core_cm4.h ****   __IM  uint32_t FFSR;                   /*!< Offset: 0x300 (R/ )  Formatter and Flush Status Regis
1069:Generated_Source\PSoC6\pdl\cmsis/include/core_cm4.h ****   __IOM uint32_t FFCR;                   /*!< Offset: 0x304 (R/W)  Formatter and Flush Control Regi
1070:Generated_Source\PSoC6\pdl\cmsis/include/core_cm4.h ****   __IM  uint32_t FSCR;                   /*!< Offset: 0x308 (R/ )  Formatter Synchronization Counte
1071:Generated_Source\PSoC6\pdl\cmsis/include/core_cm4.h ****         uint32_t RESERVED3[759U];
1072:Generated_Source\PSoC6\pdl\cmsis/include/core_cm4.h ****   __IM  uint32_t TRIGGER;                /*!< Offset: 0xEE8 (R/ )  TRIGGER */
1073:Generated_Source\PSoC6\pdl\cmsis/include/core_cm4.h ****   __IM  uint32_t FIFO0;                  /*!< Offset: 0xEEC (R/ )  Integration ETM Data */
1074:Generated_Source\PSoC6\pdl\cmsis/include/core_cm4.h ****   __IM  uint32_t ITATBCTR2;              /*!< Offset: 0xEF0 (R/ )  ITATBCTR2 */
1075:Generated_Source\PSoC6\pdl\cmsis/include/core_cm4.h ****         uint32_t RESERVED4[1U];
1076:Generated_Source\PSoC6\pdl\cmsis/include/core_cm4.h ****   __IM  uint32_t ITATBCTR0;              /*!< Offset: 0xEF8 (R/ )  ITATBCTR0 */
1077:Generated_Source\PSoC6\pdl\cmsis/include/core_cm4.h ****   __IM  uint32_t FIFO1;                  /*!< Offset: 0xEFC (R/ )  Integration ITM Data */
1078:Generated_Source\PSoC6\pdl\cmsis/include/core_cm4.h ****   __IOM uint32_t ITCTRL;                 /*!< Offset: 0xF00 (R/W)  Integration Mode Control */
1079:Generated_Source\PSoC6\pdl\cmsis/include/core_cm4.h ****         uint32_t RESERVED5[39U];
1080:Generated_Source\PSoC6\pdl\cmsis/include/core_cm4.h ****   __IOM uint32_t CLAIMSET;               /*!< Offset: 0xFA0 (R/W)  Claim tag set */
1081:Generated_Source\PSoC6\pdl\cmsis/include/core_cm4.h ****   __IOM uint32_t CLAIMCLR;               /*!< Offset: 0xFA4 (R/W)  Claim tag clear */
1082:Generated_Source\PSoC6\pdl\cmsis/include/core_cm4.h ****         uint32_t RESERVED7[8U];
1083:Generated_Source\PSoC6\pdl\cmsis/include/core_cm4.h ****   __IM  uint32_t DEVID;                  /*!< Offset: 0xFC8 (R/ )  TPIU_DEVID */
1084:Generated_Source\PSoC6\pdl\cmsis/include/core_cm4.h ****   __IM  uint32_t DEVTYPE;                /*!< Offset: 0xFCC (R/ )  TPIU_DEVTYPE */
1085:Generated_Source\PSoC6\pdl\cmsis/include/core_cm4.h **** } TPI_Type;
1086:Generated_Source\PSoC6\pdl\cmsis/include/core_cm4.h **** 
1087:Generated_Source\PSoC6\pdl\cmsis/include/core_cm4.h **** /* TPI Asynchronous Clock Prescaler Register Definitions */
1088:Generated_Source\PSoC6\pdl\cmsis/include/core_cm4.h **** #define TPI_ACPR_PRESCALER_Pos              0U                                         /*!< TPI ACP
1089:Generated_Source\PSoC6\pdl\cmsis/include/core_cm4.h **** #define TPI_ACPR_PRESCALER_Msk             (0x1FFFUL /*<< TPI_ACPR_PRESCALER_Pos*/)    /*!< TPI ACP
1090:Generated_Source\PSoC6\pdl\cmsis/include/core_cm4.h **** 
1091:Generated_Source\PSoC6\pdl\cmsis/include/core_cm4.h **** /* TPI Selected Pin Protocol Register Definitions */
1092:Generated_Source\PSoC6\pdl\cmsis/include/core_cm4.h **** #define TPI_SPPR_TXMODE_Pos                 0U                                         /*!< TPI SPP
1093:Generated_Source\PSoC6\pdl\cmsis/include/core_cm4.h **** #define TPI_SPPR_TXMODE_Msk                (0x3UL /*<< TPI_SPPR_TXMODE_Pos*/)          /*!< TPI SPP
1094:Generated_Source\PSoC6\pdl\cmsis/include/core_cm4.h **** 
1095:Generated_Source\PSoC6\pdl\cmsis/include/core_cm4.h **** /* TPI Formatter and Flush Status Register Definitions */
1096:Generated_Source\PSoC6\pdl\cmsis/include/core_cm4.h **** #define TPI_FFSR_FtNonStop_Pos              3U                                         /*!< TPI FFS
1097:Generated_Source\PSoC6\pdl\cmsis/include/core_cm4.h **** #define TPI_FFSR_FtNonStop_Msk             (0x1UL << TPI_FFSR_FtNonStop_Pos)           /*!< TPI FFS
1098:Generated_Source\PSoC6\pdl\cmsis/include/core_cm4.h **** 
1099:Generated_Source\PSoC6\pdl\cmsis/include/core_cm4.h **** #define TPI_FFSR_TCPresent_Pos              2U                                         /*!< TPI FFS
1100:Generated_Source\PSoC6\pdl\cmsis/include/core_cm4.h **** #define TPI_FFSR_TCPresent_Msk             (0x1UL << TPI_FFSR_TCPresent_Pos)           /*!< TPI FFS
1101:Generated_Source\PSoC6\pdl\cmsis/include/core_cm4.h **** 
1102:Generated_Source\PSoC6\pdl\cmsis/include/core_cm4.h **** #define TPI_FFSR_FtStopped_Pos              1U                                         /*!< TPI FFS
1103:Generated_Source\PSoC6\pdl\cmsis/include/core_cm4.h **** #define TPI_FFSR_FtStopped_Msk             (0x1UL << TPI_FFSR_FtStopped_Pos)           /*!< TPI FFS
1104:Generated_Source\PSoC6\pdl\cmsis/include/core_cm4.h **** 
1105:Generated_Source\PSoC6\pdl\cmsis/include/core_cm4.h **** #define TPI_FFSR_FlInProg_Pos               0U                                         /*!< TPI FFS
1106:Generated_Source\PSoC6\pdl\cmsis/include/core_cm4.h **** #define TPI_FFSR_FlInProg_Msk              (0x1UL /*<< TPI_FFSR_FlInProg_Pos*/)        /*!< TPI FFS
1107:Generated_Source\PSoC6\pdl\cmsis/include/core_cm4.h **** 
1108:Generated_Source\PSoC6\pdl\cmsis/include/core_cm4.h **** /* TPI Formatter and Flush Control Register Definitions */
1109:Generated_Source\PSoC6\pdl\cmsis/include/core_cm4.h **** #define TPI_FFCR_TrigIn_Pos                 8U                                         /*!< TPI FFC
1110:Generated_Source\PSoC6\pdl\cmsis/include/core_cm4.h **** #define TPI_FFCR_TrigIn_Msk                (0x1UL << TPI_FFCR_TrigIn_Pos)              /*!< TPI FFC
1111:Generated_Source\PSoC6\pdl\cmsis/include/core_cm4.h **** 
1112:Generated_Source\PSoC6\pdl\cmsis/include/core_cm4.h **** #define TPI_FFCR_EnFCont_Pos                1U                                         /*!< TPI FFC
1113:Generated_Source\PSoC6\pdl\cmsis/include/core_cm4.h **** #define TPI_FFCR_EnFCont_Msk               (0x1UL << TPI_FFCR_EnFCont_Pos)             /*!< TPI FFC
1114:Generated_Source\PSoC6\pdl\cmsis/include/core_cm4.h **** 
ARM GAS  C:\Users\rober\AppData\Local\Temp\ccBCZTBX.s 			page 65


1115:Generated_Source\PSoC6\pdl\cmsis/include/core_cm4.h **** /* TPI TRIGGER Register Definitions */
1116:Generated_Source\PSoC6\pdl\cmsis/include/core_cm4.h **** #define TPI_TRIGGER_TRIGGER_Pos             0U                                         /*!< TPI TRI
1117:Generated_Source\PSoC6\pdl\cmsis/include/core_cm4.h **** #define TPI_TRIGGER_TRIGGER_Msk            (0x1UL /*<< TPI_TRIGGER_TRIGGER_Pos*/)      /*!< TPI TRI
1118:Generated_Source\PSoC6\pdl\cmsis/include/core_cm4.h **** 
1119:Generated_Source\PSoC6\pdl\cmsis/include/core_cm4.h **** /* TPI Integration ETM Data Register Definitions (FIFO0) */
1120:Generated_Source\PSoC6\pdl\cmsis/include/core_cm4.h **** #define TPI_FIFO0_ITM_ATVALID_Pos          29U                                         /*!< TPI FIF
1121:Generated_Source\PSoC6\pdl\cmsis/include/core_cm4.h **** #define TPI_FIFO0_ITM_ATVALID_Msk          (0x3UL << TPI_FIFO0_ITM_ATVALID_Pos)        /*!< TPI FIF
1122:Generated_Source\PSoC6\pdl\cmsis/include/core_cm4.h **** 
1123:Generated_Source\PSoC6\pdl\cmsis/include/core_cm4.h **** #define TPI_FIFO0_ITM_bytecount_Pos        27U                                         /*!< TPI FIF
1124:Generated_Source\PSoC6\pdl\cmsis/include/core_cm4.h **** #define TPI_FIFO0_ITM_bytecount_Msk        (0x3UL << TPI_FIFO0_ITM_bytecount_Pos)      /*!< TPI FIF
1125:Generated_Source\PSoC6\pdl\cmsis/include/core_cm4.h **** 
1126:Generated_Source\PSoC6\pdl\cmsis/include/core_cm4.h **** #define TPI_FIFO0_ETM_ATVALID_Pos          26U                                         /*!< TPI FIF
1127:Generated_Source\PSoC6\pdl\cmsis/include/core_cm4.h **** #define TPI_FIFO0_ETM_ATVALID_Msk          (0x3UL << TPI_FIFO0_ETM_ATVALID_Pos)        /*!< TPI FIF
1128:Generated_Source\PSoC6\pdl\cmsis/include/core_cm4.h **** 
1129:Generated_Source\PSoC6\pdl\cmsis/include/core_cm4.h **** #define TPI_FIFO0_ETM_bytecount_Pos        24U                                         /*!< TPI FIF
1130:Generated_Source\PSoC6\pdl\cmsis/include/core_cm4.h **** #define TPI_FIFO0_ETM_bytecount_Msk        (0x3UL << TPI_FIFO0_ETM_bytecount_Pos)      /*!< TPI FIF
1131:Generated_Source\PSoC6\pdl\cmsis/include/core_cm4.h **** 
1132:Generated_Source\PSoC6\pdl\cmsis/include/core_cm4.h **** #define TPI_FIFO0_ETM2_Pos                 16U                                         /*!< TPI FIF
1133:Generated_Source\PSoC6\pdl\cmsis/include/core_cm4.h **** #define TPI_FIFO0_ETM2_Msk                 (0xFFUL << TPI_FIFO0_ETM2_Pos)              /*!< TPI FIF
1134:Generated_Source\PSoC6\pdl\cmsis/include/core_cm4.h **** 
1135:Generated_Source\PSoC6\pdl\cmsis/include/core_cm4.h **** #define TPI_FIFO0_ETM1_Pos                  8U                                         /*!< TPI FIF
1136:Generated_Source\PSoC6\pdl\cmsis/include/core_cm4.h **** #define TPI_FIFO0_ETM1_Msk                 (0xFFUL << TPI_FIFO0_ETM1_Pos)              /*!< TPI FIF
1137:Generated_Source\PSoC6\pdl\cmsis/include/core_cm4.h **** 
1138:Generated_Source\PSoC6\pdl\cmsis/include/core_cm4.h **** #define TPI_FIFO0_ETM0_Pos                  0U                                         /*!< TPI FIF
1139:Generated_Source\PSoC6\pdl\cmsis/include/core_cm4.h **** #define TPI_FIFO0_ETM0_Msk                 (0xFFUL /*<< TPI_FIFO0_ETM0_Pos*/)          /*!< TPI FIF
1140:Generated_Source\PSoC6\pdl\cmsis/include/core_cm4.h **** 
1141:Generated_Source\PSoC6\pdl\cmsis/include/core_cm4.h **** /* TPI ITATBCTR2 Register Definitions */
1142:Generated_Source\PSoC6\pdl\cmsis/include/core_cm4.h **** #define TPI_ITATBCTR2_ATREADY_Pos           0U                                         /*!< TPI ITA
1143:Generated_Source\PSoC6\pdl\cmsis/include/core_cm4.h **** #define TPI_ITATBCTR2_ATREADY_Msk          (0x1UL /*<< TPI_ITATBCTR2_ATREADY_Pos*/)    /*!< TPI ITA
1144:Generated_Source\PSoC6\pdl\cmsis/include/core_cm4.h **** 
1145:Generated_Source\PSoC6\pdl\cmsis/include/core_cm4.h **** /* TPI Integration ITM Data Register Definitions (FIFO1) */
1146:Generated_Source\PSoC6\pdl\cmsis/include/core_cm4.h **** #define TPI_FIFO1_ITM_ATVALID_Pos          29U                                         /*!< TPI FIF
1147:Generated_Source\PSoC6\pdl\cmsis/include/core_cm4.h **** #define TPI_FIFO1_ITM_ATVALID_Msk          (0x3UL << TPI_FIFO1_ITM_ATVALID_Pos)        /*!< TPI FIF
1148:Generated_Source\PSoC6\pdl\cmsis/include/core_cm4.h **** 
1149:Generated_Source\PSoC6\pdl\cmsis/include/core_cm4.h **** #define TPI_FIFO1_ITM_bytecount_Pos        27U                                         /*!< TPI FIF
1150:Generated_Source\PSoC6\pdl\cmsis/include/core_cm4.h **** #define TPI_FIFO1_ITM_bytecount_Msk        (0x3UL << TPI_FIFO1_ITM_bytecount_Pos)      /*!< TPI FIF
1151:Generated_Source\PSoC6\pdl\cmsis/include/core_cm4.h **** 
1152:Generated_Source\PSoC6\pdl\cmsis/include/core_cm4.h **** #define TPI_FIFO1_ETM_ATVALID_Pos          26U                                         /*!< TPI FIF
1153:Generated_Source\PSoC6\pdl\cmsis/include/core_cm4.h **** #define TPI_FIFO1_ETM_ATVALID_Msk          (0x3UL << TPI_FIFO1_ETM_ATVALID_Pos)        /*!< TPI FIF
1154:Generated_Source\PSoC6\pdl\cmsis/include/core_cm4.h **** 
1155:Generated_Source\PSoC6\pdl\cmsis/include/core_cm4.h **** #define TPI_FIFO1_ETM_bytecount_Pos        24U                                         /*!< TPI FIF
1156:Generated_Source\PSoC6\pdl\cmsis/include/core_cm4.h **** #define TPI_FIFO1_ETM_bytecount_Msk        (0x3UL << TPI_FIFO1_ETM_bytecount_Pos)      /*!< TPI FIF
1157:Generated_Source\PSoC6\pdl\cmsis/include/core_cm4.h **** 
1158:Generated_Source\PSoC6\pdl\cmsis/include/core_cm4.h **** #define TPI_FIFO1_ITM2_Pos                 16U                                         /*!< TPI FIF
1159:Generated_Source\PSoC6\pdl\cmsis/include/core_cm4.h **** #define TPI_FIFO1_ITM2_Msk                 (0xFFUL << TPI_FIFO1_ITM2_Pos)              /*!< TPI FIF
1160:Generated_Source\PSoC6\pdl\cmsis/include/core_cm4.h **** 
1161:Generated_Source\PSoC6\pdl\cmsis/include/core_cm4.h **** #define TPI_FIFO1_ITM1_Pos                  8U                                         /*!< TPI FIF
1162:Generated_Source\PSoC6\pdl\cmsis/include/core_cm4.h **** #define TPI_FIFO1_ITM1_Msk                 (0xFFUL << TPI_FIFO1_ITM1_Pos)              /*!< TPI FIF
1163:Generated_Source\PSoC6\pdl\cmsis/include/core_cm4.h **** 
1164:Generated_Source\PSoC6\pdl\cmsis/include/core_cm4.h **** #define TPI_FIFO1_ITM0_Pos                  0U                                         /*!< TPI FIF
1165:Generated_Source\PSoC6\pdl\cmsis/include/core_cm4.h **** #define TPI_FIFO1_ITM0_Msk                 (0xFFUL /*<< TPI_FIFO1_ITM0_Pos*/)          /*!< TPI FIF
1166:Generated_Source\PSoC6\pdl\cmsis/include/core_cm4.h **** 
1167:Generated_Source\PSoC6\pdl\cmsis/include/core_cm4.h **** /* TPI ITATBCTR0 Register Definitions */
1168:Generated_Source\PSoC6\pdl\cmsis/include/core_cm4.h **** #define TPI_ITATBCTR0_ATREADY_Pos           0U                                         /*!< TPI ITA
1169:Generated_Source\PSoC6\pdl\cmsis/include/core_cm4.h **** #define TPI_ITATBCTR0_ATREADY_Msk          (0x1UL /*<< TPI_ITATBCTR0_ATREADY_Pos*/)    /*!< TPI ITA
1170:Generated_Source\PSoC6\pdl\cmsis/include/core_cm4.h **** 
1171:Generated_Source\PSoC6\pdl\cmsis/include/core_cm4.h **** /* TPI Integration Mode Control Register Definitions */
ARM GAS  C:\Users\rober\AppData\Local\Temp\ccBCZTBX.s 			page 66


1172:Generated_Source\PSoC6\pdl\cmsis/include/core_cm4.h **** #define TPI_ITCTRL_Mode_Pos                 0U                                         /*!< TPI ITC
1173:Generated_Source\PSoC6\pdl\cmsis/include/core_cm4.h **** #define TPI_ITCTRL_Mode_Msk                (0x1UL /*<< TPI_ITCTRL_Mode_Pos*/)          /*!< TPI ITC
1174:Generated_Source\PSoC6\pdl\cmsis/include/core_cm4.h **** 
1175:Generated_Source\PSoC6\pdl\cmsis/include/core_cm4.h **** /* TPI DEVID Register Definitions */
1176:Generated_Source\PSoC6\pdl\cmsis/include/core_cm4.h **** #define TPI_DEVID_NRZVALID_Pos             11U                                         /*!< TPI DEV
1177:Generated_Source\PSoC6\pdl\cmsis/include/core_cm4.h **** #define TPI_DEVID_NRZVALID_Msk             (0x1UL << TPI_DEVID_NRZVALID_Pos)           /*!< TPI DEV
1178:Generated_Source\PSoC6\pdl\cmsis/include/core_cm4.h **** 
1179:Generated_Source\PSoC6\pdl\cmsis/include/core_cm4.h **** #define TPI_DEVID_MANCVALID_Pos            10U                                         /*!< TPI DEV
1180:Generated_Source\PSoC6\pdl\cmsis/include/core_cm4.h **** #define TPI_DEVID_MANCVALID_Msk            (0x1UL << TPI_DEVID_MANCVALID_Pos)          /*!< TPI DEV
1181:Generated_Source\PSoC6\pdl\cmsis/include/core_cm4.h **** 
1182:Generated_Source\PSoC6\pdl\cmsis/include/core_cm4.h **** #define TPI_DEVID_PTINVALID_Pos             9U                                         /*!< TPI DEV
1183:Generated_Source\PSoC6\pdl\cmsis/include/core_cm4.h **** #define TPI_DEVID_PTINVALID_Msk            (0x1UL << TPI_DEVID_PTINVALID_Pos)          /*!< TPI DEV
1184:Generated_Source\PSoC6\pdl\cmsis/include/core_cm4.h **** 
1185:Generated_Source\PSoC6\pdl\cmsis/include/core_cm4.h **** #define TPI_DEVID_MinBufSz_Pos              6U                                         /*!< TPI DEV
1186:Generated_Source\PSoC6\pdl\cmsis/include/core_cm4.h **** #define TPI_DEVID_MinBufSz_Msk             (0x7UL << TPI_DEVID_MinBufSz_Pos)           /*!< TPI DEV
1187:Generated_Source\PSoC6\pdl\cmsis/include/core_cm4.h **** 
1188:Generated_Source\PSoC6\pdl\cmsis/include/core_cm4.h **** #define TPI_DEVID_AsynClkIn_Pos             5U                                         /*!< TPI DEV
1189:Generated_Source\PSoC6\pdl\cmsis/include/core_cm4.h **** #define TPI_DEVID_AsynClkIn_Msk            (0x1UL << TPI_DEVID_AsynClkIn_Pos)          /*!< TPI DEV
1190:Generated_Source\PSoC6\pdl\cmsis/include/core_cm4.h **** 
1191:Generated_Source\PSoC6\pdl\cmsis/include/core_cm4.h **** #define TPI_DEVID_NrTraceInput_Pos          0U                                         /*!< TPI DEV
1192:Generated_Source\PSoC6\pdl\cmsis/include/core_cm4.h **** #define TPI_DEVID_NrTraceInput_Msk         (0x1FUL /*<< TPI_DEVID_NrTraceInput_Pos*/)  /*!< TPI DEV
1193:Generated_Source\PSoC6\pdl\cmsis/include/core_cm4.h **** 
1194:Generated_Source\PSoC6\pdl\cmsis/include/core_cm4.h **** /* TPI DEVTYPE Register Definitions */
1195:Generated_Source\PSoC6\pdl\cmsis/include/core_cm4.h **** #define TPI_DEVTYPE_MajorType_Pos           4U                                         /*!< TPI DEV
1196:Generated_Source\PSoC6\pdl\cmsis/include/core_cm4.h **** #define TPI_DEVTYPE_MajorType_Msk          (0xFUL << TPI_DEVTYPE_MajorType_Pos)        /*!< TPI DEV
1197:Generated_Source\PSoC6\pdl\cmsis/include/core_cm4.h **** 
1198:Generated_Source\PSoC6\pdl\cmsis/include/core_cm4.h **** #define TPI_DEVTYPE_SubType_Pos             0U                                         /*!< TPI DEV
1199:Generated_Source\PSoC6\pdl\cmsis/include/core_cm4.h **** #define TPI_DEVTYPE_SubType_Msk            (0xFUL /*<< TPI_DEVTYPE_SubType_Pos*/)      /*!< TPI DEV
1200:Generated_Source\PSoC6\pdl\cmsis/include/core_cm4.h **** 
1201:Generated_Source\PSoC6\pdl\cmsis/include/core_cm4.h **** /*@}*/ /* end of group CMSIS_TPI */
1202:Generated_Source\PSoC6\pdl\cmsis/include/core_cm4.h **** 
1203:Generated_Source\PSoC6\pdl\cmsis/include/core_cm4.h **** 
1204:Generated_Source\PSoC6\pdl\cmsis/include/core_cm4.h **** #if defined (__MPU_PRESENT) && (__MPU_PRESENT == 1U)
1205:Generated_Source\PSoC6\pdl\cmsis/include/core_cm4.h **** /**
1206:Generated_Source\PSoC6\pdl\cmsis/include/core_cm4.h ****   \ingroup  CMSIS_core_register
1207:Generated_Source\PSoC6\pdl\cmsis/include/core_cm4.h ****   \defgroup CMSIS_MPU     Memory Protection Unit (MPU)
1208:Generated_Source\PSoC6\pdl\cmsis/include/core_cm4.h ****   \brief    Type definitions for the Memory Protection Unit (MPU)
1209:Generated_Source\PSoC6\pdl\cmsis/include/core_cm4.h ****   @{
1210:Generated_Source\PSoC6\pdl\cmsis/include/core_cm4.h ****  */
1211:Generated_Source\PSoC6\pdl\cmsis/include/core_cm4.h **** 
1212:Generated_Source\PSoC6\pdl\cmsis/include/core_cm4.h **** /**
1213:Generated_Source\PSoC6\pdl\cmsis/include/core_cm4.h ****   \brief  Structure type to access the Memory Protection Unit (MPU).
1214:Generated_Source\PSoC6\pdl\cmsis/include/core_cm4.h ****  */
1215:Generated_Source\PSoC6\pdl\cmsis/include/core_cm4.h **** typedef struct
1216:Generated_Source\PSoC6\pdl\cmsis/include/core_cm4.h **** {
1217:Generated_Source\PSoC6\pdl\cmsis/include/core_cm4.h ****   __IM  uint32_t TYPE;                   /*!< Offset: 0x000 (R/ )  MPU Type Register */
1218:Generated_Source\PSoC6\pdl\cmsis/include/core_cm4.h ****   __IOM uint32_t CTRL;                   /*!< Offset: 0x004 (R/W)  MPU Control Register */
1219:Generated_Source\PSoC6\pdl\cmsis/include/core_cm4.h ****   __IOM uint32_t RNR;                    /*!< Offset: 0x008 (R/W)  MPU Region RNRber Register */
1220:Generated_Source\PSoC6\pdl\cmsis/include/core_cm4.h ****   __IOM uint32_t RBAR;                   /*!< Offset: 0x00C (R/W)  MPU Region Base Address Register
1221:Generated_Source\PSoC6\pdl\cmsis/include/core_cm4.h ****   __IOM uint32_t RASR;                   /*!< Offset: 0x010 (R/W)  MPU Region Attribute and Size Re
1222:Generated_Source\PSoC6\pdl\cmsis/include/core_cm4.h ****   __IOM uint32_t RBAR_A1;                /*!< Offset: 0x014 (R/W)  MPU Alias 1 Region Base Address 
1223:Generated_Source\PSoC6\pdl\cmsis/include/core_cm4.h ****   __IOM uint32_t RASR_A1;                /*!< Offset: 0x018 (R/W)  MPU Alias 1 Region Attribute and
1224:Generated_Source\PSoC6\pdl\cmsis/include/core_cm4.h ****   __IOM uint32_t RBAR_A2;                /*!< Offset: 0x01C (R/W)  MPU Alias 2 Region Base Address 
1225:Generated_Source\PSoC6\pdl\cmsis/include/core_cm4.h ****   __IOM uint32_t RASR_A2;                /*!< Offset: 0x020 (R/W)  MPU Alias 2 Region Attribute and
1226:Generated_Source\PSoC6\pdl\cmsis/include/core_cm4.h ****   __IOM uint32_t RBAR_A3;                /*!< Offset: 0x024 (R/W)  MPU Alias 3 Region Base Address 
1227:Generated_Source\PSoC6\pdl\cmsis/include/core_cm4.h ****   __IOM uint32_t RASR_A3;                /*!< Offset: 0x028 (R/W)  MPU Alias 3 Region Attribute and
1228:Generated_Source\PSoC6\pdl\cmsis/include/core_cm4.h **** } MPU_Type;
ARM GAS  C:\Users\rober\AppData\Local\Temp\ccBCZTBX.s 			page 67


1229:Generated_Source\PSoC6\pdl\cmsis/include/core_cm4.h **** 
1230:Generated_Source\PSoC6\pdl\cmsis/include/core_cm4.h **** /* MPU Type Register Definitions */
1231:Generated_Source\PSoC6\pdl\cmsis/include/core_cm4.h **** #define MPU_TYPE_IREGION_Pos               16U                                            /*!< MPU 
1232:Generated_Source\PSoC6\pdl\cmsis/include/core_cm4.h **** #define MPU_TYPE_IREGION_Msk               (0xFFUL << MPU_TYPE_IREGION_Pos)               /*!< MPU 
1233:Generated_Source\PSoC6\pdl\cmsis/include/core_cm4.h **** 
1234:Generated_Source\PSoC6\pdl\cmsis/include/core_cm4.h **** #define MPU_TYPE_DREGION_Pos                8U                                            /*!< MPU 
1235:Generated_Source\PSoC6\pdl\cmsis/include/core_cm4.h **** #define MPU_TYPE_DREGION_Msk               (0xFFUL << MPU_TYPE_DREGION_Pos)               /*!< MPU 
1236:Generated_Source\PSoC6\pdl\cmsis/include/core_cm4.h **** 
1237:Generated_Source\PSoC6\pdl\cmsis/include/core_cm4.h **** #define MPU_TYPE_SEPARATE_Pos               0U                                            /*!< MPU 
1238:Generated_Source\PSoC6\pdl\cmsis/include/core_cm4.h **** #define MPU_TYPE_SEPARATE_Msk              (1UL /*<< MPU_TYPE_SEPARATE_Pos*/)             /*!< MPU 
1239:Generated_Source\PSoC6\pdl\cmsis/include/core_cm4.h **** 
1240:Generated_Source\PSoC6\pdl\cmsis/include/core_cm4.h **** /* MPU Control Register Definitions */
1241:Generated_Source\PSoC6\pdl\cmsis/include/core_cm4.h **** #define MPU_CTRL_PRIVDEFENA_Pos             2U                                            /*!< MPU 
1242:Generated_Source\PSoC6\pdl\cmsis/include/core_cm4.h **** #define MPU_CTRL_PRIVDEFENA_Msk            (1UL << MPU_CTRL_PRIVDEFENA_Pos)               /*!< MPU 
1243:Generated_Source\PSoC6\pdl\cmsis/include/core_cm4.h **** 
1244:Generated_Source\PSoC6\pdl\cmsis/include/core_cm4.h **** #define MPU_CTRL_HFNMIENA_Pos               1U                                            /*!< MPU 
1245:Generated_Source\PSoC6\pdl\cmsis/include/core_cm4.h **** #define MPU_CTRL_HFNMIENA_Msk              (1UL << MPU_CTRL_HFNMIENA_Pos)                 /*!< MPU 
1246:Generated_Source\PSoC6\pdl\cmsis/include/core_cm4.h **** 
1247:Generated_Source\PSoC6\pdl\cmsis/include/core_cm4.h **** #define MPU_CTRL_ENABLE_Pos                 0U                                            /*!< MPU 
1248:Generated_Source\PSoC6\pdl\cmsis/include/core_cm4.h **** #define MPU_CTRL_ENABLE_Msk                (1UL /*<< MPU_CTRL_ENABLE_Pos*/)               /*!< MPU 
1249:Generated_Source\PSoC6\pdl\cmsis/include/core_cm4.h **** 
1250:Generated_Source\PSoC6\pdl\cmsis/include/core_cm4.h **** /* MPU Region Number Register Definitions */
1251:Generated_Source\PSoC6\pdl\cmsis/include/core_cm4.h **** #define MPU_RNR_REGION_Pos                  0U                                            /*!< MPU 
1252:Generated_Source\PSoC6\pdl\cmsis/include/core_cm4.h **** #define MPU_RNR_REGION_Msk                 (0xFFUL /*<< MPU_RNR_REGION_Pos*/)             /*!< MPU 
1253:Generated_Source\PSoC6\pdl\cmsis/include/core_cm4.h **** 
1254:Generated_Source\PSoC6\pdl\cmsis/include/core_cm4.h **** /* MPU Region Base Address Register Definitions */
1255:Generated_Source\PSoC6\pdl\cmsis/include/core_cm4.h **** #define MPU_RBAR_ADDR_Pos                   5U                                            /*!< MPU 
1256:Generated_Source\PSoC6\pdl\cmsis/include/core_cm4.h **** #define MPU_RBAR_ADDR_Msk                  (0x7FFFFFFUL << MPU_RBAR_ADDR_Pos)             /*!< MPU 
1257:Generated_Source\PSoC6\pdl\cmsis/include/core_cm4.h **** 
1258:Generated_Source\PSoC6\pdl\cmsis/include/core_cm4.h **** #define MPU_RBAR_VALID_Pos                  4U                                            /*!< MPU 
1259:Generated_Source\PSoC6\pdl\cmsis/include/core_cm4.h **** #define MPU_RBAR_VALID_Msk                 (1UL << MPU_RBAR_VALID_Pos)                    /*!< MPU 
1260:Generated_Source\PSoC6\pdl\cmsis/include/core_cm4.h **** 
1261:Generated_Source\PSoC6\pdl\cmsis/include/core_cm4.h **** #define MPU_RBAR_REGION_Pos                 0U                                            /*!< MPU 
1262:Generated_Source\PSoC6\pdl\cmsis/include/core_cm4.h **** #define MPU_RBAR_REGION_Msk                (0xFUL /*<< MPU_RBAR_REGION_Pos*/)             /*!< MPU 
1263:Generated_Source\PSoC6\pdl\cmsis/include/core_cm4.h **** 
1264:Generated_Source\PSoC6\pdl\cmsis/include/core_cm4.h **** /* MPU Region Attribute and Size Register Definitions */
1265:Generated_Source\PSoC6\pdl\cmsis/include/core_cm4.h **** #define MPU_RASR_ATTRS_Pos                 16U                                            /*!< MPU 
1266:Generated_Source\PSoC6\pdl\cmsis/include/core_cm4.h **** #define MPU_RASR_ATTRS_Msk                 (0xFFFFUL << MPU_RASR_ATTRS_Pos)               /*!< MPU 
1267:Generated_Source\PSoC6\pdl\cmsis/include/core_cm4.h **** 
1268:Generated_Source\PSoC6\pdl\cmsis/include/core_cm4.h **** #define MPU_RASR_XN_Pos                    28U                                            /*!< MPU 
1269:Generated_Source\PSoC6\pdl\cmsis/include/core_cm4.h **** #define MPU_RASR_XN_Msk                    (1UL << MPU_RASR_XN_Pos)                       /*!< MPU 
1270:Generated_Source\PSoC6\pdl\cmsis/include/core_cm4.h **** 
1271:Generated_Source\PSoC6\pdl\cmsis/include/core_cm4.h **** #define MPU_RASR_AP_Pos                    24U                                            /*!< MPU 
1272:Generated_Source\PSoC6\pdl\cmsis/include/core_cm4.h **** #define MPU_RASR_AP_Msk                    (0x7UL << MPU_RASR_AP_Pos)                     /*!< MPU 
1273:Generated_Source\PSoC6\pdl\cmsis/include/core_cm4.h **** 
1274:Generated_Source\PSoC6\pdl\cmsis/include/core_cm4.h **** #define MPU_RASR_TEX_Pos                   19U                                            /*!< MPU 
1275:Generated_Source\PSoC6\pdl\cmsis/include/core_cm4.h **** #define MPU_RASR_TEX_Msk                   (0x7UL << MPU_RASR_TEX_Pos)                    /*!< MPU 
1276:Generated_Source\PSoC6\pdl\cmsis/include/core_cm4.h **** 
1277:Generated_Source\PSoC6\pdl\cmsis/include/core_cm4.h **** #define MPU_RASR_S_Pos                     18U                                            /*!< MPU 
1278:Generated_Source\PSoC6\pdl\cmsis/include/core_cm4.h **** #define MPU_RASR_S_Msk                     (1UL << MPU_RASR_S_Pos)                        /*!< MPU 
1279:Generated_Source\PSoC6\pdl\cmsis/include/core_cm4.h **** 
1280:Generated_Source\PSoC6\pdl\cmsis/include/core_cm4.h **** #define MPU_RASR_C_Pos                     17U                                            /*!< MPU 
1281:Generated_Source\PSoC6\pdl\cmsis/include/core_cm4.h **** #define MPU_RASR_C_Msk                     (1UL << MPU_RASR_C_Pos)                        /*!< MPU 
1282:Generated_Source\PSoC6\pdl\cmsis/include/core_cm4.h **** 
1283:Generated_Source\PSoC6\pdl\cmsis/include/core_cm4.h **** #define MPU_RASR_B_Pos                     16U                                            /*!< MPU 
1284:Generated_Source\PSoC6\pdl\cmsis/include/core_cm4.h **** #define MPU_RASR_B_Msk                     (1UL << MPU_RASR_B_Pos)                        /*!< MPU 
1285:Generated_Source\PSoC6\pdl\cmsis/include/core_cm4.h **** 
ARM GAS  C:\Users\rober\AppData\Local\Temp\ccBCZTBX.s 			page 68


1286:Generated_Source\PSoC6\pdl\cmsis/include/core_cm4.h **** #define MPU_RASR_SRD_Pos                    8U                                            /*!< MPU 
1287:Generated_Source\PSoC6\pdl\cmsis/include/core_cm4.h **** #define MPU_RASR_SRD_Msk                   (0xFFUL << MPU_RASR_SRD_Pos)                   /*!< MPU 
1288:Generated_Source\PSoC6\pdl\cmsis/include/core_cm4.h **** 
1289:Generated_Source\PSoC6\pdl\cmsis/include/core_cm4.h **** #define MPU_RASR_SIZE_Pos                   1U                                            /*!< MPU 
1290:Generated_Source\PSoC6\pdl\cmsis/include/core_cm4.h **** #define MPU_RASR_SIZE_Msk                  (0x1FUL << MPU_RASR_SIZE_Pos)                  /*!< MPU 
1291:Generated_Source\PSoC6\pdl\cmsis/include/core_cm4.h **** 
1292:Generated_Source\PSoC6\pdl\cmsis/include/core_cm4.h **** #define MPU_RASR_ENABLE_Pos                 0U                                            /*!< MPU 
1293:Generated_Source\PSoC6\pdl\cmsis/include/core_cm4.h **** #define MPU_RASR_ENABLE_Msk                (1UL /*<< MPU_RASR_ENABLE_Pos*/)               /*!< MPU 
1294:Generated_Source\PSoC6\pdl\cmsis/include/core_cm4.h **** 
1295:Generated_Source\PSoC6\pdl\cmsis/include/core_cm4.h **** /*@} end of group CMSIS_MPU */
1296:Generated_Source\PSoC6\pdl\cmsis/include/core_cm4.h **** #endif /* defined (__MPU_PRESENT) && (__MPU_PRESENT == 1U) */
1297:Generated_Source\PSoC6\pdl\cmsis/include/core_cm4.h **** 
1298:Generated_Source\PSoC6\pdl\cmsis/include/core_cm4.h **** 
1299:Generated_Source\PSoC6\pdl\cmsis/include/core_cm4.h **** /**
1300:Generated_Source\PSoC6\pdl\cmsis/include/core_cm4.h ****   \ingroup  CMSIS_core_register
1301:Generated_Source\PSoC6\pdl\cmsis/include/core_cm4.h ****   \defgroup CMSIS_FPU     Floating Point Unit (FPU)
1302:Generated_Source\PSoC6\pdl\cmsis/include/core_cm4.h ****   \brief    Type definitions for the Floating Point Unit (FPU)
1303:Generated_Source\PSoC6\pdl\cmsis/include/core_cm4.h ****   @{
1304:Generated_Source\PSoC6\pdl\cmsis/include/core_cm4.h ****  */
1305:Generated_Source\PSoC6\pdl\cmsis/include/core_cm4.h **** 
1306:Generated_Source\PSoC6\pdl\cmsis/include/core_cm4.h **** /**
1307:Generated_Source\PSoC6\pdl\cmsis/include/core_cm4.h ****   \brief  Structure type to access the Floating Point Unit (FPU).
1308:Generated_Source\PSoC6\pdl\cmsis/include/core_cm4.h ****  */
1309:Generated_Source\PSoC6\pdl\cmsis/include/core_cm4.h **** typedef struct
1310:Generated_Source\PSoC6\pdl\cmsis/include/core_cm4.h **** {
1311:Generated_Source\PSoC6\pdl\cmsis/include/core_cm4.h ****         uint32_t RESERVED0[1U];
1312:Generated_Source\PSoC6\pdl\cmsis/include/core_cm4.h ****   __IOM uint32_t FPCCR;                  /*!< Offset: 0x004 (R/W)  Floating-Point Context Control R
1313:Generated_Source\PSoC6\pdl\cmsis/include/core_cm4.h ****   __IOM uint32_t FPCAR;                  /*!< Offset: 0x008 (R/W)  Floating-Point Context Address R
1314:Generated_Source\PSoC6\pdl\cmsis/include/core_cm4.h ****   __IOM uint32_t FPDSCR;                 /*!< Offset: 0x00C (R/W)  Floating-Point Default Status Co
1315:Generated_Source\PSoC6\pdl\cmsis/include/core_cm4.h ****   __IM  uint32_t MVFR0;                  /*!< Offset: 0x010 (R/ )  Media and FP Feature Register 0 
1316:Generated_Source\PSoC6\pdl\cmsis/include/core_cm4.h ****   __IM  uint32_t MVFR1;                  /*!< Offset: 0x014 (R/ )  Media and FP Feature Register 1 
1317:Generated_Source\PSoC6\pdl\cmsis/include/core_cm4.h **** } FPU_Type;
1318:Generated_Source\PSoC6\pdl\cmsis/include/core_cm4.h **** 
1319:Generated_Source\PSoC6\pdl\cmsis/include/core_cm4.h **** /* Floating-Point Context Control Register Definitions */
1320:Generated_Source\PSoC6\pdl\cmsis/include/core_cm4.h **** #define FPU_FPCCR_ASPEN_Pos                31U                                            /*!< FPCC
1321:Generated_Source\PSoC6\pdl\cmsis/include/core_cm4.h **** #define FPU_FPCCR_ASPEN_Msk                (1UL << FPU_FPCCR_ASPEN_Pos)                   /*!< FPCC
1322:Generated_Source\PSoC6\pdl\cmsis/include/core_cm4.h **** 
1323:Generated_Source\PSoC6\pdl\cmsis/include/core_cm4.h **** #define FPU_FPCCR_LSPEN_Pos                30U                                            /*!< FPCC
1324:Generated_Source\PSoC6\pdl\cmsis/include/core_cm4.h **** #define FPU_FPCCR_LSPEN_Msk                (1UL << FPU_FPCCR_LSPEN_Pos)                   /*!< FPCC
1325:Generated_Source\PSoC6\pdl\cmsis/include/core_cm4.h **** 
1326:Generated_Source\PSoC6\pdl\cmsis/include/core_cm4.h **** #define FPU_FPCCR_MONRDY_Pos                8U                                            /*!< FPCC
1327:Generated_Source\PSoC6\pdl\cmsis/include/core_cm4.h **** #define FPU_FPCCR_MONRDY_Msk               (1UL << FPU_FPCCR_MONRDY_Pos)                  /*!< FPCC
1328:Generated_Source\PSoC6\pdl\cmsis/include/core_cm4.h **** 
1329:Generated_Source\PSoC6\pdl\cmsis/include/core_cm4.h **** #define FPU_FPCCR_BFRDY_Pos                 6U                                            /*!< FPCC
1330:Generated_Source\PSoC6\pdl\cmsis/include/core_cm4.h **** #define FPU_FPCCR_BFRDY_Msk                (1UL << FPU_FPCCR_BFRDY_Pos)                   /*!< FPCC
1331:Generated_Source\PSoC6\pdl\cmsis/include/core_cm4.h **** 
1332:Generated_Source\PSoC6\pdl\cmsis/include/core_cm4.h **** #define FPU_FPCCR_MMRDY_Pos                 5U                                            /*!< FPCC
1333:Generated_Source\PSoC6\pdl\cmsis/include/core_cm4.h **** #define FPU_FPCCR_MMRDY_Msk                (1UL << FPU_FPCCR_MMRDY_Pos)                   /*!< FPCC
1334:Generated_Source\PSoC6\pdl\cmsis/include/core_cm4.h **** 
1335:Generated_Source\PSoC6\pdl\cmsis/include/core_cm4.h **** #define FPU_FPCCR_HFRDY_Pos                 4U                                            /*!< FPCC
1336:Generated_Source\PSoC6\pdl\cmsis/include/core_cm4.h **** #define FPU_FPCCR_HFRDY_Msk                (1UL << FPU_FPCCR_HFRDY_Pos)                   /*!< FPCC
1337:Generated_Source\PSoC6\pdl\cmsis/include/core_cm4.h **** 
1338:Generated_Source\PSoC6\pdl\cmsis/include/core_cm4.h **** #define FPU_FPCCR_THREAD_Pos                3U                                            /*!< FPCC
1339:Generated_Source\PSoC6\pdl\cmsis/include/core_cm4.h **** #define FPU_FPCCR_THREAD_Msk               (1UL << FPU_FPCCR_THREAD_Pos)                  /*!< FPCC
1340:Generated_Source\PSoC6\pdl\cmsis/include/core_cm4.h **** 
1341:Generated_Source\PSoC6\pdl\cmsis/include/core_cm4.h **** #define FPU_FPCCR_USER_Pos                  1U                                            /*!< FPCC
1342:Generated_Source\PSoC6\pdl\cmsis/include/core_cm4.h **** #define FPU_FPCCR_USER_Msk                 (1UL << FPU_FPCCR_USER_Pos)                    /*!< FPCC
ARM GAS  C:\Users\rober\AppData\Local\Temp\ccBCZTBX.s 			page 69


1343:Generated_Source\PSoC6\pdl\cmsis/include/core_cm4.h **** 
1344:Generated_Source\PSoC6\pdl\cmsis/include/core_cm4.h **** #define FPU_FPCCR_LSPACT_Pos                0U                                            /*!< FPCC
1345:Generated_Source\PSoC6\pdl\cmsis/include/core_cm4.h **** #define FPU_FPCCR_LSPACT_Msk               (1UL /*<< FPU_FPCCR_LSPACT_Pos*/)              /*!< FPCC
1346:Generated_Source\PSoC6\pdl\cmsis/include/core_cm4.h **** 
1347:Generated_Source\PSoC6\pdl\cmsis/include/core_cm4.h **** /* Floating-Point Context Address Register Definitions */
1348:Generated_Source\PSoC6\pdl\cmsis/include/core_cm4.h **** #define FPU_FPCAR_ADDRESS_Pos               3U                                            /*!< FPCA
1349:Generated_Source\PSoC6\pdl\cmsis/include/core_cm4.h **** #define FPU_FPCAR_ADDRESS_Msk              (0x1FFFFFFFUL << FPU_FPCAR_ADDRESS_Pos)        /*!< FPCA
1350:Generated_Source\PSoC6\pdl\cmsis/include/core_cm4.h **** 
1351:Generated_Source\PSoC6\pdl\cmsis/include/core_cm4.h **** /* Floating-Point Default Status Control Register Definitions */
1352:Generated_Source\PSoC6\pdl\cmsis/include/core_cm4.h **** #define FPU_FPDSCR_AHP_Pos                 26U                                            /*!< FPDS
1353:Generated_Source\PSoC6\pdl\cmsis/include/core_cm4.h **** #define FPU_FPDSCR_AHP_Msk                 (1UL << FPU_FPDSCR_AHP_Pos)                    /*!< FPDS
1354:Generated_Source\PSoC6\pdl\cmsis/include/core_cm4.h **** 
1355:Generated_Source\PSoC6\pdl\cmsis/include/core_cm4.h **** #define FPU_FPDSCR_DN_Pos                  25U                                            /*!< FPDS
1356:Generated_Source\PSoC6\pdl\cmsis/include/core_cm4.h **** #define FPU_FPDSCR_DN_Msk                  (1UL << FPU_FPDSCR_DN_Pos)                     /*!< FPDS
1357:Generated_Source\PSoC6\pdl\cmsis/include/core_cm4.h **** 
1358:Generated_Source\PSoC6\pdl\cmsis/include/core_cm4.h **** #define FPU_FPDSCR_FZ_Pos                  24U                                            /*!< FPDS
1359:Generated_Source\PSoC6\pdl\cmsis/include/core_cm4.h **** #define FPU_FPDSCR_FZ_Msk                  (1UL << FPU_FPDSCR_FZ_Pos)                     /*!< FPDS
1360:Generated_Source\PSoC6\pdl\cmsis/include/core_cm4.h **** 
1361:Generated_Source\PSoC6\pdl\cmsis/include/core_cm4.h **** #define FPU_FPDSCR_RMode_Pos               22U                                            /*!< FPDS
1362:Generated_Source\PSoC6\pdl\cmsis/include/core_cm4.h **** #define FPU_FPDSCR_RMode_Msk               (3UL << FPU_FPDSCR_RMode_Pos)                  /*!< FPDS
1363:Generated_Source\PSoC6\pdl\cmsis/include/core_cm4.h **** 
1364:Generated_Source\PSoC6\pdl\cmsis/include/core_cm4.h **** /* Media and FP Feature Register 0 Definitions */
1365:Generated_Source\PSoC6\pdl\cmsis/include/core_cm4.h **** #define FPU_MVFR0_FP_rounding_modes_Pos    28U                                            /*!< MVFR
1366:Generated_Source\PSoC6\pdl\cmsis/include/core_cm4.h **** #define FPU_MVFR0_FP_rounding_modes_Msk    (0xFUL << FPU_MVFR0_FP_rounding_modes_Pos)     /*!< MVFR
1367:Generated_Source\PSoC6\pdl\cmsis/include/core_cm4.h **** 
1368:Generated_Source\PSoC6\pdl\cmsis/include/core_cm4.h **** #define FPU_MVFR0_Short_vectors_Pos        24U                                            /*!< MVFR
1369:Generated_Source\PSoC6\pdl\cmsis/include/core_cm4.h **** #define FPU_MVFR0_Short_vectors_Msk        (0xFUL << FPU_MVFR0_Short_vectors_Pos)         /*!< MVFR
1370:Generated_Source\PSoC6\pdl\cmsis/include/core_cm4.h **** 
1371:Generated_Source\PSoC6\pdl\cmsis/include/core_cm4.h **** #define FPU_MVFR0_Square_root_Pos          20U                                            /*!< MVFR
1372:Generated_Source\PSoC6\pdl\cmsis/include/core_cm4.h **** #define FPU_MVFR0_Square_root_Msk          (0xFUL << FPU_MVFR0_Square_root_Pos)           /*!< MVFR
1373:Generated_Source\PSoC6\pdl\cmsis/include/core_cm4.h **** 
1374:Generated_Source\PSoC6\pdl\cmsis/include/core_cm4.h **** #define FPU_MVFR0_Divide_Pos               16U                                            /*!< MVFR
1375:Generated_Source\PSoC6\pdl\cmsis/include/core_cm4.h **** #define FPU_MVFR0_Divide_Msk               (0xFUL << FPU_MVFR0_Divide_Pos)                /*!< MVFR
1376:Generated_Source\PSoC6\pdl\cmsis/include/core_cm4.h **** 
1377:Generated_Source\PSoC6\pdl\cmsis/include/core_cm4.h **** #define FPU_MVFR0_FP_excep_trapping_Pos    12U                                            /*!< MVFR
1378:Generated_Source\PSoC6\pdl\cmsis/include/core_cm4.h **** #define FPU_MVFR0_FP_excep_trapping_Msk    (0xFUL << FPU_MVFR0_FP_excep_trapping_Pos)     /*!< MVFR
1379:Generated_Source\PSoC6\pdl\cmsis/include/core_cm4.h **** 
1380:Generated_Source\PSoC6\pdl\cmsis/include/core_cm4.h **** #define FPU_MVFR0_Double_precision_Pos      8U                                            /*!< MVFR
1381:Generated_Source\PSoC6\pdl\cmsis/include/core_cm4.h **** #define FPU_MVFR0_Double_precision_Msk     (0xFUL << FPU_MVFR0_Double_precision_Pos)      /*!< MVFR
1382:Generated_Source\PSoC6\pdl\cmsis/include/core_cm4.h **** 
1383:Generated_Source\PSoC6\pdl\cmsis/include/core_cm4.h **** #define FPU_MVFR0_Single_precision_Pos      4U                                            /*!< MVFR
1384:Generated_Source\PSoC6\pdl\cmsis/include/core_cm4.h **** #define FPU_MVFR0_Single_precision_Msk     (0xFUL << FPU_MVFR0_Single_precision_Pos)      /*!< MVFR
1385:Generated_Source\PSoC6\pdl\cmsis/include/core_cm4.h **** 
1386:Generated_Source\PSoC6\pdl\cmsis/include/core_cm4.h **** #define FPU_MVFR0_A_SIMD_registers_Pos      0U                                            /*!< MVFR
1387:Generated_Source\PSoC6\pdl\cmsis/include/core_cm4.h **** #define FPU_MVFR0_A_SIMD_registers_Msk     (0xFUL /*<< FPU_MVFR0_A_SIMD_registers_Pos*/)  /*!< MVFR
1388:Generated_Source\PSoC6\pdl\cmsis/include/core_cm4.h **** 
1389:Generated_Source\PSoC6\pdl\cmsis/include/core_cm4.h **** /* Media and FP Feature Register 1 Definitions */
1390:Generated_Source\PSoC6\pdl\cmsis/include/core_cm4.h **** #define FPU_MVFR1_FP_fused_MAC_Pos         28U                                            /*!< MVFR
1391:Generated_Source\PSoC6\pdl\cmsis/include/core_cm4.h **** #define FPU_MVFR1_FP_fused_MAC_Msk         (0xFUL << FPU_MVFR1_FP_fused_MAC_Pos)          /*!< MVFR
1392:Generated_Source\PSoC6\pdl\cmsis/include/core_cm4.h **** 
1393:Generated_Source\PSoC6\pdl\cmsis/include/core_cm4.h **** #define FPU_MVFR1_FP_HPFP_Pos              24U                                            /*!< MVFR
1394:Generated_Source\PSoC6\pdl\cmsis/include/core_cm4.h **** #define FPU_MVFR1_FP_HPFP_Msk              (0xFUL << FPU_MVFR1_FP_HPFP_Pos)               /*!< MVFR
1395:Generated_Source\PSoC6\pdl\cmsis/include/core_cm4.h **** 
1396:Generated_Source\PSoC6\pdl\cmsis/include/core_cm4.h **** #define FPU_MVFR1_D_NaN_mode_Pos            4U                                            /*!< MVFR
1397:Generated_Source\PSoC6\pdl\cmsis/include/core_cm4.h **** #define FPU_MVFR1_D_NaN_mode_Msk           (0xFUL << FPU_MVFR1_D_NaN_mode_Pos)            /*!< MVFR
1398:Generated_Source\PSoC6\pdl\cmsis/include/core_cm4.h **** 
1399:Generated_Source\PSoC6\pdl\cmsis/include/core_cm4.h **** #define FPU_MVFR1_FtZ_mode_Pos              0U                                            /*!< MVFR
ARM GAS  C:\Users\rober\AppData\Local\Temp\ccBCZTBX.s 			page 70


1400:Generated_Source\PSoC6\pdl\cmsis/include/core_cm4.h **** #define FPU_MVFR1_FtZ_mode_Msk             (0xFUL /*<< FPU_MVFR1_FtZ_mode_Pos*/)          /*!< MVFR
1401:Generated_Source\PSoC6\pdl\cmsis/include/core_cm4.h **** 
1402:Generated_Source\PSoC6\pdl\cmsis/include/core_cm4.h **** /*@} end of group CMSIS_FPU */
1403:Generated_Source\PSoC6\pdl\cmsis/include/core_cm4.h **** 
1404:Generated_Source\PSoC6\pdl\cmsis/include/core_cm4.h **** 
1405:Generated_Source\PSoC6\pdl\cmsis/include/core_cm4.h **** /**
1406:Generated_Source\PSoC6\pdl\cmsis/include/core_cm4.h ****   \ingroup  CMSIS_core_register
1407:Generated_Source\PSoC6\pdl\cmsis/include/core_cm4.h ****   \defgroup CMSIS_CoreDebug       Core Debug Registers (CoreDebug)
1408:Generated_Source\PSoC6\pdl\cmsis/include/core_cm4.h ****   \brief    Type definitions for the Core Debug Registers
1409:Generated_Source\PSoC6\pdl\cmsis/include/core_cm4.h ****   @{
1410:Generated_Source\PSoC6\pdl\cmsis/include/core_cm4.h ****  */
1411:Generated_Source\PSoC6\pdl\cmsis/include/core_cm4.h **** 
1412:Generated_Source\PSoC6\pdl\cmsis/include/core_cm4.h **** /**
1413:Generated_Source\PSoC6\pdl\cmsis/include/core_cm4.h ****   \brief  Structure type to access the Core Debug Register (CoreDebug).
1414:Generated_Source\PSoC6\pdl\cmsis/include/core_cm4.h ****  */
1415:Generated_Source\PSoC6\pdl\cmsis/include/core_cm4.h **** typedef struct
1416:Generated_Source\PSoC6\pdl\cmsis/include/core_cm4.h **** {
1417:Generated_Source\PSoC6\pdl\cmsis/include/core_cm4.h ****   __IOM uint32_t DHCSR;                  /*!< Offset: 0x000 (R/W)  Debug Halting Control and Status
1418:Generated_Source\PSoC6\pdl\cmsis/include/core_cm4.h ****   __OM  uint32_t DCRSR;                  /*!< Offset: 0x004 ( /W)  Debug Core Register Selector Reg
1419:Generated_Source\PSoC6\pdl\cmsis/include/core_cm4.h ****   __IOM uint32_t DCRDR;                  /*!< Offset: 0x008 (R/W)  Debug Core Register Data Registe
1420:Generated_Source\PSoC6\pdl\cmsis/include/core_cm4.h ****   __IOM uint32_t DEMCR;                  /*!< Offset: 0x00C (R/W)  Debug Exception and Monitor Cont
1421:Generated_Source\PSoC6\pdl\cmsis/include/core_cm4.h **** } CoreDebug_Type;
1422:Generated_Source\PSoC6\pdl\cmsis/include/core_cm4.h **** 
1423:Generated_Source\PSoC6\pdl\cmsis/include/core_cm4.h **** /* Debug Halting Control and Status Register Definitions */
1424:Generated_Source\PSoC6\pdl\cmsis/include/core_cm4.h **** #define CoreDebug_DHCSR_DBGKEY_Pos         16U                                            /*!< Core
1425:Generated_Source\PSoC6\pdl\cmsis/include/core_cm4.h **** #define CoreDebug_DHCSR_DBGKEY_Msk         (0xFFFFUL << CoreDebug_DHCSR_DBGKEY_Pos)       /*!< Core
1426:Generated_Source\PSoC6\pdl\cmsis/include/core_cm4.h **** 
1427:Generated_Source\PSoC6\pdl\cmsis/include/core_cm4.h **** #define CoreDebug_DHCSR_S_RESET_ST_Pos     25U                                            /*!< Core
1428:Generated_Source\PSoC6\pdl\cmsis/include/core_cm4.h **** #define CoreDebug_DHCSR_S_RESET_ST_Msk     (1UL << CoreDebug_DHCSR_S_RESET_ST_Pos)        /*!< Core
1429:Generated_Source\PSoC6\pdl\cmsis/include/core_cm4.h **** 
1430:Generated_Source\PSoC6\pdl\cmsis/include/core_cm4.h **** #define CoreDebug_DHCSR_S_RETIRE_ST_Pos    24U                                            /*!< Core
1431:Generated_Source\PSoC6\pdl\cmsis/include/core_cm4.h **** #define CoreDebug_DHCSR_S_RETIRE_ST_Msk    (1UL << CoreDebug_DHCSR_S_RETIRE_ST_Pos)       /*!< Core
1432:Generated_Source\PSoC6\pdl\cmsis/include/core_cm4.h **** 
1433:Generated_Source\PSoC6\pdl\cmsis/include/core_cm4.h **** #define CoreDebug_DHCSR_S_LOCKUP_Pos       19U                                            /*!< Core
1434:Generated_Source\PSoC6\pdl\cmsis/include/core_cm4.h **** #define CoreDebug_DHCSR_S_LOCKUP_Msk       (1UL << CoreDebug_DHCSR_S_LOCKUP_Pos)          /*!< Core
1435:Generated_Source\PSoC6\pdl\cmsis/include/core_cm4.h **** 
1436:Generated_Source\PSoC6\pdl\cmsis/include/core_cm4.h **** #define CoreDebug_DHCSR_S_SLEEP_Pos        18U                                            /*!< Core
1437:Generated_Source\PSoC6\pdl\cmsis/include/core_cm4.h **** #define CoreDebug_DHCSR_S_SLEEP_Msk        (1UL << CoreDebug_DHCSR_S_SLEEP_Pos)           /*!< Core
1438:Generated_Source\PSoC6\pdl\cmsis/include/core_cm4.h **** 
1439:Generated_Source\PSoC6\pdl\cmsis/include/core_cm4.h **** #define CoreDebug_DHCSR_S_HALT_Pos         17U                                            /*!< Core
1440:Generated_Source\PSoC6\pdl\cmsis/include/core_cm4.h **** #define CoreDebug_DHCSR_S_HALT_Msk         (1UL << CoreDebug_DHCSR_S_HALT_Pos)            /*!< Core
1441:Generated_Source\PSoC6\pdl\cmsis/include/core_cm4.h **** 
1442:Generated_Source\PSoC6\pdl\cmsis/include/core_cm4.h **** #define CoreDebug_DHCSR_S_REGRDY_Pos       16U                                            /*!< Core
1443:Generated_Source\PSoC6\pdl\cmsis/include/core_cm4.h **** #define CoreDebug_DHCSR_S_REGRDY_Msk       (1UL << CoreDebug_DHCSR_S_REGRDY_Pos)          /*!< Core
1444:Generated_Source\PSoC6\pdl\cmsis/include/core_cm4.h **** 
1445:Generated_Source\PSoC6\pdl\cmsis/include/core_cm4.h **** #define CoreDebug_DHCSR_C_SNAPSTALL_Pos     5U                                            /*!< Core
1446:Generated_Source\PSoC6\pdl\cmsis/include/core_cm4.h **** #define CoreDebug_DHCSR_C_SNAPSTALL_Msk    (1UL << CoreDebug_DHCSR_C_SNAPSTALL_Pos)       /*!< Core
1447:Generated_Source\PSoC6\pdl\cmsis/include/core_cm4.h **** 
1448:Generated_Source\PSoC6\pdl\cmsis/include/core_cm4.h **** #define CoreDebug_DHCSR_C_MASKINTS_Pos      3U                                            /*!< Core
1449:Generated_Source\PSoC6\pdl\cmsis/include/core_cm4.h **** #define CoreDebug_DHCSR_C_MASKINTS_Msk     (1UL << CoreDebug_DHCSR_C_MASKINTS_Pos)        /*!< Core
1450:Generated_Source\PSoC6\pdl\cmsis/include/core_cm4.h **** 
1451:Generated_Source\PSoC6\pdl\cmsis/include/core_cm4.h **** #define CoreDebug_DHCSR_C_STEP_Pos          2U                                            /*!< Core
1452:Generated_Source\PSoC6\pdl\cmsis/include/core_cm4.h **** #define CoreDebug_DHCSR_C_STEP_Msk         (1UL << CoreDebug_DHCSR_C_STEP_Pos)            /*!< Core
1453:Generated_Source\PSoC6\pdl\cmsis/include/core_cm4.h **** 
1454:Generated_Source\PSoC6\pdl\cmsis/include/core_cm4.h **** #define CoreDebug_DHCSR_C_HALT_Pos          1U                                            /*!< Core
1455:Generated_Source\PSoC6\pdl\cmsis/include/core_cm4.h **** #define CoreDebug_DHCSR_C_HALT_Msk         (1UL << CoreDebug_DHCSR_C_HALT_Pos)            /*!< Core
1456:Generated_Source\PSoC6\pdl\cmsis/include/core_cm4.h **** 
ARM GAS  C:\Users\rober\AppData\Local\Temp\ccBCZTBX.s 			page 71


1457:Generated_Source\PSoC6\pdl\cmsis/include/core_cm4.h **** #define CoreDebug_DHCSR_C_DEBUGEN_Pos       0U                                            /*!< Core
1458:Generated_Source\PSoC6\pdl\cmsis/include/core_cm4.h **** #define CoreDebug_DHCSR_C_DEBUGEN_Msk      (1UL /*<< CoreDebug_DHCSR_C_DEBUGEN_Pos*/)     /*!< Core
1459:Generated_Source\PSoC6\pdl\cmsis/include/core_cm4.h **** 
1460:Generated_Source\PSoC6\pdl\cmsis/include/core_cm4.h **** /* Debug Core Register Selector Register Definitions */
1461:Generated_Source\PSoC6\pdl\cmsis/include/core_cm4.h **** #define CoreDebug_DCRSR_REGWnR_Pos         16U                                            /*!< Core
1462:Generated_Source\PSoC6\pdl\cmsis/include/core_cm4.h **** #define CoreDebug_DCRSR_REGWnR_Msk         (1UL << CoreDebug_DCRSR_REGWnR_Pos)            /*!< Core
1463:Generated_Source\PSoC6\pdl\cmsis/include/core_cm4.h **** 
1464:Generated_Source\PSoC6\pdl\cmsis/include/core_cm4.h **** #define CoreDebug_DCRSR_REGSEL_Pos          0U                                            /*!< Core
1465:Generated_Source\PSoC6\pdl\cmsis/include/core_cm4.h **** #define CoreDebug_DCRSR_REGSEL_Msk         (0x1FUL /*<< CoreDebug_DCRSR_REGSEL_Pos*/)     /*!< Core
1466:Generated_Source\PSoC6\pdl\cmsis/include/core_cm4.h **** 
1467:Generated_Source\PSoC6\pdl\cmsis/include/core_cm4.h **** /* Debug Exception and Monitor Control Register Definitions */
1468:Generated_Source\PSoC6\pdl\cmsis/include/core_cm4.h **** #define CoreDebug_DEMCR_TRCENA_Pos         24U                                            /*!< Core
1469:Generated_Source\PSoC6\pdl\cmsis/include/core_cm4.h **** #define CoreDebug_DEMCR_TRCENA_Msk         (1UL << CoreDebug_DEMCR_TRCENA_Pos)            /*!< Core
1470:Generated_Source\PSoC6\pdl\cmsis/include/core_cm4.h **** 
1471:Generated_Source\PSoC6\pdl\cmsis/include/core_cm4.h **** #define CoreDebug_DEMCR_MON_REQ_Pos        19U                                            /*!< Core
1472:Generated_Source\PSoC6\pdl\cmsis/include/core_cm4.h **** #define CoreDebug_DEMCR_MON_REQ_Msk        (1UL << CoreDebug_DEMCR_MON_REQ_Pos)           /*!< Core
1473:Generated_Source\PSoC6\pdl\cmsis/include/core_cm4.h **** 
1474:Generated_Source\PSoC6\pdl\cmsis/include/core_cm4.h **** #define CoreDebug_DEMCR_MON_STEP_Pos       18U                                            /*!< Core
1475:Generated_Source\PSoC6\pdl\cmsis/include/core_cm4.h **** #define CoreDebug_DEMCR_MON_STEP_Msk       (1UL << CoreDebug_DEMCR_MON_STEP_Pos)          /*!< Core
1476:Generated_Source\PSoC6\pdl\cmsis/include/core_cm4.h **** 
1477:Generated_Source\PSoC6\pdl\cmsis/include/core_cm4.h **** #define CoreDebug_DEMCR_MON_PEND_Pos       17U                                            /*!< Core
1478:Generated_Source\PSoC6\pdl\cmsis/include/core_cm4.h **** #define CoreDebug_DEMCR_MON_PEND_Msk       (1UL << CoreDebug_DEMCR_MON_PEND_Pos)          /*!< Core
1479:Generated_Source\PSoC6\pdl\cmsis/include/core_cm4.h **** 
1480:Generated_Source\PSoC6\pdl\cmsis/include/core_cm4.h **** #define CoreDebug_DEMCR_MON_EN_Pos         16U                                            /*!< Core
1481:Generated_Source\PSoC6\pdl\cmsis/include/core_cm4.h **** #define CoreDebug_DEMCR_MON_EN_Msk         (1UL << CoreDebug_DEMCR_MON_EN_Pos)            /*!< Core
1482:Generated_Source\PSoC6\pdl\cmsis/include/core_cm4.h **** 
1483:Generated_Source\PSoC6\pdl\cmsis/include/core_cm4.h **** #define CoreDebug_DEMCR_VC_HARDERR_Pos     10U                                            /*!< Core
1484:Generated_Source\PSoC6\pdl\cmsis/include/core_cm4.h **** #define CoreDebug_DEMCR_VC_HARDERR_Msk     (1UL << CoreDebug_DEMCR_VC_HARDERR_Pos)        /*!< Core
1485:Generated_Source\PSoC6\pdl\cmsis/include/core_cm4.h **** 
1486:Generated_Source\PSoC6\pdl\cmsis/include/core_cm4.h **** #define CoreDebug_DEMCR_VC_INTERR_Pos       9U                                            /*!< Core
1487:Generated_Source\PSoC6\pdl\cmsis/include/core_cm4.h **** #define CoreDebug_DEMCR_VC_INTERR_Msk      (1UL << CoreDebug_DEMCR_VC_INTERR_Pos)         /*!< Core
1488:Generated_Source\PSoC6\pdl\cmsis/include/core_cm4.h **** 
1489:Generated_Source\PSoC6\pdl\cmsis/include/core_cm4.h **** #define CoreDebug_DEMCR_VC_BUSERR_Pos       8U                                            /*!< Core
1490:Generated_Source\PSoC6\pdl\cmsis/include/core_cm4.h **** #define CoreDebug_DEMCR_VC_BUSERR_Msk      (1UL << CoreDebug_DEMCR_VC_BUSERR_Pos)         /*!< Core
1491:Generated_Source\PSoC6\pdl\cmsis/include/core_cm4.h **** 
1492:Generated_Source\PSoC6\pdl\cmsis/include/core_cm4.h **** #define CoreDebug_DEMCR_VC_STATERR_Pos      7U                                            /*!< Core
1493:Generated_Source\PSoC6\pdl\cmsis/include/core_cm4.h **** #define CoreDebug_DEMCR_VC_STATERR_Msk     (1UL << CoreDebug_DEMCR_VC_STATERR_Pos)        /*!< Core
1494:Generated_Source\PSoC6\pdl\cmsis/include/core_cm4.h **** 
1495:Generated_Source\PSoC6\pdl\cmsis/include/core_cm4.h **** #define CoreDebug_DEMCR_VC_CHKERR_Pos       6U                                            /*!< Core
1496:Generated_Source\PSoC6\pdl\cmsis/include/core_cm4.h **** #define CoreDebug_DEMCR_VC_CHKERR_Msk      (1UL << CoreDebug_DEMCR_VC_CHKERR_Pos)         /*!< Core
1497:Generated_Source\PSoC6\pdl\cmsis/include/core_cm4.h **** 
1498:Generated_Source\PSoC6\pdl\cmsis/include/core_cm4.h **** #define CoreDebug_DEMCR_VC_NOCPERR_Pos      5U                                            /*!< Core
1499:Generated_Source\PSoC6\pdl\cmsis/include/core_cm4.h **** #define CoreDebug_DEMCR_VC_NOCPERR_Msk     (1UL << CoreDebug_DEMCR_VC_NOCPERR_Pos)        /*!< Core
1500:Generated_Source\PSoC6\pdl\cmsis/include/core_cm4.h **** 
1501:Generated_Source\PSoC6\pdl\cmsis/include/core_cm4.h **** #define CoreDebug_DEMCR_VC_MMERR_Pos        4U                                            /*!< Core
1502:Generated_Source\PSoC6\pdl\cmsis/include/core_cm4.h **** #define CoreDebug_DEMCR_VC_MMERR_Msk       (1UL << CoreDebug_DEMCR_VC_MMERR_Pos)          /*!< Core
1503:Generated_Source\PSoC6\pdl\cmsis/include/core_cm4.h **** 
1504:Generated_Source\PSoC6\pdl\cmsis/include/core_cm4.h **** #define CoreDebug_DEMCR_VC_CORERESET_Pos    0U                                            /*!< Core
1505:Generated_Source\PSoC6\pdl\cmsis/include/core_cm4.h **** #define CoreDebug_DEMCR_VC_CORERESET_Msk   (1UL /*<< CoreDebug_DEMCR_VC_CORERESET_Pos*/)  /*!< Core
1506:Generated_Source\PSoC6\pdl\cmsis/include/core_cm4.h **** 
1507:Generated_Source\PSoC6\pdl\cmsis/include/core_cm4.h **** /*@} end of group CMSIS_CoreDebug */
1508:Generated_Source\PSoC6\pdl\cmsis/include/core_cm4.h **** 
1509:Generated_Source\PSoC6\pdl\cmsis/include/core_cm4.h **** 
1510:Generated_Source\PSoC6\pdl\cmsis/include/core_cm4.h **** /**
1511:Generated_Source\PSoC6\pdl\cmsis/include/core_cm4.h ****   \ingroup    CMSIS_core_register
1512:Generated_Source\PSoC6\pdl\cmsis/include/core_cm4.h ****   \defgroup   CMSIS_core_bitfield     Core register bit field macros
1513:Generated_Source\PSoC6\pdl\cmsis/include/core_cm4.h ****   \brief      Macros for use with bit field definitions (xxx_Pos, xxx_Msk).
ARM GAS  C:\Users\rober\AppData\Local\Temp\ccBCZTBX.s 			page 72


1514:Generated_Source\PSoC6\pdl\cmsis/include/core_cm4.h ****   @{
1515:Generated_Source\PSoC6\pdl\cmsis/include/core_cm4.h ****  */
1516:Generated_Source\PSoC6\pdl\cmsis/include/core_cm4.h **** 
1517:Generated_Source\PSoC6\pdl\cmsis/include/core_cm4.h **** /**
1518:Generated_Source\PSoC6\pdl\cmsis/include/core_cm4.h ****   \brief   Mask and shift a bit field value for use in a register bit range.
1519:Generated_Source\PSoC6\pdl\cmsis/include/core_cm4.h ****   \param[in] field  Name of the register bit field.
1520:Generated_Source\PSoC6\pdl\cmsis/include/core_cm4.h ****   \param[in] value  Value of the bit field. This parameter is interpreted as an uint32_t type.
1521:Generated_Source\PSoC6\pdl\cmsis/include/core_cm4.h ****   \return           Masked and shifted value.
1522:Generated_Source\PSoC6\pdl\cmsis/include/core_cm4.h **** */
1523:Generated_Source\PSoC6\pdl\cmsis/include/core_cm4.h **** #define _VAL2FLD(field, value)    (((uint32_t)(value) << field ## _Pos) & field ## _Msk)
1524:Generated_Source\PSoC6\pdl\cmsis/include/core_cm4.h **** 
1525:Generated_Source\PSoC6\pdl\cmsis/include/core_cm4.h **** /**
1526:Generated_Source\PSoC6\pdl\cmsis/include/core_cm4.h ****   \brief     Mask and shift a register value to extract a bit filed value.
1527:Generated_Source\PSoC6\pdl\cmsis/include/core_cm4.h ****   \param[in] field  Name of the register bit field.
1528:Generated_Source\PSoC6\pdl\cmsis/include/core_cm4.h ****   \param[in] value  Value of register. This parameter is interpreted as an uint32_t type.
1529:Generated_Source\PSoC6\pdl\cmsis/include/core_cm4.h ****   \return           Masked and shifted bit field value.
1530:Generated_Source\PSoC6\pdl\cmsis/include/core_cm4.h **** */
1531:Generated_Source\PSoC6\pdl\cmsis/include/core_cm4.h **** #define _FLD2VAL(field, value)    (((uint32_t)(value) & field ## _Msk) >> field ## _Pos)
1532:Generated_Source\PSoC6\pdl\cmsis/include/core_cm4.h **** 
1533:Generated_Source\PSoC6\pdl\cmsis/include/core_cm4.h **** /*@} end of group CMSIS_core_bitfield */
1534:Generated_Source\PSoC6\pdl\cmsis/include/core_cm4.h **** 
1535:Generated_Source\PSoC6\pdl\cmsis/include/core_cm4.h **** 
1536:Generated_Source\PSoC6\pdl\cmsis/include/core_cm4.h **** /**
1537:Generated_Source\PSoC6\pdl\cmsis/include/core_cm4.h ****   \ingroup    CMSIS_core_register
1538:Generated_Source\PSoC6\pdl\cmsis/include/core_cm4.h ****   \defgroup   CMSIS_core_base     Core Definitions
1539:Generated_Source\PSoC6\pdl\cmsis/include/core_cm4.h ****   \brief      Definitions for base addresses, unions, and structures.
1540:Generated_Source\PSoC6\pdl\cmsis/include/core_cm4.h ****   @{
1541:Generated_Source\PSoC6\pdl\cmsis/include/core_cm4.h ****  */
1542:Generated_Source\PSoC6\pdl\cmsis/include/core_cm4.h **** 
1543:Generated_Source\PSoC6\pdl\cmsis/include/core_cm4.h **** /* Memory mapping of Core Hardware */
1544:Generated_Source\PSoC6\pdl\cmsis/include/core_cm4.h **** #define SCS_BASE            (0xE000E000UL)                            /*!< System Control Space Bas
1545:Generated_Source\PSoC6\pdl\cmsis/include/core_cm4.h **** #define ITM_BASE            (0xE0000000UL)                            /*!< ITM Base Address */
1546:Generated_Source\PSoC6\pdl\cmsis/include/core_cm4.h **** #define DWT_BASE            (0xE0001000UL)                            /*!< DWT Base Address */
1547:Generated_Source\PSoC6\pdl\cmsis/include/core_cm4.h **** #define TPI_BASE            (0xE0040000UL)                            /*!< TPI Base Address */
1548:Generated_Source\PSoC6\pdl\cmsis/include/core_cm4.h **** #define CoreDebug_BASE      (0xE000EDF0UL)                            /*!< Core Debug Base Address 
1549:Generated_Source\PSoC6\pdl\cmsis/include/core_cm4.h **** #define SysTick_BASE        (SCS_BASE +  0x0010UL)                    /*!< SysTick Base Address */
1550:Generated_Source\PSoC6\pdl\cmsis/include/core_cm4.h **** #define NVIC_BASE           (SCS_BASE +  0x0100UL)                    /*!< NVIC Base Address */
1551:Generated_Source\PSoC6\pdl\cmsis/include/core_cm4.h **** #define SCB_BASE            (SCS_BASE +  0x0D00UL)                    /*!< System Control Block Bas
1552:Generated_Source\PSoC6\pdl\cmsis/include/core_cm4.h **** 
1553:Generated_Source\PSoC6\pdl\cmsis/include/core_cm4.h **** #define SCnSCB              ((SCnSCB_Type    *)     SCS_BASE      )   /*!< System control Register 
1554:Generated_Source\PSoC6\pdl\cmsis/include/core_cm4.h **** #define SCB                 ((SCB_Type       *)     SCB_BASE      )   /*!< SCB configuration struct
1555:Generated_Source\PSoC6\pdl\cmsis/include/core_cm4.h **** #define SysTick             ((SysTick_Type   *)     SysTick_BASE  )   /*!< SysTick configuration st
1556:Generated_Source\PSoC6\pdl\cmsis/include/core_cm4.h **** #define NVIC                ((NVIC_Type      *)     NVIC_BASE     )   /*!< NVIC configuration struc
1557:Generated_Source\PSoC6\pdl\cmsis/include/core_cm4.h **** #define ITM                 ((ITM_Type       *)     ITM_BASE      )   /*!< ITM configuration struct
1558:Generated_Source\PSoC6\pdl\cmsis/include/core_cm4.h **** #define DWT                 ((DWT_Type       *)     DWT_BASE      )   /*!< DWT configuration struct
1559:Generated_Source\PSoC6\pdl\cmsis/include/core_cm4.h **** #define TPI                 ((TPI_Type       *)     TPI_BASE      )   /*!< TPI configuration struct
1560:Generated_Source\PSoC6\pdl\cmsis/include/core_cm4.h **** #define CoreDebug           ((CoreDebug_Type *)     CoreDebug_BASE)   /*!< Core Debug configuration
1561:Generated_Source\PSoC6\pdl\cmsis/include/core_cm4.h **** 
1562:Generated_Source\PSoC6\pdl\cmsis/include/core_cm4.h **** #if defined (__MPU_PRESENT) && (__MPU_PRESENT == 1U)
1563:Generated_Source\PSoC6\pdl\cmsis/include/core_cm4.h ****   #define MPU_BASE          (SCS_BASE +  0x0D90UL)                    /*!< Memory Protection Unit *
1564:Generated_Source\PSoC6\pdl\cmsis/include/core_cm4.h ****   #define MPU               ((MPU_Type       *)     MPU_BASE      )   /*!< Memory Protection Unit *
1565:Generated_Source\PSoC6\pdl\cmsis/include/core_cm4.h **** #endif
1566:Generated_Source\PSoC6\pdl\cmsis/include/core_cm4.h **** 
1567:Generated_Source\PSoC6\pdl\cmsis/include/core_cm4.h **** #define FPU_BASE            (SCS_BASE +  0x0F30UL)                    /*!< Floating Point Unit */
1568:Generated_Source\PSoC6\pdl\cmsis/include/core_cm4.h **** #define FPU                 ((FPU_Type       *)     FPU_BASE      )   /*!< Floating Point Unit */
1569:Generated_Source\PSoC6\pdl\cmsis/include/core_cm4.h **** 
1570:Generated_Source\PSoC6\pdl\cmsis/include/core_cm4.h **** /*@} */
ARM GAS  C:\Users\rober\AppData\Local\Temp\ccBCZTBX.s 			page 73


1571:Generated_Source\PSoC6\pdl\cmsis/include/core_cm4.h **** 
1572:Generated_Source\PSoC6\pdl\cmsis/include/core_cm4.h **** 
1573:Generated_Source\PSoC6\pdl\cmsis/include/core_cm4.h **** 
1574:Generated_Source\PSoC6\pdl\cmsis/include/core_cm4.h **** /*******************************************************************************
1575:Generated_Source\PSoC6\pdl\cmsis/include/core_cm4.h ****  *                Hardware Abstraction Layer
1576:Generated_Source\PSoC6\pdl\cmsis/include/core_cm4.h ****   Core Function Interface contains:
1577:Generated_Source\PSoC6\pdl\cmsis/include/core_cm4.h ****   - Core NVIC Functions
1578:Generated_Source\PSoC6\pdl\cmsis/include/core_cm4.h ****   - Core SysTick Functions
1579:Generated_Source\PSoC6\pdl\cmsis/include/core_cm4.h ****   - Core Debug Functions
1580:Generated_Source\PSoC6\pdl\cmsis/include/core_cm4.h ****   - Core Register Access Functions
1581:Generated_Source\PSoC6\pdl\cmsis/include/core_cm4.h ****  ******************************************************************************/
1582:Generated_Source\PSoC6\pdl\cmsis/include/core_cm4.h **** /**
1583:Generated_Source\PSoC6\pdl\cmsis/include/core_cm4.h ****   \defgroup CMSIS_Core_FunctionInterface Functions and Instructions Reference
1584:Generated_Source\PSoC6\pdl\cmsis/include/core_cm4.h **** */
1585:Generated_Source\PSoC6\pdl\cmsis/include/core_cm4.h **** 
1586:Generated_Source\PSoC6\pdl\cmsis/include/core_cm4.h **** 
1587:Generated_Source\PSoC6\pdl\cmsis/include/core_cm4.h **** 
1588:Generated_Source\PSoC6\pdl\cmsis/include/core_cm4.h **** /* ##########################   NVIC functions  #################################### */
1589:Generated_Source\PSoC6\pdl\cmsis/include/core_cm4.h **** /**
1590:Generated_Source\PSoC6\pdl\cmsis/include/core_cm4.h ****   \ingroup  CMSIS_Core_FunctionInterface
1591:Generated_Source\PSoC6\pdl\cmsis/include/core_cm4.h ****   \defgroup CMSIS_Core_NVICFunctions NVIC Functions
1592:Generated_Source\PSoC6\pdl\cmsis/include/core_cm4.h ****   \brief    Functions that manage interrupts and exceptions via the NVIC.
1593:Generated_Source\PSoC6\pdl\cmsis/include/core_cm4.h ****   @{
1594:Generated_Source\PSoC6\pdl\cmsis/include/core_cm4.h ****  */
1595:Generated_Source\PSoC6\pdl\cmsis/include/core_cm4.h **** 
1596:Generated_Source\PSoC6\pdl\cmsis/include/core_cm4.h **** #ifdef CMSIS_NVIC_VIRTUAL
1597:Generated_Source\PSoC6\pdl\cmsis/include/core_cm4.h ****   #ifndef CMSIS_NVIC_VIRTUAL_HEADER_FILE
1598:Generated_Source\PSoC6\pdl\cmsis/include/core_cm4.h ****     #define CMSIS_NVIC_VIRTUAL_HEADER_FILE "cmsis_nvic_virtual.h"
1599:Generated_Source\PSoC6\pdl\cmsis/include/core_cm4.h ****   #endif
1600:Generated_Source\PSoC6\pdl\cmsis/include/core_cm4.h ****   #include CMSIS_NVIC_VIRTUAL_HEADER_FILE
1601:Generated_Source\PSoC6\pdl\cmsis/include/core_cm4.h **** #else
1602:Generated_Source\PSoC6\pdl\cmsis/include/core_cm4.h ****   #define NVIC_SetPriorityGrouping    __NVIC_SetPriorityGrouping
1603:Generated_Source\PSoC6\pdl\cmsis/include/core_cm4.h ****   #define NVIC_GetPriorityGrouping    __NVIC_GetPriorityGrouping
1604:Generated_Source\PSoC6\pdl\cmsis/include/core_cm4.h ****   #define NVIC_EnableIRQ              __NVIC_EnableIRQ
1605:Generated_Source\PSoC6\pdl\cmsis/include/core_cm4.h ****   #define NVIC_GetEnableIRQ           __NVIC_GetEnableIRQ
1606:Generated_Source\PSoC6\pdl\cmsis/include/core_cm4.h ****   #define NVIC_DisableIRQ             __NVIC_DisableIRQ
1607:Generated_Source\PSoC6\pdl\cmsis/include/core_cm4.h ****   #define NVIC_GetPendingIRQ          __NVIC_GetPendingIRQ
1608:Generated_Source\PSoC6\pdl\cmsis/include/core_cm4.h ****   #define NVIC_SetPendingIRQ          __NVIC_SetPendingIRQ
1609:Generated_Source\PSoC6\pdl\cmsis/include/core_cm4.h ****   #define NVIC_ClearPendingIRQ        __NVIC_ClearPendingIRQ
1610:Generated_Source\PSoC6\pdl\cmsis/include/core_cm4.h ****   #define NVIC_GetActive              __NVIC_GetActive
1611:Generated_Source\PSoC6\pdl\cmsis/include/core_cm4.h ****   #define NVIC_SetPriority            __NVIC_SetPriority
1612:Generated_Source\PSoC6\pdl\cmsis/include/core_cm4.h ****   #define NVIC_GetPriority            __NVIC_GetPriority
1613:Generated_Source\PSoC6\pdl\cmsis/include/core_cm4.h ****   #define NVIC_SystemReset            __NVIC_SystemReset
1614:Generated_Source\PSoC6\pdl\cmsis/include/core_cm4.h **** #endif /* CMSIS_NVIC_VIRTUAL */
1615:Generated_Source\PSoC6\pdl\cmsis/include/core_cm4.h **** 
1616:Generated_Source\PSoC6\pdl\cmsis/include/core_cm4.h **** #ifdef CMSIS_VECTAB_VIRTUAL
1617:Generated_Source\PSoC6\pdl\cmsis/include/core_cm4.h ****   #ifndef CMSIS_VECTAB_VIRTUAL_HEADER_FILE
1618:Generated_Source\PSoC6\pdl\cmsis/include/core_cm4.h ****    #define CMSIS_VECTAB_VIRTUAL_HEADER_FILE "cmsis_vectab_virtual.h"
1619:Generated_Source\PSoC6\pdl\cmsis/include/core_cm4.h ****   #endif
1620:Generated_Source\PSoC6\pdl\cmsis/include/core_cm4.h ****   #include CMSIS_VECTAB_VIRTUAL_HEADER_FILE
1621:Generated_Source\PSoC6\pdl\cmsis/include/core_cm4.h **** #else
1622:Generated_Source\PSoC6\pdl\cmsis/include/core_cm4.h ****   #define NVIC_SetVector              __NVIC_SetVector
1623:Generated_Source\PSoC6\pdl\cmsis/include/core_cm4.h ****   #define NVIC_GetVector              __NVIC_GetVector
1624:Generated_Source\PSoC6\pdl\cmsis/include/core_cm4.h **** #endif  /* (CMSIS_VECTAB_VIRTUAL) */
1625:Generated_Source\PSoC6\pdl\cmsis/include/core_cm4.h **** 
1626:Generated_Source\PSoC6\pdl\cmsis/include/core_cm4.h **** #define NVIC_USER_IRQ_OFFSET          16
1627:Generated_Source\PSoC6\pdl\cmsis/include/core_cm4.h **** 
ARM GAS  C:\Users\rober\AppData\Local\Temp\ccBCZTBX.s 			page 74


1628:Generated_Source\PSoC6\pdl\cmsis/include/core_cm4.h **** 
1629:Generated_Source\PSoC6\pdl\cmsis/include/core_cm4.h **** 
1630:Generated_Source\PSoC6\pdl\cmsis/include/core_cm4.h **** /**
1631:Generated_Source\PSoC6\pdl\cmsis/include/core_cm4.h ****   \brief   Set Priority Grouping
1632:Generated_Source\PSoC6\pdl\cmsis/include/core_cm4.h ****   \details Sets the priority grouping field using the required unlock sequence.
1633:Generated_Source\PSoC6\pdl\cmsis/include/core_cm4.h ****            The parameter PriorityGroup is assigned to the field SCB->AIRCR [10:8] PRIGROUP field.
1634:Generated_Source\PSoC6\pdl\cmsis/include/core_cm4.h ****            Only values from 0..7 are used.
1635:Generated_Source\PSoC6\pdl\cmsis/include/core_cm4.h ****            In case of a conflict between priority grouping and available
1636:Generated_Source\PSoC6\pdl\cmsis/include/core_cm4.h ****            priority bits (__NVIC_PRIO_BITS), the smallest possible priority group is set.
1637:Generated_Source\PSoC6\pdl\cmsis/include/core_cm4.h ****   \param [in]      PriorityGroup  Priority grouping field.
1638:Generated_Source\PSoC6\pdl\cmsis/include/core_cm4.h ****  */
1639:Generated_Source\PSoC6\pdl\cmsis/include/core_cm4.h **** __STATIC_INLINE void __NVIC_SetPriorityGrouping(uint32_t PriorityGroup)
1640:Generated_Source\PSoC6\pdl\cmsis/include/core_cm4.h **** {
1641:Generated_Source\PSoC6\pdl\cmsis/include/core_cm4.h ****   uint32_t reg_value;
1642:Generated_Source\PSoC6\pdl\cmsis/include/core_cm4.h ****   uint32_t PriorityGroupTmp = (PriorityGroup & (uint32_t)0x07UL);             /* only values 0..7 a
1643:Generated_Source\PSoC6\pdl\cmsis/include/core_cm4.h **** 
1644:Generated_Source\PSoC6\pdl\cmsis/include/core_cm4.h ****   reg_value  =  SCB->AIRCR;                                                   /* read old register 
1645:Generated_Source\PSoC6\pdl\cmsis/include/core_cm4.h ****   reg_value &= ~((uint32_t)(SCB_AIRCR_VECTKEY_Msk | SCB_AIRCR_PRIGROUP_Msk)); /* clear bits to chan
1646:Generated_Source\PSoC6\pdl\cmsis/include/core_cm4.h ****   reg_value  =  (reg_value                                   |
1647:Generated_Source\PSoC6\pdl\cmsis/include/core_cm4.h ****                 ((uint32_t)0x5FAUL << SCB_AIRCR_VECTKEY_Pos) |
1648:Generated_Source\PSoC6\pdl\cmsis/include/core_cm4.h ****                 (PriorityGroupTmp << 8U)                      );              /* Insert write key a
1649:Generated_Source\PSoC6\pdl\cmsis/include/core_cm4.h ****   SCB->AIRCR =  reg_value;
1650:Generated_Source\PSoC6\pdl\cmsis/include/core_cm4.h **** }
1651:Generated_Source\PSoC6\pdl\cmsis/include/core_cm4.h **** 
1652:Generated_Source\PSoC6\pdl\cmsis/include/core_cm4.h **** 
1653:Generated_Source\PSoC6\pdl\cmsis/include/core_cm4.h **** /**
1654:Generated_Source\PSoC6\pdl\cmsis/include/core_cm4.h ****   \brief   Get Priority Grouping
1655:Generated_Source\PSoC6\pdl\cmsis/include/core_cm4.h ****   \details Reads the priority grouping field from the NVIC Interrupt Controller.
1656:Generated_Source\PSoC6\pdl\cmsis/include/core_cm4.h ****   \return                Priority grouping field (SCB->AIRCR [10:8] PRIGROUP field).
1657:Generated_Source\PSoC6\pdl\cmsis/include/core_cm4.h ****  */
1658:Generated_Source\PSoC6\pdl\cmsis/include/core_cm4.h **** __STATIC_INLINE uint32_t __NVIC_GetPriorityGrouping(void)
1659:Generated_Source\PSoC6\pdl\cmsis/include/core_cm4.h **** {
1660:Generated_Source\PSoC6\pdl\cmsis/include/core_cm4.h ****   return ((uint32_t)((SCB->AIRCR & SCB_AIRCR_PRIGROUP_Msk) >> SCB_AIRCR_PRIGROUP_Pos));
1661:Generated_Source\PSoC6\pdl\cmsis/include/core_cm4.h **** }
1662:Generated_Source\PSoC6\pdl\cmsis/include/core_cm4.h **** 
1663:Generated_Source\PSoC6\pdl\cmsis/include/core_cm4.h **** 
1664:Generated_Source\PSoC6\pdl\cmsis/include/core_cm4.h **** /**
1665:Generated_Source\PSoC6\pdl\cmsis/include/core_cm4.h ****   \brief   Enable Interrupt
1666:Generated_Source\PSoC6\pdl\cmsis/include/core_cm4.h ****   \details Enables a device specific interrupt in the NVIC interrupt controller.
1667:Generated_Source\PSoC6\pdl\cmsis/include/core_cm4.h ****   \param [in]      IRQn  Device specific interrupt number.
1668:Generated_Source\PSoC6\pdl\cmsis/include/core_cm4.h ****   \note    IRQn must not be negative.
1669:Generated_Source\PSoC6\pdl\cmsis/include/core_cm4.h ****  */
1670:Generated_Source\PSoC6\pdl\cmsis/include/core_cm4.h **** __STATIC_INLINE void __NVIC_EnableIRQ(IRQn_Type IRQn)
1671:Generated_Source\PSoC6\pdl\cmsis/include/core_cm4.h **** {
1672:Generated_Source\PSoC6\pdl\cmsis/include/core_cm4.h ****   if ((int32_t)(IRQn) >= 0)
1673:Generated_Source\PSoC6\pdl\cmsis/include/core_cm4.h ****   {
1674:Generated_Source\PSoC6\pdl\cmsis/include/core_cm4.h ****     NVIC->ISER[(((uint32_t)(int32_t)IRQn) >> 5UL)] = (uint32_t)(1UL << (((uint32_t)(int32_t)IRQn) &
1675:Generated_Source\PSoC6\pdl\cmsis/include/core_cm4.h ****   }
1676:Generated_Source\PSoC6\pdl\cmsis/include/core_cm4.h **** }
1677:Generated_Source\PSoC6\pdl\cmsis/include/core_cm4.h **** 
1678:Generated_Source\PSoC6\pdl\cmsis/include/core_cm4.h **** 
1679:Generated_Source\PSoC6\pdl\cmsis/include/core_cm4.h **** /**
1680:Generated_Source\PSoC6\pdl\cmsis/include/core_cm4.h ****   \brief   Get Interrupt Enable status
1681:Generated_Source\PSoC6\pdl\cmsis/include/core_cm4.h ****   \details Returns a device specific interrupt enable status from the NVIC interrupt controller.
1682:Generated_Source\PSoC6\pdl\cmsis/include/core_cm4.h ****   \param [in]      IRQn  Device specific interrupt number.
1683:Generated_Source\PSoC6\pdl\cmsis/include/core_cm4.h ****   \return             0  Interrupt is not enabled.
1684:Generated_Source\PSoC6\pdl\cmsis/include/core_cm4.h ****   \return             1  Interrupt is enabled.
ARM GAS  C:\Users\rober\AppData\Local\Temp\ccBCZTBX.s 			page 75


1685:Generated_Source\PSoC6\pdl\cmsis/include/core_cm4.h ****   \note    IRQn must not be negative.
1686:Generated_Source\PSoC6\pdl\cmsis/include/core_cm4.h ****  */
1687:Generated_Source\PSoC6\pdl\cmsis/include/core_cm4.h **** __STATIC_INLINE uint32_t __NVIC_GetEnableIRQ(IRQn_Type IRQn)
1688:Generated_Source\PSoC6\pdl\cmsis/include/core_cm4.h **** {
1689:Generated_Source\PSoC6\pdl\cmsis/include/core_cm4.h ****   if ((int32_t)(IRQn) >= 0)
1690:Generated_Source\PSoC6\pdl\cmsis/include/core_cm4.h ****   {
1691:Generated_Source\PSoC6\pdl\cmsis/include/core_cm4.h ****     return((uint32_t)(((NVIC->ISER[(((uint32_t)(int32_t)IRQn) >> 5UL)] & (1UL << (((uint32_t)(int32
1692:Generated_Source\PSoC6\pdl\cmsis/include/core_cm4.h ****   }
1693:Generated_Source\PSoC6\pdl\cmsis/include/core_cm4.h ****   else
1694:Generated_Source\PSoC6\pdl\cmsis/include/core_cm4.h ****   {
1695:Generated_Source\PSoC6\pdl\cmsis/include/core_cm4.h ****     return(0U);
1696:Generated_Source\PSoC6\pdl\cmsis/include/core_cm4.h ****   }
1697:Generated_Source\PSoC6\pdl\cmsis/include/core_cm4.h **** }
1698:Generated_Source\PSoC6\pdl\cmsis/include/core_cm4.h **** 
1699:Generated_Source\PSoC6\pdl\cmsis/include/core_cm4.h **** 
1700:Generated_Source\PSoC6\pdl\cmsis/include/core_cm4.h **** /**
1701:Generated_Source\PSoC6\pdl\cmsis/include/core_cm4.h ****   \brief   Disable Interrupt
1702:Generated_Source\PSoC6\pdl\cmsis/include/core_cm4.h ****   \details Disables a device specific interrupt in the NVIC interrupt controller.
1703:Generated_Source\PSoC6\pdl\cmsis/include/core_cm4.h ****   \param [in]      IRQn  Device specific interrupt number.
1704:Generated_Source\PSoC6\pdl\cmsis/include/core_cm4.h ****   \note    IRQn must not be negative.
1705:Generated_Source\PSoC6\pdl\cmsis/include/core_cm4.h ****  */
1706:Generated_Source\PSoC6\pdl\cmsis/include/core_cm4.h **** __STATIC_INLINE void __NVIC_DisableIRQ(IRQn_Type IRQn)
1707:Generated_Source\PSoC6\pdl\cmsis/include/core_cm4.h **** {
1708:Generated_Source\PSoC6\pdl\cmsis/include/core_cm4.h ****   if ((int32_t)(IRQn) >= 0)
1709:Generated_Source\PSoC6\pdl\cmsis/include/core_cm4.h ****   {
1710:Generated_Source\PSoC6\pdl\cmsis/include/core_cm4.h ****     NVIC->ICER[(((uint32_t)(int32_t)IRQn) >> 5UL)] = (uint32_t)(1UL << (((uint32_t)(int32_t)IRQn) &
1711:Generated_Source\PSoC6\pdl\cmsis/include/core_cm4.h ****     __DSB();
1712:Generated_Source\PSoC6\pdl\cmsis/include/core_cm4.h ****     __ISB();
1713:Generated_Source\PSoC6\pdl\cmsis/include/core_cm4.h ****   }
1714:Generated_Source\PSoC6\pdl\cmsis/include/core_cm4.h **** }
1715:Generated_Source\PSoC6\pdl\cmsis/include/core_cm4.h **** 
1716:Generated_Source\PSoC6\pdl\cmsis/include/core_cm4.h **** 
1717:Generated_Source\PSoC6\pdl\cmsis/include/core_cm4.h **** /**
1718:Generated_Source\PSoC6\pdl\cmsis/include/core_cm4.h ****   \brief   Get Pending Interrupt
1719:Generated_Source\PSoC6\pdl\cmsis/include/core_cm4.h ****   \details Reads the NVIC pending register and returns the pending bit for the specified device spe
1720:Generated_Source\PSoC6\pdl\cmsis/include/core_cm4.h ****   \param [in]      IRQn  Device specific interrupt number.
1721:Generated_Source\PSoC6\pdl\cmsis/include/core_cm4.h ****   \return             0  Interrupt status is not pending.
1722:Generated_Source\PSoC6\pdl\cmsis/include/core_cm4.h ****   \return             1  Interrupt status is pending.
1723:Generated_Source\PSoC6\pdl\cmsis/include/core_cm4.h ****   \note    IRQn must not be negative.
1724:Generated_Source\PSoC6\pdl\cmsis/include/core_cm4.h ****  */
1725:Generated_Source\PSoC6\pdl\cmsis/include/core_cm4.h **** __STATIC_INLINE uint32_t __NVIC_GetPendingIRQ(IRQn_Type IRQn)
1726:Generated_Source\PSoC6\pdl\cmsis/include/core_cm4.h **** {
1727:Generated_Source\PSoC6\pdl\cmsis/include/core_cm4.h ****   if ((int32_t)(IRQn) >= 0)
1728:Generated_Source\PSoC6\pdl\cmsis/include/core_cm4.h ****   {
1729:Generated_Source\PSoC6\pdl\cmsis/include/core_cm4.h ****     return((uint32_t)(((NVIC->ISPR[(((uint32_t)(int32_t)IRQn) >> 5UL)] & (1UL << (((uint32_t)(int32
1730:Generated_Source\PSoC6\pdl\cmsis/include/core_cm4.h ****   }
1731:Generated_Source\PSoC6\pdl\cmsis/include/core_cm4.h ****   else
1732:Generated_Source\PSoC6\pdl\cmsis/include/core_cm4.h ****   {
1733:Generated_Source\PSoC6\pdl\cmsis/include/core_cm4.h ****     return(0U);
1734:Generated_Source\PSoC6\pdl\cmsis/include/core_cm4.h ****   }
1735:Generated_Source\PSoC6\pdl\cmsis/include/core_cm4.h **** }
1736:Generated_Source\PSoC6\pdl\cmsis/include/core_cm4.h **** 
1737:Generated_Source\PSoC6\pdl\cmsis/include/core_cm4.h **** 
1738:Generated_Source\PSoC6\pdl\cmsis/include/core_cm4.h **** /**
1739:Generated_Source\PSoC6\pdl\cmsis/include/core_cm4.h ****   \brief   Set Pending Interrupt
1740:Generated_Source\PSoC6\pdl\cmsis/include/core_cm4.h ****   \details Sets the pending bit of a device specific interrupt in the NVIC pending register.
1741:Generated_Source\PSoC6\pdl\cmsis/include/core_cm4.h ****   \param [in]      IRQn  Device specific interrupt number.
ARM GAS  C:\Users\rober\AppData\Local\Temp\ccBCZTBX.s 			page 76


1742:Generated_Source\PSoC6\pdl\cmsis/include/core_cm4.h ****   \note    IRQn must not be negative.
1743:Generated_Source\PSoC6\pdl\cmsis/include/core_cm4.h ****  */
1744:Generated_Source\PSoC6\pdl\cmsis/include/core_cm4.h **** __STATIC_INLINE void __NVIC_SetPendingIRQ(IRQn_Type IRQn)
1745:Generated_Source\PSoC6\pdl\cmsis/include/core_cm4.h **** {
1746:Generated_Source\PSoC6\pdl\cmsis/include/core_cm4.h ****   if ((int32_t)(IRQn) >= 0)
1747:Generated_Source\PSoC6\pdl\cmsis/include/core_cm4.h ****   {
1748:Generated_Source\PSoC6\pdl\cmsis/include/core_cm4.h ****     NVIC->ISPR[(((uint32_t)(int32_t)IRQn) >> 5UL)] = (uint32_t)(1UL << (((uint32_t)(int32_t)IRQn) &
1749:Generated_Source\PSoC6\pdl\cmsis/include/core_cm4.h ****   }
1750:Generated_Source\PSoC6\pdl\cmsis/include/core_cm4.h **** }
1751:Generated_Source\PSoC6\pdl\cmsis/include/core_cm4.h **** 
1752:Generated_Source\PSoC6\pdl\cmsis/include/core_cm4.h **** 
1753:Generated_Source\PSoC6\pdl\cmsis/include/core_cm4.h **** /**
1754:Generated_Source\PSoC6\pdl\cmsis/include/core_cm4.h ****   \brief   Clear Pending Interrupt
1755:Generated_Source\PSoC6\pdl\cmsis/include/core_cm4.h ****   \details Clears the pending bit of a device specific interrupt in the NVIC pending register.
1756:Generated_Source\PSoC6\pdl\cmsis/include/core_cm4.h ****   \param [in]      IRQn  Device specific interrupt number.
1757:Generated_Source\PSoC6\pdl\cmsis/include/core_cm4.h ****   \note    IRQn must not be negative.
1758:Generated_Source\PSoC6\pdl\cmsis/include/core_cm4.h ****  */
1759:Generated_Source\PSoC6\pdl\cmsis/include/core_cm4.h **** __STATIC_INLINE void __NVIC_ClearPendingIRQ(IRQn_Type IRQn)
1760:Generated_Source\PSoC6\pdl\cmsis/include/core_cm4.h **** {
1761:Generated_Source\PSoC6\pdl\cmsis/include/core_cm4.h ****   if ((int32_t)(IRQn) >= 0)
 1079              		.loc 4 1761 0
 1080 0010 002B     		cmp	r3, #0
 1081 0012 08DB     		blt	.L71
1762:Generated_Source\PSoC6\pdl\cmsis/include/core_cm4.h ****   {
1763:Generated_Source\PSoC6\pdl\cmsis/include/core_cm4.h ****     NVIC->ICPR[(((uint32_t)(int32_t)IRQn) >> 5UL)] = (uint32_t)(1UL << (((uint32_t)(int32_t)IRQn) &
 1082              		.loc 4 1763 0
 1083 0014 5A09     		lsrs	r2, r3, #5
 1084 0016 03F01F00 		and	r0, r3, #31
 1085 001a 0121     		movs	r1, #1
 1086 001c 8140     		lsls	r1, r1, r0
 1087 001e 6032     		adds	r2, r2, #96
 1088 0020 0F48     		ldr	r0, .L74+8
 1089 0022 40F82210 		str	r1, [r0, r2, lsl #2]
 1090              	.L71:
 1091              	.LVL107:
 1092              	.LBE41:
 1093              	.LBE40:
 1094              	.LBB42:
 1095              	.LBB43:
1672:Generated_Source\PSoC6\pdl\cmsis/include/core_cm4.h ****   {
 1096              		.loc 4 1672 0
 1097 0026 002B     		cmp	r3, #0
 1098 0028 08DB     		blt	.L72
1674:Generated_Source\PSoC6\pdl\cmsis/include/core_cm4.h ****   }
 1099              		.loc 4 1674 0
 1100 002a 5909     		lsrs	r1, r3, #5
 1101 002c 03F01F03 		and	r3, r3, #31
 1102              	.LVL108:
 1103 0030 0122     		movs	r2, #1
 1104 0032 02FA03F3 		lsl	r3, r2, r3
 1105 0036 0A4A     		ldr	r2, .L74+8
 1106 0038 42F82130 		str	r3, [r2, r1, lsl #2]
 1107              	.L72:
 1108              	.LVL109:
 1109              	.LBE43:
 1110              	.LBE42:
 1111              	.LBB44:
ARM GAS  C:\Users\rober\AppData\Local\Temp\ccBCZTBX.s 			page 77


 1112              	.LBB45:
 1113              		.file 5 "Generated_Source\\PSoC6\\pdl\\cmsis/include/cmsis_gcc.h"
   1:Generated_Source\PSoC6\pdl\cmsis/include/cmsis_gcc.h **** /**************************************************************************//**
   2:Generated_Source\PSoC6\pdl\cmsis/include/cmsis_gcc.h ****  * @file     cmsis_gcc.h
   3:Generated_Source\PSoC6\pdl\cmsis/include/cmsis_gcc.h ****  * @brief    CMSIS compiler GCC header file
   4:Generated_Source\PSoC6\pdl\cmsis/include/cmsis_gcc.h ****  * @version  V5.0.1
   5:Generated_Source\PSoC6\pdl\cmsis/include/cmsis_gcc.h ****  * @date     02. February 2017
   6:Generated_Source\PSoC6\pdl\cmsis/include/cmsis_gcc.h ****  ******************************************************************************/
   7:Generated_Source\PSoC6\pdl\cmsis/include/cmsis_gcc.h **** /*
   8:Generated_Source\PSoC6\pdl\cmsis/include/cmsis_gcc.h ****  * Copyright (c) 2009-2017 ARM Limited. All rights reserved.
   9:Generated_Source\PSoC6\pdl\cmsis/include/cmsis_gcc.h ****  *
  10:Generated_Source\PSoC6\pdl\cmsis/include/cmsis_gcc.h ****  * SPDX-License-Identifier: Apache-2.0
  11:Generated_Source\PSoC6\pdl\cmsis/include/cmsis_gcc.h ****  *
  12:Generated_Source\PSoC6\pdl\cmsis/include/cmsis_gcc.h ****  * Licensed under the Apache License, Version 2.0 (the License); you may
  13:Generated_Source\PSoC6\pdl\cmsis/include/cmsis_gcc.h ****  * not use this file except in compliance with the License.
  14:Generated_Source\PSoC6\pdl\cmsis/include/cmsis_gcc.h ****  * You may obtain a copy of the License at
  15:Generated_Source\PSoC6\pdl\cmsis/include/cmsis_gcc.h ****  *
  16:Generated_Source\PSoC6\pdl\cmsis/include/cmsis_gcc.h ****  * www.apache.org/licenses/LICENSE-2.0
  17:Generated_Source\PSoC6\pdl\cmsis/include/cmsis_gcc.h ****  *
  18:Generated_Source\PSoC6\pdl\cmsis/include/cmsis_gcc.h ****  * Unless required by applicable law or agreed to in writing, software
  19:Generated_Source\PSoC6\pdl\cmsis/include/cmsis_gcc.h ****  * distributed under the License is distributed on an AS IS BASIS, WITHOUT
  20:Generated_Source\PSoC6\pdl\cmsis/include/cmsis_gcc.h ****  * WARRANTIES OR CONDITIONS OF ANY KIND, either express or implied.
  21:Generated_Source\PSoC6\pdl\cmsis/include/cmsis_gcc.h ****  * See the License for the specific language governing permissions and
  22:Generated_Source\PSoC6\pdl\cmsis/include/cmsis_gcc.h ****  * limitations under the License.
  23:Generated_Source\PSoC6\pdl\cmsis/include/cmsis_gcc.h ****  */
  24:Generated_Source\PSoC6\pdl\cmsis/include/cmsis_gcc.h **** 
  25:Generated_Source\PSoC6\pdl\cmsis/include/cmsis_gcc.h **** #ifndef __CMSIS_GCC_H
  26:Generated_Source\PSoC6\pdl\cmsis/include/cmsis_gcc.h **** #define __CMSIS_GCC_H
  27:Generated_Source\PSoC6\pdl\cmsis/include/cmsis_gcc.h **** 
  28:Generated_Source\PSoC6\pdl\cmsis/include/cmsis_gcc.h **** /* ignore some GCC warnings */
  29:Generated_Source\PSoC6\pdl\cmsis/include/cmsis_gcc.h **** #pragma GCC diagnostic push
  30:Generated_Source\PSoC6\pdl\cmsis/include/cmsis_gcc.h **** #pragma GCC diagnostic ignored "-Wsign-conversion"
  31:Generated_Source\PSoC6\pdl\cmsis/include/cmsis_gcc.h **** #pragma GCC diagnostic ignored "-Wconversion"
  32:Generated_Source\PSoC6\pdl\cmsis/include/cmsis_gcc.h **** #pragma GCC diagnostic ignored "-Wunused-parameter"
  33:Generated_Source\PSoC6\pdl\cmsis/include/cmsis_gcc.h **** 
  34:Generated_Source\PSoC6\pdl\cmsis/include/cmsis_gcc.h **** /* CMSIS compiler specific defines */
  35:Generated_Source\PSoC6\pdl\cmsis/include/cmsis_gcc.h **** #ifndef   __ASM
  36:Generated_Source\PSoC6\pdl\cmsis/include/cmsis_gcc.h ****   #define __ASM                     __asm
  37:Generated_Source\PSoC6\pdl\cmsis/include/cmsis_gcc.h **** #endif
  38:Generated_Source\PSoC6\pdl\cmsis/include/cmsis_gcc.h **** #ifndef   __INLINE
  39:Generated_Source\PSoC6\pdl\cmsis/include/cmsis_gcc.h ****   #define __INLINE                  inline
  40:Generated_Source\PSoC6\pdl\cmsis/include/cmsis_gcc.h **** #endif
  41:Generated_Source\PSoC6\pdl\cmsis/include/cmsis_gcc.h **** #ifndef   __STATIC_INLINE
  42:Generated_Source\PSoC6\pdl\cmsis/include/cmsis_gcc.h ****   #define __STATIC_INLINE           static inline
  43:Generated_Source\PSoC6\pdl\cmsis/include/cmsis_gcc.h **** #endif
  44:Generated_Source\PSoC6\pdl\cmsis/include/cmsis_gcc.h **** #ifndef   __NO_RETURN
  45:Generated_Source\PSoC6\pdl\cmsis/include/cmsis_gcc.h ****   #define __NO_RETURN               __attribute__((noreturn))
  46:Generated_Source\PSoC6\pdl\cmsis/include/cmsis_gcc.h **** #endif
  47:Generated_Source\PSoC6\pdl\cmsis/include/cmsis_gcc.h **** #ifndef   __USED
  48:Generated_Source\PSoC6\pdl\cmsis/include/cmsis_gcc.h ****   #define __USED                    __attribute__((used))
  49:Generated_Source\PSoC6\pdl\cmsis/include/cmsis_gcc.h **** #endif
  50:Generated_Source\PSoC6\pdl\cmsis/include/cmsis_gcc.h **** #ifndef   __WEAK
  51:Generated_Source\PSoC6\pdl\cmsis/include/cmsis_gcc.h ****   #define __WEAK                    __attribute__((weak))
  52:Generated_Source\PSoC6\pdl\cmsis/include/cmsis_gcc.h **** #endif
  53:Generated_Source\PSoC6\pdl\cmsis/include/cmsis_gcc.h **** #ifndef   __UNALIGNED_UINT32
  54:Generated_Source\PSoC6\pdl\cmsis/include/cmsis_gcc.h **** #pragma GCC diagnostic push
  55:Generated_Source\PSoC6\pdl\cmsis/include/cmsis_gcc.h **** #pragma GCC diagnostic ignored "-Wpacked"
ARM GAS  C:\Users\rober\AppData\Local\Temp\ccBCZTBX.s 			page 78


  56:Generated_Source\PSoC6\pdl\cmsis/include/cmsis_gcc.h **** #pragma GCC diagnostic ignored "-Wattributes"
  57:Generated_Source\PSoC6\pdl\cmsis/include/cmsis_gcc.h ****   struct __attribute__((packed)) T_UINT32 { uint32_t v; };
  58:Generated_Source\PSoC6\pdl\cmsis/include/cmsis_gcc.h **** #pragma GCC diagnostic pop
  59:Generated_Source\PSoC6\pdl\cmsis/include/cmsis_gcc.h ****   #define __UNALIGNED_UINT32(x)     (((struct T_UINT32 *)(x))->v)
  60:Generated_Source\PSoC6\pdl\cmsis/include/cmsis_gcc.h **** #endif
  61:Generated_Source\PSoC6\pdl\cmsis/include/cmsis_gcc.h **** #ifndef   __ALIGNED
  62:Generated_Source\PSoC6\pdl\cmsis/include/cmsis_gcc.h ****   #define __ALIGNED(x)              __attribute__((aligned(x)))
  63:Generated_Source\PSoC6\pdl\cmsis/include/cmsis_gcc.h **** #endif
  64:Generated_Source\PSoC6\pdl\cmsis/include/cmsis_gcc.h **** #ifndef   __PACKED
  65:Generated_Source\PSoC6\pdl\cmsis/include/cmsis_gcc.h ****   #define __PACKED                  __attribute__((packed, aligned(1)))
  66:Generated_Source\PSoC6\pdl\cmsis/include/cmsis_gcc.h **** #endif
  67:Generated_Source\PSoC6\pdl\cmsis/include/cmsis_gcc.h **** #ifndef   __PACKED_STRUCT
  68:Generated_Source\PSoC6\pdl\cmsis/include/cmsis_gcc.h ****   #define __PACKED_STRUCT           struct __attribute__((packed, aligned(1)))
  69:Generated_Source\PSoC6\pdl\cmsis/include/cmsis_gcc.h **** #endif
  70:Generated_Source\PSoC6\pdl\cmsis/include/cmsis_gcc.h **** 
  71:Generated_Source\PSoC6\pdl\cmsis/include/cmsis_gcc.h **** 
  72:Generated_Source\PSoC6\pdl\cmsis/include/cmsis_gcc.h **** /* ###########################  Core Function Access  ########################### */
  73:Generated_Source\PSoC6\pdl\cmsis/include/cmsis_gcc.h **** /** \ingroup  CMSIS_Core_FunctionInterface
  74:Generated_Source\PSoC6\pdl\cmsis/include/cmsis_gcc.h ****     \defgroup CMSIS_Core_RegAccFunctions CMSIS Core Register Access Functions
  75:Generated_Source\PSoC6\pdl\cmsis/include/cmsis_gcc.h ****   @{
  76:Generated_Source\PSoC6\pdl\cmsis/include/cmsis_gcc.h ****  */
  77:Generated_Source\PSoC6\pdl\cmsis/include/cmsis_gcc.h **** 
  78:Generated_Source\PSoC6\pdl\cmsis/include/cmsis_gcc.h **** /**
  79:Generated_Source\PSoC6\pdl\cmsis/include/cmsis_gcc.h ****   \brief   Enable IRQ Interrupts
  80:Generated_Source\PSoC6\pdl\cmsis/include/cmsis_gcc.h ****   \details Enables IRQ interrupts by clearing the I-bit in the CPSR.
  81:Generated_Source\PSoC6\pdl\cmsis/include/cmsis_gcc.h ****            Can only be executed in Privileged modes.
  82:Generated_Source\PSoC6\pdl\cmsis/include/cmsis_gcc.h ****  */
  83:Generated_Source\PSoC6\pdl\cmsis/include/cmsis_gcc.h **** __attribute__((always_inline)) __STATIC_INLINE void __enable_irq(void)
  84:Generated_Source\PSoC6\pdl\cmsis/include/cmsis_gcc.h **** {
  85:Generated_Source\PSoC6\pdl\cmsis/include/cmsis_gcc.h ****   __ASM volatile ("cpsie i" : : : "memory");
 1114              		.loc 5 85 0
 1115              		.syntax unified
 1116              	@ 85 "Generated_Source\PSoC6\pdl\cmsis/include/cmsis_gcc.h" 1
 1117 003c 62B6     		cpsie i
 1118              	@ 0 "" 2
 1119              		.thumb
 1120              		.syntax unified
 1121              	.LBE45:
 1122              	.LBE44:
 468:main_cm4.c    ****     NVIC_EnableIRQ(isrTimer_cfg.intrSrc); /* Enable the core interrupt */
 469:main_cm4.c    ****     __enable_irq(); /* Enable global interrupts. */
 470:main_cm4.c    ****     
 471:main_cm4.c    ****     /* Start the TCPWM component in timer/counter mode. The return value of the
 472:main_cm4.c    ****      * function indicates whether the arguments are valid or not. It is not used
 473:main_cm4.c    ****      * here for simplicity. */
 474:main_cm4.c    ****     (void)Cy_TCPWM_Counter_Init(Timer_HW, Timer_CNT_NUM, &Timer_config);
 1123              		.loc 1 474 0
 1124 003e 094C     		ldr	r4, .L74+12
 1125 0040 094A     		ldr	r2, .L74+16
 1126 0042 0121     		movs	r1, #1
 1127 0044 2046     		mov	r0, r4
 1128 0046 FFF7FEFF 		bl	Cy_TCPWM_Counter_Init
 1129              	.LVL110:
 1130              	.LBB46:
 1131              	.LBB47:
 379:Generated_Source\PSoC6\pdl\drivers/peripheral/tcpwm/cy_tcpwm.h **** }
 1132              		.loc 2 379 0
ARM GAS  C:\Users\rober\AppData\Local\Temp\ccBCZTBX.s 			page 79


 1133 004a 0223     		movs	r3, #2
 1134 004c A360     		str	r3, [r4, #8]
 1135              	.LVL111:
 1136              	.LBE47:
 1137              	.LBE46:
 1138              	.LBB48:
 1139              	.LBB49:
 1140              		.file 6 "Generated_Source\\PSoC6\\pdl\\drivers/peripheral/tcpwm/cy_tcpwm_counter.h"
   1:Generated_Source\PSoC6\pdl\drivers/peripheral/tcpwm/cy_tcpwm_counter.h **** /***************************************************************************//**
   2:Generated_Source\PSoC6\pdl\drivers/peripheral/tcpwm/cy_tcpwm_counter.h **** * \file cy_tcpwm_counter.h
   3:Generated_Source\PSoC6\pdl\drivers/peripheral/tcpwm/cy_tcpwm_counter.h **** * \version 1.0.1
   4:Generated_Source\PSoC6\pdl\drivers/peripheral/tcpwm/cy_tcpwm_counter.h **** *
   5:Generated_Source\PSoC6\pdl\drivers/peripheral/tcpwm/cy_tcpwm_counter.h **** * \brief
   6:Generated_Source\PSoC6\pdl\drivers/peripheral/tcpwm/cy_tcpwm_counter.h **** * The header file of the TCPWM Timer Counter driver.
   7:Generated_Source\PSoC6\pdl\drivers/peripheral/tcpwm/cy_tcpwm_counter.h **** *
   8:Generated_Source\PSoC6\pdl\drivers/peripheral/tcpwm/cy_tcpwm_counter.h **** ********************************************************************************
   9:Generated_Source\PSoC6\pdl\drivers/peripheral/tcpwm/cy_tcpwm_counter.h **** * \copyright
  10:Generated_Source\PSoC6\pdl\drivers/peripheral/tcpwm/cy_tcpwm_counter.h **** * Copyright 2016-2018, Cypress Semiconductor Corporation. All rights reserved.
  11:Generated_Source\PSoC6\pdl\drivers/peripheral/tcpwm/cy_tcpwm_counter.h **** * You may use this file only in accordance with the license, terms, conditions,
  12:Generated_Source\PSoC6\pdl\drivers/peripheral/tcpwm/cy_tcpwm_counter.h **** * disclaimers, and limitations in the end user license agreement accompanying
  13:Generated_Source\PSoC6\pdl\drivers/peripheral/tcpwm/cy_tcpwm_counter.h **** * the software package with which this file was provided.
  14:Generated_Source\PSoC6\pdl\drivers/peripheral/tcpwm/cy_tcpwm_counter.h **** *******************************************************************************/
  15:Generated_Source\PSoC6\pdl\drivers/peripheral/tcpwm/cy_tcpwm_counter.h **** 
  16:Generated_Source\PSoC6\pdl\drivers/peripheral/tcpwm/cy_tcpwm_counter.h **** #if !defined(CY_TCPWM_COUNTER_H)
  17:Generated_Source\PSoC6\pdl\drivers/peripheral/tcpwm/cy_tcpwm_counter.h **** #define CY_TCPWM_COUNTER_H
  18:Generated_Source\PSoC6\pdl\drivers/peripheral/tcpwm/cy_tcpwm_counter.h **** 
  19:Generated_Source\PSoC6\pdl\drivers/peripheral/tcpwm/cy_tcpwm_counter.h **** #include "cy_tcpwm.h"
  20:Generated_Source\PSoC6\pdl\drivers/peripheral/tcpwm/cy_tcpwm_counter.h **** 
  21:Generated_Source\PSoC6\pdl\drivers/peripheral/tcpwm/cy_tcpwm_counter.h **** #if defined(__cplusplus)
  22:Generated_Source\PSoC6\pdl\drivers/peripheral/tcpwm/cy_tcpwm_counter.h **** extern "C" {
  23:Generated_Source\PSoC6\pdl\drivers/peripheral/tcpwm/cy_tcpwm_counter.h **** #endif
  24:Generated_Source\PSoC6\pdl\drivers/peripheral/tcpwm/cy_tcpwm_counter.h **** 
  25:Generated_Source\PSoC6\pdl\drivers/peripheral/tcpwm/cy_tcpwm_counter.h **** /**
  26:Generated_Source\PSoC6\pdl\drivers/peripheral/tcpwm/cy_tcpwm_counter.h **** * \addtogroup group_tcpwm_counter
  27:Generated_Source\PSoC6\pdl\drivers/peripheral/tcpwm/cy_tcpwm_counter.h **** * \{
  28:Generated_Source\PSoC6\pdl\drivers/peripheral/tcpwm/cy_tcpwm_counter.h **** * Driver API for Timer/Counter.
  29:Generated_Source\PSoC6\pdl\drivers/peripheral/tcpwm/cy_tcpwm_counter.h **** */
  30:Generated_Source\PSoC6\pdl\drivers/peripheral/tcpwm/cy_tcpwm_counter.h **** 
  31:Generated_Source\PSoC6\pdl\drivers/peripheral/tcpwm/cy_tcpwm_counter.h **** /**
  32:Generated_Source\PSoC6\pdl\drivers/peripheral/tcpwm/cy_tcpwm_counter.h **** * \defgroup group_tcpwm_macros_counter          Macros
  33:Generated_Source\PSoC6\pdl\drivers/peripheral/tcpwm/cy_tcpwm_counter.h **** * \defgroup group_tcpwm_functions_counter       Functions
  34:Generated_Source\PSoC6\pdl\drivers/peripheral/tcpwm/cy_tcpwm_counter.h **** * \defgroup group_tcpwm_data_structures_counter Data Structures
  35:Generated_Source\PSoC6\pdl\drivers/peripheral/tcpwm/cy_tcpwm_counter.h **** * \} */
  36:Generated_Source\PSoC6\pdl\drivers/peripheral/tcpwm/cy_tcpwm_counter.h **** 
  37:Generated_Source\PSoC6\pdl\drivers/peripheral/tcpwm/cy_tcpwm_counter.h **** /**
  38:Generated_Source\PSoC6\pdl\drivers/peripheral/tcpwm/cy_tcpwm_counter.h **** * \addtogroup group_tcpwm_data_structures_counter
  39:Generated_Source\PSoC6\pdl\drivers/peripheral/tcpwm/cy_tcpwm_counter.h **** * \{
  40:Generated_Source\PSoC6\pdl\drivers/peripheral/tcpwm/cy_tcpwm_counter.h **** */
  41:Generated_Source\PSoC6\pdl\drivers/peripheral/tcpwm/cy_tcpwm_counter.h **** 
  42:Generated_Source\PSoC6\pdl\drivers/peripheral/tcpwm/cy_tcpwm_counter.h **** /** Counter Timer configuration structure */
  43:Generated_Source\PSoC6\pdl\drivers/peripheral/tcpwm/cy_tcpwm_counter.h **** typedef struct cy_stc_tcpwm_counter_config
  44:Generated_Source\PSoC6\pdl\drivers/peripheral/tcpwm/cy_tcpwm_counter.h **** {
  45:Generated_Source\PSoC6\pdl\drivers/peripheral/tcpwm/cy_tcpwm_counter.h ****     uint32_t    period;             /**< Sets the period of the counter */
  46:Generated_Source\PSoC6\pdl\drivers/peripheral/tcpwm/cy_tcpwm_counter.h ****     /** Sets the clock prescaler inside the TCWPM block. See \ref group_tcpwm_counter_clk_prescaler
  47:Generated_Source\PSoC6\pdl\drivers/peripheral/tcpwm/cy_tcpwm_counter.h ****     uint32_t    clockPrescaler;     
  48:Generated_Source\PSoC6\pdl\drivers/peripheral/tcpwm/cy_tcpwm_counter.h ****     uint32_t    runMode;            /**< Sets the Counter Timer Run mode. See \ref group_tcpwm_coun
  49:Generated_Source\PSoC6\pdl\drivers/peripheral/tcpwm/cy_tcpwm_counter.h ****     uint32_t    countDirection;     /**< Sets the counter direction. See \ref group_tcpwm_counter_d
ARM GAS  C:\Users\rober\AppData\Local\Temp\ccBCZTBX.s 			page 80


  50:Generated_Source\PSoC6\pdl\drivers/peripheral/tcpwm/cy_tcpwm_counter.h ****     /** The counter can either compare or capture a value. See \ref group_tcpwm_counter_compare_cap
  51:Generated_Source\PSoC6\pdl\drivers/peripheral/tcpwm/cy_tcpwm_counter.h ****     uint32_t    compareOrCapture;   
  52:Generated_Source\PSoC6\pdl\drivers/peripheral/tcpwm/cy_tcpwm_counter.h ****     uint32_t    compare0;           /**< Sets the value for Compare0*/
  53:Generated_Source\PSoC6\pdl\drivers/peripheral/tcpwm/cy_tcpwm_counter.h ****     uint32_t    compare1;           /**< Sets the value for Compare1*/
  54:Generated_Source\PSoC6\pdl\drivers/peripheral/tcpwm/cy_tcpwm_counter.h ****     bool        enableCompareSwap;  /**< If enabled, the compare values are swapped each time the c
  55:Generated_Source\PSoC6\pdl\drivers/peripheral/tcpwm/cy_tcpwm_counter.h ****     /** Enabled an interrupt on the terminal count, capture or compare. See \ref group_tcpwm_interr
  56:Generated_Source\PSoC6\pdl\drivers/peripheral/tcpwm/cy_tcpwm_counter.h ****     uint32_t    interruptSources;
  57:Generated_Source\PSoC6\pdl\drivers/peripheral/tcpwm/cy_tcpwm_counter.h ****     uint32_t    captureInputMode;   /**< Configures how the capture input behaves. See \ref group_t
  58:Generated_Source\PSoC6\pdl\drivers/peripheral/tcpwm/cy_tcpwm_counter.h ****     /** Selects which input the capture uses, the inputs are device-specific. See \ref group_tcpwm_
  59:Generated_Source\PSoC6\pdl\drivers/peripheral/tcpwm/cy_tcpwm_counter.h ****     uint32_t    captureInput;
  60:Generated_Source\PSoC6\pdl\drivers/peripheral/tcpwm/cy_tcpwm_counter.h ****     uint32_t    reloadInputMode;    /**< Configures how the reload input behaves. See \ref group_tc
  61:Generated_Source\PSoC6\pdl\drivers/peripheral/tcpwm/cy_tcpwm_counter.h ****     /** Selects which input the reload uses, the inputs are device-specific. See \ref group_tcpwm_i
  62:Generated_Source\PSoC6\pdl\drivers/peripheral/tcpwm/cy_tcpwm_counter.h ****     uint32_t    reloadInput;
  63:Generated_Source\PSoC6\pdl\drivers/peripheral/tcpwm/cy_tcpwm_counter.h ****     uint32_t    startInputMode;     /**< Configures how the start input behaves. See \ref group_tcp
  64:Generated_Source\PSoC6\pdl\drivers/peripheral/tcpwm/cy_tcpwm_counter.h ****     /** Selects which input the start uses, the inputs are device-specific. See \ref group_tcpwm_in
  65:Generated_Source\PSoC6\pdl\drivers/peripheral/tcpwm/cy_tcpwm_counter.h ****     uint32_t    startInput;
  66:Generated_Source\PSoC6\pdl\drivers/peripheral/tcpwm/cy_tcpwm_counter.h ****     uint32_t    stopInputMode;      /**< Configures how the stop input behaves. See \ref group_tcpw
  67:Generated_Source\PSoC6\pdl\drivers/peripheral/tcpwm/cy_tcpwm_counter.h ****     /** Selects which input the stop uses, the inputs are device-specific. See \ref group_tcpwm_inp
  68:Generated_Source\PSoC6\pdl\drivers/peripheral/tcpwm/cy_tcpwm_counter.h ****     uint32_t    stopInput;
  69:Generated_Source\PSoC6\pdl\drivers/peripheral/tcpwm/cy_tcpwm_counter.h ****     uint32_t    countInputMode;     /**< Configures how the count input behaves. See \ref group_tcp
  70:Generated_Source\PSoC6\pdl\drivers/peripheral/tcpwm/cy_tcpwm_counter.h ****     /** Selects which input the count uses, the inputs are device-specific. See \ref group_tcpwm_in
  71:Generated_Source\PSoC6\pdl\drivers/peripheral/tcpwm/cy_tcpwm_counter.h ****     uint32_t    countInput;
  72:Generated_Source\PSoC6\pdl\drivers/peripheral/tcpwm/cy_tcpwm_counter.h **** }cy_stc_tcpwm_counter_config_t;
  73:Generated_Source\PSoC6\pdl\drivers/peripheral/tcpwm/cy_tcpwm_counter.h **** /** \} group_tcpwm_data_structures_counter */
  74:Generated_Source\PSoC6\pdl\drivers/peripheral/tcpwm/cy_tcpwm_counter.h **** 
  75:Generated_Source\PSoC6\pdl\drivers/peripheral/tcpwm/cy_tcpwm_counter.h **** /**
  76:Generated_Source\PSoC6\pdl\drivers/peripheral/tcpwm/cy_tcpwm_counter.h **** * \addtogroup group_tcpwm_macros_counter
  77:Generated_Source\PSoC6\pdl\drivers/peripheral/tcpwm/cy_tcpwm_counter.h **** * \{
  78:Generated_Source\PSoC6\pdl\drivers/peripheral/tcpwm/cy_tcpwm_counter.h **** * \defgroup group_tcpwm_counter_run_modes Counter Run Modes
  79:Generated_Source\PSoC6\pdl\drivers/peripheral/tcpwm/cy_tcpwm_counter.h **** * \{
  80:Generated_Source\PSoC6\pdl\drivers/peripheral/tcpwm/cy_tcpwm_counter.h **** * Run modes for the counter timer.
  81:Generated_Source\PSoC6\pdl\drivers/peripheral/tcpwm/cy_tcpwm_counter.h **** */
  82:Generated_Source\PSoC6\pdl\drivers/peripheral/tcpwm/cy_tcpwm_counter.h **** #define CY_TCPWM_COUNTER_ONESHOT                (1U)    /**< Counter runs once and then stops */
  83:Generated_Source\PSoC6\pdl\drivers/peripheral/tcpwm/cy_tcpwm_counter.h **** #define CY_TCPWM_COUNTER_CONTINUOUS             (0U)    /**< Counter runs forever */
  84:Generated_Source\PSoC6\pdl\drivers/peripheral/tcpwm/cy_tcpwm_counter.h **** /** \} group_tcpwm_counter_run_modes */
  85:Generated_Source\PSoC6\pdl\drivers/peripheral/tcpwm/cy_tcpwm_counter.h **** 
  86:Generated_Source\PSoC6\pdl\drivers/peripheral/tcpwm/cy_tcpwm_counter.h **** /** \defgroup group_tcpwm_counter_direction Counter Direction
  87:Generated_Source\PSoC6\pdl\drivers/peripheral/tcpwm/cy_tcpwm_counter.h **** * The counter directions.
  88:Generated_Source\PSoC6\pdl\drivers/peripheral/tcpwm/cy_tcpwm_counter.h **** * \{
  89:Generated_Source\PSoC6\pdl\drivers/peripheral/tcpwm/cy_tcpwm_counter.h **** */
  90:Generated_Source\PSoC6\pdl\drivers/peripheral/tcpwm/cy_tcpwm_counter.h **** #define CY_TCPWM_COUNTER_COUNT_UP               (0U)    /**< Counter counts up */
  91:Generated_Source\PSoC6\pdl\drivers/peripheral/tcpwm/cy_tcpwm_counter.h **** #define CY_TCPWM_COUNTER_COUNT_DOWN             (1U)    /**< Counter counts down */
  92:Generated_Source\PSoC6\pdl\drivers/peripheral/tcpwm/cy_tcpwm_counter.h **** /** Counter counts up and down terminal count only occurs on underflow. */
  93:Generated_Source\PSoC6\pdl\drivers/peripheral/tcpwm/cy_tcpwm_counter.h **** #define CY_TCPWM_COUNTER_COUNT_UP_DOWN_1        (2U)
  94:Generated_Source\PSoC6\pdl\drivers/peripheral/tcpwm/cy_tcpwm_counter.h **** /** Counter counts up and down terminal count occurs on both overflow and underflow. */
  95:Generated_Source\PSoC6\pdl\drivers/peripheral/tcpwm/cy_tcpwm_counter.h **** #define CY_TCPWM_COUNTER_COUNT_UP_DOWN_2        (3U)
  96:Generated_Source\PSoC6\pdl\drivers/peripheral/tcpwm/cy_tcpwm_counter.h **** /** \} group_tcpwm_counter_direction */
  97:Generated_Source\PSoC6\pdl\drivers/peripheral/tcpwm/cy_tcpwm_counter.h **** 
  98:Generated_Source\PSoC6\pdl\drivers/peripheral/tcpwm/cy_tcpwm_counter.h **** /** \defgroup group_tcpwm_counter_clk_prescalers Counter CLK Prescalers
  99:Generated_Source\PSoC6\pdl\drivers/peripheral/tcpwm/cy_tcpwm_counter.h **** * \{
 100:Generated_Source\PSoC6\pdl\drivers/peripheral/tcpwm/cy_tcpwm_counter.h **** * The clock prescaler values.
 101:Generated_Source\PSoC6\pdl\drivers/peripheral/tcpwm/cy_tcpwm_counter.h **** */
 102:Generated_Source\PSoC6\pdl\drivers/peripheral/tcpwm/cy_tcpwm_counter.h **** #define CY_TCPWM_COUNTER_PRESCALER_DIVBY_1      (0U) /**< Divide by 1 */
 103:Generated_Source\PSoC6\pdl\drivers/peripheral/tcpwm/cy_tcpwm_counter.h **** #define CY_TCPWM_COUNTER_PRESCALER_DIVBY_2      (1U) /**< Divide by 2 */
 104:Generated_Source\PSoC6\pdl\drivers/peripheral/tcpwm/cy_tcpwm_counter.h **** #define CY_TCPWM_COUNTER_PRESCALER_DIVBY_4      (2U) /**< Divide by 4 */
 105:Generated_Source\PSoC6\pdl\drivers/peripheral/tcpwm/cy_tcpwm_counter.h **** #define CY_TCPWM_COUNTER_PRESCALER_DIVBY_8      (3U) /**< Divide by 8 */
 106:Generated_Source\PSoC6\pdl\drivers/peripheral/tcpwm/cy_tcpwm_counter.h **** #define CY_TCPWM_COUNTER_PRESCALER_DIVBY_16     (4U) /**< Divide by 16 */
ARM GAS  C:\Users\rober\AppData\Local\Temp\ccBCZTBX.s 			page 81


 107:Generated_Source\PSoC6\pdl\drivers/peripheral/tcpwm/cy_tcpwm_counter.h **** #define CY_TCPWM_COUNTER_PRESCALER_DIVBY_32     (5U) /**< Divide by 32 */
 108:Generated_Source\PSoC6\pdl\drivers/peripheral/tcpwm/cy_tcpwm_counter.h **** #define CY_TCPWM_COUNTER_PRESCALER_DIVBY_64     (6U) /**< Divide by 64 */
 109:Generated_Source\PSoC6\pdl\drivers/peripheral/tcpwm/cy_tcpwm_counter.h **** #define CY_TCPWM_COUNTER_PRESCALER_DIVBY_128    (7U) /**< Divide by 128 */
 110:Generated_Source\PSoC6\pdl\drivers/peripheral/tcpwm/cy_tcpwm_counter.h **** /** \} group_tcpwm_counter_clk_prescalers */
 111:Generated_Source\PSoC6\pdl\drivers/peripheral/tcpwm/cy_tcpwm_counter.h **** 
 112:Generated_Source\PSoC6\pdl\drivers/peripheral/tcpwm/cy_tcpwm_counter.h **** /** \defgroup group_tcpwm_counter_compare_capture Counter Compare Capture
 113:Generated_Source\PSoC6\pdl\drivers/peripheral/tcpwm/cy_tcpwm_counter.h **** * \{
 114:Generated_Source\PSoC6\pdl\drivers/peripheral/tcpwm/cy_tcpwm_counter.h **** * A compare or capture mode.
 115:Generated_Source\PSoC6\pdl\drivers/peripheral/tcpwm/cy_tcpwm_counter.h **** */
 116:Generated_Source\PSoC6\pdl\drivers/peripheral/tcpwm/cy_tcpwm_counter.h **** #define CY_TCPWM_COUNTER_MODE_CAPTURE           (2U)  /**< Timer/Counter is in Capture Mode */
 117:Generated_Source\PSoC6\pdl\drivers/peripheral/tcpwm/cy_tcpwm_counter.h **** #define CY_TCPWM_COUNTER_MODE_COMPARE           (0U)  /**< Timer/Counter is in Compare Mode */
 118:Generated_Source\PSoC6\pdl\drivers/peripheral/tcpwm/cy_tcpwm_counter.h **** /** \} group_tcpwm_counter_compare_capture */
 119:Generated_Source\PSoC6\pdl\drivers/peripheral/tcpwm/cy_tcpwm_counter.h **** 
 120:Generated_Source\PSoC6\pdl\drivers/peripheral/tcpwm/cy_tcpwm_counter.h **** /** \defgroup group_tcpwm_counter_status Counter Status
 121:Generated_Source\PSoC6\pdl\drivers/peripheral/tcpwm/cy_tcpwm_counter.h **** * \{
 122:Generated_Source\PSoC6\pdl\drivers/peripheral/tcpwm/cy_tcpwm_counter.h **** * The counter status.
 123:Generated_Source\PSoC6\pdl\drivers/peripheral/tcpwm/cy_tcpwm_counter.h **** */
 124:Generated_Source\PSoC6\pdl\drivers/peripheral/tcpwm/cy_tcpwm_counter.h **** #define CY_TCPWM_COUNTER_STATUS_DOWN_COUNTING   (0x1UL)        /**< Timer/Counter is down counting 
 125:Generated_Source\PSoC6\pdl\drivers/peripheral/tcpwm/cy_tcpwm_counter.h **** #define CY_TCPWM_COUNTER_STATUS_UP_COUNTING     (0x2UL)        /**< Timer/Counter is up counting */
 126:Generated_Source\PSoC6\pdl\drivers/peripheral/tcpwm/cy_tcpwm_counter.h **** 
 127:Generated_Source\PSoC6\pdl\drivers/peripheral/tcpwm/cy_tcpwm_counter.h **** /** Timer/Counter is running */
 128:Generated_Source\PSoC6\pdl\drivers/peripheral/tcpwm/cy_tcpwm_counter.h **** #define CY_TCPWM_COUNTER_STATUS_COUNTER_RUNNING (TCPWM_CNT_STATUS_RUNNING_Msk)
 129:Generated_Source\PSoC6\pdl\drivers/peripheral/tcpwm/cy_tcpwm_counter.h **** /** \} group_tcpwm_counter_status */
 130:Generated_Source\PSoC6\pdl\drivers/peripheral/tcpwm/cy_tcpwm_counter.h **** /** \} group_tcpwm_macros_counter */
 131:Generated_Source\PSoC6\pdl\drivers/peripheral/tcpwm/cy_tcpwm_counter.h **** 
 132:Generated_Source\PSoC6\pdl\drivers/peripheral/tcpwm/cy_tcpwm_counter.h **** 
 133:Generated_Source\PSoC6\pdl\drivers/peripheral/tcpwm/cy_tcpwm_counter.h **** /*******************************************************************************
 134:Generated_Source\PSoC6\pdl\drivers/peripheral/tcpwm/cy_tcpwm_counter.h **** *        Function Prototypes
 135:Generated_Source\PSoC6\pdl\drivers/peripheral/tcpwm/cy_tcpwm_counter.h **** *******************************************************************************/
 136:Generated_Source\PSoC6\pdl\drivers/peripheral/tcpwm/cy_tcpwm_counter.h **** 
 137:Generated_Source\PSoC6\pdl\drivers/peripheral/tcpwm/cy_tcpwm_counter.h **** /**
 138:Generated_Source\PSoC6\pdl\drivers/peripheral/tcpwm/cy_tcpwm_counter.h **** * \addtogroup group_tcpwm_functions_counter
 139:Generated_Source\PSoC6\pdl\drivers/peripheral/tcpwm/cy_tcpwm_counter.h **** * \{
 140:Generated_Source\PSoC6\pdl\drivers/peripheral/tcpwm/cy_tcpwm_counter.h **** */
 141:Generated_Source\PSoC6\pdl\drivers/peripheral/tcpwm/cy_tcpwm_counter.h **** cy_en_tcpwm_status_t Cy_TCPWM_Counter_Init(TCPWM_Type *base, uint32_t cntNum, 
 142:Generated_Source\PSoC6\pdl\drivers/peripheral/tcpwm/cy_tcpwm_counter.h ****                                            cy_stc_tcpwm_counter_config_t const *config);
 143:Generated_Source\PSoC6\pdl\drivers/peripheral/tcpwm/cy_tcpwm_counter.h **** void Cy_TCPWM_Counter_DeInit(TCPWM_Type *base, uint32_t cntNum, cy_stc_tcpwm_counter_config_t const
 144:Generated_Source\PSoC6\pdl\drivers/peripheral/tcpwm/cy_tcpwm_counter.h **** __STATIC_INLINE void Cy_TCPWM_Counter_Enable(TCPWM_Type *base, uint32_t cntNum);
 145:Generated_Source\PSoC6\pdl\drivers/peripheral/tcpwm/cy_tcpwm_counter.h **** __STATIC_INLINE void Cy_TCPWM_Counter_Disable(TCPWM_Type *base, uint32_t cntNum);
 146:Generated_Source\PSoC6\pdl\drivers/peripheral/tcpwm/cy_tcpwm_counter.h **** __STATIC_INLINE uint32_t Cy_TCPWM_Counter_GetStatus(TCPWM_Type const *base, uint32_t cntNum);
 147:Generated_Source\PSoC6\pdl\drivers/peripheral/tcpwm/cy_tcpwm_counter.h **** __STATIC_INLINE uint32_t Cy_TCPWM_Counter_GetCapture(TCPWM_Type const *base, uint32_t cntNum);
 148:Generated_Source\PSoC6\pdl\drivers/peripheral/tcpwm/cy_tcpwm_counter.h **** __STATIC_INLINE uint32_t Cy_TCPWM_Counter_GetCaptureBuf(TCPWM_Type const *base, uint32_t cntNum);
 149:Generated_Source\PSoC6\pdl\drivers/peripheral/tcpwm/cy_tcpwm_counter.h **** __STATIC_INLINE void Cy_TCPWM_Counter_SetCompare0(TCPWM_Type *base, uint32_t cntNum, uint32_t compa
 150:Generated_Source\PSoC6\pdl\drivers/peripheral/tcpwm/cy_tcpwm_counter.h **** __STATIC_INLINE uint32_t Cy_TCPWM_Counter_GetCompare0(TCPWM_Type const *base, uint32_t cntNum);
 151:Generated_Source\PSoC6\pdl\drivers/peripheral/tcpwm/cy_tcpwm_counter.h **** __STATIC_INLINE void Cy_TCPWM_Counter_SetCompare1(TCPWM_Type *base, uint32_t cntNum, uint32_t compa
 152:Generated_Source\PSoC6\pdl\drivers/peripheral/tcpwm/cy_tcpwm_counter.h **** __STATIC_INLINE uint32_t Cy_TCPWM_Counter_GetCompare1(TCPWM_Type const *base, uint32_t cntNum);
 153:Generated_Source\PSoC6\pdl\drivers/peripheral/tcpwm/cy_tcpwm_counter.h **** __STATIC_INLINE void Cy_TCPWM_Counter_EnableCompareSwap(TCPWM_Type *base, uint32_t cntNum, bool ena
 154:Generated_Source\PSoC6\pdl\drivers/peripheral/tcpwm/cy_tcpwm_counter.h **** __STATIC_INLINE void Cy_TCPWM_Counter_SetCounter(TCPWM_Type *base, uint32_t cntNum, uint32_t count)
 155:Generated_Source\PSoC6\pdl\drivers/peripheral/tcpwm/cy_tcpwm_counter.h **** __STATIC_INLINE uint32_t Cy_TCPWM_Counter_GetCounter(TCPWM_Type const *base, uint32_t cntNum);
 156:Generated_Source\PSoC6\pdl\drivers/peripheral/tcpwm/cy_tcpwm_counter.h **** __STATIC_INLINE void Cy_TCPWM_Counter_SetPeriod(TCPWM_Type *base, uint32_t cntNum, uint32_t period)
 157:Generated_Source\PSoC6\pdl\drivers/peripheral/tcpwm/cy_tcpwm_counter.h **** __STATIC_INLINE uint32_t Cy_TCPWM_Counter_GetPeriod(TCPWM_Type const *base, uint32_t cntNum);
 158:Generated_Source\PSoC6\pdl\drivers/peripheral/tcpwm/cy_tcpwm_counter.h **** 
 159:Generated_Source\PSoC6\pdl\drivers/peripheral/tcpwm/cy_tcpwm_counter.h **** 
 160:Generated_Source\PSoC6\pdl\drivers/peripheral/tcpwm/cy_tcpwm_counter.h **** /*******************************************************************************
 161:Generated_Source\PSoC6\pdl\drivers/peripheral/tcpwm/cy_tcpwm_counter.h **** * Function Name: Cy_TCPWM_Counter_Enable
 162:Generated_Source\PSoC6\pdl\drivers/peripheral/tcpwm/cy_tcpwm_counter.h **** ****************************************************************************//**
 163:Generated_Source\PSoC6\pdl\drivers/peripheral/tcpwm/cy_tcpwm_counter.h **** *
ARM GAS  C:\Users\rober\AppData\Local\Temp\ccBCZTBX.s 			page 82


 164:Generated_Source\PSoC6\pdl\drivers/peripheral/tcpwm/cy_tcpwm_counter.h **** * Enables the counter in the TCPWM block for the Counter operation.
 165:Generated_Source\PSoC6\pdl\drivers/peripheral/tcpwm/cy_tcpwm_counter.h **** *
 166:Generated_Source\PSoC6\pdl\drivers/peripheral/tcpwm/cy_tcpwm_counter.h **** * \param base
 167:Generated_Source\PSoC6\pdl\drivers/peripheral/tcpwm/cy_tcpwm_counter.h **** * The pointer to a TCPWM instance.
 168:Generated_Source\PSoC6\pdl\drivers/peripheral/tcpwm/cy_tcpwm_counter.h **** *
 169:Generated_Source\PSoC6\pdl\drivers/peripheral/tcpwm/cy_tcpwm_counter.h **** * \param cntNum 
 170:Generated_Source\PSoC6\pdl\drivers/peripheral/tcpwm/cy_tcpwm_counter.h **** * The Counter instance number in the selected TCPWM.
 171:Generated_Source\PSoC6\pdl\drivers/peripheral/tcpwm/cy_tcpwm_counter.h **** *
 172:Generated_Source\PSoC6\pdl\drivers/peripheral/tcpwm/cy_tcpwm_counter.h **** * \funcusage
 173:Generated_Source\PSoC6\pdl\drivers/peripheral/tcpwm/cy_tcpwm_counter.h **** * \snippet tcpwm/tcpwm_v1_0_counter_sut_01.cydsn/main_cm4.c snippet_Cy_TCPWM_Counter_Init
 174:Generated_Source\PSoC6\pdl\drivers/peripheral/tcpwm/cy_tcpwm_counter.h **** *
 175:Generated_Source\PSoC6\pdl\drivers/peripheral/tcpwm/cy_tcpwm_counter.h **** *******************************************************************************/
 176:Generated_Source\PSoC6\pdl\drivers/peripheral/tcpwm/cy_tcpwm_counter.h **** __STATIC_INLINE void Cy_TCPWM_Counter_Enable(TCPWM_Type *base, uint32_t cntNum)
 177:Generated_Source\PSoC6\pdl\drivers/peripheral/tcpwm/cy_tcpwm_counter.h **** {
 178:Generated_Source\PSoC6\pdl\drivers/peripheral/tcpwm/cy_tcpwm_counter.h ****     base->CTRL_SET = (1UL << cntNum);    
 179:Generated_Source\PSoC6\pdl\drivers/peripheral/tcpwm/cy_tcpwm_counter.h **** }
 180:Generated_Source\PSoC6\pdl\drivers/peripheral/tcpwm/cy_tcpwm_counter.h **** 
 181:Generated_Source\PSoC6\pdl\drivers/peripheral/tcpwm/cy_tcpwm_counter.h **** 
 182:Generated_Source\PSoC6\pdl\drivers/peripheral/tcpwm/cy_tcpwm_counter.h **** /*******************************************************************************
 183:Generated_Source\PSoC6\pdl\drivers/peripheral/tcpwm/cy_tcpwm_counter.h **** * Function Name: Cy_TCPWM_Counter_Disable
 184:Generated_Source\PSoC6\pdl\drivers/peripheral/tcpwm/cy_tcpwm_counter.h **** ****************************************************************************//**
 185:Generated_Source\PSoC6\pdl\drivers/peripheral/tcpwm/cy_tcpwm_counter.h **** *
 186:Generated_Source\PSoC6\pdl\drivers/peripheral/tcpwm/cy_tcpwm_counter.h **** * Disables the counter in the TCPWM block.
 187:Generated_Source\PSoC6\pdl\drivers/peripheral/tcpwm/cy_tcpwm_counter.h **** *
 188:Generated_Source\PSoC6\pdl\drivers/peripheral/tcpwm/cy_tcpwm_counter.h **** * \param base
 189:Generated_Source\PSoC6\pdl\drivers/peripheral/tcpwm/cy_tcpwm_counter.h **** * The pointer to a TCPWM instance.
 190:Generated_Source\PSoC6\pdl\drivers/peripheral/tcpwm/cy_tcpwm_counter.h **** *
 191:Generated_Source\PSoC6\pdl\drivers/peripheral/tcpwm/cy_tcpwm_counter.h **** * \param cntNum 
 192:Generated_Source\PSoC6\pdl\drivers/peripheral/tcpwm/cy_tcpwm_counter.h **** * The Counter instance number in the selected TCPWM.
 193:Generated_Source\PSoC6\pdl\drivers/peripheral/tcpwm/cy_tcpwm_counter.h **** *
 194:Generated_Source\PSoC6\pdl\drivers/peripheral/tcpwm/cy_tcpwm_counter.h **** * \funcusage
 195:Generated_Source\PSoC6\pdl\drivers/peripheral/tcpwm/cy_tcpwm_counter.h **** * \snippet tcpwm/tcpwm_v1_0_counter_sut_01.cydsn/main_cm4.c snippet_Cy_TCPWM_Counter_DeInit
 196:Generated_Source\PSoC6\pdl\drivers/peripheral/tcpwm/cy_tcpwm_counter.h **** *
 197:Generated_Source\PSoC6\pdl\drivers/peripheral/tcpwm/cy_tcpwm_counter.h **** *******************************************************************************/
 198:Generated_Source\PSoC6\pdl\drivers/peripheral/tcpwm/cy_tcpwm_counter.h **** __STATIC_INLINE void Cy_TCPWM_Counter_Disable(TCPWM_Type *base, uint32_t cntNum)
 199:Generated_Source\PSoC6\pdl\drivers/peripheral/tcpwm/cy_tcpwm_counter.h **** {
 200:Generated_Source\PSoC6\pdl\drivers/peripheral/tcpwm/cy_tcpwm_counter.h ****     base->CTRL_CLR = (1UL << cntNum);
 201:Generated_Source\PSoC6\pdl\drivers/peripheral/tcpwm/cy_tcpwm_counter.h **** }
 202:Generated_Source\PSoC6\pdl\drivers/peripheral/tcpwm/cy_tcpwm_counter.h **** 
 203:Generated_Source\PSoC6\pdl\drivers/peripheral/tcpwm/cy_tcpwm_counter.h **** 
 204:Generated_Source\PSoC6\pdl\drivers/peripheral/tcpwm/cy_tcpwm_counter.h **** /*******************************************************************************
 205:Generated_Source\PSoC6\pdl\drivers/peripheral/tcpwm/cy_tcpwm_counter.h **** * Function Name: Cy_TCPWM_Counter_GetStatus
 206:Generated_Source\PSoC6\pdl\drivers/peripheral/tcpwm/cy_tcpwm_counter.h **** ****************************************************************************//**
 207:Generated_Source\PSoC6\pdl\drivers/peripheral/tcpwm/cy_tcpwm_counter.h **** *
 208:Generated_Source\PSoC6\pdl\drivers/peripheral/tcpwm/cy_tcpwm_counter.h **** * Returns the status of the Counter Timer.
 209:Generated_Source\PSoC6\pdl\drivers/peripheral/tcpwm/cy_tcpwm_counter.h **** *
 210:Generated_Source\PSoC6\pdl\drivers/peripheral/tcpwm/cy_tcpwm_counter.h **** * \param base
 211:Generated_Source\PSoC6\pdl\drivers/peripheral/tcpwm/cy_tcpwm_counter.h **** * The pointer to a TCPWM instance.
 212:Generated_Source\PSoC6\pdl\drivers/peripheral/tcpwm/cy_tcpwm_counter.h **** *
 213:Generated_Source\PSoC6\pdl\drivers/peripheral/tcpwm/cy_tcpwm_counter.h **** * \param cntNum 
 214:Generated_Source\PSoC6\pdl\drivers/peripheral/tcpwm/cy_tcpwm_counter.h **** * The Counter instance number in the selected TCPWM.
 215:Generated_Source\PSoC6\pdl\drivers/peripheral/tcpwm/cy_tcpwm_counter.h **** *
 216:Generated_Source\PSoC6\pdl\drivers/peripheral/tcpwm/cy_tcpwm_counter.h **** * \return
 217:Generated_Source\PSoC6\pdl\drivers/peripheral/tcpwm/cy_tcpwm_counter.h **** * The status. See \ref group_tcpwm_counter_status
 218:Generated_Source\PSoC6\pdl\drivers/peripheral/tcpwm/cy_tcpwm_counter.h **** *
 219:Generated_Source\PSoC6\pdl\drivers/peripheral/tcpwm/cy_tcpwm_counter.h **** * \funcusage
 220:Generated_Source\PSoC6\pdl\drivers/peripheral/tcpwm/cy_tcpwm_counter.h **** * \snippet tcpwm/tcpwm_v1_0_counter_sut_01.cydsn/main_cm4.c snippet_Cy_TCPWM_Counter_GetStatus
ARM GAS  C:\Users\rober\AppData\Local\Temp\ccBCZTBX.s 			page 83


 221:Generated_Source\PSoC6\pdl\drivers/peripheral/tcpwm/cy_tcpwm_counter.h **** *
 222:Generated_Source\PSoC6\pdl\drivers/peripheral/tcpwm/cy_tcpwm_counter.h **** *******************************************************************************/
 223:Generated_Source\PSoC6\pdl\drivers/peripheral/tcpwm/cy_tcpwm_counter.h **** __STATIC_INLINE uint32_t Cy_TCPWM_Counter_GetStatus(TCPWM_Type const  *base, uint32_t cntNum)
 224:Generated_Source\PSoC6\pdl\drivers/peripheral/tcpwm/cy_tcpwm_counter.h **** {
 225:Generated_Source\PSoC6\pdl\drivers/peripheral/tcpwm/cy_tcpwm_counter.h ****     uint32_t status = base->CNT[cntNum].STATUS;
 226:Generated_Source\PSoC6\pdl\drivers/peripheral/tcpwm/cy_tcpwm_counter.h ****     
 227:Generated_Source\PSoC6\pdl\drivers/peripheral/tcpwm/cy_tcpwm_counter.h ****     /* Generates proper up counting status. Is not generated by HW */
 228:Generated_Source\PSoC6\pdl\drivers/peripheral/tcpwm/cy_tcpwm_counter.h ****     status &= ~CY_TCPWM_COUNTER_STATUS_UP_COUNTING;
 229:Generated_Source\PSoC6\pdl\drivers/peripheral/tcpwm/cy_tcpwm_counter.h ****     status |= ((~status & CY_TCPWM_COUNTER_STATUS_DOWN_COUNTING & (status >> TCPWM_CNT_STATUS_RUNNI
 230:Generated_Source\PSoC6\pdl\drivers/peripheral/tcpwm/cy_tcpwm_counter.h ****                CY_TCPWM_CNT_STATUS_UP_POS);
 231:Generated_Source\PSoC6\pdl\drivers/peripheral/tcpwm/cy_tcpwm_counter.h **** 
 232:Generated_Source\PSoC6\pdl\drivers/peripheral/tcpwm/cy_tcpwm_counter.h ****     return(status);
 233:Generated_Source\PSoC6\pdl\drivers/peripheral/tcpwm/cy_tcpwm_counter.h **** }
 234:Generated_Source\PSoC6\pdl\drivers/peripheral/tcpwm/cy_tcpwm_counter.h **** 
 235:Generated_Source\PSoC6\pdl\drivers/peripheral/tcpwm/cy_tcpwm_counter.h **** 
 236:Generated_Source\PSoC6\pdl\drivers/peripheral/tcpwm/cy_tcpwm_counter.h **** /*******************************************************************************
 237:Generated_Source\PSoC6\pdl\drivers/peripheral/tcpwm/cy_tcpwm_counter.h **** * Function Name: Cy_TCPWM_Counter_GetCapture
 238:Generated_Source\PSoC6\pdl\drivers/peripheral/tcpwm/cy_tcpwm_counter.h **** ****************************************************************************//**
 239:Generated_Source\PSoC6\pdl\drivers/peripheral/tcpwm/cy_tcpwm_counter.h **** *
 240:Generated_Source\PSoC6\pdl\drivers/peripheral/tcpwm/cy_tcpwm_counter.h **** * Returns the capture value when the capture mode is enabled.
 241:Generated_Source\PSoC6\pdl\drivers/peripheral/tcpwm/cy_tcpwm_counter.h **** *
 242:Generated_Source\PSoC6\pdl\drivers/peripheral/tcpwm/cy_tcpwm_counter.h **** * \param base
 243:Generated_Source\PSoC6\pdl\drivers/peripheral/tcpwm/cy_tcpwm_counter.h **** * The pointer to a TCPWM instance.
 244:Generated_Source\PSoC6\pdl\drivers/peripheral/tcpwm/cy_tcpwm_counter.h **** *
 245:Generated_Source\PSoC6\pdl\drivers/peripheral/tcpwm/cy_tcpwm_counter.h **** * \param cntNum 
 246:Generated_Source\PSoC6\pdl\drivers/peripheral/tcpwm/cy_tcpwm_counter.h **** * The Counter instance number in the selected TCPWM.
 247:Generated_Source\PSoC6\pdl\drivers/peripheral/tcpwm/cy_tcpwm_counter.h **** *
 248:Generated_Source\PSoC6\pdl\drivers/peripheral/tcpwm/cy_tcpwm_counter.h **** * \return
 249:Generated_Source\PSoC6\pdl\drivers/peripheral/tcpwm/cy_tcpwm_counter.h **** * The capture value.
 250:Generated_Source\PSoC6\pdl\drivers/peripheral/tcpwm/cy_tcpwm_counter.h **** *
 251:Generated_Source\PSoC6\pdl\drivers/peripheral/tcpwm/cy_tcpwm_counter.h **** * \funcusage
 252:Generated_Source\PSoC6\pdl\drivers/peripheral/tcpwm/cy_tcpwm_counter.h **** * \snippet tcpwm/tcpwm_v1_0_counter_sut_01.cydsn/main_cm4.c snippet_Cy_TCPWM_Counter_Capture
 253:Generated_Source\PSoC6\pdl\drivers/peripheral/tcpwm/cy_tcpwm_counter.h **** *
 254:Generated_Source\PSoC6\pdl\drivers/peripheral/tcpwm/cy_tcpwm_counter.h **** *******************************************************************************/
 255:Generated_Source\PSoC6\pdl\drivers/peripheral/tcpwm/cy_tcpwm_counter.h **** __STATIC_INLINE uint32_t Cy_TCPWM_Counter_GetCapture(TCPWM_Type const  *base, uint32_t cntNum)
 256:Generated_Source\PSoC6\pdl\drivers/peripheral/tcpwm/cy_tcpwm_counter.h **** {
 257:Generated_Source\PSoC6\pdl\drivers/peripheral/tcpwm/cy_tcpwm_counter.h ****     return(base->CNT[cntNum].CC);
 258:Generated_Source\PSoC6\pdl\drivers/peripheral/tcpwm/cy_tcpwm_counter.h **** }
 259:Generated_Source\PSoC6\pdl\drivers/peripheral/tcpwm/cy_tcpwm_counter.h **** 
 260:Generated_Source\PSoC6\pdl\drivers/peripheral/tcpwm/cy_tcpwm_counter.h **** 
 261:Generated_Source\PSoC6\pdl\drivers/peripheral/tcpwm/cy_tcpwm_counter.h **** /*******************************************************************************
 262:Generated_Source\PSoC6\pdl\drivers/peripheral/tcpwm/cy_tcpwm_counter.h **** * Function Name: Cy_TCPWM_Counter_GetCaptureBuf
 263:Generated_Source\PSoC6\pdl\drivers/peripheral/tcpwm/cy_tcpwm_counter.h **** ****************************************************************************//**
 264:Generated_Source\PSoC6\pdl\drivers/peripheral/tcpwm/cy_tcpwm_counter.h **** *
 265:Generated_Source\PSoC6\pdl\drivers/peripheral/tcpwm/cy_tcpwm_counter.h **** * Returns the buffered capture value when the capture mode is enabled.
 266:Generated_Source\PSoC6\pdl\drivers/peripheral/tcpwm/cy_tcpwm_counter.h **** *
 267:Generated_Source\PSoC6\pdl\drivers/peripheral/tcpwm/cy_tcpwm_counter.h **** * \param base
 268:Generated_Source\PSoC6\pdl\drivers/peripheral/tcpwm/cy_tcpwm_counter.h **** * The pointer to a TCPWM instance.
 269:Generated_Source\PSoC6\pdl\drivers/peripheral/tcpwm/cy_tcpwm_counter.h **** *
 270:Generated_Source\PSoC6\pdl\drivers/peripheral/tcpwm/cy_tcpwm_counter.h **** * \param cntNum 
 271:Generated_Source\PSoC6\pdl\drivers/peripheral/tcpwm/cy_tcpwm_counter.h **** * The Counter instance number in the selected TCPWM.
 272:Generated_Source\PSoC6\pdl\drivers/peripheral/tcpwm/cy_tcpwm_counter.h **** *
 273:Generated_Source\PSoC6\pdl\drivers/peripheral/tcpwm/cy_tcpwm_counter.h **** * \return
 274:Generated_Source\PSoC6\pdl\drivers/peripheral/tcpwm/cy_tcpwm_counter.h **** * The buffered capture value.
 275:Generated_Source\PSoC6\pdl\drivers/peripheral/tcpwm/cy_tcpwm_counter.h **** *
 276:Generated_Source\PSoC6\pdl\drivers/peripheral/tcpwm/cy_tcpwm_counter.h **** * \funcusage
 277:Generated_Source\PSoC6\pdl\drivers/peripheral/tcpwm/cy_tcpwm_counter.h **** * \snippet tcpwm/tcpwm_v1_0_counter_sut_01.cydsn/main_cm4.c snippet_Cy_TCPWM_Counter_Capture
ARM GAS  C:\Users\rober\AppData\Local\Temp\ccBCZTBX.s 			page 84


 278:Generated_Source\PSoC6\pdl\drivers/peripheral/tcpwm/cy_tcpwm_counter.h **** *
 279:Generated_Source\PSoC6\pdl\drivers/peripheral/tcpwm/cy_tcpwm_counter.h **** *******************************************************************************/
 280:Generated_Source\PSoC6\pdl\drivers/peripheral/tcpwm/cy_tcpwm_counter.h **** __STATIC_INLINE uint32_t Cy_TCPWM_Counter_GetCaptureBuf(TCPWM_Type const  *base, uint32_t cntNum)
 281:Generated_Source\PSoC6\pdl\drivers/peripheral/tcpwm/cy_tcpwm_counter.h **** {
 282:Generated_Source\PSoC6\pdl\drivers/peripheral/tcpwm/cy_tcpwm_counter.h ****     return(base->CNT[cntNum].CC_BUFF);
 283:Generated_Source\PSoC6\pdl\drivers/peripheral/tcpwm/cy_tcpwm_counter.h **** }
 284:Generated_Source\PSoC6\pdl\drivers/peripheral/tcpwm/cy_tcpwm_counter.h **** 
 285:Generated_Source\PSoC6\pdl\drivers/peripheral/tcpwm/cy_tcpwm_counter.h **** 
 286:Generated_Source\PSoC6\pdl\drivers/peripheral/tcpwm/cy_tcpwm_counter.h **** /*******************************************************************************
 287:Generated_Source\PSoC6\pdl\drivers/peripheral/tcpwm/cy_tcpwm_counter.h **** * Function Name: Cy_TCPWM_Counter_SetCompare0
 288:Generated_Source\PSoC6\pdl\drivers/peripheral/tcpwm/cy_tcpwm_counter.h **** ****************************************************************************//**
 289:Generated_Source\PSoC6\pdl\drivers/peripheral/tcpwm/cy_tcpwm_counter.h **** *
 290:Generated_Source\PSoC6\pdl\drivers/peripheral/tcpwm/cy_tcpwm_counter.h **** * Sets the compare value for Compare0 when the compare mode is enabled.
 291:Generated_Source\PSoC6\pdl\drivers/peripheral/tcpwm/cy_tcpwm_counter.h **** *
 292:Generated_Source\PSoC6\pdl\drivers/peripheral/tcpwm/cy_tcpwm_counter.h **** * \param base
 293:Generated_Source\PSoC6\pdl\drivers/peripheral/tcpwm/cy_tcpwm_counter.h **** * The pointer to a TCPWM instance.
 294:Generated_Source\PSoC6\pdl\drivers/peripheral/tcpwm/cy_tcpwm_counter.h **** *
 295:Generated_Source\PSoC6\pdl\drivers/peripheral/tcpwm/cy_tcpwm_counter.h **** * \param cntNum 
 296:Generated_Source\PSoC6\pdl\drivers/peripheral/tcpwm/cy_tcpwm_counter.h **** * The Counter instance number in the selected TCPWM.
 297:Generated_Source\PSoC6\pdl\drivers/peripheral/tcpwm/cy_tcpwm_counter.h **** *
 298:Generated_Source\PSoC6\pdl\drivers/peripheral/tcpwm/cy_tcpwm_counter.h **** * \param compare0
 299:Generated_Source\PSoC6\pdl\drivers/peripheral/tcpwm/cy_tcpwm_counter.h **** * The Compare0 value.
 300:Generated_Source\PSoC6\pdl\drivers/peripheral/tcpwm/cy_tcpwm_counter.h **** *
 301:Generated_Source\PSoC6\pdl\drivers/peripheral/tcpwm/cy_tcpwm_counter.h **** * \funcusage
 302:Generated_Source\PSoC6\pdl\drivers/peripheral/tcpwm/cy_tcpwm_counter.h **** * \snippet tcpwm/tcpwm_v1_0_counter_sut_01.cydsn/main_cm4.c snippet_Cy_TCPWM_Counter_SetCompare0
 303:Generated_Source\PSoC6\pdl\drivers/peripheral/tcpwm/cy_tcpwm_counter.h **** *
 304:Generated_Source\PSoC6\pdl\drivers/peripheral/tcpwm/cy_tcpwm_counter.h **** *******************************************************************************/
 305:Generated_Source\PSoC6\pdl\drivers/peripheral/tcpwm/cy_tcpwm_counter.h **** __STATIC_INLINE void Cy_TCPWM_Counter_SetCompare0(TCPWM_Type *base, uint32_t cntNum,  uint32_t comp
 306:Generated_Source\PSoC6\pdl\drivers/peripheral/tcpwm/cy_tcpwm_counter.h **** {
 307:Generated_Source\PSoC6\pdl\drivers/peripheral/tcpwm/cy_tcpwm_counter.h ****     base->CNT[cntNum].CC = compare0;
 308:Generated_Source\PSoC6\pdl\drivers/peripheral/tcpwm/cy_tcpwm_counter.h **** }
 309:Generated_Source\PSoC6\pdl\drivers/peripheral/tcpwm/cy_tcpwm_counter.h **** 
 310:Generated_Source\PSoC6\pdl\drivers/peripheral/tcpwm/cy_tcpwm_counter.h **** 
 311:Generated_Source\PSoC6\pdl\drivers/peripheral/tcpwm/cy_tcpwm_counter.h **** /*******************************************************************************
 312:Generated_Source\PSoC6\pdl\drivers/peripheral/tcpwm/cy_tcpwm_counter.h **** * Function Name: Cy_TCPWM_Counter_GetCompare0
 313:Generated_Source\PSoC6\pdl\drivers/peripheral/tcpwm/cy_tcpwm_counter.h **** ****************************************************************************//**
 314:Generated_Source\PSoC6\pdl\drivers/peripheral/tcpwm/cy_tcpwm_counter.h **** *
 315:Generated_Source\PSoC6\pdl\drivers/peripheral/tcpwm/cy_tcpwm_counter.h **** * Returns compare value 0.
 316:Generated_Source\PSoC6\pdl\drivers/peripheral/tcpwm/cy_tcpwm_counter.h **** *
 317:Generated_Source\PSoC6\pdl\drivers/peripheral/tcpwm/cy_tcpwm_counter.h **** * \param base
 318:Generated_Source\PSoC6\pdl\drivers/peripheral/tcpwm/cy_tcpwm_counter.h **** * The pointer to a TCPWM instance.
 319:Generated_Source\PSoC6\pdl\drivers/peripheral/tcpwm/cy_tcpwm_counter.h **** *
 320:Generated_Source\PSoC6\pdl\drivers/peripheral/tcpwm/cy_tcpwm_counter.h **** * \param cntNum 
 321:Generated_Source\PSoC6\pdl\drivers/peripheral/tcpwm/cy_tcpwm_counter.h **** * The Counter instance number in the selected TCPWM.
 322:Generated_Source\PSoC6\pdl\drivers/peripheral/tcpwm/cy_tcpwm_counter.h **** *
 323:Generated_Source\PSoC6\pdl\drivers/peripheral/tcpwm/cy_tcpwm_counter.h **** * \return
 324:Generated_Source\PSoC6\pdl\drivers/peripheral/tcpwm/cy_tcpwm_counter.h **** * Compare value 0.
 325:Generated_Source\PSoC6\pdl\drivers/peripheral/tcpwm/cy_tcpwm_counter.h **** *
 326:Generated_Source\PSoC6\pdl\drivers/peripheral/tcpwm/cy_tcpwm_counter.h **** * \funcusage
 327:Generated_Source\PSoC6\pdl\drivers/peripheral/tcpwm/cy_tcpwm_counter.h **** * \snippet tcpwm/tcpwm_v1_0_counter_sut_01.cydsn/main_cm4.c snippet_Cy_TCPWM_Counter_SetCompare0
 328:Generated_Source\PSoC6\pdl\drivers/peripheral/tcpwm/cy_tcpwm_counter.h **** *
 329:Generated_Source\PSoC6\pdl\drivers/peripheral/tcpwm/cy_tcpwm_counter.h **** *******************************************************************************/
 330:Generated_Source\PSoC6\pdl\drivers/peripheral/tcpwm/cy_tcpwm_counter.h **** __STATIC_INLINE uint32_t Cy_TCPWM_Counter_GetCompare0(TCPWM_Type const  *base, uint32_t cntNum)
 331:Generated_Source\PSoC6\pdl\drivers/peripheral/tcpwm/cy_tcpwm_counter.h **** {
 332:Generated_Source\PSoC6\pdl\drivers/peripheral/tcpwm/cy_tcpwm_counter.h ****     return(base->CNT[cntNum].CC);
 333:Generated_Source\PSoC6\pdl\drivers/peripheral/tcpwm/cy_tcpwm_counter.h **** }
 334:Generated_Source\PSoC6\pdl\drivers/peripheral/tcpwm/cy_tcpwm_counter.h **** 
ARM GAS  C:\Users\rober\AppData\Local\Temp\ccBCZTBX.s 			page 85


 335:Generated_Source\PSoC6\pdl\drivers/peripheral/tcpwm/cy_tcpwm_counter.h **** 
 336:Generated_Source\PSoC6\pdl\drivers/peripheral/tcpwm/cy_tcpwm_counter.h **** /*******************************************************************************
 337:Generated_Source\PSoC6\pdl\drivers/peripheral/tcpwm/cy_tcpwm_counter.h **** * Function Name: Cy_TCPWM_Counter_SetCompare1
 338:Generated_Source\PSoC6\pdl\drivers/peripheral/tcpwm/cy_tcpwm_counter.h **** ****************************************************************************//**
 339:Generated_Source\PSoC6\pdl\drivers/peripheral/tcpwm/cy_tcpwm_counter.h **** *
 340:Generated_Source\PSoC6\pdl\drivers/peripheral/tcpwm/cy_tcpwm_counter.h **** * Sets the compare value for Compare1 when the compare mode is enabled.
 341:Generated_Source\PSoC6\pdl\drivers/peripheral/tcpwm/cy_tcpwm_counter.h **** *
 342:Generated_Source\PSoC6\pdl\drivers/peripheral/tcpwm/cy_tcpwm_counter.h **** * \param base
 343:Generated_Source\PSoC6\pdl\drivers/peripheral/tcpwm/cy_tcpwm_counter.h **** * The pointer to a TCPWM instance.
 344:Generated_Source\PSoC6\pdl\drivers/peripheral/tcpwm/cy_tcpwm_counter.h **** *
 345:Generated_Source\PSoC6\pdl\drivers/peripheral/tcpwm/cy_tcpwm_counter.h **** * \param cntNum 
 346:Generated_Source\PSoC6\pdl\drivers/peripheral/tcpwm/cy_tcpwm_counter.h **** * The Counter instance number in the selected TCPWM.
 347:Generated_Source\PSoC6\pdl\drivers/peripheral/tcpwm/cy_tcpwm_counter.h **** *
 348:Generated_Source\PSoC6\pdl\drivers/peripheral/tcpwm/cy_tcpwm_counter.h **** * \param compare1
 349:Generated_Source\PSoC6\pdl\drivers/peripheral/tcpwm/cy_tcpwm_counter.h **** * The Compare1 value.
 350:Generated_Source\PSoC6\pdl\drivers/peripheral/tcpwm/cy_tcpwm_counter.h **** *
 351:Generated_Source\PSoC6\pdl\drivers/peripheral/tcpwm/cy_tcpwm_counter.h **** * \funcusage
 352:Generated_Source\PSoC6\pdl\drivers/peripheral/tcpwm/cy_tcpwm_counter.h **** * \snippet tcpwm/tcpwm_v1_0_counter_sut_01.cydsn/main_cm4.c snippet_Cy_TCPWM_Counter_SetCompare1
 353:Generated_Source\PSoC6\pdl\drivers/peripheral/tcpwm/cy_tcpwm_counter.h **** *
 354:Generated_Source\PSoC6\pdl\drivers/peripheral/tcpwm/cy_tcpwm_counter.h **** *******************************************************************************/
 355:Generated_Source\PSoC6\pdl\drivers/peripheral/tcpwm/cy_tcpwm_counter.h **** __STATIC_INLINE void Cy_TCPWM_Counter_SetCompare1(TCPWM_Type *base, uint32_t cntNum,  uint32_t comp
 356:Generated_Source\PSoC6\pdl\drivers/peripheral/tcpwm/cy_tcpwm_counter.h **** {
 357:Generated_Source\PSoC6\pdl\drivers/peripheral/tcpwm/cy_tcpwm_counter.h ****     base->CNT[cntNum].CC_BUFF = compare1;
 358:Generated_Source\PSoC6\pdl\drivers/peripheral/tcpwm/cy_tcpwm_counter.h **** }
 359:Generated_Source\PSoC6\pdl\drivers/peripheral/tcpwm/cy_tcpwm_counter.h **** 
 360:Generated_Source\PSoC6\pdl\drivers/peripheral/tcpwm/cy_tcpwm_counter.h **** 
 361:Generated_Source\PSoC6\pdl\drivers/peripheral/tcpwm/cy_tcpwm_counter.h **** /*******************************************************************************
 362:Generated_Source\PSoC6\pdl\drivers/peripheral/tcpwm/cy_tcpwm_counter.h **** * Function Name: Cy_TCPWM_Counter_GetCompare1
 363:Generated_Source\PSoC6\pdl\drivers/peripheral/tcpwm/cy_tcpwm_counter.h **** ****************************************************************************//**
 364:Generated_Source\PSoC6\pdl\drivers/peripheral/tcpwm/cy_tcpwm_counter.h **** *
 365:Generated_Source\PSoC6\pdl\drivers/peripheral/tcpwm/cy_tcpwm_counter.h **** * Returns compare value 1.
 366:Generated_Source\PSoC6\pdl\drivers/peripheral/tcpwm/cy_tcpwm_counter.h **** *
 367:Generated_Source\PSoC6\pdl\drivers/peripheral/tcpwm/cy_tcpwm_counter.h **** * \param base
 368:Generated_Source\PSoC6\pdl\drivers/peripheral/tcpwm/cy_tcpwm_counter.h **** * The pointer to a TCPWM instance.
 369:Generated_Source\PSoC6\pdl\drivers/peripheral/tcpwm/cy_tcpwm_counter.h **** *
 370:Generated_Source\PSoC6\pdl\drivers/peripheral/tcpwm/cy_tcpwm_counter.h **** * \param cntNum 
 371:Generated_Source\PSoC6\pdl\drivers/peripheral/tcpwm/cy_tcpwm_counter.h **** * The Counter instance number in the selected TCPWM.
 372:Generated_Source\PSoC6\pdl\drivers/peripheral/tcpwm/cy_tcpwm_counter.h **** *
 373:Generated_Source\PSoC6\pdl\drivers/peripheral/tcpwm/cy_tcpwm_counter.h **** * \return
 374:Generated_Source\PSoC6\pdl\drivers/peripheral/tcpwm/cy_tcpwm_counter.h **** * Compare value 1.
 375:Generated_Source\PSoC6\pdl\drivers/peripheral/tcpwm/cy_tcpwm_counter.h **** *
 376:Generated_Source\PSoC6\pdl\drivers/peripheral/tcpwm/cy_tcpwm_counter.h **** * \funcusage
 377:Generated_Source\PSoC6\pdl\drivers/peripheral/tcpwm/cy_tcpwm_counter.h **** * \snippet tcpwm/tcpwm_v1_0_counter_sut_01.cydsn/main_cm4.c snippet_Cy_TCPWM_Counter_SetCompare1
 378:Generated_Source\PSoC6\pdl\drivers/peripheral/tcpwm/cy_tcpwm_counter.h **** *
 379:Generated_Source\PSoC6\pdl\drivers/peripheral/tcpwm/cy_tcpwm_counter.h **** *******************************************************************************/
 380:Generated_Source\PSoC6\pdl\drivers/peripheral/tcpwm/cy_tcpwm_counter.h **** __STATIC_INLINE uint32_t Cy_TCPWM_Counter_GetCompare1(TCPWM_Type const  *base, uint32_t cntNum)
 381:Generated_Source\PSoC6\pdl\drivers/peripheral/tcpwm/cy_tcpwm_counter.h **** {
 382:Generated_Source\PSoC6\pdl\drivers/peripheral/tcpwm/cy_tcpwm_counter.h ****     return(base->CNT[cntNum].CC_BUFF);
 383:Generated_Source\PSoC6\pdl\drivers/peripheral/tcpwm/cy_tcpwm_counter.h **** }
 384:Generated_Source\PSoC6\pdl\drivers/peripheral/tcpwm/cy_tcpwm_counter.h **** 
 385:Generated_Source\PSoC6\pdl\drivers/peripheral/tcpwm/cy_tcpwm_counter.h **** 
 386:Generated_Source\PSoC6\pdl\drivers/peripheral/tcpwm/cy_tcpwm_counter.h **** /*******************************************************************************
 387:Generated_Source\PSoC6\pdl\drivers/peripheral/tcpwm/cy_tcpwm_counter.h **** * Function Name: Cy_TCPWM_Counter_EnableCompareSwap
 388:Generated_Source\PSoC6\pdl\drivers/peripheral/tcpwm/cy_tcpwm_counter.h **** ****************************************************************************//**
 389:Generated_Source\PSoC6\pdl\drivers/peripheral/tcpwm/cy_tcpwm_counter.h **** *
 390:Generated_Source\PSoC6\pdl\drivers/peripheral/tcpwm/cy_tcpwm_counter.h **** * Enables the comparison swap when the comparison value is true.
 391:Generated_Source\PSoC6\pdl\drivers/peripheral/tcpwm/cy_tcpwm_counter.h **** *
ARM GAS  C:\Users\rober\AppData\Local\Temp\ccBCZTBX.s 			page 86


 392:Generated_Source\PSoC6\pdl\drivers/peripheral/tcpwm/cy_tcpwm_counter.h **** * \param base
 393:Generated_Source\PSoC6\pdl\drivers/peripheral/tcpwm/cy_tcpwm_counter.h **** * The pointer to a TCPWM instance.
 394:Generated_Source\PSoC6\pdl\drivers/peripheral/tcpwm/cy_tcpwm_counter.h **** *
 395:Generated_Source\PSoC6\pdl\drivers/peripheral/tcpwm/cy_tcpwm_counter.h **** * \param cntNum 
 396:Generated_Source\PSoC6\pdl\drivers/peripheral/tcpwm/cy_tcpwm_counter.h **** * The Counter instance number in the selected TCPWM.
 397:Generated_Source\PSoC6\pdl\drivers/peripheral/tcpwm/cy_tcpwm_counter.h **** *
 398:Generated_Source\PSoC6\pdl\drivers/peripheral/tcpwm/cy_tcpwm_counter.h **** * \param enable
 399:Generated_Source\PSoC6\pdl\drivers/peripheral/tcpwm/cy_tcpwm_counter.h **** * true = swap enabled, false = swap disabled
 400:Generated_Source\PSoC6\pdl\drivers/peripheral/tcpwm/cy_tcpwm_counter.h **** *
 401:Generated_Source\PSoC6\pdl\drivers/peripheral/tcpwm/cy_tcpwm_counter.h **** * \funcusage
 402:Generated_Source\PSoC6\pdl\drivers/peripheral/tcpwm/cy_tcpwm_counter.h **** * \snippet tcpwm/tcpwm_v1_0_counter_sut_01.cydsn/main_cm4.c snippet_Cy_TCPWM_Counter_EnableCompareS
 403:Generated_Source\PSoC6\pdl\drivers/peripheral/tcpwm/cy_tcpwm_counter.h **** *
 404:Generated_Source\PSoC6\pdl\drivers/peripheral/tcpwm/cy_tcpwm_counter.h **** *******************************************************************************/
 405:Generated_Source\PSoC6\pdl\drivers/peripheral/tcpwm/cy_tcpwm_counter.h **** __STATIC_INLINE void Cy_TCPWM_Counter_EnableCompareSwap(TCPWM_Type *base, uint32_t cntNum,  bool en
 406:Generated_Source\PSoC6\pdl\drivers/peripheral/tcpwm/cy_tcpwm_counter.h **** {
 407:Generated_Source\PSoC6\pdl\drivers/peripheral/tcpwm/cy_tcpwm_counter.h ****     if (enable)
 408:Generated_Source\PSoC6\pdl\drivers/peripheral/tcpwm/cy_tcpwm_counter.h ****     {
 409:Generated_Source\PSoC6\pdl\drivers/peripheral/tcpwm/cy_tcpwm_counter.h ****         base->CNT[cntNum].CTRL |=  TCPWM_CNT_CTRL_AUTO_RELOAD_CC_Msk;
 410:Generated_Source\PSoC6\pdl\drivers/peripheral/tcpwm/cy_tcpwm_counter.h ****     }
 411:Generated_Source\PSoC6\pdl\drivers/peripheral/tcpwm/cy_tcpwm_counter.h ****     else
 412:Generated_Source\PSoC6\pdl\drivers/peripheral/tcpwm/cy_tcpwm_counter.h ****     {
 413:Generated_Source\PSoC6\pdl\drivers/peripheral/tcpwm/cy_tcpwm_counter.h ****         base->CNT[cntNum].CTRL &= ~TCPWM_CNT_CTRL_AUTO_RELOAD_CC_Msk;
 414:Generated_Source\PSoC6\pdl\drivers/peripheral/tcpwm/cy_tcpwm_counter.h ****     }
 415:Generated_Source\PSoC6\pdl\drivers/peripheral/tcpwm/cy_tcpwm_counter.h **** }
 416:Generated_Source\PSoC6\pdl\drivers/peripheral/tcpwm/cy_tcpwm_counter.h **** 
 417:Generated_Source\PSoC6\pdl\drivers/peripheral/tcpwm/cy_tcpwm_counter.h **** 
 418:Generated_Source\PSoC6\pdl\drivers/peripheral/tcpwm/cy_tcpwm_counter.h **** /*******************************************************************************
 419:Generated_Source\PSoC6\pdl\drivers/peripheral/tcpwm/cy_tcpwm_counter.h **** * Function Name: Cy_TCPWM_Counter_SetCounter
 420:Generated_Source\PSoC6\pdl\drivers/peripheral/tcpwm/cy_tcpwm_counter.h **** ****************************************************************************//**
 421:Generated_Source\PSoC6\pdl\drivers/peripheral/tcpwm/cy_tcpwm_counter.h **** *
 422:Generated_Source\PSoC6\pdl\drivers/peripheral/tcpwm/cy_tcpwm_counter.h **** * Sets the value of the counter.
 423:Generated_Source\PSoC6\pdl\drivers/peripheral/tcpwm/cy_tcpwm_counter.h **** *
 424:Generated_Source\PSoC6\pdl\drivers/peripheral/tcpwm/cy_tcpwm_counter.h **** * \param base
 425:Generated_Source\PSoC6\pdl\drivers/peripheral/tcpwm/cy_tcpwm_counter.h **** * The pointer to a TCPWM instance.
 426:Generated_Source\PSoC6\pdl\drivers/peripheral/tcpwm/cy_tcpwm_counter.h **** *
 427:Generated_Source\PSoC6\pdl\drivers/peripheral/tcpwm/cy_tcpwm_counter.h **** * \param cntNum 
 428:Generated_Source\PSoC6\pdl\drivers/peripheral/tcpwm/cy_tcpwm_counter.h **** * The Counter instance number in the selected TCPWM.
 429:Generated_Source\PSoC6\pdl\drivers/peripheral/tcpwm/cy_tcpwm_counter.h **** *
 430:Generated_Source\PSoC6\pdl\drivers/peripheral/tcpwm/cy_tcpwm_counter.h **** * \param count
 431:Generated_Source\PSoC6\pdl\drivers/peripheral/tcpwm/cy_tcpwm_counter.h **** * The value to write into the counter.
 432:Generated_Source\PSoC6\pdl\drivers/peripheral/tcpwm/cy_tcpwm_counter.h **** *
 433:Generated_Source\PSoC6\pdl\drivers/peripheral/tcpwm/cy_tcpwm_counter.h **** * \funcusage
 434:Generated_Source\PSoC6\pdl\drivers/peripheral/tcpwm/cy_tcpwm_counter.h **** * \snippet tcpwm/tcpwm_v1_0_counter_sut_01.cydsn/main_cm4.c snippet_Cy_TCPWM_Counter_SetCounter
 435:Generated_Source\PSoC6\pdl\drivers/peripheral/tcpwm/cy_tcpwm_counter.h **** *
 436:Generated_Source\PSoC6\pdl\drivers/peripheral/tcpwm/cy_tcpwm_counter.h **** *******************************************************************************/
 437:Generated_Source\PSoC6\pdl\drivers/peripheral/tcpwm/cy_tcpwm_counter.h **** __STATIC_INLINE void Cy_TCPWM_Counter_SetCounter(TCPWM_Type *base, uint32_t cntNum, uint32_t count)
 438:Generated_Source\PSoC6\pdl\drivers/peripheral/tcpwm/cy_tcpwm_counter.h **** {
 439:Generated_Source\PSoC6\pdl\drivers/peripheral/tcpwm/cy_tcpwm_counter.h ****     base->CNT[cntNum].COUNTER = count;
 440:Generated_Source\PSoC6\pdl\drivers/peripheral/tcpwm/cy_tcpwm_counter.h **** }
 441:Generated_Source\PSoC6\pdl\drivers/peripheral/tcpwm/cy_tcpwm_counter.h **** 
 442:Generated_Source\PSoC6\pdl\drivers/peripheral/tcpwm/cy_tcpwm_counter.h **** 
 443:Generated_Source\PSoC6\pdl\drivers/peripheral/tcpwm/cy_tcpwm_counter.h **** /*******************************************************************************
 444:Generated_Source\PSoC6\pdl\drivers/peripheral/tcpwm/cy_tcpwm_counter.h **** * Function Name: Cy_TCPWM_Counter_GetCounter
 445:Generated_Source\PSoC6\pdl\drivers/peripheral/tcpwm/cy_tcpwm_counter.h **** ****************************************************************************//**
 446:Generated_Source\PSoC6\pdl\drivers/peripheral/tcpwm/cy_tcpwm_counter.h **** *
 447:Generated_Source\PSoC6\pdl\drivers/peripheral/tcpwm/cy_tcpwm_counter.h **** * Returns the value in the counter.
 448:Generated_Source\PSoC6\pdl\drivers/peripheral/tcpwm/cy_tcpwm_counter.h **** *
ARM GAS  C:\Users\rober\AppData\Local\Temp\ccBCZTBX.s 			page 87


 449:Generated_Source\PSoC6\pdl\drivers/peripheral/tcpwm/cy_tcpwm_counter.h **** * \param base
 450:Generated_Source\PSoC6\pdl\drivers/peripheral/tcpwm/cy_tcpwm_counter.h **** * The pointer to a TCPWM instance.
 451:Generated_Source\PSoC6\pdl\drivers/peripheral/tcpwm/cy_tcpwm_counter.h **** *
 452:Generated_Source\PSoC6\pdl\drivers/peripheral/tcpwm/cy_tcpwm_counter.h **** * \param cntNum 
 453:Generated_Source\PSoC6\pdl\drivers/peripheral/tcpwm/cy_tcpwm_counter.h **** * The Counter instance number in the selected TCPWM.
 454:Generated_Source\PSoC6\pdl\drivers/peripheral/tcpwm/cy_tcpwm_counter.h **** *
 455:Generated_Source\PSoC6\pdl\drivers/peripheral/tcpwm/cy_tcpwm_counter.h **** * \return
 456:Generated_Source\PSoC6\pdl\drivers/peripheral/tcpwm/cy_tcpwm_counter.h **** * The current counter value.
 457:Generated_Source\PSoC6\pdl\drivers/peripheral/tcpwm/cy_tcpwm_counter.h **** *
 458:Generated_Source\PSoC6\pdl\drivers/peripheral/tcpwm/cy_tcpwm_counter.h **** * \funcusage
 459:Generated_Source\PSoC6\pdl\drivers/peripheral/tcpwm/cy_tcpwm_counter.h **** * \snippet tcpwm/tcpwm_v1_0_counter_sut_01.cydsn/main_cm4.c snippet_Cy_TCPWM_Counter_GetCounter
 460:Generated_Source\PSoC6\pdl\drivers/peripheral/tcpwm/cy_tcpwm_counter.h **** *
 461:Generated_Source\PSoC6\pdl\drivers/peripheral/tcpwm/cy_tcpwm_counter.h **** *******************************************************************************/
 462:Generated_Source\PSoC6\pdl\drivers/peripheral/tcpwm/cy_tcpwm_counter.h **** __STATIC_INLINE uint32_t Cy_TCPWM_Counter_GetCounter(TCPWM_Type const  *base, uint32_t cntNum)
 463:Generated_Source\PSoC6\pdl\drivers/peripheral/tcpwm/cy_tcpwm_counter.h **** {
 464:Generated_Source\PSoC6\pdl\drivers/peripheral/tcpwm/cy_tcpwm_counter.h ****     return(base->CNT[cntNum].COUNTER);
 465:Generated_Source\PSoC6\pdl\drivers/peripheral/tcpwm/cy_tcpwm_counter.h **** }
 466:Generated_Source\PSoC6\pdl\drivers/peripheral/tcpwm/cy_tcpwm_counter.h **** 
 467:Generated_Source\PSoC6\pdl\drivers/peripheral/tcpwm/cy_tcpwm_counter.h **** 
 468:Generated_Source\PSoC6\pdl\drivers/peripheral/tcpwm/cy_tcpwm_counter.h **** /*******************************************************************************
 469:Generated_Source\PSoC6\pdl\drivers/peripheral/tcpwm/cy_tcpwm_counter.h **** * Function Name: Cy_TCPWM_Counter_SetPeriod
 470:Generated_Source\PSoC6\pdl\drivers/peripheral/tcpwm/cy_tcpwm_counter.h **** ****************************************************************************//**
 471:Generated_Source\PSoC6\pdl\drivers/peripheral/tcpwm/cy_tcpwm_counter.h **** *
 472:Generated_Source\PSoC6\pdl\drivers/peripheral/tcpwm/cy_tcpwm_counter.h **** * Sets the value of the period register.
 473:Generated_Source\PSoC6\pdl\drivers/peripheral/tcpwm/cy_tcpwm_counter.h **** *
 474:Generated_Source\PSoC6\pdl\drivers/peripheral/tcpwm/cy_tcpwm_counter.h **** * \param base
 475:Generated_Source\PSoC6\pdl\drivers/peripheral/tcpwm/cy_tcpwm_counter.h **** * The pointer to a TCPWM instance.
 476:Generated_Source\PSoC6\pdl\drivers/peripheral/tcpwm/cy_tcpwm_counter.h **** *
 477:Generated_Source\PSoC6\pdl\drivers/peripheral/tcpwm/cy_tcpwm_counter.h **** * \param cntNum 
 478:Generated_Source\PSoC6\pdl\drivers/peripheral/tcpwm/cy_tcpwm_counter.h **** * The Counter instance number in the selected TCPWM.
 479:Generated_Source\PSoC6\pdl\drivers/peripheral/tcpwm/cy_tcpwm_counter.h **** *
 480:Generated_Source\PSoC6\pdl\drivers/peripheral/tcpwm/cy_tcpwm_counter.h **** * \param period
 481:Generated_Source\PSoC6\pdl\drivers/peripheral/tcpwm/cy_tcpwm_counter.h **** * The value to write into a period.
 482:Generated_Source\PSoC6\pdl\drivers/peripheral/tcpwm/cy_tcpwm_counter.h **** *
 483:Generated_Source\PSoC6\pdl\drivers/peripheral/tcpwm/cy_tcpwm_counter.h **** * \funcusage
 484:Generated_Source\PSoC6\pdl\drivers/peripheral/tcpwm/cy_tcpwm_counter.h **** * \snippet tcpwm/tcpwm_v1_0_counter_sut_01.cydsn/main_cm4.c snippet_Cy_TCPWM_Counter_SetPeriod
 485:Generated_Source\PSoC6\pdl\drivers/peripheral/tcpwm/cy_tcpwm_counter.h **** *
 486:Generated_Source\PSoC6\pdl\drivers/peripheral/tcpwm/cy_tcpwm_counter.h **** *******************************************************************************/
 487:Generated_Source\PSoC6\pdl\drivers/peripheral/tcpwm/cy_tcpwm_counter.h **** __STATIC_INLINE void Cy_TCPWM_Counter_SetPeriod(TCPWM_Type *base, uint32_t cntNum,  uint32_t period
 488:Generated_Source\PSoC6\pdl\drivers/peripheral/tcpwm/cy_tcpwm_counter.h **** {
 489:Generated_Source\PSoC6\pdl\drivers/peripheral/tcpwm/cy_tcpwm_counter.h ****     base->CNT[cntNum].PERIOD = period;
 1141              		.loc 6 489 0
 1142 004e 074A     		ldr	r2, .L74+20
 1143 0050 C4F85421 		str	r2, [r4, #340]
 1144              	.LVL112:
 1145              	.LBE49:
 1146              	.LBE48:
 1147              	.LBB50:
 1148              	.LBB51:
 446:Generated_Source\PSoC6\pdl\drivers/peripheral/tcpwm/cy_tcpwm.h **** }
 1149              		.loc 2 446 0
 1150 0054 2361     		str	r3, [r4, #16]
 1151              	.LVL113:
 1152 0056 10BD     		pop	{r4, pc}
 1153              	.L75:
 1154              		.align	2
 1155              	.L74:
ARM GAS  C:\Users\rober\AppData\Local\Temp\ccBCZTBX.s 			page 88


 1156 0058 00000000 		.word	isrTimer_cfg
 1157 005c 00000000 		.word	TimerInterruptHandler
 1158 0060 00E100E0 		.word	-536813312
 1159 0064 00003840 		.word	1077411840
 1160 0068 00000000 		.word	Timer_config
 1161 006c 3F420F00 		.word	999999
 1162              	.LBE51:
 1163              	.LBE50:
 1164              		.cfi_endproc
 1165              	.LFE612:
 1166              		.size	Init_Interrupts, .-Init_Interrupts
 1167              		.section	.text.main,"ax",%progbits
 1168              		.align	2
 1169              		.global	main
 1170              		.thumb
 1171              		.thumb_func
 1172              		.type	main, %function
 1173              	main:
 1174              	.LFB613:
 475:main_cm4.c    ****     Cy_TCPWM_Enable_Multiple(Timer_HW, Timer_CNT_MASK); /* Enable the counter instance */
 476:main_cm4.c    ****     
 477:main_cm4.c    ****     /* Set the timer period in milliseconds. To count N cycles, period should be
 478:main_cm4.c    ****      * set to N-1. */
 479:main_cm4.c    ****     Cy_TCPWM_Counter_SetPeriod(Timer_HW, Timer_CNT_NUM, TIMER_PERIOD - 1);
 480:main_cm4.c    ****     
 481:main_cm4.c    ****     /* Trigger a software reload on the counter instance. This is required when 
 482:main_cm4.c    ****      * no other hardware input signal is connected to the component to act as
 483:main_cm4.c    ****      * a trigger source. */
 484:main_cm4.c    ****     Cy_TCPWM_TriggerReloadOrIndex(Timer_HW, Timer_CNT_MASK); 
 485:main_cm4.c    **** }
 486:main_cm4.c    **** 
 487:main_cm4.c    **** int main(void)
 488:main_cm4.c    **** {
 1175              		.loc 1 488 0
 1176              		.cfi_startproc
 1177              		@ args = 0, pretend = 0, frame = 0
 1178              		@ frame_needed = 0, uses_anonymous_args = 0
 1179 0000 08B5     		push	{r3, lr}
 1180              		.cfi_def_cfa_offset 8
 1181              		.cfi_offset 3, -8
 1182              		.cfi_offset 14, -4
 1183              	.LVL114:
 489:main_cm4.c    ****     
 490:main_cm4.c    ****     uint8 pageNumber = 0;
 491:main_cm4.c    ****     
 492:main_cm4.c    ****     Init_Interrupts();
 1184              		.loc 1 492 0
 1185 0002 FFF7FEFF 		bl	Init_Interrupts
 1186              	.LVL115:
 493:main_cm4.c    ****     
 494:main_cm4.c    ****     /* Initialize emWin Graphics */
 495:main_cm4.c    ****     PWM_Start();
 1187              		.loc 1 495 0
 1188 0006 FFF7FEFF 		bl	PWM_Start
 1189              	.LVL116:
 496:main_cm4.c    ****     GUI_Init();
 1190              		.loc 1 496 0
ARM GAS  C:\Users\rober\AppData\Local\Temp\ccBCZTBX.s 			page 89


 1191 000a FFF7FEFF 		bl	GUI_Init
 1192              	.LVL117:
 497:main_cm4.c    **** 
 498:main_cm4.c    ****     /* Start the eInk display interface and turn on the display power */
 499:main_cm4.c    ****     Cy_EINK_Start(20);
 1193              		.loc 1 499 0
 1194 000e 1420     		movs	r0, #20
 1195 0010 FFF7FEFF 		bl	Cy_EINK_Start
 1196              	.LVL118:
 500:main_cm4.c    ****     Cy_EINK_Power(1);
 1197              		.loc 1 500 0
 1198 0014 0120     		movs	r0, #1
 1199 0016 FFF7FEFF 		bl	Cy_EINK_Power
 1200              	.LVL119:
 501:main_cm4.c    ****     
 502:main_cm4.c    ****     InitGraph();
 1201              		.loc 1 502 0
 1202 001a FFF7FEFF 		bl	InitGraph
 1203              	.LVL120:
 1204              	.L78:
 503:main_cm4.c    ****     
 504:main_cm4.c    ****     for(;;)
 505:main_cm4.c    ****     {
 506:main_cm4.c    ****         if(!programStarted) {
 1205              		.loc 1 506 0
 1206 001e 094B     		ldr	r3, .L82
 1207 0020 93F8B835 		ldrb	r3, [r3, #1464]	@ zero_extendqisi2
 1208 0024 002B     		cmp	r3, #0
 1209 0026 FAD1     		bne	.L78
 507:main_cm4.c    ****             if(modeSwitch == 0){
 1210              		.loc 1 507 0
 1211 0028 064B     		ldr	r3, .L82
 1212 002a D3F8C835 		ldr	r3, [r3, #1480]
 1213 002e 23B9     		cbnz	r3, .L79
 508:main_cm4.c    ****                 ShowTable();   
 1214              		.loc 1 508 0
 1215 0030 FFF7FEFF 		bl	ShowTable
 1216              	.LVL121:
 509:main_cm4.c    ****                 WaitforSwitchPressAndRelease();
 1217              		.loc 1 509 0
 1218 0034 FFF7FEFF 		bl	WaitforSwitchPressAndRelease
 1219              	.LVL122:
 1220 0038 F1E7     		b	.L78
 1221              	.L79:
 510:main_cm4.c    ****             }
 511:main_cm4.c    ****             else {
 512:main_cm4.c    ****                 ShowGraph_WithUpdate();
 1222              		.loc 1 512 0
 1223 003a FFF7FEFF 		bl	ShowGraph_WithUpdate
 1224              	.LVL123:
 513:main_cm4.c    ****                 WaitforSwitchPressAndRelease();
 1225              		.loc 1 513 0
 1226 003e FFF7FEFF 		bl	WaitforSwitchPressAndRelease
 1227              	.LVL124:
 1228 0042 ECE7     		b	.L78
 1229              	.L83:
 1230              		.align	2
ARM GAS  C:\Users\rober\AppData\Local\Temp\ccBCZTBX.s 			page 90


 1231              	.L82:
 1232 0044 F8100000 		.word	.LANCHOR1
 1233              		.cfi_endproc
 1234              	.LFE613:
 1235              		.size	main, .-main
 1236              		.global	maxTimeInGraph
 1237              		.global	programStarted
 1238              		.global	whichData
 1239              		.global	leadData
 1240              		.global	reflowData
 1241              		.global	modeSwitch
 1242              		.global	dataSize_global
 1243              		.global	which_data_table
 1244              		.global	start_point
 1245              		.global	compareValue
 1246              		.global	imageBufferCache
 1247              		.section	.rodata
 1248              		.align	2
 1249              		.set	.LANCHOR3,. + 0
 1250              	.LC0:
 1251 0000 3000     		.ascii	"0\000"
 1252 0002 00000000 		.space	4
 1253 0006 363000   		.ascii	"60\000"
 1254 0009 000000   		.space	3
 1255 000c 31323000 		.ascii	"120\000"
 1256 0010 0000     		.space	2
 1257 0012 31383000 		.ascii	"180\000"
 1258 0016 0000     		.space	2
 1259 0018 32343000 		.ascii	"240\000"
 1260 001c 0000     		.space	2
 1261 001e 33303000 		.ascii	"300\000"
 1262 0022 0000     		.space	2
 1263 0024 33363000 		.ascii	"360\000"
 1264 0028 0000     		.space	2
 1265 002a 34323000 		.ascii	"420\000"
 1266 002e 0000     		.space	2
 1267              	.LC1:
 1268 0030 3000     		.ascii	"0\000"
 1269 0032 0000     		.space	2
 1270 0034 363000   		.ascii	"60\000"
 1271 0037 00       		.space	1
 1272 0038 31323000 		.ascii	"120\000"
 1273 003c 31383000 		.ascii	"180\000"
 1274 0040 32343000 		.ascii	"240\000"
 1275 0044 33303000 		.ascii	"300\000"
 1276              	.LC2:
 1277 0048 1E000000 		.word	30
 1278 004c 3C000000 		.word	60
 1279 0050 5A000000 		.word	90
 1280 0054 78000000 		.word	120
 1281 0058 96000000 		.word	150
 1282 005c B4000000 		.word	180
 1283 0060 D2000000 		.word	210
 1284 0064 F0000000 		.word	240
 1285              	.LC3:
 1286 0068 14000000 		.word	20
 1287 006c 32000000 		.word	50
ARM GAS  C:\Users\rober\AppData\Local\Temp\ccBCZTBX.s 			page 91


 1288 0070 50000000 		.word	80
 1289 0074 6E000000 		.word	110
 1290 0078 8C000000 		.word	140
 1291 007c AA000000 		.word	170
 1292              	.LC11:
 1293 0080 60000000 		.word	.LC4
 1294 0084 70000000 		.word	.LC5
 1295              		.data
 1296              		.align	2
 1297              		.set	.LANCHOR2,. + 0
 1298              		.type	pointCounter.20195, %object
 1299              		.size	pointCounter.20195, 4
 1300              	pointCounter.20195:
 1301 0000 0A000000 		.word	10
 1302              		.type	compareValue, %object
 1303              		.size	compareValue, 4
 1304              	compareValue:
 1305 0004 32000000 		.word	50
 1306              		.type	which_data_table, %object
 1307              		.size	which_data_table, 4
 1308              	which_data_table:
 1309 0008 01000000 		.word	1
 1310              		.type	reflowData, %object
 1311              		.size	reflowData, 40
 1312              	reflowData:
 1313 000c 00000000 		.word	0
 1314 0010 00000000 		.word	0
 1315 0014 5A000000 		.word	90
 1316 0018 96000000 		.word	150
 1317 001c B4000000 		.word	180
 1318 0020 96000000 		.word	150
 1319 0024 DC000000 		.word	220
 1320 0028 F5000000 		.word	245
 1321 002c 68010000 		.word	360
 1322 0030 00000000 		.word	0
 1323              		.type	leadData, %object
 1324              		.size	leadData, 96
 1325              	leadData:
 1326 0034 00000000 		.word	0
 1327 0038 19000000 		.word	25
 1328 003c 1E000000 		.word	30
 1329 0040 7D000000 		.word	125
 1330 0044 3C000000 		.word	60
 1331 0048 96000000 		.word	150
 1332 004c 5A000000 		.word	90
 1333 0050 B4000000 		.word	180
 1334 0054 78000000 		.word	120
 1335 0058 D2000000 		.word	210
 1336 005c 8C000000 		.word	140
 1337 0060 E6000000 		.word	230
 1338 0064 A0000000 		.word	160
 1339 0068 E6000000 		.word	230
 1340 006c B4000000 		.word	180
 1341 0070 D2000000 		.word	210
 1342 0074 C8000000 		.word	200
 1343 0078 B4000000 		.word	180
 1344 007c DC000000 		.word	220
ARM GAS  C:\Users\rober\AppData\Local\Temp\ccBCZTBX.s 			page 92


 1345 0080 96000000 		.word	150
 1346 0084 F0000000 		.word	240
 1347 0088 7D000000 		.word	125
 1348 008c 04010000 		.word	260
 1349 0090 19000000 		.word	25
 1350              		.section	.rodata.str1.4,"aMS",%progbits,1
 1351              		.align	2
 1352              	.LC7:
 1353 0000 43595052 		.ascii	"CYPRESS\000"
 1353      45535300 
 1354              	.LC8:
 1355 0008 454D5749 		.ascii	"EMWIN GRAPHICS\000"
 1355      4E204752 
 1355      41504849 
 1355      435300
 1356 0017 00       		.space	1
 1357              	.LC9:
 1358 0018 45494E4B 		.ascii	"EINK DISPLAY DEMO\000"
 1358      20444953 
 1358      504C4159 
 1358      2044454D 
 1358      4F00
 1359 002a 0000     		.space	2
 1360              	.LC10:
 1361 002c 4C494E45 		.ascii	"LINE GRAPH DEMO\000"
 1361      20475241 
 1361      50482044 
 1361      454D4F00 
 1362              	.LC12:
 1363 003c 54696D65 		.ascii	"Time (s)\000"
 1363      20287329 
 1363      00
 1364 0045 000000   		.space	3
 1365              	.LC13:
 1366 0048 54656D70 		.ascii	"Temperature (C deg)\000"
 1366      65726174 
 1366      75726520 
 1366      28432064 
 1366      65672900 
 1367              	.LC14:
 1368 005c 256400   		.ascii	"%d\000"
 1369 005f 00       		.space	1
 1370              	.LC4:
 1371 0060 5265666C 		.ascii	"Reflow Profile\000"
 1371      6F772050 
 1371      726F6669 
 1371      6C6500
 1372 006f 00       		.space	1
 1373              	.LC5:
 1374 0070 4C656164 		.ascii	"Lead Profile\000"
 1374      2050726F 
 1374      66696C65 
 1374      00
 1375              		.bss
 1376              		.align	2
 1377              		.set	.LANCHOR0,. + 0
 1378              		.set	.LANCHOR1,. + 4344
ARM GAS  C:\Users\rober\AppData\Local\Temp\ccBCZTBX.s 			page 93


 1379              		.type	imageBufferCache, %object
 1380              		.size	imageBufferCache, 5808
 1381              	imageBufferCache:
 1382 0000 00000000 		.space	5808
 1382      00000000 
 1382      00000000 
 1382      00000000 
 1382      00000000 
 1383              		.type	programStarted, %object
 1384              		.size	programStarted, 1
 1385              	programStarted:
 1386 16b0 00       		.space	1
 1387 16b1 000000   		.space	3
 1388              		.type	randomTemperature2.20197, %object
 1389              		.size	randomTemperature2.20197, 4
 1390              	randomTemperature2.20197:
 1391 16b4 00000000 		.space	4
 1392              		.type	randomTemperature1.20196, %object
 1393              		.size	randomTemperature1.20196, 4
 1394              	randomTemperature1.20196:
 1395 16b8 00000000 		.space	4
 1396              		.type	maxTimeInGraph, %object
 1397              		.size	maxTimeInGraph, 4
 1398              	maxTimeInGraph:
 1399 16bc 00000000 		.space	4
 1400              		.type	modeSwitch, %object
 1401              		.size	modeSwitch, 4
 1402              	modeSwitch:
 1403 16c0 00000000 		.space	4
 1404              		.type	start_point, %object
 1405              		.size	start_point, 4
 1406              	start_point:
 1407 16c4 00000000 		.space	4
 1408              		.type	dataSize_global, %object
 1409              		.size	dataSize_global, 4
 1410              	dataSize_global:
 1411 16c8 00000000 		.space	4
 1412              		.type	whichData, %object
 1413              		.size	whichData, 4
 1414              	whichData:
 1415 16cc 00000000 		.space	4
 1416              		.text
 1417              	.Letext0:
 1418              		.file 7 "Generated_Source\\PSoC6\\pdl\\devices/psoc6/psoc63/include/cy8c6347bzi_bld53.h"
 1419              		.file 8 "c:\\program files (x86)\\cypress\\psoc creator\\4.4\\psoc creator\\import\\gnu\\arm\\5.4.
 1420              		.file 9 "c:\\program files (x86)\\cypress\\psoc creator\\4.4\\psoc creator\\import\\gnu\\arm\\5.4.
 1421              		.file 10 "Generated_Source\\PSoC6\\pdl\\devices/psoc6/ip/cyip_tcpwm.h"
 1422              		.file 11 "Generated_Source\\PSoC6\\pdl\\drivers/peripheral/syslib/cy_syslib.h"
 1423              		.file 12 "Generated_Source\\PSoC6\\pdl\\drivers/peripheral/sysint/cy_sysint.h"
 1424              		.file 13 "Generated_Source\\PSoC6\\pdl\\drivers/peripheral/scb/cy_scb_spi.h"
 1425              		.file 14 "Generated_Source\\PSoC6\\pdl\\middleware/emWin/code/include/LCD.h"
 1426              		.file 15 "Generated_Source\\PSoC6\\pdl\\middleware/emWin/code/include/GUI_Type.h"
 1427              		.file 16 ".\\eInk Library/pervasive_eink_hardware_driver.h"
 1428              		.file 17 ".\\eInk Library/cy_eink_library.h"
 1429              		.file 18 "Generated_Source\\PSoC6/cyfitter_sysint_cfg.h"
 1430              		.file 19 "Generated_Source\\PSoC6/CY_EINK_SPIM.h"
 1431              		.file 20 "Generated_Source\\PSoC6/CY_EINK_Timer.h"
ARM GAS  C:\Users\rober\AppData\Local\Temp\ccBCZTBX.s 			page 94


 1432              		.file 21 "Generated_Source\\PSoC6/PWM.h"
 1433              		.file 22 "Generated_Source\\PSoC6/Timer.h"
 1434              		.file 23 "Generated_Source\\PSoC6\\pdl\\middleware/emWin/code/include/GUI.h"
 1435              		.file 24 "LCDConf.h"
 1436              		.file 25 "c:\\program files (x86)\\cypress\\psoc creator\\4.4\\psoc creator\\import\\gnu\\arm\\5.4
 1437              		.file 26 "Generated_Source\\PSoC6/Status_SW2.h"
 1438              		.file 27 "c:\\program files (x86)\\cypress\\psoc creator\\4.4\\psoc creator\\import\\gnu\\arm\\5.4
 1439              		.section	.debug_info,"",%progbits
 1440              	.Ldebug_info0:
 1441 0000 30210000 		.4byte	0x2130
 1442 0004 0400     		.2byte	0x4
 1443 0006 00000000 		.4byte	.Ldebug_abbrev0
 1444 000a 04       		.byte	0x4
 1445 000b 01       		.uleb128 0x1
 1446 000c 98040000 		.4byte	.LASF442
 1447 0010 0C       		.byte	0xc
 1448 0011 B7000000 		.4byte	.LASF443
 1449 0015 5E100000 		.4byte	.LASF444
 1450 0019 30000000 		.4byte	.Ldebug_ranges0+0x30
 1451 001d 00000000 		.4byte	0
 1452 0021 00000000 		.4byte	.Ldebug_line0
 1453 0025 02       		.uleb128 0x2
 1454 0026 02       		.byte	0x2
 1455 0027 E6030000 		.4byte	0x3e6
 1456 002b 07       		.byte	0x7
 1457 002c 24       		.byte	0x24
 1458 002d E6030000 		.4byte	0x3e6
 1459 0031 03       		.uleb128 0x3
 1460 0032 4D1B0000 		.4byte	.LASF0
 1461 0036 71       		.sleb128 -15
 1462 0037 03       		.uleb128 0x3
 1463 0038 E6150000 		.4byte	.LASF1
 1464 003c 72       		.sleb128 -14
 1465 003d 03       		.uleb128 0x3
 1466 003e 901B0000 		.4byte	.LASF2
 1467 0042 73       		.sleb128 -13
 1468 0043 03       		.uleb128 0x3
 1469 0044 B3050000 		.4byte	.LASF3
 1470 0048 74       		.sleb128 -12
 1471 0049 03       		.uleb128 0x3
 1472 004a 34110000 		.4byte	.LASF4
 1473 004e 75       		.sleb128 -11
 1474 004f 03       		.uleb128 0x3
 1475 0050 C8190000 		.4byte	.LASF5
 1476 0054 76       		.sleb128 -10
 1477 0055 03       		.uleb128 0x3
 1478 0056 D8080000 		.4byte	.LASF6
 1479 005a 7B       		.sleb128 -5
 1480 005b 03       		.uleb128 0x3
 1481 005c B6190000 		.4byte	.LASF7
 1482 0060 7C       		.sleb128 -4
 1483 0061 03       		.uleb128 0x3
 1484 0062 6A040000 		.4byte	.LASF8
 1485 0066 7E       		.sleb128 -2
 1486 0067 03       		.uleb128 0x3
 1487 0068 53180000 		.4byte	.LASF9
 1488 006c 7F       		.sleb128 -1
ARM GAS  C:\Users\rober\AppData\Local\Temp\ccBCZTBX.s 			page 95


 1489 006d 04       		.uleb128 0x4
 1490 006e 001D0000 		.4byte	.LASF10
 1491 0072 00       		.byte	0
 1492 0073 04       		.uleb128 0x4
 1493 0074 96120000 		.4byte	.LASF11
 1494 0078 01       		.byte	0x1
 1495 0079 04       		.uleb128 0x4
 1496 007a 39030000 		.4byte	.LASF12
 1497 007e 02       		.byte	0x2
 1498 007f 04       		.uleb128 0x4
 1499 0080 E81D0000 		.4byte	.LASF13
 1500 0084 03       		.byte	0x3
 1501 0085 04       		.uleb128 0x4
 1502 0086 82140000 		.4byte	.LASF14
 1503 008a 04       		.byte	0x4
 1504 008b 04       		.uleb128 0x4
 1505 008c 351C0000 		.4byte	.LASF15
 1506 0090 05       		.byte	0x5
 1507 0091 04       		.uleb128 0x4
 1508 0092 D4110000 		.4byte	.LASF16
 1509 0096 06       		.byte	0x6
 1510 0097 04       		.uleb128 0x4
 1511 0098 A0060000 		.4byte	.LASF17
 1512 009c 07       		.byte	0x7
 1513 009d 04       		.uleb128 0x4
 1514 009e F3160000 		.4byte	.LASF18
 1515 00a2 08       		.byte	0x8
 1516 00a3 04       		.uleb128 0x4
 1517 00a4 E70B0000 		.4byte	.LASF19
 1518 00a8 09       		.byte	0x9
 1519 00a9 04       		.uleb128 0x4
 1520 00aa 5B0C0000 		.4byte	.LASF20
 1521 00ae 0A       		.byte	0xa
 1522 00af 04       		.uleb128 0x4
 1523 00b0 87090000 		.4byte	.LASF21
 1524 00b4 0B       		.byte	0xb
 1525 00b5 04       		.uleb128 0x4
 1526 00b6 39150000 		.4byte	.LASF22
 1527 00ba 0C       		.byte	0xc
 1528 00bb 04       		.uleb128 0x4
 1529 00bc BC060000 		.4byte	.LASF23
 1530 00c0 0D       		.byte	0xd
 1531 00c1 04       		.uleb128 0x4
 1532 00c2 EF120000 		.4byte	.LASF24
 1533 00c6 0E       		.byte	0xe
 1534 00c7 04       		.uleb128 0x4
 1535 00c8 42000000 		.4byte	.LASF25
 1536 00cc 0F       		.byte	0xf
 1537 00cd 04       		.uleb128 0x4
 1538 00ce EE1A0000 		.4byte	.LASF26
 1539 00d2 10       		.byte	0x10
 1540 00d3 04       		.uleb128 0x4
 1541 00d4 C20E0000 		.4byte	.LASF27
 1542 00d8 11       		.byte	0x11
 1543 00d9 04       		.uleb128 0x4
 1544 00da 95050000 		.4byte	.LASF28
 1545 00de 12       		.byte	0x12
ARM GAS  C:\Users\rober\AppData\Local\Temp\ccBCZTBX.s 			page 96


 1546 00df 04       		.uleb128 0x4
 1547 00e0 820E0000 		.4byte	.LASF29
 1548 00e4 13       		.byte	0x13
 1549 00e5 04       		.uleb128 0x4
 1550 00e6 09030000 		.4byte	.LASF30
 1551 00ea 14       		.byte	0x14
 1552 00eb 04       		.uleb128 0x4
 1553 00ec 53080000 		.4byte	.LASF31
 1554 00f0 15       		.byte	0x15
 1555 00f1 04       		.uleb128 0x4
 1556 00f2 AD0C0000 		.4byte	.LASF32
 1557 00f6 16       		.byte	0x16
 1558 00f7 04       		.uleb128 0x4
 1559 00f8 D3020000 		.4byte	.LASF33
 1560 00fc 17       		.byte	0x17
 1561 00fd 04       		.uleb128 0x4
 1562 00fe 56150000 		.4byte	.LASF34
 1563 0102 18       		.byte	0x18
 1564 0103 04       		.uleb128 0x4
 1565 0104 9C0F0000 		.4byte	.LASF35
 1566 0108 19       		.byte	0x19
 1567 0109 04       		.uleb128 0x4
 1568 010a 28010000 		.4byte	.LASF36
 1569 010e 1A       		.byte	0x1a
 1570 010f 04       		.uleb128 0x4
 1571 0110 5F0A0000 		.4byte	.LASF37
 1572 0114 1B       		.byte	0x1b
 1573 0115 04       		.uleb128 0x4
 1574 0116 981E0000 		.4byte	.LASF38
 1575 011a 1C       		.byte	0x1c
 1576 011b 04       		.uleb128 0x4
 1577 011c 511A0000 		.4byte	.LASF39
 1578 0120 1D       		.byte	0x1d
 1579 0121 04       		.uleb128 0x4
 1580 0122 E60E0000 		.4byte	.LASF40
 1581 0126 1E       		.byte	0x1e
 1582 0127 04       		.uleb128 0x4
 1583 0128 560D0000 		.4byte	.LASF41
 1584 012c 1F       		.byte	0x1f
 1585 012d 04       		.uleb128 0x4
 1586 012e AF140000 		.4byte	.LASF42
 1587 0132 20       		.byte	0x20
 1588 0133 04       		.uleb128 0x4
 1589 0134 CF090000 		.4byte	.LASF43
 1590 0138 21       		.byte	0x21
 1591 0139 04       		.uleb128 0x4
 1592 013a 731C0000 		.4byte	.LASF44
 1593 013e 22       		.byte	0x22
 1594 013f 04       		.uleb128 0x4
 1595 0140 D60D0000 		.4byte	.LASF45
 1596 0144 23       		.byte	0x23
 1597 0145 04       		.uleb128 0x4
 1598 0146 52020000 		.4byte	.LASF46
 1599 014a 24       		.byte	0x24
 1600 014b 04       		.uleb128 0x4
 1601 014c 59160000 		.4byte	.LASF47
 1602 0150 25       		.byte	0x25
ARM GAS  C:\Users\rober\AppData\Local\Temp\ccBCZTBX.s 			page 97


 1603 0151 04       		.uleb128 0x4
 1604 0152 36080000 		.4byte	.LASF48
 1605 0156 26       		.byte	0x26
 1606 0157 04       		.uleb128 0x4
 1607 0158 1F1B0000 		.4byte	.LASF49
 1608 015c 27       		.byte	0x27
 1609 015d 04       		.uleb128 0x4
 1610 015e D1100000 		.4byte	.LASF50
 1611 0162 28       		.byte	0x28
 1612 0163 04       		.uleb128 0x4
 1613 0164 3C1A0000 		.4byte	.LASF51
 1614 0168 29       		.byte	0x29
 1615 0169 04       		.uleb128 0x4
 1616 016a A4110000 		.4byte	.LASF52
 1617 016e 2A       		.byte	0x2a
 1618 016f 04       		.uleb128 0x4
 1619 0170 52170000 		.4byte	.LASF53
 1620 0174 2B       		.byte	0x2b
 1621 0175 04       		.uleb128 0x4
 1622 0176 A40E0000 		.4byte	.LASF54
 1623 017a 2C       		.byte	0x2c
 1624 017b 04       		.uleb128 0x4
 1625 017c 5C070000 		.4byte	.LASF55
 1626 0180 2D       		.byte	0x2d
 1627 0181 04       		.uleb128 0x4
 1628 0182 2F100000 		.4byte	.LASF56
 1629 0186 2E       		.byte	0x2e
 1630 0187 04       		.uleb128 0x4
 1631 0188 1D160000 		.4byte	.LASF57
 1632 018c 2F       		.byte	0x2f
 1633 018d 04       		.uleb128 0x4
 1634 018e 06140000 		.4byte	.LASF58
 1635 0192 30       		.byte	0x30
 1636 0193 04       		.uleb128 0x4
 1637 0194 AD1C0000 		.4byte	.LASF59
 1638 0198 31       		.byte	0x31
 1639 0199 04       		.uleb128 0x4
 1640 019a 13180000 		.4byte	.LASF60
 1641 019e 32       		.byte	0x32
 1642 019f 04       		.uleb128 0x4
 1643 01a0 180D0000 		.4byte	.LASF61
 1644 01a4 33       		.byte	0x33
 1645 01a5 04       		.uleb128 0x4
 1646 01a6 16000000 		.4byte	.LASF62
 1647 01aa 34       		.byte	0x34
 1648 01ab 04       		.uleb128 0x4
 1649 01ac 65120000 		.4byte	.LASF63
 1650 01b0 35       		.byte	0x35
 1651 01b1 04       		.uleb128 0x4
 1652 01b2 32070000 		.4byte	.LASF64
 1653 01b6 36       		.byte	0x36
 1654 01b7 04       		.uleb128 0x4
 1655 01b8 8E1A0000 		.4byte	.LASF65
 1656 01bc 37       		.byte	0x37
 1657 01bd 04       		.uleb128 0x4
 1658 01be 240C0000 		.4byte	.LASF66
 1659 01c2 38       		.byte	0x38
ARM GAS  C:\Users\rober\AppData\Local\Temp\ccBCZTBX.s 			page 98


 1660 01c3 04       		.uleb128 0x4
 1661 01c4 FD000000 		.4byte	.LASF67
 1662 01c8 39       		.byte	0x39
 1663 01c9 04       		.uleb128 0x4
 1664 01ca 691B0000 		.4byte	.LASF68
 1665 01ce 3A       		.byte	0x3a
 1666 01cf 04       		.uleb128 0x4
 1667 01d0 220A0000 		.4byte	.LASF69
 1668 01d4 3B       		.byte	0x3b
 1669 01d5 04       		.uleb128 0x4
 1670 01d6 BC0B0000 		.4byte	.LASF70
 1671 01da 3C       		.byte	0x3c
 1672 01db 04       		.uleb128 0x4
 1673 01dc 261D0000 		.4byte	.LASF71
 1674 01e0 3D       		.byte	0x3d
 1675 01e1 04       		.uleb128 0x4
 1676 01e2 D2120000 		.4byte	.LASF72
 1677 01e6 3E       		.byte	0x3e
 1678 01e7 04       		.uleb128 0x4
 1679 01e8 55030000 		.4byte	.LASF73
 1680 01ec 3F       		.byte	0x3f
 1681 01ed 04       		.uleb128 0x4
 1682 01ee 93170000 		.4byte	.LASF74
 1683 01f2 40       		.byte	0x40
 1684 01f3 04       		.uleb128 0x4
 1685 01f4 900C0000 		.4byte	.LASF75
 1686 01f8 41       		.byte	0x41
 1687 01f9 04       		.uleb128 0x4
 1688 01fa 03040000 		.4byte	.LASF76
 1689 01fe 42       		.byte	0x42
 1690 01ff 04       		.uleb128 0x4
 1691 0200 6D180000 		.4byte	.LASF77
 1692 0204 43       		.byte	0x43
 1693 0205 04       		.uleb128 0x4
 1694 0206 9A0D0000 		.4byte	.LASF78
 1695 020a 44       		.byte	0x44
 1696 020b 04       		.uleb128 0x4
 1697 020c 571D0000 		.4byte	.LASF79
 1698 0210 45       		.byte	0x45
 1699 0211 04       		.uleb128 0x4
 1700 0212 0C130000 		.4byte	.LASF80
 1701 0216 46       		.byte	0x46
 1702 0217 04       		.uleb128 0x4
 1703 0218 AD070000 		.4byte	.LASF81
 1704 021c 47       		.byte	0x47
 1705 021d 04       		.uleb128 0x4
 1706 021e 581E0000 		.4byte	.LASF82
 1707 0222 48       		.byte	0x48
 1708 0223 04       		.uleb128 0x4
 1709 0224 D80C0000 		.4byte	.LASF83
 1710 0228 49       		.byte	0x49
 1711 0229 04       		.uleb128 0x4
 1712 022a 95010000 		.4byte	.LASF84
 1713 022e 4A       		.byte	0x4a
 1714 022f 04       		.uleb128 0x4
 1715 0230 2E120000 		.4byte	.LASF85
 1716 0234 4B       		.byte	0x4b
ARM GAS  C:\Users\rober\AppData\Local\Temp\ccBCZTBX.s 			page 99


 1717 0235 04       		.uleb128 0x4
 1718 0236 28130000 		.4byte	.LASF86
 1719 023a 4C       		.byte	0x4c
 1720 023b 04       		.uleb128 0x4
 1721 023c C9070000 		.4byte	.LASF87
 1722 0240 4D       		.byte	0x4d
 1723 0241 04       		.uleb128 0x4
 1724 0242 D6160000 		.4byte	.LASF88
 1725 0246 4E       		.byte	0x4e
 1726 0247 04       		.uleb128 0x4
 1727 0248 FB0C0000 		.4byte	.LASF89
 1728 024c 4F       		.byte	0x4f
 1729 024d 04       		.uleb128 0x4
 1730 024e BB010000 		.4byte	.LASF90
 1731 0252 50       		.byte	0x50
 1732 0253 04       		.uleb128 0x4
 1733 0254 AD150000 		.4byte	.LASF91
 1734 0258 51       		.byte	0x51
 1735 0259 04       		.uleb128 0x4
 1736 025a F1090000 		.4byte	.LASF92
 1737 025e 52       		.byte	0x52
 1738 025f 04       		.uleb128 0x4
 1739 0260 C81C0000 		.4byte	.LASF93
 1740 0264 53       		.byte	0x53
 1741 0265 04       		.uleb128 0x4
 1742 0266 041E0000 		.4byte	.LASF94
 1743 026a 54       		.byte	0x54
 1744 026b 04       		.uleb128 0x4
 1745 026c F30D0000 		.4byte	.LASF95
 1746 0270 55       		.byte	0x55
 1747 0271 04       		.uleb128 0x4
 1748 0272 FE110000 		.4byte	.LASF96
 1749 0276 56       		.byte	0x56
 1750 0277 04       		.uleb128 0x4
 1751 0278 0C070000 		.4byte	.LASF97
 1752 027c 57       		.byte	0x57
 1753 027d 04       		.uleb128 0x4
 1754 027e CF1E0000 		.4byte	.LASF98
 1755 0282 58       		.byte	0x58
 1756 0283 04       		.uleb128 0x4
 1757 0284 E6130000 		.4byte	.LASF99
 1758 0288 59       		.byte	0x59
 1759 0289 04       		.uleb128 0x4
 1760 028a 2E1E0000 		.4byte	.LASF100
 1761 028e 5A       		.byte	0x5a
 1762 028f 04       		.uleb128 0x4
 1763 0290 04100000 		.4byte	.LASF101
 1764 0294 5B       		.byte	0x5b
 1765 0295 04       		.uleb128 0x4
 1766 0296 50040000 		.4byte	.LASF102
 1767 029a 5C       		.byte	0x5c
 1768 029b 04       		.uleb128 0x4
 1769 029c 9B180000 		.4byte	.LASF103
 1770 02a0 5D       		.byte	0x5d
 1771 02a1 04       		.uleb128 0x4
 1772 02a2 940A0000 		.4byte	.LASF104
 1773 02a6 5E       		.byte	0x5e
ARM GAS  C:\Users\rober\AppData\Local\Temp\ccBCZTBX.s 			page 100


 1774 02a7 04       		.uleb128 0x4
 1775 02a8 731D0000 		.4byte	.LASF105
 1776 02ac 5F       		.byte	0x5f
 1777 02ad 04       		.uleb128 0x4
 1778 02ae 45130000 		.4byte	.LASF106
 1779 02b2 60       		.byte	0x60
 1780 02b3 04       		.uleb128 0x4
 1781 02b4 BA030000 		.4byte	.LASF107
 1782 02b8 61       		.byte	0x61
 1783 02b9 04       		.uleb128 0x4
 1784 02ba D8190000 		.4byte	.LASF108
 1785 02be 62       		.byte	0x62
 1786 02bf 04       		.uleb128 0x4
 1787 02c0 4E0B0000 		.4byte	.LASF109
 1788 02c4 63       		.byte	0x63
 1789 02c5 04       		.uleb128 0x4
 1790 02c6 F91E0000 		.4byte	.LASF110
 1791 02ca 64       		.byte	0x64
 1792 02cb 04       		.uleb128 0x4
 1793 02cc 020F0000 		.4byte	.LASF111
 1794 02d0 65       		.byte	0x65
 1795 02d1 04       		.uleb128 0x4
 1796 02d2 02090000 		.4byte	.LASF112
 1797 02d6 66       		.byte	0x66
 1798 02d7 04       		.uleb128 0x4
 1799 02d8 17190000 		.4byte	.LASF113
 1800 02dc 67       		.byte	0x67
 1801 02dd 04       		.uleb128 0x4
 1802 02de C2000000 		.4byte	.LASF114
 1803 02e2 68       		.byte	0x68
 1804 02e3 04       		.uleb128 0x4
 1805 02e4 85020000 		.4byte	.LASF115
 1806 02e8 69       		.byte	0x69
 1807 02e9 04       		.uleb128 0x4
 1808 02ea 90130000 		.4byte	.LASF116
 1809 02ee 6A       		.byte	0x6a
 1810 02ef 04       		.uleb128 0x4
 1811 02f0 9B080000 		.4byte	.LASF117
 1812 02f4 6B       		.byte	0x6b
 1813 02f5 04       		.uleb128 0x4
 1814 02f6 1A1C0000 		.4byte	.LASF118
 1815 02fa 6C       		.byte	0x6c
 1816 02fb 04       		.uleb128 0x4
 1817 02fc B9110000 		.4byte	.LASF119
 1818 0300 6D       		.byte	0x6d
 1819 0301 04       		.uleb128 0x4
 1820 0302 85060000 		.4byte	.LASF120
 1821 0306 6E       		.byte	0x6e
 1822 0307 04       		.uleb128 0x4
 1823 0308 8D1D0000 		.4byte	.LASF121
 1824 030c 6F       		.byte	0x6f
 1825 030d 04       		.uleb128 0x4
 1826 030e 7A010000 		.4byte	.LASF122
 1827 0312 70       		.byte	0x70
 1828 0313 04       		.uleb128 0x4
 1829 0314 8A000000 		.4byte	.LASF123
 1830 0318 71       		.byte	0x71
ARM GAS  C:\Users\rober\AppData\Local\Temp\ccBCZTBX.s 			page 101


 1831 0319 04       		.uleb128 0x4
 1832 031a 400C0000 		.4byte	.LASF124
 1833 031e 72       		.byte	0x72
 1834 031f 04       		.uleb128 0x4
 1835 0320 DB050000 		.4byte	.LASF125
 1836 0324 73       		.byte	0x73
 1837 0325 04       		.uleb128 0x4
 1838 0326 9B190000 		.4byte	.LASF126
 1839 032a 74       		.byte	0x74
 1840 032b 04       		.uleb128 0x4
 1841 032c 5A0E0000 		.4byte	.LASF127
 1842 0330 75       		.byte	0x75
 1843 0331 04       		.uleb128 0x4
 1844 0332 310F0000 		.4byte	.LASF128
 1845 0336 76       		.byte	0x76
 1846 0337 04       		.uleb128 0x4
 1847 0338 97030000 		.4byte	.LASF129
 1848 033c 77       		.byte	0x77
 1849 033d 04       		.uleb128 0x4
 1850 033e DC170000 		.4byte	.LASF130
 1851 0342 78       		.byte	0x78
 1852 0343 04       		.uleb128 0x4
 1853 0344 7C030000 		.4byte	.LASF131
 1854 0348 79       		.byte	0x79
 1855 0349 04       		.uleb128 0x4
 1856 034a BE1B0000 		.4byte	.LASF132
 1857 034e 7A       		.byte	0x7a
 1858 034f 04       		.uleb128 0x4
 1859 0350 5B110000 		.4byte	.LASF133
 1860 0354 7B       		.byte	0x7b
 1861 0355 04       		.uleb128 0x4
 1862 0356 F6050000 		.4byte	.LASF134
 1863 035a 7C       		.byte	0x7c
 1864 035b 04       		.uleb128 0x4
 1865 035c F2190000 		.4byte	.LASF135
 1866 0360 7D       		.byte	0x7d
 1867 0361 04       		.uleb128 0x4
 1868 0362 680B0000 		.4byte	.LASF136
 1869 0366 7E       		.byte	0x7e
 1870 0367 04       		.uleb128 0x4
 1871 0368 00000000 		.4byte	.LASF137
 1872 036c 7F       		.byte	0x7f
 1873 036d 04       		.uleb128 0x4
 1874 036e 1B140000 		.4byte	.LASF138
 1875 0372 80       		.byte	0x80
 1876 0373 04       		.uleb128 0x4
 1877 0374 7F050000 		.4byte	.LASF139
 1878 0378 81       		.byte	0x81
 1879 0379 04       		.uleb128 0x4
 1880 037a A8020000 		.4byte	.LASF140
 1881 037e 82       		.byte	0x82
 1882 037f 04       		.uleb128 0x4
 1883 0380 1C0E0000 		.4byte	.LASF141
 1884 0384 83       		.byte	0x83
 1885 0385 04       		.uleb128 0x4
 1886 0386 E1000000 		.4byte	.LASF142
 1887 038a 84       		.byte	0x84
ARM GAS  C:\Users\rober\AppData\Local\Temp\ccBCZTBX.s 			page 102


 1888 038b 04       		.uleb128 0x4
 1889 038c 480A0000 		.4byte	.LASF143
 1890 0390 85       		.byte	0x85
 1891 0391 04       		.uleb128 0x4
 1892 0392 3C180000 		.4byte	.LASF144
 1893 0396 86       		.byte	0x86
 1894 0397 04       		.uleb128 0x4
 1895 0398 830D0000 		.4byte	.LASF145
 1896 039c 87       		.byte	0x87
 1897 039d 04       		.uleb128 0x4
 1898 039e 1F040000 		.4byte	.LASF146
 1899 03a2 88       		.byte	0x88
 1900 03a3 04       		.uleb128 0x4
 1901 03a4 E7060000 		.4byte	.LASF147
 1902 03a8 89       		.byte	0x89
 1903 03a9 04       		.uleb128 0x4
 1904 03aa C41D0000 		.4byte	.LASF148
 1905 03ae 8A       		.byte	0x8a
 1906 03af 04       		.uleb128 0x4
 1907 03b0 4A120000 		.4byte	.LASF149
 1908 03b4 8B       		.byte	0x8b
 1909 03b5 04       		.uleb128 0x4
 1910 03b6 A10B0000 		.4byte	.LASF150
 1911 03ba 8C       		.byte	0x8c
 1912 03bb 04       		.uleb128 0x4
 1913 03bc 42090000 		.4byte	.LASF151
 1914 03c0 8D       		.byte	0x8d
 1915 03c1 04       		.uleb128 0x4
 1916 03c2 37170000 		.4byte	.LASF152
 1917 03c6 8E       		.byte	0x8e
 1918 03c7 04       		.uleb128 0x4
 1919 03c8 81110000 		.4byte	.LASF153
 1920 03cc 8F       		.byte	0x8f
 1921 03cd 04       		.uleb128 0x4
 1922 03ce E6070000 		.4byte	.LASF154
 1923 03d2 90       		.byte	0x90
 1924 03d3 04       		.uleb128 0x4
 1925 03d4 21170000 		.4byte	.LASF155
 1926 03d8 91       		.byte	0x91
 1927 03d9 04       		.uleb128 0x4
 1928 03da 350B0000 		.4byte	.LASF156
 1929 03de 92       		.byte	0x92
 1930 03df 04       		.uleb128 0x4
 1931 03e0 720D0000 		.4byte	.LASF157
 1932 03e4 F0       		.byte	0xf0
 1933 03e5 00       		.byte	0
 1934 03e6 05       		.uleb128 0x5
 1935 03e7 02       		.byte	0x2
 1936 03e8 05       		.byte	0x5
 1937 03e9 72030000 		.4byte	.LASF158
 1938 03ed 06       		.uleb128 0x6
 1939 03ee 180A0000 		.4byte	.LASF160
 1940 03f2 07       		.byte	0x7
 1941 03f3 F4       		.byte	0xf4
 1942 03f4 25000000 		.4byte	0x25
 1943 03f8 05       		.uleb128 0x5
 1944 03f9 01       		.byte	0x1
ARM GAS  C:\Users\rober\AppData\Local\Temp\ccBCZTBX.s 			page 103


 1945 03fa 06       		.byte	0x6
 1946 03fb 9F1B0000 		.4byte	.LASF159
 1947 03ff 06       		.uleb128 0x6
 1948 0400 151B0000 		.4byte	.LASF161
 1949 0404 08       		.byte	0x8
 1950 0405 1D       		.byte	0x1d
 1951 0406 0A040000 		.4byte	0x40a
 1952 040a 05       		.uleb128 0x5
 1953 040b 01       		.byte	0x1
 1954 040c 08       		.byte	0x8
 1955 040d 081A0000 		.4byte	.LASF162
 1956 0411 06       		.uleb128 0x6
 1957 0412 CD080000 		.4byte	.LASF163
 1958 0416 08       		.byte	0x8
 1959 0417 2B       		.byte	0x2b
 1960 0418 1C040000 		.4byte	0x41c
 1961 041c 05       		.uleb128 0x5
 1962 041d 02       		.byte	0x2
 1963 041e 07       		.byte	0x7
 1964 041f D41B0000 		.4byte	.LASF164
 1965 0423 06       		.uleb128 0x6
 1966 0424 C9020000 		.4byte	.LASF165
 1967 0428 08       		.byte	0x8
 1968 0429 3F       		.byte	0x3f
 1969 042a 2E040000 		.4byte	0x42e
 1970 042e 05       		.uleb128 0x5
 1971 042f 04       		.byte	0x4
 1972 0430 05       		.byte	0x5
 1973 0431 95150000 		.4byte	.LASF166
 1974 0435 06       		.uleb128 0x6
 1975 0436 161A0000 		.4byte	.LASF167
 1976 043a 08       		.byte	0x8
 1977 043b 41       		.byte	0x41
 1978 043c 40040000 		.4byte	0x440
 1979 0440 05       		.uleb128 0x5
 1980 0441 04       		.byte	0x4
 1981 0442 07       		.byte	0x7
 1982 0443 89180000 		.4byte	.LASF168
 1983 0447 05       		.uleb128 0x5
 1984 0448 08       		.byte	0x8
 1985 0449 05       		.byte	0x5
 1986 044a 570F0000 		.4byte	.LASF169
 1987 044e 05       		.uleb128 0x5
 1988 044f 08       		.byte	0x8
 1989 0450 07       		.byte	0x7
 1990 0451 8A070000 		.4byte	.LASF170
 1991 0455 07       		.uleb128 0x7
 1992 0456 04       		.byte	0x4
 1993 0457 05       		.byte	0x5
 1994 0458 696E7400 		.ascii	"int\000"
 1995 045c 05       		.uleb128 0x5
 1996 045d 04       		.byte	0x4
 1997 045e 07       		.byte	0x7
 1998 045f 34020000 		.4byte	.LASF171
 1999 0463 06       		.uleb128 0x6
 2000 0464 400E0000 		.4byte	.LASF172
 2001 0468 09       		.byte	0x9
ARM GAS  C:\Users\rober\AppData\Local\Temp\ccBCZTBX.s 			page 104


 2002 0469 18       		.byte	0x18
 2003 046a FF030000 		.4byte	0x3ff
 2004 046e 06       		.uleb128 0x6
 2005 046f D0130000 		.4byte	.LASF173
 2006 0473 09       		.byte	0x9
 2007 0474 24       		.byte	0x24
 2008 0475 11040000 		.4byte	0x411
 2009 0479 06       		.uleb128 0x6
 2010 047a 4F1D0000 		.4byte	.LASF174
 2011 047e 09       		.byte	0x9
 2012 047f 2C       		.byte	0x2c
 2013 0480 23040000 		.4byte	0x423
 2014 0484 06       		.uleb128 0x6
 2015 0485 29060000 		.4byte	.LASF175
 2016 0489 09       		.byte	0x9
 2017 048a 30       		.byte	0x30
 2018 048b 35040000 		.4byte	0x435
 2019 048f 08       		.uleb128 0x8
 2020 0490 040E     		.2byte	0xe04
 2021 0492 04       		.byte	0x4
 2022 0493 9401     		.2byte	0x194
 2023 0495 4B050000 		.4byte	0x54b
 2024 0499 09       		.uleb128 0x9
 2025 049a 07070000 		.4byte	.LASF176
 2026 049e 04       		.byte	0x4
 2027 049f 9601     		.2byte	0x196
 2028 04a1 67050000 		.4byte	0x567
 2029 04a5 00       		.byte	0
 2030 04a6 09       		.uleb128 0x9
 2031 04a7 FD140000 		.4byte	.LASF177
 2032 04ab 04       		.byte	0x4
 2033 04ac 9701     		.2byte	0x197
 2034 04ae 6C050000 		.4byte	0x56c
 2035 04b2 20       		.byte	0x20
 2036 04b3 09       		.uleb128 0x9
 2037 04b4 AA1A0000 		.4byte	.LASF178
 2038 04b8 04       		.byte	0x4
 2039 04b9 9801     		.2byte	0x198
 2040 04bb 7C050000 		.4byte	0x57c
 2041 04bf 80       		.byte	0x80
 2042 04c0 09       		.uleb128 0x9
 2043 04c1 81070000 		.4byte	.LASF179
 2044 04c5 04       		.byte	0x4
 2045 04c6 9901     		.2byte	0x199
 2046 04c8 6C050000 		.4byte	0x56c
 2047 04cc A0       		.byte	0xa0
 2048 04cd 0A       		.uleb128 0xa
 2049 04ce A81C0000 		.4byte	.LASF180
 2050 04d2 04       		.byte	0x4
 2051 04d3 9A01     		.2byte	0x19a
 2052 04d5 81050000 		.4byte	0x581
 2053 04d9 0001     		.2byte	0x100
 2054 04db 0A       		.uleb128 0xa
 2055 04dc 11150000 		.4byte	.LASF181
 2056 04e0 04       		.byte	0x4
 2057 04e1 9B01     		.2byte	0x19b
 2058 04e3 6C050000 		.4byte	0x56c
ARM GAS  C:\Users\rober\AppData\Local\Temp\ccBCZTBX.s 			page 105


 2059 04e7 2001     		.2byte	0x120
 2060 04e9 0A       		.uleb128 0xa
 2061 04ea CD120000 		.4byte	.LASF182
 2062 04ee 04       		.byte	0x4
 2063 04ef 9C01     		.2byte	0x19c
 2064 04f1 86050000 		.4byte	0x586
 2065 04f5 8001     		.2byte	0x180
 2066 04f7 0A       		.uleb128 0xa
 2067 04f8 1B150000 		.4byte	.LASF183
 2068 04fc 04       		.byte	0x4
 2069 04fd 9D01     		.2byte	0x19d
 2070 04ff 6C050000 		.4byte	0x56c
 2071 0503 A001     		.2byte	0x1a0
 2072 0505 0A       		.uleb128 0xa
 2073 0506 DE1A0000 		.4byte	.LASF184
 2074 050a 04       		.byte	0x4
 2075 050b 9E01     		.2byte	0x19e
 2076 050d 8B050000 		.4byte	0x58b
 2077 0511 0002     		.2byte	0x200
 2078 0513 0A       		.uleb128 0xa
 2079 0514 25150000 		.4byte	.LASF185
 2080 0518 04       		.byte	0x4
 2081 0519 9F01     		.2byte	0x19f
 2082 051b 90050000 		.4byte	0x590
 2083 051f 2002     		.2byte	0x220
 2084 0521 0B       		.uleb128 0xb
 2085 0522 495000   		.ascii	"IP\000"
 2086 0525 04       		.byte	0x4
 2087 0526 A001     		.2byte	0x1a0
 2088 0528 B5050000 		.4byte	0x5b5
 2089 052c 0003     		.2byte	0x300
 2090 052e 0A       		.uleb128 0xa
 2091 052f 2F150000 		.4byte	.LASF186
 2092 0533 04       		.byte	0x4
 2093 0534 A101     		.2byte	0x1a1
 2094 0536 BA050000 		.4byte	0x5ba
 2095 053a F003     		.2byte	0x3f0
 2096 053c 0A       		.uleb128 0xa
 2097 053d 31140000 		.4byte	.LASF187
 2098 0541 04       		.byte	0x4
 2099 0542 A201     		.2byte	0x1a2
 2100 0544 62050000 		.4byte	0x562
 2101 0548 000E     		.2byte	0xe00
 2102 054a 00       		.byte	0
 2103 054b 0C       		.uleb128 0xc
 2104 054c 62050000 		.4byte	0x562
 2105 0550 5B050000 		.4byte	0x55b
 2106 0554 0D       		.uleb128 0xd
 2107 0555 5B050000 		.4byte	0x55b
 2108 0559 07       		.byte	0x7
 2109 055a 00       		.byte	0
 2110 055b 05       		.uleb128 0x5
 2111 055c 04       		.byte	0x4
 2112 055d 07       		.byte	0x7
 2113 055e D6140000 		.4byte	.LASF188
 2114 0562 0E       		.uleb128 0xe
 2115 0563 84040000 		.4byte	0x484
ARM GAS  C:\Users\rober\AppData\Local\Temp\ccBCZTBX.s 			page 106


 2116 0567 0E       		.uleb128 0xe
 2117 0568 4B050000 		.4byte	0x54b
 2118 056c 0C       		.uleb128 0xc
 2119 056d 84040000 		.4byte	0x484
 2120 0571 7C050000 		.4byte	0x57c
 2121 0575 0D       		.uleb128 0xd
 2122 0576 5B050000 		.4byte	0x55b
 2123 057a 17       		.byte	0x17
 2124 057b 00       		.byte	0
 2125 057c 0E       		.uleb128 0xe
 2126 057d 4B050000 		.4byte	0x54b
 2127 0581 0E       		.uleb128 0xe
 2128 0582 4B050000 		.4byte	0x54b
 2129 0586 0E       		.uleb128 0xe
 2130 0587 4B050000 		.4byte	0x54b
 2131 058b 0E       		.uleb128 0xe
 2132 058c 4B050000 		.4byte	0x54b
 2133 0590 0C       		.uleb128 0xc
 2134 0591 84040000 		.4byte	0x484
 2135 0595 A0050000 		.4byte	0x5a0
 2136 0599 0D       		.uleb128 0xd
 2137 059a 5B050000 		.4byte	0x55b
 2138 059e 37       		.byte	0x37
 2139 059f 00       		.byte	0
 2140 05a0 0C       		.uleb128 0xc
 2141 05a1 B0050000 		.4byte	0x5b0
 2142 05a5 B0050000 		.4byte	0x5b0
 2143 05a9 0D       		.uleb128 0xd
 2144 05aa 5B050000 		.4byte	0x55b
 2145 05ae EF       		.byte	0xef
 2146 05af 00       		.byte	0
 2147 05b0 0E       		.uleb128 0xe
 2148 05b1 63040000 		.4byte	0x463
 2149 05b5 0E       		.uleb128 0xe
 2150 05b6 A0050000 		.4byte	0x5a0
 2151 05ba 0C       		.uleb128 0xc
 2152 05bb 84040000 		.4byte	0x484
 2153 05bf CB050000 		.4byte	0x5cb
 2154 05c3 0F       		.uleb128 0xf
 2155 05c4 5B050000 		.4byte	0x55b
 2156 05c8 8302     		.2byte	0x283
 2157 05ca 00       		.byte	0
 2158 05cb 10       		.uleb128 0x10
 2159 05cc 1C1D0000 		.4byte	.LASF189
 2160 05d0 04       		.byte	0x4
 2161 05d1 A301     		.2byte	0x1a3
 2162 05d3 8F040000 		.4byte	0x48f
 2163 05d7 11       		.uleb128 0x11
 2164 05d8 62050000 		.4byte	0x562
 2165 05dc 12       		.uleb128 0x12
 2166 05dd 40       		.byte	0x40
 2167 05de 0A       		.byte	0xa
 2168 05df 22       		.byte	0x22
 2169 05e0 A4060000 		.4byte	0x6a4
 2170 05e4 13       		.uleb128 0x13
 2171 05e5 CA1E0000 		.4byte	.LASF190
 2172 05e9 0A       		.byte	0xa
ARM GAS  C:\Users\rober\AppData\Local\Temp\ccBCZTBX.s 			page 107


 2173 05ea 23       		.byte	0x23
 2174 05eb 62050000 		.4byte	0x562
 2175 05ef 00       		.byte	0
 2176 05f0 13       		.uleb128 0x13
 2177 05f1 431D0000 		.4byte	.LASF191
 2178 05f5 0A       		.byte	0xa
 2179 05f6 24       		.byte	0x24
 2180 05f7 D7050000 		.4byte	0x5d7
 2181 05fb 04       		.byte	0x4
 2182 05fc 13       		.uleb128 0x13
 2183 05fd BC1D0000 		.4byte	.LASF192
 2184 0601 0A       		.byte	0xa
 2185 0602 25       		.byte	0x25
 2186 0603 62050000 		.4byte	0x562
 2187 0607 08       		.byte	0x8
 2188 0608 14       		.uleb128 0x14
 2189 0609 434300   		.ascii	"CC\000"
 2190 060c 0A       		.byte	0xa
 2191 060d 26       		.byte	0x26
 2192 060e 62050000 		.4byte	0x562
 2193 0612 0C       		.byte	0xc
 2194 0613 13       		.uleb128 0x13
 2195 0614 140E0000 		.4byte	.LASF193
 2196 0618 0A       		.byte	0xa
 2197 0619 27       		.byte	0x27
 2198 061a 62050000 		.4byte	0x562
 2199 061e 10       		.byte	0x10
 2200 061f 13       		.uleb128 0x13
 2201 0620 F40C0000 		.4byte	.LASF194
 2202 0624 0A       		.byte	0xa
 2203 0625 28       		.byte	0x28
 2204 0626 62050000 		.4byte	0x562
 2205 062a 14       		.byte	0x14
 2206 062b 13       		.uleb128 0x13
 2207 062c B41E0000 		.4byte	.LASF195
 2208 0630 0A       		.byte	0xa
 2209 0631 29       		.byte	0x29
 2210 0632 62050000 		.4byte	0x562
 2211 0636 18       		.byte	0x18
 2212 0637 13       		.uleb128 0x13
 2213 0638 4B050000 		.4byte	.LASF196
 2214 063c 0A       		.byte	0xa
 2215 063d 2A       		.byte	0x2a
 2216 063e D7050000 		.4byte	0x5d7
 2217 0642 1C       		.byte	0x1c
 2218 0643 13       		.uleb128 0x13
 2219 0644 511C0000 		.4byte	.LASF197
 2220 0648 0A       		.byte	0xa
 2221 0649 2B       		.byte	0x2b
 2222 064a 62050000 		.4byte	0x562
 2223 064e 20       		.byte	0x20
 2224 064f 13       		.uleb128 0x13
 2225 0650 5A1C0000 		.4byte	.LASF198
 2226 0654 0A       		.byte	0xa
 2227 0655 2C       		.byte	0x2c
 2228 0656 62050000 		.4byte	0x562
 2229 065a 24       		.byte	0x24
ARM GAS  C:\Users\rober\AppData\Local\Temp\ccBCZTBX.s 			page 108


 2230 065b 13       		.uleb128 0x13
 2231 065c FE060000 		.4byte	.LASF199
 2232 0660 0A       		.byte	0xa
 2233 0661 2D       		.byte	0x2d
 2234 0662 62050000 		.4byte	0x562
 2235 0666 28       		.byte	0x28
 2236 0667 13       		.uleb128 0x13
 2237 0668 07150000 		.4byte	.LASF200
 2238 066c 0A       		.byte	0xa
 2239 066d 2E       		.byte	0x2e
 2240 066e D7050000 		.4byte	0x5d7
 2241 0672 2C       		.byte	0x2c
 2242 0673 13       		.uleb128 0x13
 2243 0674 030C0000 		.4byte	.LASF201
 2244 0678 0A       		.byte	0xa
 2245 0679 2F       		.byte	0x2f
 2246 067a 62050000 		.4byte	0x562
 2247 067e 30       		.byte	0x30
 2248 067f 13       		.uleb128 0x13
 2249 0680 D4030000 		.4byte	.LASF202
 2250 0684 0A       		.byte	0xa
 2251 0685 30       		.byte	0x30
 2252 0686 62050000 		.4byte	0x562
 2253 068a 34       		.byte	0x34
 2254 068b 13       		.uleb128 0x13
 2255 068c 1A0C0000 		.4byte	.LASF203
 2256 0690 0A       		.byte	0xa
 2257 0691 31       		.byte	0x31
 2258 0692 62050000 		.4byte	0x562
 2259 0696 38       		.byte	0x38
 2260 0697 13       		.uleb128 0x13
 2261 0698 F7170000 		.4byte	.LASF204
 2262 069c 0A       		.byte	0xa
 2263 069d 32       		.byte	0x32
 2264 069e D7050000 		.4byte	0x5d7
 2265 06a2 3C       		.byte	0x3c
 2266 06a3 00       		.byte	0
 2267 06a4 06       		.uleb128 0x6
 2268 06a5 56010000 		.4byte	.LASF205
 2269 06a9 0A       		.byte	0xa
 2270 06aa 33       		.byte	0x33
 2271 06ab DC050000 		.4byte	0x5dc
 2272 06af 15       		.uleb128 0x15
 2273 06b0 0009     		.2byte	0x900
 2274 06b2 0A       		.byte	0xa
 2275 06b3 38       		.byte	0x38
 2276 06b4 32070000 		.4byte	0x732
 2277 06b8 13       		.uleb128 0x13
 2278 06b9 CA1E0000 		.4byte	.LASF190
 2279 06bd 0A       		.byte	0xa
 2280 06be 39       		.byte	0x39
 2281 06bf 62050000 		.4byte	0x562
 2282 06c3 00       		.byte	0
 2283 06c4 13       		.uleb128 0x13
 2284 06c5 0F0A0000 		.4byte	.LASF206
 2285 06c9 0A       		.byte	0xa
 2286 06ca 3A       		.byte	0x3a
ARM GAS  C:\Users\rober\AppData\Local\Temp\ccBCZTBX.s 			page 109


 2287 06cb 62050000 		.4byte	0x562
 2288 06cf 04       		.byte	0x4
 2289 06d0 13       		.uleb128 0x13
 2290 06d1 340D0000 		.4byte	.LASF207
 2291 06d5 0A       		.byte	0xa
 2292 06d6 3B       		.byte	0x3b
 2293 06d7 62050000 		.4byte	0x562
 2294 06db 08       		.byte	0x8
 2295 06dc 13       		.uleb128 0x13
 2296 06dd AB000000 		.4byte	.LASF208
 2297 06e1 0A       		.byte	0xa
 2298 06e2 3C       		.byte	0x3c
 2299 06e3 62050000 		.4byte	0x562
 2300 06e7 0C       		.byte	0xc
 2301 06e8 13       		.uleb128 0x13
 2302 06e9 41020000 		.4byte	.LASF209
 2303 06ed 0A       		.byte	0xa
 2304 06ee 3D       		.byte	0x3d
 2305 06ef 62050000 		.4byte	0x562
 2306 06f3 10       		.byte	0x10
 2307 06f4 13       		.uleb128 0x13
 2308 06f5 AF1A0000 		.4byte	.LASF210
 2309 06f9 0A       		.byte	0xa
 2310 06fa 3E       		.byte	0x3e
 2311 06fb 62050000 		.4byte	0x562
 2312 06ff 14       		.byte	0x14
 2313 0700 13       		.uleb128 0x13
 2314 0701 4C0D0000 		.4byte	.LASF211
 2315 0705 0A       		.byte	0xa
 2316 0706 3F       		.byte	0x3f
 2317 0707 62050000 		.4byte	0x562
 2318 070b 18       		.byte	0x18
 2319 070c 13       		.uleb128 0x13
 2320 070d 7A020000 		.4byte	.LASF212
 2321 0711 0A       		.byte	0xa
 2322 0712 40       		.byte	0x40
 2323 0713 D7050000 		.4byte	0x5d7
 2324 0717 1C       		.byte	0x1c
 2325 0718 13       		.uleb128 0x13
 2326 0719 4B050000 		.4byte	.LASF196
 2327 071d 0A       		.byte	0xa
 2328 071e 41       		.byte	0x41
 2329 071f 47070000 		.4byte	0x747
 2330 0723 20       		.byte	0x20
 2331 0724 16       		.uleb128 0x16
 2332 0725 434E5400 		.ascii	"CNT\000"
 2333 0729 0A       		.byte	0xa
 2334 072a 42       		.byte	0x42
 2335 072b 4C070000 		.4byte	0x74c
 2336 072f 0001     		.2byte	0x100
 2337 0731 00       		.byte	0
 2338 0732 0C       		.uleb128 0xc
 2339 0733 D7050000 		.4byte	0x5d7
 2340 0737 42070000 		.4byte	0x742
 2341 073b 0D       		.uleb128 0xd
 2342 073c 5B050000 		.4byte	0x55b
 2343 0740 37       		.byte	0x37
ARM GAS  C:\Users\rober\AppData\Local\Temp\ccBCZTBX.s 			page 110


 2344 0741 00       		.byte	0
 2345 0742 0E       		.uleb128 0xe
 2346 0743 32070000 		.4byte	0x732
 2347 0747 11       		.uleb128 0x11
 2348 0748 42070000 		.4byte	0x742
 2349 074c 0C       		.uleb128 0xc
 2350 074d A4060000 		.4byte	0x6a4
 2351 0751 5C070000 		.4byte	0x75c
 2352 0755 0D       		.uleb128 0xd
 2353 0756 5B050000 		.4byte	0x55b
 2354 075a 1F       		.byte	0x1f
 2355 075b 00       		.byte	0
 2356 075c 06       		.uleb128 0x6
 2357 075d 4C0F0000 		.4byte	.LASF213
 2358 0761 0A       		.byte	0xa
 2359 0762 43       		.byte	0x43
 2360 0763 AF060000 		.4byte	0x6af
 2361 0767 05       		.uleb128 0x5
 2362 0768 08       		.byte	0x8
 2363 0769 04       		.byte	0x4
 2364 076a BC130000 		.4byte	.LASF214
 2365 076e 05       		.uleb128 0x5
 2366 076f 01       		.byte	0x1
 2367 0770 08       		.byte	0x8
 2368 0771 EF080000 		.4byte	.LASF215
 2369 0775 05       		.uleb128 0x5
 2370 0776 04       		.byte	0x4
 2371 0777 04       		.byte	0x4
 2372 0778 2C070000 		.4byte	.LASF216
 2373 077c 05       		.uleb128 0x5
 2374 077d 08       		.byte	0x8
 2375 077e 04       		.byte	0x4
 2376 077f EC1C0000 		.4byte	.LASF217
 2377 0783 10       		.uleb128 0x10
 2378 0784 E61C0000 		.4byte	.LASF218
 2379 0788 0B       		.byte	0xb
 2380 0789 8503     		.2byte	0x385
 2381 078b 63040000 		.4byte	0x463
 2382 078f 12       		.uleb128 0x12
 2383 0790 08       		.byte	0x8
 2384 0791 0C       		.byte	0xc
 2385 0792 EB       		.byte	0xeb
 2386 0793 B0070000 		.4byte	0x7b0
 2387 0797 13       		.uleb128 0x13
 2388 0798 7A0E0000 		.4byte	.LASF219
 2389 079c 0C       		.byte	0xc
 2390 079d EC       		.byte	0xec
 2391 079e ED030000 		.4byte	0x3ed
 2392 07a2 00       		.byte	0
 2393 07a3 13       		.uleb128 0x13
 2394 07a4 2F180000 		.4byte	.LASF220
 2395 07a8 0C       		.byte	0xc
 2396 07a9 F0       		.byte	0xf0
 2397 07aa 84040000 		.4byte	0x484
 2398 07ae 04       		.byte	0x4
 2399 07af 00       		.byte	0
 2400 07b0 06       		.uleb128 0x6
ARM GAS  C:\Users\rober\AppData\Local\Temp\ccBCZTBX.s 			page 111


 2401 07b1 32000000 		.4byte	.LASF221
 2402 07b5 0C       		.byte	0xc
 2403 07b6 F1       		.byte	0xf1
 2404 07b7 8F070000 		.4byte	0x78f
 2405 07bb 17       		.uleb128 0x17
 2406 07bc 04       		.byte	0x4
 2407 07bd 05       		.uleb128 0x5
 2408 07be 01       		.byte	0x1
 2409 07bf 02       		.byte	0x2
 2410 07c0 D40A0000 		.4byte	.LASF222
 2411 07c4 18       		.uleb128 0x18
 2412 07c5 E71B0000 		.4byte	.LASF243
 2413 07c9 4C       		.byte	0x4c
 2414 07ca 06       		.byte	0x6
 2415 07cb 2B       		.byte	0x2b
 2416 07cc B5080000 		.4byte	0x8b5
 2417 07d0 13       		.uleb128 0x13
 2418 07d1 AB1B0000 		.4byte	.LASF223
 2419 07d5 06       		.byte	0x6
 2420 07d6 2D       		.byte	0x2d
 2421 07d7 84040000 		.4byte	0x484
 2422 07db 00       		.byte	0
 2423 07dc 13       		.uleb128 0x13
 2424 07dd C70D0000 		.4byte	.LASF224
 2425 07e1 06       		.byte	0x6
 2426 07e2 2F       		.byte	0x2f
 2427 07e3 84040000 		.4byte	0x484
 2428 07e7 04       		.byte	0x4
 2429 07e8 13       		.uleb128 0x13
 2430 07e9 DE130000 		.4byte	.LASF225
 2431 07ed 06       		.byte	0x6
 2432 07ee 30       		.byte	0x30
 2433 07ef 84040000 		.4byte	0x484
 2434 07f3 08       		.byte	0x8
 2435 07f4 13       		.uleb128 0x13
 2436 07f5 32160000 		.4byte	.LASF226
 2437 07f9 06       		.byte	0x6
 2438 07fa 31       		.byte	0x31
 2439 07fb 84040000 		.4byte	0x484
 2440 07ff 0C       		.byte	0xc
 2441 0800 13       		.uleb128 0x13
 2442 0801 B60D0000 		.4byte	.LASF227
 2443 0805 06       		.byte	0x6
 2444 0806 33       		.byte	0x33
 2445 0807 84040000 		.4byte	0x484
 2446 080b 10       		.byte	0x10
 2447 080c 13       		.uleb128 0x13
 2448 080d B90E0000 		.4byte	.LASF228
 2449 0811 06       		.byte	0x6
 2450 0812 34       		.byte	0x34
 2451 0813 84040000 		.4byte	0x484
 2452 0817 14       		.byte	0x14
 2453 0818 13       		.uleb128 0x13
 2454 0819 85040000 		.4byte	.LASF229
 2455 081d 06       		.byte	0x6
 2456 081e 35       		.byte	0x35
 2457 081f 84040000 		.4byte	0x484
ARM GAS  C:\Users\rober\AppData\Local\Temp\ccBCZTBX.s 			page 112


 2458 0823 18       		.byte	0x18
 2459 0824 13       		.uleb128 0x13
 2460 0825 7D150000 		.4byte	.LASF230
 2461 0829 06       		.byte	0x6
 2462 082a 36       		.byte	0x36
 2463 082b BD070000 		.4byte	0x7bd
 2464 082f 1C       		.byte	0x1c
 2465 0830 13       		.uleb128 0x13
 2466 0831 0C060000 		.4byte	.LASF231
 2467 0835 06       		.byte	0x6
 2468 0836 38       		.byte	0x38
 2469 0837 84040000 		.4byte	0x484
 2470 083b 20       		.byte	0x20
 2471 083c 13       		.uleb128 0x13
 2472 083d 5E090000 		.4byte	.LASF232
 2473 0841 06       		.byte	0x6
 2474 0842 39       		.byte	0x39
 2475 0843 84040000 		.4byte	0x484
 2476 0847 24       		.byte	0x24
 2477 0848 13       		.uleb128 0x13
 2478 0849 64190000 		.4byte	.LASF233
 2479 084d 06       		.byte	0x6
 2480 084e 3B       		.byte	0x3b
 2481 084f 84040000 		.4byte	0x484
 2482 0853 28       		.byte	0x28
 2483 0854 13       		.uleb128 0x13
 2484 0855 71110000 		.4byte	.LASF234
 2485 0859 06       		.byte	0x6
 2486 085a 3C       		.byte	0x3c
 2487 085b 84040000 		.4byte	0x484
 2488 085f 2C       		.byte	0x2c
 2489 0860 13       		.uleb128 0x13
 2490 0861 A1070000 		.4byte	.LASF235
 2491 0865 06       		.byte	0x6
 2492 0866 3E       		.byte	0x3e
 2493 0867 84040000 		.4byte	0x484
 2494 086b 30       		.byte	0x30
 2495 086c 13       		.uleb128 0x13
 2496 086d 33090000 		.4byte	.LASF236
 2497 0871 06       		.byte	0x6
 2498 0872 3F       		.byte	0x3f
 2499 0873 84040000 		.4byte	0x484
 2500 0877 34       		.byte	0x34
 2501 0878 13       		.uleb128 0x13
 2502 0879 BE020000 		.4byte	.LASF237
 2503 087d 06       		.byte	0x6
 2504 087e 41       		.byte	0x41
 2505 087f 84040000 		.4byte	0x484
 2506 0883 38       		.byte	0x38
 2507 0884 13       		.uleb128 0x13
 2508 0885 79090000 		.4byte	.LASF238
 2509 0889 06       		.byte	0x6
 2510 088a 42       		.byte	0x42
 2511 088b 84040000 		.4byte	0x484
 2512 088f 3C       		.byte	0x3c
 2513 0890 13       		.uleb128 0x13
 2514 0891 6D1A0000 		.4byte	.LASF239
ARM GAS  C:\Users\rober\AppData\Local\Temp\ccBCZTBX.s 			page 113


 2515 0895 06       		.byte	0x6
 2516 0896 44       		.byte	0x44
 2517 0897 84040000 		.4byte	0x484
 2518 089b 40       		.byte	0x40
 2519 089c 13       		.uleb128 0x13
 2520 089d D7150000 		.4byte	.LASF240
 2521 08a1 06       		.byte	0x6
 2522 08a2 45       		.byte	0x45
 2523 08a3 84040000 		.4byte	0x484
 2524 08a7 44       		.byte	0x44
 2525 08a8 13       		.uleb128 0x13
 2526 08a9 311A0000 		.4byte	.LASF241
 2527 08ad 06       		.byte	0x6
 2528 08ae 47       		.byte	0x47
 2529 08af 84040000 		.4byte	0x484
 2530 08b3 48       		.byte	0x48
 2531 08b4 00       		.byte	0
 2532 08b5 06       		.uleb128 0x6
 2533 08b6 4D140000 		.4byte	.LASF242
 2534 08ba 06       		.byte	0x6
 2535 08bb 48       		.byte	0x48
 2536 08bc C4070000 		.4byte	0x7c4
 2537 08c0 18       		.uleb128 0x18
 2538 08c1 54050000 		.4byte	.LASF244
 2539 08c5 64       		.byte	0x64
 2540 08c6 03       		.byte	0x3
 2541 08c7 2B       		.byte	0x2b
 2542 08c8 F9090000 		.4byte	0x9f9
 2543 08cc 13       		.uleb128 0x13
 2544 08cd B2030000 		.4byte	.LASF245
 2545 08d1 03       		.byte	0x3
 2546 08d2 2D       		.byte	0x2d
 2547 08d3 84040000 		.4byte	0x484
 2548 08d7 00       		.byte	0
 2549 08d8 13       		.uleb128 0x13
 2550 08d9 C70D0000 		.4byte	.LASF224
 2551 08dd 03       		.byte	0x3
 2552 08de 2F       		.byte	0x2f
 2553 08df 84040000 		.4byte	0x484
 2554 08e3 04       		.byte	0x4
 2555 08e4 13       		.uleb128 0x13
 2556 08e5 D8010000 		.4byte	.LASF246
 2557 08e9 03       		.byte	0x3
 2558 08ea 30       		.byte	0x30
 2559 08eb 84040000 		.4byte	0x484
 2560 08ef 08       		.byte	0x8
 2561 08f0 13       		.uleb128 0x13
 2562 08f1 8D0F0000 		.4byte	.LASF247
 2563 08f5 03       		.byte	0x3
 2564 08f6 31       		.byte	0x31
 2565 08f7 84040000 		.4byte	0x484
 2566 08fb 0C       		.byte	0xc
 2567 08fc 13       		.uleb128 0x13
 2568 08fd DE130000 		.4byte	.LASF225
 2569 0901 03       		.byte	0x3
 2570 0902 32       		.byte	0x32
 2571 0903 84040000 		.4byte	0x484
ARM GAS  C:\Users\rober\AppData\Local\Temp\ccBCZTBX.s 			page 114


 2572 0907 10       		.byte	0x10
 2573 0908 13       		.uleb128 0x13
 2574 0909 4E100000 		.4byte	.LASF248
 2575 090d 03       		.byte	0x3
 2576 090e 33       		.byte	0x33
 2577 090f 84040000 		.4byte	0x484
 2578 0913 14       		.byte	0x14
 2579 0914 13       		.uleb128 0x13
 2580 0915 56100000 		.4byte	.LASF249
 2581 0919 03       		.byte	0x3
 2582 091a 34       		.byte	0x34
 2583 091b 84040000 		.4byte	0x484
 2584 091f 18       		.byte	0x18
 2585 0920 13       		.uleb128 0x13
 2586 0921 4F060000 		.4byte	.LASF250
 2587 0925 03       		.byte	0x3
 2588 0926 35       		.byte	0x35
 2589 0927 BD070000 		.4byte	0x7bd
 2590 092b 1C       		.byte	0x1c
 2591 092c 13       		.uleb128 0x13
 2592 092d B90E0000 		.4byte	.LASF228
 2593 0931 03       		.byte	0x3
 2594 0932 36       		.byte	0x36
 2595 0933 84040000 		.4byte	0x484
 2596 0937 20       		.byte	0x20
 2597 0938 13       		.uleb128 0x13
 2598 0939 85040000 		.4byte	.LASF229
 2599 093d 03       		.byte	0x3
 2600 093e 37       		.byte	0x37
 2601 093f 84040000 		.4byte	0x484
 2602 0943 24       		.byte	0x24
 2603 0944 13       		.uleb128 0x13
 2604 0945 7D150000 		.4byte	.LASF230
 2605 0949 03       		.byte	0x3
 2606 094a 38       		.byte	0x38
 2607 094b BD070000 		.4byte	0x7bd
 2608 094f 28       		.byte	0x28
 2609 0950 13       		.uleb128 0x13
 2610 0951 0C060000 		.4byte	.LASF231
 2611 0955 03       		.byte	0x3
 2612 0956 3A       		.byte	0x3a
 2613 0957 84040000 		.4byte	0x484
 2614 095b 2C       		.byte	0x2c
 2615 095c 13       		.uleb128 0x13
 2616 095d 77130000 		.4byte	.LASF251
 2617 0961 03       		.byte	0x3
 2618 0962 3B       		.byte	0x3b
 2619 0963 84040000 		.4byte	0x484
 2620 0967 30       		.byte	0x30
 2621 0968 13       		.uleb128 0x13
 2622 0969 25090000 		.4byte	.LASF252
 2623 096d 03       		.byte	0x3
 2624 096e 3C       		.byte	0x3c
 2625 096f 84040000 		.4byte	0x484
 2626 0973 34       		.byte	0x34
 2627 0974 13       		.uleb128 0x13
 2628 0975 6B150000 		.4byte	.LASF253
ARM GAS  C:\Users\rober\AppData\Local\Temp\ccBCZTBX.s 			page 115


 2629 0979 03       		.byte	0x3
 2630 097a 3D       		.byte	0x3d
 2631 097b 84040000 		.4byte	0x484
 2632 097f 38       		.byte	0x38
 2633 0980 13       		.uleb128 0x13
 2634 0981 E40F0000 		.4byte	.LASF254
 2635 0985 03       		.byte	0x3
 2636 0986 3E       		.byte	0x3e
 2637 0987 84040000 		.4byte	0x484
 2638 098b 3C       		.byte	0x3c
 2639 098c 13       		.uleb128 0x13
 2640 098d 080B0000 		.4byte	.LASF255
 2641 0991 03       		.byte	0x3
 2642 0992 40       		.byte	0x40
 2643 0993 84040000 		.4byte	0x484
 2644 0997 40       		.byte	0x40
 2645 0998 13       		.uleb128 0x13
 2646 0999 71110000 		.4byte	.LASF234
 2647 099d 03       		.byte	0x3
 2648 099e 41       		.byte	0x41
 2649 099f 84040000 		.4byte	0x484
 2650 09a3 44       		.byte	0x44
 2651 09a4 13       		.uleb128 0x13
 2652 09a5 A1070000 		.4byte	.LASF235
 2653 09a9 03       		.byte	0x3
 2654 09aa 43       		.byte	0x43
 2655 09ab 84040000 		.4byte	0x484
 2656 09af 48       		.byte	0x48
 2657 09b0 13       		.uleb128 0x13
 2658 09b1 33090000 		.4byte	.LASF236
 2659 09b5 03       		.byte	0x3
 2660 09b6 44       		.byte	0x44
 2661 09b7 84040000 		.4byte	0x484
 2662 09bb 4C       		.byte	0x4c
 2663 09bc 13       		.uleb128 0x13
 2664 09bd BE020000 		.4byte	.LASF237
 2665 09c1 03       		.byte	0x3
 2666 09c2 46       		.byte	0x46
 2667 09c3 84040000 		.4byte	0x484
 2668 09c7 50       		.byte	0x50
 2669 09c8 13       		.uleb128 0x13
 2670 09c9 D90B0000 		.4byte	.LASF256
 2671 09cd 03       		.byte	0x3
 2672 09ce 47       		.byte	0x47
 2673 09cf 84040000 		.4byte	0x484
 2674 09d3 54       		.byte	0x54
 2675 09d4 13       		.uleb128 0x13
 2676 09d5 B1010000 		.4byte	.LASF257
 2677 09d9 03       		.byte	0x3
 2678 09da 49       		.byte	0x49
 2679 09db 84040000 		.4byte	0x484
 2680 09df 58       		.byte	0x58
 2681 09e0 13       		.uleb128 0x13
 2682 09e1 D7150000 		.4byte	.LASF240
 2683 09e5 03       		.byte	0x3
 2684 09e6 4A       		.byte	0x4a
 2685 09e7 84040000 		.4byte	0x484
ARM GAS  C:\Users\rober\AppData\Local\Temp\ccBCZTBX.s 			page 116


 2686 09eb 5C       		.byte	0x5c
 2687 09ec 13       		.uleb128 0x13
 2688 09ed 311A0000 		.4byte	.LASF241
 2689 09f1 03       		.byte	0x3
 2690 09f2 4C       		.byte	0x4c
 2691 09f3 84040000 		.4byte	0x484
 2692 09f7 60       		.byte	0x60
 2693 09f8 00       		.byte	0
 2694 09f9 06       		.uleb128 0x6
 2695 09fa B5090000 		.4byte	.LASF258
 2696 09fe 03       		.byte	0x3
 2697 09ff 4D       		.byte	0x4d
 2698 0a00 C0080000 		.4byte	0x8c0
 2699 0a04 19       		.uleb128 0x19
 2700 0a05 04       		.byte	0x4
 2701 0a06 0A0A0000 		.4byte	0xa0a
 2702 0a0a 1A       		.uleb128 0x1a
 2703 0a0b 150A0000 		.4byte	0xa15
 2704 0a0f 1B       		.uleb128 0x1b
 2705 0a10 84040000 		.4byte	0x484
 2706 0a14 00       		.byte	0
 2707 0a15 10       		.uleb128 0x10
 2708 0a16 5B000000 		.4byte	.LASF259
 2709 0a1a 0D       		.byte	0xd
 2710 0a1b BF01     		.2byte	0x1bf
 2711 0a1d 040A0000 		.4byte	0xa04
 2712 0a21 1C       		.uleb128 0x1c
 2713 0a22 771A0000 		.4byte	.LASF260
 2714 0a26 24       		.byte	0x24
 2715 0a27 0D       		.byte	0xd
 2716 0a28 4102     		.2byte	0x241
 2717 0a2a A40A0000 		.4byte	0xaa4
 2718 0a2e 09       		.uleb128 0x9
 2719 0a2f 480E0000 		.4byte	.LASF261
 2720 0a33 0D       		.byte	0xd
 2721 0a34 4402     		.2byte	0x244
 2722 0a36 62050000 		.4byte	0x562
 2723 0a3a 00       		.byte	0
 2724 0a3b 09       		.uleb128 0x9
 2725 0a3c EB090000 		.4byte	.LASF262
 2726 0a40 0D       		.byte	0xd
 2727 0a41 4602     		.2byte	0x246
 2728 0a43 BB070000 		.4byte	0x7bb
 2729 0a47 04       		.byte	0x4
 2730 0a48 09       		.uleb128 0x9
 2731 0a49 C01E0000 		.4byte	.LASF263
 2732 0a4d 0D       		.byte	0xd
 2733 0a4e 4702     		.2byte	0x247
 2734 0a50 84040000 		.4byte	0x484
 2735 0a54 08       		.byte	0x8
 2736 0a55 09       		.uleb128 0x9
 2737 0a56 0B0E0000 		.4byte	.LASF264
 2738 0a5a 0D       		.byte	0xd
 2739 0a5b 4802     		.2byte	0x248
 2740 0a5d 62050000 		.4byte	0x562
 2741 0a61 0C       		.byte	0xc
 2742 0a62 09       		.uleb128 0x9
ARM GAS  C:\Users\rober\AppData\Local\Temp\ccBCZTBX.s 			page 117


 2743 0a63 5F130000 		.4byte	.LASF265
 2744 0a67 0D       		.byte	0xd
 2745 0a68 4A02     		.2byte	0x24a
 2746 0a6a BB070000 		.4byte	0x7bb
 2747 0a6e 10       		.byte	0x10
 2748 0a6f 09       		.uleb128 0x9
 2749 0a70 DA0A0000 		.4byte	.LASF266
 2750 0a74 0D       		.byte	0xd
 2751 0a75 4B02     		.2byte	0x24b
 2752 0a77 84040000 		.4byte	0x484
 2753 0a7b 14       		.byte	0x14
 2754 0a7c 09       		.uleb128 0x9
 2755 0a7d 9F020000 		.4byte	.LASF267
 2756 0a81 0D       		.byte	0xd
 2757 0a82 4C02     		.2byte	0x24c
 2758 0a84 62050000 		.4byte	0x562
 2759 0a88 18       		.byte	0x18
 2760 0a89 09       		.uleb128 0x9
 2761 0a8a BF0A0000 		.4byte	.LASF268
 2762 0a8e 0D       		.byte	0xd
 2763 0a8f 5202     		.2byte	0x252
 2764 0a91 150A0000 		.4byte	0xa15
 2765 0a95 1C       		.byte	0x1c
 2766 0a96 09       		.uleb128 0x9
 2767 0a97 C01C0000 		.4byte	.LASF269
 2768 0a9b 0D       		.byte	0xd
 2769 0a9c 5502     		.2byte	0x255
 2770 0a9e 84040000 		.4byte	0x484
 2771 0aa2 20       		.byte	0x20
 2772 0aa3 00       		.byte	0
 2773 0aa4 10       		.uleb128 0x10
 2774 0aa5 42110000 		.4byte	.LASF270
 2775 0aa9 0D       		.byte	0xd
 2776 0aaa 5802     		.2byte	0x258
 2777 0aac 210A0000 		.4byte	0xa21
 2778 0ab0 06       		.uleb128 0x6
 2779 0ab1 7B0A0000 		.4byte	.LASF271
 2780 0ab5 0E       		.byte	0xe
 2781 0ab6 6A       		.byte	0x6a
 2782 0ab7 40040000 		.4byte	0x440
 2783 0abb 12       		.uleb128 0x12
 2784 0abc 0C       		.byte	0xc
 2785 0abd 0E       		.byte	0xe
 2786 0abe 73       		.byte	0x73
 2787 0abf E80A0000 		.4byte	0xae8
 2788 0ac3 13       		.uleb128 0x13
 2789 0ac4 0F170000 		.4byte	.LASF272
 2790 0ac8 0E       		.byte	0xe
 2791 0ac9 74       		.byte	0x74
 2792 0aca 55040000 		.4byte	0x455
 2793 0ace 00       		.byte	0
 2794 0acf 13       		.uleb128 0x13
 2795 0ad0 A6140000 		.4byte	.LASF273
 2796 0ad4 0E       		.byte	0xe
 2797 0ad5 75       		.byte	0x75
 2798 0ad6 6E070000 		.4byte	0x76e
 2799 0ada 04       		.byte	0x4
ARM GAS  C:\Users\rober\AppData\Local\Temp\ccBCZTBX.s 			page 118


 2800 0adb 13       		.uleb128 0x13
 2801 0adc 28110000 		.4byte	.LASF274
 2802 0ae0 0E       		.byte	0xe
 2803 0ae1 76       		.byte	0x76
 2804 0ae2 E80A0000 		.4byte	0xae8
 2805 0ae6 08       		.byte	0x8
 2806 0ae7 00       		.byte	0
 2807 0ae8 19       		.uleb128 0x19
 2808 0ae9 04       		.byte	0x4
 2809 0aea EE0A0000 		.4byte	0xaee
 2810 0aee 11       		.uleb128 0x11
 2811 0aef B00A0000 		.4byte	0xab0
 2812 0af3 06       		.uleb128 0x6
 2813 0af4 8C080000 		.4byte	.LASF275
 2814 0af8 0E       		.byte	0xe
 2815 0af9 77       		.byte	0x77
 2816 0afa BB0A0000 		.4byte	0xabb
 2817 0afe 06       		.uleb128 0x6
 2818 0aff D5180000 		.4byte	.LASF276
 2819 0b03 0E       		.byte	0xe
 2820 0b04 88       		.byte	0x88
 2821 0b05 090B0000 		.4byte	0xb09
 2822 0b09 1D       		.uleb128 0x1d
 2823 0b0a B00A0000 		.4byte	0xab0
 2824 0b0e 180B0000 		.4byte	0xb18
 2825 0b12 1B       		.uleb128 0x1b
 2826 0b13 40040000 		.4byte	0x440
 2827 0b17 00       		.byte	0
 2828 0b18 06       		.uleb128 0x6
 2829 0b19 36040000 		.4byte	.LASF277
 2830 0b1d 0E       		.byte	0xe
 2831 0b1e 89       		.byte	0x89
 2832 0b1f 230B0000 		.4byte	0xb23
 2833 0b23 1D       		.uleb128 0x1d
 2834 0b24 40040000 		.4byte	0x440
 2835 0b28 320B0000 		.4byte	0xb32
 2836 0b2c 1B       		.uleb128 0x1b
 2837 0b2d B00A0000 		.4byte	0xab0
 2838 0b31 00       		.byte	0
 2839 0b32 06       		.uleb128 0x6
 2840 0b33 4F190000 		.4byte	.LASF278
 2841 0b37 0E       		.byte	0xe
 2842 0b38 8A       		.byte	0x8a
 2843 0b39 3D0B0000 		.4byte	0xb3d
 2844 0b3d 1E       		.uleb128 0x1e
 2845 0b3e 40040000 		.4byte	0x440
 2846 0b42 06       		.uleb128 0x6
 2847 0b43 1E080000 		.4byte	.LASF279
 2848 0b47 0E       		.byte	0xe
 2849 0b48 8C       		.byte	0x8c
 2850 0b49 4D0B0000 		.4byte	0xb4d
 2851 0b4d 1A       		.uleb128 0x1a
 2852 0b4e 670B0000 		.4byte	0xb67
 2853 0b52 1B       		.uleb128 0x1b
 2854 0b53 BB070000 		.4byte	0x7bb
 2855 0b57 1B       		.uleb128 0x1b
 2856 0b58 670B0000 		.4byte	0xb67
ARM GAS  C:\Users\rober\AppData\Local\Temp\ccBCZTBX.s 			page 119


 2857 0b5c 1B       		.uleb128 0x1b
 2858 0b5d 40040000 		.4byte	0x440
 2859 0b61 1B       		.uleb128 0x1b
 2860 0b62 0A040000 		.4byte	0x40a
 2861 0b66 00       		.byte	0
 2862 0b67 19       		.uleb128 0x19
 2863 0b68 04       		.byte	0x4
 2864 0b69 B00A0000 		.4byte	0xab0
 2865 0b6d 06       		.uleb128 0x6
 2866 0b6e 76160000 		.4byte	.LASF280
 2867 0b72 0E       		.byte	0xe
 2868 0b73 8D       		.byte	0x8d
 2869 0b74 780B0000 		.4byte	0xb78
 2870 0b78 1A       		.uleb128 0x1a
 2871 0b79 920B0000 		.4byte	0xb92
 2872 0b7d 1B       		.uleb128 0x1b
 2873 0b7e 670B0000 		.4byte	0xb67
 2874 0b82 1B       		.uleb128 0x1b
 2875 0b83 BB070000 		.4byte	0x7bb
 2876 0b87 1B       		.uleb128 0x1b
 2877 0b88 40040000 		.4byte	0x440
 2878 0b8c 1B       		.uleb128 0x1b
 2879 0b8d 0A040000 		.4byte	0x40a
 2880 0b91 00       		.byte	0
 2881 0b92 12       		.uleb128 0x12
 2882 0b93 18       		.byte	0x18
 2883 0b94 0E       		.byte	0xe
 2884 0b95 93       		.byte	0x93
 2885 0b96 E30B0000 		.4byte	0xbe3
 2886 0b9a 13       		.uleb128 0x13
 2887 0b9b E9180000 		.4byte	.LASF281
 2888 0b9f 0E       		.byte	0xe
 2889 0ba0 94       		.byte	0x94
 2890 0ba1 E30B0000 		.4byte	0xbe3
 2891 0ba5 00       		.byte	0
 2892 0ba6 13       		.uleb128 0x13
 2893 0ba7 320E0000 		.4byte	.LASF282
 2894 0bab 0E       		.byte	0xe
 2895 0bac 95       		.byte	0x95
 2896 0bad E90B0000 		.4byte	0xbe9
 2897 0bb1 04       		.byte	0x4
 2898 0bb2 13       		.uleb128 0x13
 2899 0bb3 76040000 		.4byte	.LASF283
 2900 0bb7 0E       		.byte	0xe
 2901 0bb8 96       		.byte	0x96
 2902 0bb9 EF0B0000 		.4byte	0xbef
 2903 0bbd 08       		.byte	0x8
 2904 0bbe 13       		.uleb128 0x13
 2905 0bbf 581B0000 		.4byte	.LASF284
 2906 0bc3 0E       		.byte	0xe
 2907 0bc4 97       		.byte	0x97
 2908 0bc5 55040000 		.4byte	0x455
 2909 0bc9 0C       		.byte	0xc
 2910 0bca 13       		.uleb128 0x13
 2911 0bcb C4160000 		.4byte	.LASF285
 2912 0bcf 0E       		.byte	0xe
 2913 0bd0 98       		.byte	0x98
ARM GAS  C:\Users\rober\AppData\Local\Temp\ccBCZTBX.s 			page 120


 2914 0bd1 F50B0000 		.4byte	0xbf5
 2915 0bd5 10       		.byte	0x10
 2916 0bd6 13       		.uleb128 0x13
 2917 0bd7 65130000 		.4byte	.LASF286
 2918 0bdb 0E       		.byte	0xe
 2919 0bdc 99       		.byte	0x99
 2920 0bdd FB0B0000 		.4byte	0xbfb
 2921 0be1 14       		.byte	0x14
 2922 0be2 00       		.byte	0
 2923 0be3 19       		.uleb128 0x19
 2924 0be4 04       		.byte	0x4
 2925 0be5 180B0000 		.4byte	0xb18
 2926 0be9 19       		.uleb128 0x19
 2927 0bea 04       		.byte	0x4
 2928 0beb FE0A0000 		.4byte	0xafe
 2929 0bef 19       		.uleb128 0x19
 2930 0bf0 04       		.byte	0x4
 2931 0bf1 320B0000 		.4byte	0xb32
 2932 0bf5 19       		.uleb128 0x19
 2933 0bf6 04       		.byte	0x4
 2934 0bf7 6D0B0000 		.4byte	0xb6d
 2935 0bfb 19       		.uleb128 0x19
 2936 0bfc 04       		.byte	0x4
 2937 0bfd 420B0000 		.4byte	0xb42
 2938 0c01 06       		.uleb128 0x6
 2939 0c02 6C050000 		.4byte	.LASF287
 2940 0c06 0E       		.byte	0xe
 2941 0c07 9A       		.byte	0x9a
 2942 0c08 920B0000 		.4byte	0xb92
 2943 0c0c 19       		.uleb128 0x19
 2944 0c0d 04       		.byte	0x4
 2945 0c0e 120C0000 		.4byte	0xc12
 2946 0c12 11       		.uleb128 0x11
 2947 0c13 0A040000 		.4byte	0x40a
 2948 0c17 19       		.uleb128 0x19
 2949 0c18 04       		.byte	0x4
 2950 0c19 1D0C0000 		.4byte	0xc1d
 2951 0c1d 1F       		.uleb128 0x1f
 2952 0c1e 19       		.uleb128 0x19
 2953 0c1f 04       		.byte	0x4
 2954 0c20 240C0000 		.4byte	0xc24
 2955 0c24 11       		.uleb128 0x11
 2956 0c25 6E070000 		.4byte	0x76e
 2957 0c29 06       		.uleb128 0x6
 2958 0c2a 0C020000 		.4byte	.LASF288
 2959 0c2e 0F       		.byte	0xf
 2960 0c2f 3D       		.byte	0x3d
 2961 0c30 B00A0000 		.4byte	0xab0
 2962 0c34 06       		.uleb128 0x6
 2963 0c35 061B0000 		.4byte	.LASF289
 2964 0c39 0F       		.byte	0xf
 2965 0c3a 3E       		.byte	0x3e
 2966 0c3b F30A0000 		.4byte	0xaf3
 2967 0c3f 12       		.uleb128 0x12
 2968 0c40 10       		.byte	0x10
 2969 0c41 0F       		.byte	0xf
 2970 0c42 42       		.byte	0x42
ARM GAS  C:\Users\rober\AppData\Local\Temp\ccBCZTBX.s 			page 121


 2971 0c43 780C0000 		.4byte	0xc78
 2972 0c47 13       		.uleb128 0x13
 2973 0c48 00160000 		.4byte	.LASF290
 2974 0c4c 0F       		.byte	0xf
 2975 0c4d 43       		.byte	0x43
 2976 0c4e B10C0000 		.4byte	0xcb1
 2977 0c52 00       		.byte	0
 2978 0c53 13       		.uleb128 0x13
 2979 0c54 320E0000 		.4byte	.LASF282
 2980 0c58 0F       		.byte	0xf
 2981 0c59 4B       		.byte	0x4b
 2982 0c5a C60C0000 		.4byte	0xcc6
 2983 0c5e 04       		.byte	0x4
 2984 0c5f 13       		.uleb128 0x13
 2985 0c60 1D0B0000 		.4byte	.LASF291
 2986 0c64 0F       		.byte	0xf
 2987 0c65 4C       		.byte	0x4c
 2988 0c66 B10C0000 		.4byte	0xcb1
 2989 0c6a 08       		.byte	0x8
 2990 0c6b 13       		.uleb128 0x13
 2991 0c6c D9060000 		.4byte	.LASF292
 2992 0c70 0F       		.byte	0xf
 2993 0c71 54       		.byte	0x54
 2994 0c72 CC0C0000 		.4byte	0xccc
 2995 0c76 0C       		.byte	0xc
 2996 0c77 00       		.byte	0
 2997 0c78 1A       		.uleb128 0x1a
 2998 0c79 A60C0000 		.4byte	0xca6
 2999 0c7d 1B       		.uleb128 0x1b
 3000 0c7e 55040000 		.4byte	0x455
 3001 0c82 1B       		.uleb128 0x1b
 3002 0c83 55040000 		.4byte	0x455
 3003 0c87 1B       		.uleb128 0x1b
 3004 0c88 55040000 		.4byte	0x455
 3005 0c8c 1B       		.uleb128 0x1b
 3006 0c8d 55040000 		.4byte	0x455
 3007 0c91 1B       		.uleb128 0x1b
 3008 0c92 0C0C0000 		.4byte	0xc0c
 3009 0c96 1B       		.uleb128 0x1b
 3010 0c97 A60C0000 		.4byte	0xca6
 3011 0c9b 1B       		.uleb128 0x1b
 3012 0c9c 55040000 		.4byte	0x455
 3013 0ca0 1B       		.uleb128 0x1b
 3014 0ca1 55040000 		.4byte	0x455
 3015 0ca5 00       		.byte	0
 3016 0ca6 19       		.uleb128 0x19
 3017 0ca7 04       		.byte	0x4
 3018 0ca8 AC0C0000 		.4byte	0xcac
 3019 0cac 11       		.uleb128 0x11
 3020 0cad F30A0000 		.4byte	0xaf3
 3021 0cb1 19       		.uleb128 0x19
 3022 0cb2 04       		.byte	0x4
 3023 0cb3 780C0000 		.4byte	0xc78
 3024 0cb7 1D       		.uleb128 0x1d
 3025 0cb8 290C0000 		.4byte	0xc29
 3026 0cbc C60C0000 		.4byte	0xcc6
 3027 0cc0 1B       		.uleb128 0x1b
ARM GAS  C:\Users\rober\AppData\Local\Temp\ccBCZTBX.s 			page 122


 3028 0cc1 40040000 		.4byte	0x440
 3029 0cc5 00       		.byte	0
 3030 0cc6 19       		.uleb128 0x19
 3031 0cc7 04       		.byte	0x4
 3032 0cc8 B70C0000 		.4byte	0xcb7
 3033 0ccc 19       		.uleb128 0x19
 3034 0ccd 04       		.byte	0x4
 3035 0cce D20C0000 		.4byte	0xcd2
 3036 0cd2 11       		.uleb128 0x11
 3037 0cd3 010C0000 		.4byte	0xc01
 3038 0cd7 06       		.uleb128 0x6
 3039 0cd8 8E160000 		.4byte	.LASF293
 3040 0cdc 0F       		.byte	0xf
 3041 0cdd 55       		.byte	0x55
 3042 0cde 3F0C0000 		.4byte	0xc3f
 3043 0ce2 12       		.uleb128 0x12
 3044 0ce3 14       		.byte	0x14
 3045 0ce4 0F       		.byte	0xf
 3046 0ce5 57       		.byte	0x57
 3047 0ce6 3F0D0000 		.4byte	0xd3f
 3048 0cea 13       		.uleb128 0x13
 3049 0ceb 081C0000 		.4byte	.LASF294
 3050 0cef 0F       		.byte	0xf
 3051 0cf0 58       		.byte	0x58
 3052 0cf1 1C040000 		.4byte	0x41c
 3053 0cf5 00       		.byte	0
 3054 0cf6 13       		.uleb128 0x13
 3055 0cf7 F0110000 		.4byte	.LASF295
 3056 0cfb 0F       		.byte	0xf
 3057 0cfc 59       		.byte	0x59
 3058 0cfd 1C040000 		.4byte	0x41c
 3059 0d01 02       		.byte	0x2
 3060 0d02 13       		.uleb128 0x13
 3061 0d03 C10C0000 		.4byte	.LASF296
 3062 0d07 0F       		.byte	0xf
 3063 0d08 5A       		.byte	0x5a
 3064 0d09 1C040000 		.4byte	0x41c
 3065 0d0d 04       		.byte	0x4
 3066 0d0e 13       		.uleb128 0x13
 3067 0d0f 27020000 		.4byte	.LASF297
 3068 0d13 0F       		.byte	0xf
 3069 0d14 5B       		.byte	0x5b
 3070 0d15 1C040000 		.4byte	0x41c
 3071 0d19 06       		.byte	0x6
 3072 0d1a 13       		.uleb128 0x13
 3073 0d1b 4A040000 		.4byte	.LASF298
 3074 0d1f 0F       		.byte	0xf
 3075 0d20 5C       		.byte	0x5c
 3076 0d21 0C0C0000 		.4byte	0xc0c
 3077 0d25 08       		.byte	0x8
 3078 0d26 13       		.uleb128 0x13
 3079 0d27 150C0000 		.4byte	.LASF299
 3080 0d2b 0F       		.byte	0xf
 3081 0d2c 5D       		.byte	0x5d
 3082 0d2d 3F0D0000 		.4byte	0xd3f
 3083 0d31 0C       		.byte	0xc
 3084 0d32 13       		.uleb128 0x13
ARM GAS  C:\Users\rober\AppData\Local\Temp\ccBCZTBX.s 			page 123


 3085 0d33 FB0F0000 		.4byte	.LASF300
 3086 0d37 0F       		.byte	0xf
 3087 0d38 5E       		.byte	0x5e
 3088 0d39 4A0D0000 		.4byte	0xd4a
 3089 0d3d 10       		.byte	0x10
 3090 0d3e 00       		.byte	0
 3091 0d3f 19       		.uleb128 0x19
 3092 0d40 04       		.byte	0x4
 3093 0d41 450D0000 		.4byte	0xd45
 3094 0d45 11       		.uleb128 0x11
 3095 0d46 340C0000 		.4byte	0xc34
 3096 0d4a 19       		.uleb128 0x19
 3097 0d4b 04       		.byte	0x4
 3098 0d4c 500D0000 		.4byte	0xd50
 3099 0d50 11       		.uleb128 0x11
 3100 0d51 D70C0000 		.4byte	0xcd7
 3101 0d55 06       		.uleb128 0x6
 3102 0d56 851B0000 		.4byte	.LASF301
 3103 0d5a 0F       		.byte	0xf
 3104 0d5b 5F       		.byte	0x5f
 3105 0d5c E20C0000 		.4byte	0xce2
 3106 0d60 12       		.uleb128 0x12
 3107 0d61 04       		.byte	0x4
 3108 0d62 0F       		.byte	0xf
 3109 0d63 B6       		.byte	0xb6
 3110 0d64 7F0D0000 		.4byte	0xd7f
 3111 0d68 14       		.uleb128 0x14
 3112 0d69 633000   		.ascii	"c0\000"
 3113 0d6c 0F       		.byte	0xf
 3114 0d6d B7       		.byte	0xb7
 3115 0d6e E6030000 		.4byte	0x3e6
 3116 0d72 00       		.byte	0
 3117 0d73 14       		.uleb128 0x14
 3118 0d74 633100   		.ascii	"c1\000"
 3119 0d77 0F       		.byte	0xf
 3120 0d78 B8       		.byte	0xb8
 3121 0d79 E6030000 		.4byte	0x3e6
 3122 0d7d 02       		.byte	0x2
 3123 0d7e 00       		.byte	0
 3124 0d7f 06       		.uleb128 0x6
 3125 0d80 C2180000 		.4byte	.LASF302
 3126 0d84 0F       		.byte	0xf
 3127 0d85 B9       		.byte	0xb9
 3128 0d86 600D0000 		.4byte	0xd60
 3129 0d8a 12       		.uleb128 0x12
 3130 0d8b 08       		.byte	0x8
 3131 0d8c 0F       		.byte	0xf
 3132 0d8d BB       		.byte	0xbb
 3133 0d8e B70D0000 		.4byte	0xdb7
 3134 0d92 13       		.uleb128 0x13
 3135 0d93 CE0C0000 		.4byte	.LASF303
 3136 0d97 0F       		.byte	0xf
 3137 0d98 BC       		.byte	0xbc
 3138 0d99 1C040000 		.4byte	0x41c
 3139 0d9d 00       		.byte	0
 3140 0d9e 13       		.uleb128 0x13
 3141 0d9f 14160000 		.4byte	.LASF304
ARM GAS  C:\Users\rober\AppData\Local\Temp\ccBCZTBX.s 			page 124


 3142 0da3 0F       		.byte	0xf
 3143 0da4 BD       		.byte	0xbd
 3144 0da5 1C040000 		.4byte	0x41c
 3145 0da9 02       		.byte	0x2
 3146 0daa 13       		.uleb128 0x13
 3147 0dab B90A0000 		.4byte	.LASF305
 3148 0daf 0F       		.byte	0xf
 3149 0db0 BE       		.byte	0xbe
 3150 0db1 B70D0000 		.4byte	0xdb7
 3151 0db5 04       		.byte	0x4
 3152 0db6 00       		.byte	0
 3153 0db7 19       		.uleb128 0x19
 3154 0db8 04       		.byte	0x4
 3155 0db9 BD0D0000 		.4byte	0xdbd
 3156 0dbd 11       		.uleb128 0x11
 3157 0dbe 7F0D0000 		.4byte	0xd7f
 3158 0dc2 06       		.uleb128 0x6
 3159 0dc3 EC020000 		.4byte	.LASF306
 3160 0dc7 0F       		.byte	0xf
 3161 0dc8 BF       		.byte	0xbf
 3162 0dc9 8A0D0000 		.4byte	0xd8a
 3163 0dcd 12       		.uleb128 0x12
 3164 0dce 08       		.byte	0x8
 3165 0dcf 0F       		.byte	0xf
 3166 0dd0 C1       		.byte	0xc1
 3167 0dd1 060E0000 		.4byte	0xe06
 3168 0dd5 13       		.uleb128 0x13
 3169 0dd6 081C0000 		.4byte	.LASF294
 3170 0dda 0F       		.byte	0xf
 3171 0ddb C2       		.byte	0xc2
 3172 0ddc 0A040000 		.4byte	0x40a
 3173 0de0 00       		.byte	0
 3174 0de1 13       		.uleb128 0x13
 3175 0de2 7F060000 		.4byte	.LASF307
 3176 0de6 0F       		.byte	0xf
 3177 0de7 C3       		.byte	0xc3
 3178 0de8 0A040000 		.4byte	0x40a
 3179 0dec 01       		.byte	0x1
 3180 0ded 13       		.uleb128 0x13
 3181 0dee C10C0000 		.4byte	.LASF296
 3182 0df2 0F       		.byte	0xf
 3183 0df3 C4       		.byte	0xc4
 3184 0df4 0A040000 		.4byte	0x40a
 3185 0df8 02       		.byte	0x2
 3186 0df9 13       		.uleb128 0x13
 3187 0dfa 4A040000 		.4byte	.LASF298
 3188 0dfe 0F       		.byte	0xf
 3189 0dff C5       		.byte	0xc5
 3190 0e00 0C0C0000 		.4byte	0xc0c
 3191 0e04 04       		.byte	0x4
 3192 0e05 00       		.byte	0
 3193 0e06 06       		.uleb128 0x6
 3194 0e07 F31C0000 		.4byte	.LASF308
 3195 0e0b 0F       		.byte	0xf
 3196 0e0c C6       		.byte	0xc6
 3197 0e0d CD0D0000 		.4byte	0xdcd
 3198 0e11 12       		.uleb128 0x12
ARM GAS  C:\Users\rober\AppData\Local\Temp\ccBCZTBX.s 			page 125


 3199 0e12 0C       		.byte	0xc
 3200 0e13 0F       		.byte	0xf
 3201 0e14 C8       		.byte	0xc8
 3202 0e15 620E0000 		.4byte	0xe62
 3203 0e19 13       		.uleb128 0x13
 3204 0e1a 081C0000 		.4byte	.LASF294
 3205 0e1e 0F       		.byte	0xf
 3206 0e1f C9       		.byte	0xc9
 3207 0e20 0A040000 		.4byte	0x40a
 3208 0e24 00       		.byte	0
 3209 0e25 13       		.uleb128 0x13
 3210 0e26 F0110000 		.4byte	.LASF295
 3211 0e2a 0F       		.byte	0xf
 3212 0e2b CA       		.byte	0xca
 3213 0e2c 0A040000 		.4byte	0x40a
 3214 0e30 01       		.byte	0x1
 3215 0e31 13       		.uleb128 0x13
 3216 0e32 750E0000 		.4byte	.LASF309
 3217 0e36 0F       		.byte	0xf
 3218 0e37 CB       		.byte	0xcb
 3219 0e38 F8030000 		.4byte	0x3f8
 3220 0e3c 02       		.byte	0x2
 3221 0e3d 13       		.uleb128 0x13
 3222 0e3e 75010000 		.4byte	.LASF310
 3223 0e42 0F       		.byte	0xf
 3224 0e43 CC       		.byte	0xcc
 3225 0e44 F8030000 		.4byte	0x3f8
 3226 0e48 03       		.byte	0x3
 3227 0e49 13       		.uleb128 0x13
 3228 0e4a 7F060000 		.4byte	.LASF307
 3229 0e4e 0F       		.byte	0xf
 3230 0e4f CD       		.byte	0xcd
 3231 0e50 0A040000 		.4byte	0x40a
 3232 0e54 04       		.byte	0x4
 3233 0e55 13       		.uleb128 0x13
 3234 0e56 4A040000 		.4byte	.LASF298
 3235 0e5a 0F       		.byte	0xf
 3236 0e5b CE       		.byte	0xce
 3237 0e5c 0C0C0000 		.4byte	0xc0c
 3238 0e60 08       		.byte	0x8
 3239 0e61 00       		.byte	0
 3240 0e62 06       		.uleb128 0x6
 3241 0e63 7B080000 		.4byte	.LASF311
 3242 0e67 0F       		.byte	0xf
 3243 0e68 CF       		.byte	0xcf
 3244 0e69 110E0000 		.4byte	0xe11
 3245 0e6d 18       		.uleb128 0x18
 3246 0e6e 201E0000 		.4byte	.LASF312
 3247 0e72 0C       		.byte	0xc
 3248 0e73 0F       		.byte	0xf
 3249 0e74 D1       		.byte	0xd1
 3250 0e75 AA0E0000 		.4byte	0xeaa
 3251 0e79 13       		.uleb128 0x13
 3252 0e7a A5000000 		.4byte	.LASF313
 3253 0e7e 0F       		.byte	0xf
 3254 0e7f D2       		.byte	0xd2
 3255 0e80 1C040000 		.4byte	0x41c
ARM GAS  C:\Users\rober\AppData\Local\Temp\ccBCZTBX.s 			page 126


 3256 0e84 00       		.byte	0
 3257 0e85 13       		.uleb128 0x13
 3258 0e86 4A1D0000 		.4byte	.LASF314
 3259 0e8a 0F       		.byte	0xf
 3260 0e8b D3       		.byte	0xd3
 3261 0e8c 1C040000 		.4byte	0x41c
 3262 0e90 02       		.byte	0x2
 3263 0e91 13       		.uleb128 0x13
 3264 0e92 4F0E0000 		.4byte	.LASF315
 3265 0e96 0F       		.byte	0xf
 3266 0e97 D4       		.byte	0xd4
 3267 0e98 AA0E0000 		.4byte	0xeaa
 3268 0e9c 04       		.byte	0x4
 3269 0e9d 13       		.uleb128 0x13
 3270 0e9e A81D0000 		.4byte	.LASF316
 3271 0ea2 0F       		.byte	0xf
 3272 0ea3 D5       		.byte	0xd5
 3273 0ea4 B50E0000 		.4byte	0xeb5
 3274 0ea8 08       		.byte	0x8
 3275 0ea9 00       		.byte	0
 3276 0eaa 19       		.uleb128 0x19
 3277 0eab 04       		.byte	0x4
 3278 0eac B00E0000 		.4byte	0xeb0
 3279 0eb0 11       		.uleb128 0x11
 3280 0eb1 060E0000 		.4byte	0xe06
 3281 0eb5 19       		.uleb128 0x19
 3282 0eb6 04       		.byte	0x4
 3283 0eb7 BB0E0000 		.4byte	0xebb
 3284 0ebb 11       		.uleb128 0x11
 3285 0ebc 6D0E0000 		.4byte	0xe6d
 3286 0ec0 06       		.uleb128 0x6
 3287 0ec1 201E0000 		.4byte	.LASF312
 3288 0ec5 0F       		.byte	0xf
 3289 0ec6 D6       		.byte	0xd6
 3290 0ec7 6D0E0000 		.4byte	0xe6d
 3291 0ecb 18       		.uleb128 0x18
 3292 0ecc 44010000 		.4byte	.LASF317
 3293 0ed0 0C       		.byte	0xc
 3294 0ed1 0F       		.byte	0xf
 3295 0ed2 D8       		.byte	0xd8
 3296 0ed3 080F0000 		.4byte	0xf08
 3297 0ed7 13       		.uleb128 0x13
 3298 0ed8 A5000000 		.4byte	.LASF313
 3299 0edc 0F       		.byte	0xf
 3300 0edd D9       		.byte	0xd9
 3301 0ede 1C040000 		.4byte	0x41c
 3302 0ee2 00       		.byte	0
 3303 0ee3 13       		.uleb128 0x13
 3304 0ee4 4A1D0000 		.4byte	.LASF314
 3305 0ee8 0F       		.byte	0xf
 3306 0ee9 DA       		.byte	0xda
 3307 0eea 1C040000 		.4byte	0x41c
 3308 0eee 02       		.byte	0x2
 3309 0eef 13       		.uleb128 0x13
 3310 0ef0 4F0E0000 		.4byte	.LASF315
 3311 0ef4 0F       		.byte	0xf
 3312 0ef5 DB       		.byte	0xdb
ARM GAS  C:\Users\rober\AppData\Local\Temp\ccBCZTBX.s 			page 127


 3313 0ef6 080F0000 		.4byte	0xf08
 3314 0efa 04       		.byte	0x4
 3315 0efb 13       		.uleb128 0x13
 3316 0efc A81D0000 		.4byte	.LASF316
 3317 0f00 0F       		.byte	0xf
 3318 0f01 DC       		.byte	0xdc
 3319 0f02 130F0000 		.4byte	0xf13
 3320 0f06 08       		.byte	0x8
 3321 0f07 00       		.byte	0
 3322 0f08 19       		.uleb128 0x19
 3323 0f09 04       		.byte	0x4
 3324 0f0a 0E0F0000 		.4byte	0xf0e
 3325 0f0e 11       		.uleb128 0x11
 3326 0f0f 620E0000 		.4byte	0xe62
 3327 0f13 19       		.uleb128 0x19
 3328 0f14 04       		.byte	0x4
 3329 0f15 190F0000 		.4byte	0xf19
 3330 0f19 11       		.uleb128 0x11
 3331 0f1a CB0E0000 		.4byte	0xecb
 3332 0f1e 06       		.uleb128 0x6
 3333 0f1f 44010000 		.4byte	.LASF317
 3334 0f23 0F       		.byte	0xf
 3335 0f24 DD       		.byte	0xdd
 3336 0f25 CB0E0000 		.4byte	0xecb
 3337 0f29 12       		.uleb128 0x12
 3338 0f2a 14       		.byte	0x14
 3339 0f2b 0F       		.byte	0xf
 3340 0f2c DF       		.byte	0xdf
 3341 0f2d 920F0000 		.4byte	0xf92
 3342 0f31 13       		.uleb128 0x13
 3343 0f32 4A040000 		.4byte	.LASF298
 3344 0f36 0F       		.byte	0xf
 3345 0f37 E0       		.byte	0xe0
 3346 0f38 0C0C0000 		.4byte	0xc0c
 3347 0f3c 00       		.byte	0
 3348 0f3d 13       		.uleb128 0x13
 3349 0f3e E4080000 		.4byte	.LASF318
 3350 0f42 0F       		.byte	0xf
 3351 0f43 E1       		.byte	0xe1
 3352 0f44 0C0C0000 		.4byte	0xc0c
 3353 0f48 04       		.byte	0x4
 3354 0f49 13       		.uleb128 0x13
 3355 0f4a 89130000 		.4byte	.LASF319
 3356 0f4e 0F       		.byte	0xf
 3357 0f4f E2       		.byte	0xe2
 3358 0f50 920F0000 		.4byte	0xf92
 3359 0f54 08       		.byte	0x8
 3360 0f55 13       		.uleb128 0x13
 3361 0f56 CE0C0000 		.4byte	.LASF303
 3362 0f5a 0F       		.byte	0xf
 3363 0f5b E3       		.byte	0xe3
 3364 0f5c 1C040000 		.4byte	0x41c
 3365 0f60 0C       		.byte	0xc
 3366 0f61 13       		.uleb128 0x13
 3367 0f62 14160000 		.4byte	.LASF304
 3368 0f66 0F       		.byte	0xf
 3369 0f67 E4       		.byte	0xe4
ARM GAS  C:\Users\rober\AppData\Local\Temp\ccBCZTBX.s 			page 128


 3370 0f68 1C040000 		.4byte	0x41c
 3371 0f6c 0E       		.byte	0xe
 3372 0f6d 13       		.uleb128 0x13
 3373 0f6e 081C0000 		.4byte	.LASF294
 3374 0f72 0F       		.byte	0xf
 3375 0f73 E5       		.byte	0xe5
 3376 0f74 0A040000 		.4byte	0x40a
 3377 0f78 10       		.byte	0x10
 3378 0f79 13       		.uleb128 0x13
 3379 0f7a 7F060000 		.4byte	.LASF307
 3380 0f7e 0F       		.byte	0xf
 3381 0f7f E6       		.byte	0xe6
 3382 0f80 0A040000 		.4byte	0x40a
 3383 0f84 11       		.byte	0x11
 3384 0f85 13       		.uleb128 0x13
 3385 0f86 C10C0000 		.4byte	.LASF296
 3386 0f8a 0F       		.byte	0xf
 3387 0f8b E7       		.byte	0xe7
 3388 0f8c 0A040000 		.4byte	0x40a
 3389 0f90 12       		.byte	0x12
 3390 0f91 00       		.byte	0
 3391 0f92 19       		.uleb128 0x19
 3392 0f93 04       		.byte	0x4
 3393 0f94 980F0000 		.4byte	0xf98
 3394 0f98 11       		.uleb128 0x11
 3395 0f99 C20D0000 		.4byte	0xdc2
 3396 0f9d 06       		.uleb128 0x6
 3397 0f9e 4E070000 		.4byte	.LASF320
 3398 0fa2 0F       		.byte	0xf
 3399 0fa3 E8       		.byte	0xe8
 3400 0fa4 290F0000 		.4byte	0xf29
 3401 0fa8 12       		.uleb128 0x12
 3402 0fa9 06       		.byte	0x6
 3403 0faa 0F       		.byte	0xf
 3404 0fab F1       		.byte	0xf1
 3405 0fac E10F0000 		.4byte	0xfe1
 3406 0fb0 13       		.uleb128 0x13
 3407 0fb1 4C020000 		.4byte	.LASF321
 3408 0fb5 0F       		.byte	0xf
 3409 0fb6 F2       		.byte	0xf2
 3410 0fb7 1C040000 		.4byte	0x41c
 3411 0fbb 00       		.byte	0
 3412 0fbc 13       		.uleb128 0x13
 3413 0fbd 1C090000 		.4byte	.LASF322
 3414 0fc1 0F       		.byte	0xf
 3415 0fc2 F3       		.byte	0xf3
 3416 0fc3 0A040000 		.4byte	0x40a
 3417 0fc7 02       		.byte	0x2
 3418 0fc8 13       		.uleb128 0x13
 3419 0fc9 9E140000 		.4byte	.LASF323
 3420 0fcd 0F       		.byte	0xf
 3421 0fce F4       		.byte	0xf4
 3422 0fcf 0A040000 		.4byte	0x40a
 3423 0fd3 03       		.byte	0x3
 3424 0fd4 13       		.uleb128 0x13
 3425 0fd5 F6110000 		.4byte	.LASF324
 3426 0fd9 0F       		.byte	0xf
ARM GAS  C:\Users\rober\AppData\Local\Temp\ccBCZTBX.s 			page 129


 3427 0fda F5       		.byte	0xf5
 3428 0fdb 0A040000 		.4byte	0x40a
 3429 0fdf 04       		.byte	0x4
 3430 0fe0 00       		.byte	0
 3431 0fe1 06       		.uleb128 0x6
 3432 0fe2 60060000 		.4byte	.LASF325
 3433 0fe6 0F       		.byte	0xf
 3434 0fe7 F6       		.byte	0xf6
 3435 0fe8 A80F0000 		.4byte	0xfa8
 3436 0fec 19       		.uleb128 0x19
 3437 0fed 04       		.byte	0x4
 3438 0fee 6E070000 		.4byte	0x76e
 3439 0ff2 10       		.uleb128 0x10
 3440 0ff3 AA130000 		.4byte	.LASF326
 3441 0ff7 0F       		.byte	0xf
 3442 0ff8 1301     		.2byte	0x113
 3443 0ffa FE0F0000 		.4byte	0xffe
 3444 0ffe 1D       		.uleb128 0x1d
 3445 0fff 55040000 		.4byte	0x455
 3446 1003 12100000 		.4byte	0x1012
 3447 1007 1B       		.uleb128 0x1b
 3448 1008 1E0C0000 		.4byte	0xc1e
 3449 100c 1B       		.uleb128 0x1b
 3450 100d 55040000 		.4byte	0x455
 3451 1011 00       		.byte	0
 3452 1012 10       		.uleb128 0x10
 3453 1013 03180000 		.4byte	.LASF327
 3454 1017 0F       		.byte	0xf
 3455 1018 1401     		.2byte	0x114
 3456 101a FE0F0000 		.4byte	0xffe
 3457 101e 10       		.uleb128 0x10
 3458 101f 10110000 		.4byte	.LASF328
 3459 1023 0F       		.byte	0xf
 3460 1024 1501     		.2byte	0x115
 3461 1026 2A100000 		.4byte	0x102a
 3462 102a 1A       		.uleb128 0x1a
 3463 102b 3A100000 		.4byte	0x103a
 3464 102f 1B       		.uleb128 0x1b
 3465 1030 1E0C0000 		.4byte	0xc1e
 3466 1034 1B       		.uleb128 0x1b
 3467 1035 55040000 		.4byte	0x455
 3468 1039 00       		.byte	0
 3469 103a 20       		.uleb128 0x20
 3470 103b 0C       		.byte	0xc
 3471 103c 0F       		.byte	0xf
 3472 103d 1701     		.2byte	0x117
 3473 103f 6B100000 		.4byte	0x106b
 3474 1043 09       		.uleb128 0x9
 3475 1044 260B0000 		.4byte	.LASF329
 3476 1048 0F       		.byte	0xf
 3477 1049 1801     		.2byte	0x118
 3478 104b 6B100000 		.4byte	0x106b
 3479 104f 00       		.byte	0
 3480 1050 09       		.uleb128 0x9
 3481 1051 97110000 		.4byte	.LASF330
 3482 1055 0F       		.byte	0xf
 3483 1056 1901     		.2byte	0x119
ARM GAS  C:\Users\rober\AppData\Local\Temp\ccBCZTBX.s 			page 130


 3484 1058 71100000 		.4byte	0x1071
 3485 105c 04       		.byte	0x4
 3486 105d 09       		.uleb128 0x9
 3487 105e 7D170000 		.4byte	.LASF331
 3488 1062 0F       		.byte	0xf
 3489 1063 1A01     		.2byte	0x11a
 3490 1065 77100000 		.4byte	0x1077
 3491 1069 08       		.byte	0x8
 3492 106a 00       		.byte	0
 3493 106b 19       		.uleb128 0x19
 3494 106c 04       		.byte	0x4
 3495 106d F20F0000 		.4byte	0xff2
 3496 1071 19       		.uleb128 0x19
 3497 1072 04       		.byte	0x4
 3498 1073 12100000 		.4byte	0x1012
 3499 1077 19       		.uleb128 0x19
 3500 1078 04       		.byte	0x4
 3501 1079 1E100000 		.4byte	0x101e
 3502 107d 10       		.uleb128 0x10
 3503 107e 79000000 		.4byte	.LASF332
 3504 1082 0F       		.byte	0xf
 3505 1083 1B01     		.2byte	0x11b
 3506 1085 3A100000 		.4byte	0x103a
 3507 1089 10       		.uleb128 0x10
 3508 108a 74150000 		.4byte	.LASF333
 3509 108e 0F       		.byte	0xf
 3510 108f 2401     		.2byte	0x124
 3511 1091 95100000 		.4byte	0x1095
 3512 1095 1C       		.uleb128 0x1c
 3513 1096 74150000 		.4byte	.LASF333
 3514 109a 24       		.byte	0x24
 3515 109b 0F       		.byte	0xf
 3516 109c B101     		.2byte	0x1b1
 3517 109e 57110000 		.4byte	0x1157
 3518 10a2 09       		.uleb128 0x9
 3519 10a3 AE0A0000 		.4byte	.LASF334
 3520 10a7 0F       		.byte	0xf
 3521 10a8 B201     		.2byte	0x1b2
 3522 10aa 62120000 		.4byte	0x1262
 3523 10ae 00       		.byte	0
 3524 10af 09       		.uleb128 0x9
 3525 10b0 850A0000 		.4byte	.LASF335
 3526 10b4 0F       		.byte	0xf
 3527 10b5 B301     		.2byte	0x1b3
 3528 10b7 68120000 		.4byte	0x1268
 3529 10bb 04       		.byte	0x4
 3530 10bc 09       		.uleb128 0x9
 3531 10bd 650F0000 		.4byte	.LASF336
 3532 10c1 0F       		.byte	0xf
 3533 10c2 B401     		.2byte	0x1b4
 3534 10c4 6E120000 		.4byte	0x126e
 3535 10c8 08       		.byte	0x8
 3536 10c9 09       		.uleb128 0x9
 3537 10ca 120B0000 		.4byte	.LASF337
 3538 10ce 0F       		.byte	0xf
 3539 10cf B501     		.2byte	0x1b5
 3540 10d1 74120000 		.4byte	0x1274
ARM GAS  C:\Users\rober\AppData\Local\Temp\ccBCZTBX.s 			page 131


 3541 10d5 0C       		.byte	0xc
 3542 10d6 09       		.uleb128 0x9
 3543 10d7 E90A0000 		.4byte	.LASF338
 3544 10db 0F       		.byte	0xf
 3545 10dc B601     		.2byte	0x1b6
 3546 10de 7A120000 		.4byte	0x127a
 3547 10e2 10       		.byte	0x10
 3548 10e3 09       		.uleb128 0x9
 3549 10e4 44100000 		.4byte	.LASF339
 3550 10e8 0F       		.byte	0xf
 3551 10e9 B701     		.2byte	0x1b7
 3552 10eb 80120000 		.4byte	0x1280
 3553 10ef 14       		.byte	0x14
 3554 10f0 09       		.uleb128 0x9
 3555 10f1 F0110000 		.4byte	.LASF295
 3556 10f5 0F       		.byte	0xf
 3557 10f6 B801     		.2byte	0x1b8
 3558 10f8 0A040000 		.4byte	0x40a
 3559 10fc 18       		.byte	0x18
 3560 10fd 09       		.uleb128 0x9
 3561 10fe 9E0E0000 		.4byte	.LASF340
 3562 1102 0F       		.byte	0xf
 3563 1103 B901     		.2byte	0x1b9
 3564 1105 0A040000 		.4byte	0x40a
 3565 1109 19       		.byte	0x19
 3566 110a 09       		.uleb128 0x9
 3567 110b E40A0000 		.4byte	.LASF341
 3568 110f 0F       		.byte	0xf
 3569 1110 BA01     		.2byte	0x1ba
 3570 1112 0A040000 		.4byte	0x40a
 3571 1116 1A       		.byte	0x1a
 3572 1117 09       		.uleb128 0x9
 3573 1118 031C0000 		.4byte	.LASF342
 3574 111c 0F       		.byte	0xf
 3575 111d BB01     		.2byte	0x1bb
 3576 111f 0A040000 		.4byte	0x40a
 3577 1123 1B       		.byte	0x1b
 3578 1124 21       		.uleb128 0x21
 3579 1125 7000     		.ascii	"p\000"
 3580 1127 0F       		.byte	0xf
 3581 1128 C101     		.2byte	0x1c1
 3582 112a 07120000 		.4byte	0x1207
 3583 112e 1C       		.byte	0x1c
 3584 112f 09       		.uleb128 0x9
 3585 1130 1C090000 		.4byte	.LASF322
 3586 1134 0F       		.byte	0xf
 3587 1135 C201     		.2byte	0x1c2
 3588 1137 0A040000 		.4byte	0x40a
 3589 113b 20       		.byte	0x20
 3590 113c 09       		.uleb128 0x9
 3591 113d 9E140000 		.4byte	.LASF323
 3592 1141 0F       		.byte	0xf
 3593 1142 C301     		.2byte	0x1c3
 3594 1144 0A040000 		.4byte	0x40a
 3595 1148 21       		.byte	0x21
 3596 1149 09       		.uleb128 0x9
 3597 114a F6110000 		.4byte	.LASF324
ARM GAS  C:\Users\rober\AppData\Local\Temp\ccBCZTBX.s 			page 132


 3598 114e 0F       		.byte	0xf
 3599 114f C401     		.2byte	0x1c4
 3600 1151 0A040000 		.4byte	0x40a
 3601 1155 22       		.byte	0x22
 3602 1156 00       		.byte	0
 3603 1157 10       		.uleb128 0x10
 3604 1158 080C0000 		.4byte	.LASF343
 3605 115c 0F       		.byte	0xf
 3606 115d 2601     		.2byte	0x126
 3607 115f 63110000 		.4byte	0x1163
 3608 1163 1A       		.uleb128 0x1a
 3609 1164 6E110000 		.4byte	0x116e
 3610 1168 1B       		.uleb128 0x1b
 3611 1169 1C040000 		.4byte	0x41c
 3612 116d 00       		.byte	0
 3613 116e 10       		.uleb128 0x10
 3614 116f D30F0000 		.4byte	.LASF344
 3615 1173 0F       		.byte	0xf
 3616 1174 2701     		.2byte	0x127
 3617 1176 7A110000 		.4byte	0x117a
 3618 117a 1D       		.uleb128 0x1d
 3619 117b 55040000 		.4byte	0x455
 3620 117f 8E110000 		.4byte	0x118e
 3621 1183 1B       		.uleb128 0x1b
 3622 1184 1C040000 		.4byte	0x41c
 3623 1188 1B       		.uleb128 0x1b
 3624 1189 8E110000 		.4byte	0x118e
 3625 118d 00       		.byte	0
 3626 118e 19       		.uleb128 0x19
 3627 118f 04       		.byte	0x4
 3628 1190 55040000 		.4byte	0x455
 3629 1194 10       		.uleb128 0x10
 3630 1195 7F1E0000 		.4byte	.LASF345
 3631 1199 0F       		.byte	0xf
 3632 119a 2801     		.2byte	0x128
 3633 119c A0110000 		.4byte	0x11a0
 3634 11a0 1A       		.uleb128 0x1a
 3635 11a1 B0110000 		.4byte	0x11b0
 3636 11a5 1B       		.uleb128 0x1b
 3637 11a6 B0110000 		.4byte	0x11b0
 3638 11aa 1B       		.uleb128 0x1b
 3639 11ab BB110000 		.4byte	0x11bb
 3640 11af 00       		.byte	0
 3641 11b0 19       		.uleb128 0x19
 3642 11b1 04       		.byte	0x4
 3643 11b2 B6110000 		.4byte	0x11b6
 3644 11b6 11       		.uleb128 0x11
 3645 11b7 89100000 		.4byte	0x1089
 3646 11bb 19       		.uleb128 0x19
 3647 11bc 04       		.byte	0x4
 3648 11bd E10F0000 		.4byte	0xfe1
 3649 11c1 10       		.uleb128 0x10
 3650 11c2 60180000 		.4byte	.LASF346
 3651 11c6 0F       		.byte	0xf
 3652 11c7 2901     		.2byte	0x129
 3653 11c9 CD110000 		.4byte	0x11cd
 3654 11cd 1D       		.uleb128 0x1d
ARM GAS  C:\Users\rober\AppData\Local\Temp\ccBCZTBX.s 			page 133


 3655 11ce 6E070000 		.4byte	0x76e
 3656 11d2 E1110000 		.4byte	0x11e1
 3657 11d6 1B       		.uleb128 0x1b
 3658 11d7 B0110000 		.4byte	0x11b0
 3659 11db 1B       		.uleb128 0x1b
 3660 11dc 1C040000 		.4byte	0x41c
 3661 11e0 00       		.byte	0
 3662 11e1 10       		.uleb128 0x10
 3663 11e2 211A0000 		.4byte	.LASF347
 3664 11e6 0F       		.byte	0xf
 3665 11e7 2A01     		.2byte	0x12a
 3666 11e9 ED110000 		.4byte	0x11ed
 3667 11ed 1D       		.uleb128 0x1d
 3668 11ee 55040000 		.4byte	0x455
 3669 11f2 01120000 		.4byte	0x1201
 3670 11f6 1B       		.uleb128 0x1b
 3671 11f7 1C040000 		.4byte	0x41c
 3672 11fb 1B       		.uleb128 0x1b
 3673 11fc 01120000 		.4byte	0x1201
 3674 1200 00       		.byte	0
 3675 1201 19       		.uleb128 0x19
 3676 1202 04       		.byte	0x4
 3677 1203 620E0000 		.4byte	0xe62
 3678 1207 22       		.uleb128 0x22
 3679 1208 04       		.byte	0x4
 3680 1209 0F       		.byte	0xf
 3681 120a BC01     		.2byte	0x1bc
 3682 120c 41120000 		.4byte	0x1241
 3683 1210 23       		.uleb128 0x23
 3684 1211 FF020000 		.4byte	.LASF348
 3685 1215 0F       		.byte	0xf
 3686 1216 BD01     		.2byte	0x1bd
 3687 1218 170C0000 		.4byte	0xc17
 3688 121c 23       		.uleb128 0x23
 3689 121d FA150000 		.4byte	.LASF349
 3690 1221 0F       		.byte	0xf
 3691 1222 BE01     		.2byte	0x1be
 3692 1224 41120000 		.4byte	0x1241
 3693 1228 23       		.uleb128 0x23
 3694 1229 8F150000 		.4byte	.LASF350
 3695 122d 0F       		.byte	0xf
 3696 122e BF01     		.2byte	0x1bf
 3697 1230 4C120000 		.4byte	0x124c
 3698 1234 23       		.uleb128 0x23
 3699 1235 8F1E0000 		.4byte	.LASF351
 3700 1239 0F       		.byte	0xf
 3701 123a C001     		.2byte	0x1c0
 3702 123c 57120000 		.4byte	0x1257
 3703 1240 00       		.byte	0
 3704 1241 19       		.uleb128 0x19
 3705 1242 04       		.byte	0x4
 3706 1243 47120000 		.4byte	0x1247
 3707 1247 11       		.uleb128 0x11
 3708 1248 9D0F0000 		.4byte	0xf9d
 3709 124c 19       		.uleb128 0x19
 3710 124d 04       		.byte	0x4
 3711 124e 52120000 		.4byte	0x1252
ARM GAS  C:\Users\rober\AppData\Local\Temp\ccBCZTBX.s 			page 134


 3712 1252 11       		.uleb128 0x11
 3713 1253 C00E0000 		.4byte	0xec0
 3714 1257 19       		.uleb128 0x19
 3715 1258 04       		.byte	0x4
 3716 1259 5D120000 		.4byte	0x125d
 3717 125d 11       		.uleb128 0x11
 3718 125e 1E0F0000 		.4byte	0xf1e
 3719 1262 19       		.uleb128 0x19
 3720 1263 04       		.byte	0x4
 3721 1264 57110000 		.4byte	0x1157
 3722 1268 19       		.uleb128 0x19
 3723 1269 04       		.byte	0x4
 3724 126a 6E110000 		.4byte	0x116e
 3725 126e 19       		.uleb128 0x19
 3726 126f 04       		.byte	0x4
 3727 1270 94110000 		.4byte	0x1194
 3728 1274 19       		.uleb128 0x19
 3729 1275 04       		.byte	0x4
 3730 1276 C1110000 		.4byte	0x11c1
 3731 127a 19       		.uleb128 0x19
 3732 127b 04       		.byte	0x4
 3733 127c E1110000 		.4byte	0x11e1
 3734 1280 19       		.uleb128 0x19
 3735 1281 04       		.byte	0x4
 3736 1282 86120000 		.4byte	0x1286
 3737 1286 11       		.uleb128 0x11
 3738 1287 7D100000 		.4byte	0x107d
 3739 128b 11       		.uleb128 0x11
 3740 128c 550D0000 		.4byte	0xd55
 3741 1290 06       		.uleb128 0x6
 3742 1291 81120000 		.4byte	.LASF352
 3743 1295 10       		.byte	0x10
 3744 1296 35       		.byte	0x35
 3745 1297 0A040000 		.4byte	0x40a
 3746 129b 06       		.uleb128 0x6
 3747 129c 631C0000 		.4byte	.LASF353
 3748 12a0 11       		.byte	0x11
 3749 12a1 69       		.byte	0x69
 3750 12a2 90120000 		.4byte	0x1290
 3751 12a6 02       		.uleb128 0x2
 3752 12a7 01       		.byte	0x1
 3753 12a8 0A040000 		.4byte	0x40a
 3754 12ac 11       		.byte	0x11
 3755 12ad 6E       		.byte	0x6e
 3756 12ae C5120000 		.4byte	0x12c5
 3757 12b2 04       		.uleb128 0x4
 3758 12b3 BD120000 		.4byte	.LASF354
 3759 12b7 00       		.byte	0
 3760 12b8 04       		.uleb128 0x4
 3761 12b9 25030000 		.4byte	.LASF355
 3762 12bd 01       		.byte	0x1
 3763 12be 04       		.uleb128 0x4
 3764 12bf BB170000 		.4byte	.LASF356
 3765 12c3 02       		.byte	0x2
 3766 12c4 00       		.byte	0
 3767 12c5 06       		.uleb128 0x6
 3768 12c6 F2030000 		.4byte	.LASF357
ARM GAS  C:\Users\rober\AppData\Local\Temp\ccBCZTBX.s 			page 135


 3769 12ca 11       		.byte	0x11
 3770 12cb 72       		.byte	0x72
 3771 12cc A6120000 		.4byte	0x12a6
 3772 12d0 20       		.uleb128 0x20
 3773 12d1 08       		.byte	0x8
 3774 12d2 01       		.byte	0x1
 3775 12d3 0A01     		.2byte	0x10a
 3776 12d5 F4120000 		.4byte	0x12f4
 3777 12d9 09       		.uleb128 0x9
 3778 12da 59090000 		.4byte	.LASF358
 3779 12de 01       		.byte	0x1
 3780 12df 0B01     		.2byte	0x10b
 3781 12e1 55040000 		.4byte	0x455
 3782 12e5 00       		.byte	0
 3783 12e6 09       		.uleb128 0x9
 3784 12e7 840C0000 		.4byte	.LASF359
 3785 12eb 01       		.byte	0x1
 3786 12ec 0C01     		.2byte	0x10c
 3787 12ee 55040000 		.4byte	0x455
 3788 12f2 04       		.byte	0x4
 3789 12f3 00       		.byte	0
 3790 12f4 10       		.uleb128 0x10
 3791 12f5 6F090000 		.4byte	.LASF360
 3792 12f9 01       		.byte	0x1
 3793 12fa 0D01     		.2byte	0x10d
 3794 12fc D0120000 		.4byte	0x12d0
 3795 1300 24       		.uleb128 0x24
 3796 1301 F4010000 		.4byte	.LASF364
 3797 1305 02       		.byte	0x2
 3798 1306 1A02     		.2byte	0x21a
 3799 1308 03       		.byte	0x3
 3800 1309 32130000 		.4byte	0x1332
 3801 130d 25       		.uleb128 0x25
 3802 130e F8000000 		.4byte	.LASF361
 3803 1312 02       		.byte	0x2
 3804 1313 1A02     		.2byte	0x21a
 3805 1315 32130000 		.4byte	0x1332
 3806 1319 25       		.uleb128 0x25
 3807 131a 1A170000 		.4byte	.LASF362
 3808 131e 02       		.byte	0x2
 3809 131f 1A02     		.2byte	0x21a
 3810 1321 84040000 		.4byte	0x484
 3811 1325 25       		.uleb128 0x25
 3812 1326 4B170000 		.4byte	.LASF363
 3813 132a 02       		.byte	0x2
 3814 132b 1A02     		.2byte	0x21a
 3815 132d 84040000 		.4byte	0x484
 3816 1331 00       		.byte	0
 3817 1332 19       		.uleb128 0x19
 3818 1333 04       		.byte	0x4
 3819 1334 5C070000 		.4byte	0x75c
 3820 1338 24       		.uleb128 0x24
 3821 1339 71190000 		.4byte	.LASF365
 3822 133d 03       		.byte	0x3
 3823 133e 3C01     		.2byte	0x13c
 3824 1340 03       		.byte	0x3
 3825 1341 6A130000 		.4byte	0x136a
ARM GAS  C:\Users\rober\AppData\Local\Temp\ccBCZTBX.s 			page 136


 3826 1345 25       		.uleb128 0x25
 3827 1346 F8000000 		.4byte	.LASF361
 3828 134a 03       		.byte	0x3
 3829 134b 3C01     		.2byte	0x13c
 3830 134d 32130000 		.4byte	0x1332
 3831 1351 25       		.uleb128 0x25
 3832 1352 1A170000 		.4byte	.LASF362
 3833 1356 03       		.byte	0x3
 3834 1357 3C01     		.2byte	0x13c
 3835 1359 84040000 		.4byte	0x484
 3836 135d 25       		.uleb128 0x25
 3837 135e B90E0000 		.4byte	.LASF228
 3838 1362 03       		.byte	0x3
 3839 1363 3C01     		.2byte	0x13c
 3840 1365 84040000 		.4byte	0x484
 3841 1369 00       		.byte	0
 3842 136a 26       		.uleb128 0x26
 3843 136b 07160000 		.4byte	.LASF445
 3844 136f 05       		.byte	0x5
 3845 1370 53       		.byte	0x53
 3846 1371 03       		.byte	0x3
 3847 1372 24       		.uleb128 0x24
 3848 1373 8A190000 		.4byte	.LASF366
 3849 1377 04       		.byte	0x4
 3850 1378 8606     		.2byte	0x686
 3851 137a 03       		.byte	0x3
 3852 137b 8C130000 		.4byte	0x138c
 3853 137f 25       		.uleb128 0x25
 3854 1380 D9130000 		.4byte	.LASF367
 3855 1384 04       		.byte	0x4
 3856 1385 8606     		.2byte	0x686
 3857 1387 ED030000 		.4byte	0x3ed
 3858 138b 00       		.byte	0
 3859 138c 24       		.uleb128 0x24
 3860 138d 6B140000 		.4byte	.LASF368
 3861 1391 04       		.byte	0x4
 3862 1392 DF06     		.2byte	0x6df
 3863 1394 03       		.byte	0x3
 3864 1395 A6130000 		.4byte	0x13a6
 3865 1399 25       		.uleb128 0x25
 3866 139a D9130000 		.4byte	.LASF367
 3867 139e 04       		.byte	0x4
 3868 139f DF06     		.2byte	0x6df
 3869 13a1 ED030000 		.4byte	0x3ed
 3870 13a5 00       		.byte	0
 3871 13a6 24       		.uleb128 0x24
 3872 13a7 31190000 		.4byte	.LASF369
 3873 13ab 02       		.byte	0x2
 3874 13ac BC01     		.2byte	0x1bc
 3875 13ae 03       		.byte	0x3
 3876 13af CC130000 		.4byte	0x13cc
 3877 13b3 25       		.uleb128 0x25
 3878 13b4 F8000000 		.4byte	.LASF361
 3879 13b8 02       		.byte	0x2
 3880 13b9 BC01     		.2byte	0x1bc
 3881 13bb 32130000 		.4byte	0x1332
 3882 13bf 25       		.uleb128 0x25
ARM GAS  C:\Users\rober\AppData\Local\Temp\ccBCZTBX.s 			page 137


 3883 13c0 7E0B0000 		.4byte	.LASF370
 3884 13c4 02       		.byte	0x2
 3885 13c5 BC01     		.2byte	0x1bc
 3886 13c7 84040000 		.4byte	0x484
 3887 13cb 00       		.byte	0
 3888 13cc 24       		.uleb128 0x24
 3889 13cd B80F0000 		.4byte	.LASF371
 3890 13d1 06       		.byte	0x6
 3891 13d2 E701     		.2byte	0x1e7
 3892 13d4 03       		.byte	0x3
 3893 13d5 FE130000 		.4byte	0x13fe
 3894 13d9 25       		.uleb128 0x25
 3895 13da F8000000 		.4byte	.LASF361
 3896 13de 06       		.byte	0x6
 3897 13df E701     		.2byte	0x1e7
 3898 13e1 32130000 		.4byte	0x1332
 3899 13e5 25       		.uleb128 0x25
 3900 13e6 1A170000 		.4byte	.LASF362
 3901 13ea 06       		.byte	0x6
 3902 13eb E701     		.2byte	0x1e7
 3903 13ed 84040000 		.4byte	0x484
 3904 13f1 25       		.uleb128 0x25
 3905 13f2 AB1B0000 		.4byte	.LASF223
 3906 13f6 06       		.byte	0x6
 3907 13f7 E701     		.2byte	0x1e7
 3908 13f9 84040000 		.4byte	0x484
 3909 13fd 00       		.byte	0
 3910 13fe 24       		.uleb128 0x24
 3911 13ff 8F1C0000 		.4byte	.LASF372
 3912 1403 02       		.byte	0x2
 3913 1404 7901     		.2byte	0x179
 3914 1406 03       		.byte	0x3
 3915 1407 24140000 		.4byte	0x1424
 3916 140b 25       		.uleb128 0x25
 3917 140c F8000000 		.4byte	.LASF361
 3918 1410 02       		.byte	0x2
 3919 1411 7901     		.2byte	0x179
 3920 1413 32130000 		.4byte	0x1332
 3921 1417 25       		.uleb128 0x25
 3922 1418 7E0B0000 		.4byte	.LASF370
 3923 141c 02       		.byte	0x2
 3924 141d 7901     		.2byte	0x179
 3925 141f 84040000 		.4byte	0x484
 3926 1423 00       		.byte	0
 3927 1424 27       		.uleb128 0x27
 3928 1425 4B160000 		.4byte	.LASF375
 3929 1429 01       		.byte	0x1
 3930 142a 61       		.byte	0x61
 3931 142b 00000000 		.4byte	.LFB604
 3932 142f 2C000000 		.4byte	.LFE604-.LFB604
 3933 1433 01       		.uleb128 0x1
 3934 1434 9C       		.byte	0x9c
 3935 1435 B3140000 		.4byte	0x14b3
 3936 1439 28       		.uleb128 0x28
 3937 143a 03110000 		.4byte	.LASF373
 3938 143e 01       		.byte	0x1
 3939 143f 61       		.byte	0x61
ARM GAS  C:\Users\rober\AppData\Local\Temp\ccBCZTBX.s 			page 138


 3940 1440 C5120000 		.4byte	0x12c5
 3941 1444 00000000 		.4byte	.LLST0
 3942 1448 28       		.uleb128 0x28
 3943 1449 6F020000 		.4byte	.LASF374
 3944 144d 01       		.byte	0x1
 3945 144e 61       		.byte	0x61
 3946 144f BD070000 		.4byte	0x7bd
 3947 1453 21000000 		.4byte	.LLST1
 3948 1457 29       		.uleb128 0x29
 3949 1458 C0080000 		.4byte	.LASF377
 3950 145c 01       		.byte	0x1
 3951 145d 63       		.byte	0x63
 3952 145e B3140000 		.4byte	0x14b3
 3953 1462 42000000 		.4byte	.LLST2
 3954 1466 2A       		.uleb128 0x2a
 3955 1467 0A000000 		.4byte	.LVL1
 3956 146b 1F200000 		.4byte	0x201f
 3957 146f 2B       		.uleb128 0x2b
 3958 1470 1A000000 		.4byte	.LVL4
 3959 1474 2A200000 		.4byte	0x202a
 3960 1478 95140000 		.4byte	0x1495
 3961 147c 2C       		.uleb128 0x2c
 3962 147d 01       		.uleb128 0x1
 3963 147e 50       		.byte	0x50
 3964 147f 02       		.uleb128 0x2
 3965 1480 74       		.byte	0x74
 3966 1481 00       		.sleb128 0
 3967 1482 2C       		.uleb128 0x2c
 3968 1483 01       		.uleb128 0x1
 3969 1484 51       		.byte	0x51
 3970 1485 02       		.uleb128 0x2
 3971 1486 75       		.byte	0x75
 3972 1487 00       		.sleb128 0
 3973 1488 2C       		.uleb128 0x2c
 3974 1489 01       		.uleb128 0x1
 3975 148a 52       		.byte	0x52
 3976 148b 02       		.uleb128 0x2
 3977 148c 76       		.byte	0x76
 3978 148d 00       		.sleb128 0
 3979 148e 2C       		.uleb128 0x2c
 3980 148f 01       		.uleb128 0x1
 3981 1490 53       		.byte	0x53
 3982 1491 02       		.uleb128 0x2
 3983 1492 77       		.byte	0x77
 3984 1493 00       		.sleb128 0
 3985 1494 00       		.byte	0
 3986 1495 2D       		.uleb128 0x2d
 3987 1496 26000000 		.4byte	.LVL5
 3988 149a 35200000 		.4byte	0x2035
 3989 149e 2C       		.uleb128 0x2c
 3990 149f 01       		.uleb128 0x1
 3991 14a0 50       		.byte	0x50
 3992 14a1 02       		.uleb128 0x2
 3993 14a2 74       		.byte	0x74
 3994 14a3 00       		.sleb128 0
 3995 14a4 2C       		.uleb128 0x2c
 3996 14a5 01       		.uleb128 0x1
ARM GAS  C:\Users\rober\AppData\Local\Temp\ccBCZTBX.s 			page 139


 3997 14a6 51       		.byte	0x51
 3998 14a7 02       		.uleb128 0x2
 3999 14a8 75       		.byte	0x75
 4000 14a9 00       		.sleb128 0
 4001 14aa 2C       		.uleb128 0x2c
 4002 14ab 01       		.uleb128 0x1
 4003 14ac 52       		.byte	0x52
 4004 14ad 03       		.uleb128 0x3
 4005 14ae 0A       		.byte	0xa
 4006 14af B016     		.2byte	0x16b0
 4007 14b1 00       		.byte	0
 4008 14b2 00       		.byte	0
 4009 14b3 19       		.uleb128 0x19
 4010 14b4 04       		.byte	0x4
 4011 14b5 9B120000 		.4byte	0x129b
 4012 14b9 2E       		.uleb128 0x2e
 4013 14ba FD070000 		.4byte	.LASF376
 4014 14be 01       		.byte	0x1
 4015 14bf AF01     		.2byte	0x1af
 4016 14c1 00000000 		.4byte	.LFB611
 4017 14c5 B8000000 		.4byte	.LFE611-.LFB611
 4018 14c9 01       		.uleb128 0x1
 4019 14ca 9C       		.byte	0x9c
 4020 14cb 93150000 		.4byte	0x1593
 4021 14cf 2F       		.uleb128 0x2f
 4022 14d0 00130000 		.4byte	0x1300
 4023 14d4 02000000 		.4byte	.LBB23
 4024 14d8 0C000000 		.4byte	.LBE23-.LBB23
 4025 14dc 01       		.byte	0x1
 4026 14dd B201     		.2byte	0x1b2
 4027 14df FF140000 		.4byte	0x14ff
 4028 14e3 30       		.uleb128 0x30
 4029 14e4 25130000 		.4byte	0x1325
 4030 14e8 6B000000 		.4byte	.LLST3
 4031 14ec 30       		.uleb128 0x30
 4032 14ed 19130000 		.4byte	0x1319
 4033 14f1 6B000000 		.4byte	.LLST3
 4034 14f5 30       		.uleb128 0x30
 4035 14f6 0D130000 		.4byte	0x130d
 4036 14fa 7F000000 		.4byte	.LLST5
 4037 14fe 00       		.byte	0
 4038 14ff 31       		.uleb128 0x31
 4039 1500 18000000 		.4byte	.LBB25
 4040 1504 A0000000 		.4byte	.LBE25-.LBB25
 4041 1508 32       		.uleb128 0x32
 4042 1509 6D696E00 		.ascii	"min\000"
 4043 150d 01       		.byte	0x1
 4044 150e B601     		.2byte	0x1b6
 4045 1510 55040000 		.4byte	0x455
 4046 1514 97000000 		.4byte	.LLST6
 4047 1518 32       		.uleb128 0x32
 4048 1519 6D617800 		.ascii	"max\000"
 4049 151d 01       		.byte	0x1
 4050 151e B701     		.2byte	0x1b7
 4051 1520 55040000 		.4byte	0x455
 4052 1524 AB000000 		.4byte	.LLST7
 4053 1528 33       		.uleb128 0x33
ARM GAS  C:\Users\rober\AppData\Local\Temp\ccBCZTBX.s 			page 140


 4054 1529 CF170000 		.4byte	.LASF378
 4055 152d 01       		.byte	0x1
 4056 152e B801     		.2byte	0x1b8
 4057 1530 55040000 		.4byte	0x455
 4058 1534 05       		.uleb128 0x5
 4059 1535 03       		.byte	0x3
 4060 1536 00000000 		.4byte	pointCounter.20195
 4061 153a 33       		.uleb128 0x33
 4062 153b B81A0000 		.4byte	.LASF379
 4063 153f 01       		.byte	0x1
 4064 1540 BA01     		.2byte	0x1ba
 4065 1542 55040000 		.4byte	0x455
 4066 1546 05       		.uleb128 0x5
 4067 1547 03       		.byte	0x3
 4068 1548 B8160000 		.4byte	randomTemperature1.20196
 4069 154c 33       		.uleb128 0x33
 4070 154d CB1A0000 		.4byte	.LASF380
 4071 1551 01       		.byte	0x1
 4072 1552 BB01     		.2byte	0x1bb
 4073 1554 55040000 		.4byte	0x455
 4074 1558 05       		.uleb128 0x5
 4075 1559 03       		.byte	0x3
 4076 155a B4160000 		.4byte	randomTemperature2.20197
 4077 155e 2A       		.uleb128 0x2a
 4078 155f 1C000000 		.4byte	.LVL10
 4079 1563 3E200000 		.4byte	0x203e
 4080 1567 2A       		.uleb128 0x2a
 4081 1568 6A000000 		.4byte	.LVL11
 4082 156c 49200000 		.4byte	0x2049
 4083 1570 2B       		.uleb128 0x2b
 4084 1571 72000000 		.4byte	.LVL12
 4085 1575 24140000 		.4byte	0x1424
 4086 1579 88150000 		.4byte	0x1588
 4087 157d 2C       		.uleb128 0x2c
 4088 157e 01       		.uleb128 0x1
 4089 157f 50       		.byte	0x50
 4090 1580 01       		.uleb128 0x1
 4091 1581 30       		.byte	0x30
 4092 1582 2C       		.uleb128 0x2c
 4093 1583 01       		.uleb128 0x1
 4094 1584 51       		.byte	0x51
 4095 1585 01       		.uleb128 0x1
 4096 1586 31       		.byte	0x31
 4097 1587 00       		.byte	0
 4098 1588 2A       		.uleb128 0x2a
 4099 1589 84000000 		.4byte	.LVL13
 4100 158d 55200000 		.4byte	0x2055
 4101 1591 00       		.byte	0
 4102 1592 00       		.byte	0
 4103 1593 27       		.uleb128 0x27
 4104 1594 C9050000 		.4byte	.LASF381
 4105 1598 01       		.byte	0x1
 4106 1599 7D       		.byte	0x7d
 4107 159a 00000000 		.4byte	.LFB605
 4108 159e 74000000 		.4byte	.LFE605-.LFB605
 4109 15a2 01       		.uleb128 0x1
 4110 15a3 9C       		.byte	0x9c
ARM GAS  C:\Users\rober\AppData\Local\Temp\ccBCZTBX.s 			page 141


 4111 15a4 B3160000 		.4byte	0x16b3
 4112 15a8 2A       		.uleb128 0x2a
 4113 15a9 08000000 		.4byte	.LVL15
 4114 15ad 60200000 		.4byte	0x2060
 4115 15b1 2B       		.uleb128 0x2b
 4116 15b2 0E000000 		.4byte	.LVL16
 4117 15b6 6C200000 		.4byte	0x206c
 4118 15ba C4150000 		.4byte	0x15c4
 4119 15be 2C       		.uleb128 0x2c
 4120 15bf 01       		.uleb128 0x1
 4121 15c0 50       		.byte	0x50
 4122 15c1 01       		.uleb128 0x1
 4123 15c2 30       		.byte	0x30
 4124 15c3 00       		.byte	0
 4125 15c4 2B       		.uleb128 0x2b
 4126 15c5 16000000 		.4byte	.LVL17
 4127 15c9 78200000 		.4byte	0x2078
 4128 15cd DB150000 		.4byte	0x15db
 4129 15d1 2C       		.uleb128 0x2c
 4130 15d2 01       		.uleb128 0x1
 4131 15d3 50       		.byte	0x50
 4132 15d4 05       		.uleb128 0x5
 4133 15d5 0C       		.byte	0xc
 4134 15d6 FFFFFF00 		.4byte	0xffffff
 4135 15da 00       		.byte	0
 4136 15db 2A       		.uleb128 0x2a
 4137 15dc 1A000000 		.4byte	.LVL18
 4138 15e0 84200000 		.4byte	0x2084
 4139 15e4 2B       		.uleb128 0x2b
 4140 15e5 24000000 		.4byte	.LVL19
 4141 15e9 90200000 		.4byte	0x2090
 4142 15ed FC150000 		.4byte	0x15fc
 4143 15f1 2C       		.uleb128 0x2c
 4144 15f2 01       		.uleb128 0x1
 4145 15f3 51       		.byte	0x51
 4146 15f4 01       		.uleb128 0x1
 4147 15f5 32       		.byte	0x32
 4148 15f6 2C       		.uleb128 0x2c
 4149 15f7 01       		.uleb128 0x1
 4150 15f8 52       		.byte	0x52
 4151 15f9 01       		.uleb128 0x1
 4152 15fa 32       		.byte	0x32
 4153 15fb 00       		.byte	0
 4154 15fc 2B       		.uleb128 0x2b
 4155 15fd 2A000000 		.4byte	.LVL20
 4156 1601 9C200000 		.4byte	0x209c
 4157 1605 0F160000 		.4byte	0x160f
 4158 1609 2C       		.uleb128 0x2c
 4159 160a 01       		.uleb128 0x1
 4160 160b 50       		.byte	0x50
 4161 160c 01       		.uleb128 0x1
 4162 160d 32       		.byte	0x32
 4163 160e 00       		.byte	0
 4164 160f 2B       		.uleb128 0x2b
 4165 1610 34000000 		.4byte	.LVL21
 4166 1614 A8200000 		.4byte	0x20a8
 4167 1618 32160000 		.4byte	0x1632
ARM GAS  C:\Users\rober\AppData\Local\Temp\ccBCZTBX.s 			page 142


 4168 161c 2C       		.uleb128 0x2c
 4169 161d 01       		.uleb128 0x1
 4170 161e 50       		.byte	0x50
 4171 161f 05       		.uleb128 0x5
 4172 1620 03       		.byte	0x3
 4173 1621 00000000 		.4byte	.LC7
 4174 1625 2C       		.uleb128 0x2c
 4175 1626 01       		.uleb128 0x1
 4176 1627 51       		.byte	0x51
 4177 1628 02       		.uleb128 0x2
 4178 1629 08       		.byte	0x8
 4179 162a 84       		.byte	0x84
 4180 162b 2C       		.uleb128 0x2c
 4181 162c 01       		.uleb128 0x1
 4182 162d 52       		.byte	0x52
 4183 162e 02       		.uleb128 0x2
 4184 162f 08       		.byte	0x8
 4185 1630 55       		.byte	0x55
 4186 1631 00       		.byte	0
 4187 1632 2B       		.uleb128 0x2b
 4188 1633 3A000000 		.4byte	.LVL22
 4189 1637 9C200000 		.4byte	0x209c
 4190 163b 45160000 		.4byte	0x1645
 4191 163f 2C       		.uleb128 0x2c
 4192 1640 01       		.uleb128 0x1
 4193 1641 50       		.byte	0x50
 4194 1642 01       		.uleb128 0x1
 4195 1643 32       		.byte	0x32
 4196 1644 00       		.byte	0
 4197 1645 2B       		.uleb128 0x2b
 4198 1646 44000000 		.4byte	.LVL23
 4199 164a A8200000 		.4byte	0x20a8
 4200 164e 68160000 		.4byte	0x1668
 4201 1652 2C       		.uleb128 0x2c
 4202 1653 01       		.uleb128 0x1
 4203 1654 50       		.byte	0x50
 4204 1655 05       		.uleb128 0x5
 4205 1656 03       		.byte	0x3
 4206 1657 08000000 		.4byte	.LC8
 4207 165b 2C       		.uleb128 0x2c
 4208 165c 01       		.uleb128 0x1
 4209 165d 51       		.byte	0x51
 4210 165e 02       		.uleb128 0x2
 4211 165f 08       		.byte	0x8
 4212 1660 84       		.byte	0x84
 4213 1661 2C       		.uleb128 0x2c
 4214 1662 01       		.uleb128 0x1
 4215 1663 52       		.byte	0x52
 4216 1664 02       		.uleb128 0x2
 4217 1665 08       		.byte	0x8
 4218 1666 69       		.byte	0x69
 4219 1667 00       		.byte	0
 4220 1668 2B       		.uleb128 0x2b
 4221 1669 4A000000 		.4byte	.LVL24
 4222 166d 9C200000 		.4byte	0x209c
 4223 1671 7B160000 		.4byte	0x167b
 4224 1675 2C       		.uleb128 0x2c
ARM GAS  C:\Users\rober\AppData\Local\Temp\ccBCZTBX.s 			page 143


 4225 1676 01       		.uleb128 0x1
 4226 1677 50       		.byte	0x50
 4227 1678 01       		.uleb128 0x1
 4228 1679 32       		.byte	0x32
 4229 167a 00       		.byte	0
 4230 167b 2B       		.uleb128 0x2b
 4231 167c 54000000 		.4byte	.LVL25
 4232 1680 A8200000 		.4byte	0x20a8
 4233 1684 9E160000 		.4byte	0x169e
 4234 1688 2C       		.uleb128 0x2c
 4235 1689 01       		.uleb128 0x1
 4236 168a 50       		.byte	0x50
 4237 168b 05       		.uleb128 0x5
 4238 168c 03       		.byte	0x3
 4239 168d 18000000 		.4byte	.LC9
 4240 1691 2C       		.uleb128 0x2c
 4241 1692 01       		.uleb128 0x1
 4242 1693 51       		.byte	0x51
 4243 1694 02       		.uleb128 0x2
 4244 1695 08       		.byte	0x8
 4245 1696 84       		.byte	0x84
 4246 1697 2C       		.uleb128 0x2c
 4247 1698 01       		.uleb128 0x1
 4248 1699 52       		.byte	0x52
 4249 169a 02       		.uleb128 0x2
 4250 169b 08       		.byte	0x8
 4251 169c 7D       		.byte	0x7d
 4252 169d 00       		.byte	0
 4253 169e 2D       		.uleb128 0x2d
 4254 169f 5C000000 		.4byte	.LVL26
 4255 16a3 24140000 		.4byte	0x1424
 4256 16a7 2C       		.uleb128 0x2c
 4257 16a8 01       		.uleb128 0x1
 4258 16a9 50       		.byte	0x50
 4259 16aa 01       		.uleb128 0x1
 4260 16ab 31       		.byte	0x31
 4261 16ac 2C       		.uleb128 0x2c
 4262 16ad 01       		.uleb128 0x1
 4263 16ae 51       		.byte	0x51
 4264 16af 01       		.uleb128 0x1
 4265 16b0 31       		.byte	0x31
 4266 16b1 00       		.byte	0
 4267 16b2 00       		.byte	0
 4268 16b3 27       		.uleb128 0x27
 4269 16b4 DC1D0000 		.4byte	.LASF382
 4270 16b8 01       		.byte	0x1
 4271 16b9 9E       		.byte	0x9e
 4272 16ba 00000000 		.4byte	.LFB606
 4273 16be 1E000000 		.4byte	.LFE606-.LFB606
 4274 16c2 01       		.uleb128 0x1
 4275 16c3 9C       		.byte	0x9c
 4276 16c4 10170000 		.4byte	0x1710
 4277 16c8 2B       		.uleb128 0x2b
 4278 16c9 08000000 		.4byte	.LVL27
 4279 16cd 6C200000 		.4byte	0x206c
 4280 16d1 DB160000 		.4byte	0x16db
 4281 16d5 2C       		.uleb128 0x2c
ARM GAS  C:\Users\rober\AppData\Local\Temp\ccBCZTBX.s 			page 144


 4282 16d6 01       		.uleb128 0x1
 4283 16d7 50       		.byte	0x50
 4284 16d8 01       		.uleb128 0x1
 4285 16d9 30       		.byte	0x30
 4286 16da 00       		.byte	0
 4287 16db 2B       		.uleb128 0x2b
 4288 16dc 10000000 		.4byte	.LVL28
 4289 16e0 78200000 		.4byte	0x2078
 4290 16e4 F2160000 		.4byte	0x16f2
 4291 16e8 2C       		.uleb128 0x2c
 4292 16e9 01       		.uleb128 0x1
 4293 16ea 50       		.byte	0x50
 4294 16eb 05       		.uleb128 0x5
 4295 16ec 0C       		.byte	0xc
 4296 16ed FFFFFF00 		.4byte	0xffffff
 4297 16f1 00       		.byte	0
 4298 16f2 2A       		.uleb128 0x2a
 4299 16f3 14000000 		.4byte	.LVL29
 4300 16f7 84200000 		.4byte	0x2084
 4301 16fb 2D       		.uleb128 0x2d
 4302 16fc 1C000000 		.4byte	.LVL30
 4303 1700 24140000 		.4byte	0x1424
 4304 1704 2C       		.uleb128 0x2c
 4305 1705 01       		.uleb128 0x1
 4306 1706 50       		.byte	0x50
 4307 1707 01       		.uleb128 0x1
 4308 1708 31       		.byte	0x31
 4309 1709 2C       		.uleb128 0x2c
 4310 170a 01       		.uleb128 0x1
 4311 170b 51       		.byte	0x51
 4312 170c 01       		.uleb128 0x1
 4313 170d 31       		.byte	0x31
 4314 170e 00       		.byte	0
 4315 170f 00       		.byte	0
 4316 1710 27       		.uleb128 0x27
 4317 1711 32060000 		.4byte	.LASF383
 4318 1715 01       		.byte	0x1
 4319 1716 C2       		.byte	0xc2
 4320 1717 00000000 		.4byte	.LFB607
 4321 171b AC000000 		.4byte	.LFE607-.LFB607
 4322 171f 01       		.uleb128 0x1
 4323 1720 9C       		.byte	0x9c
 4324 1721 A6170000 		.4byte	0x17a6
 4325 1725 34       		.uleb128 0x34
 4326 1726 38130000 		.4byte	0x1338
 4327 172a 06000000 		.4byte	.LBB26
 4328 172e 06000000 		.4byte	.LBE26-.LBB26
 4329 1732 01       		.byte	0x1
 4330 1733 C4       		.byte	0xc4
 4331 1734 51170000 		.4byte	0x1751
 4332 1738 30       		.uleb128 0x30
 4333 1739 5D130000 		.4byte	0x135d
 4334 173d C1000000 		.4byte	.LLST8
 4335 1741 35       		.uleb128 0x35
 4336 1742 51130000 		.4byte	0x1351
 4337 1746 02       		.byte	0x2
 4338 1747 36       		.uleb128 0x36
ARM GAS  C:\Users\rober\AppData\Local\Temp\ccBCZTBX.s 			page 145


 4339 1748 45130000 		.4byte	0x1345
 4340 174c 00003840 		.4byte	0x40380000
 4341 1750 00       		.byte	0
 4342 1751 34       		.uleb128 0x34
 4343 1752 38130000 		.4byte	0x1338
 4344 1756 1A000000 		.4byte	.LBB28
 4345 175a 06000000 		.4byte	.LBE28-.LBB28
 4346 175e 01       		.byte	0x1
 4347 175f CB       		.byte	0xcb
 4348 1760 80170000 		.4byte	0x1780
 4349 1764 30       		.uleb128 0x30
 4350 1765 5D130000 		.4byte	0x135d
 4351 1769 D4000000 		.4byte	.LLST9
 4352 176d 30       		.uleb128 0x30
 4353 176e 51130000 		.4byte	0x1351
 4354 1772 E7000000 		.4byte	.LLST10
 4355 1776 30       		.uleb128 0x30
 4356 1777 45130000 		.4byte	0x1345
 4357 177b FB000000 		.4byte	.LLST11
 4358 177f 00       		.byte	0
 4359 1780 2A       		.uleb128 0x2a
 4360 1781 10000000 		.4byte	.LVL33
 4361 1785 55200000 		.4byte	0x2055
 4362 1789 2B       		.uleb128 0x2b
 4363 178a 3C000000 		.4byte	.LVL36
 4364 178e B4200000 		.4byte	0x20b4
 4365 1792 9C170000 		.4byte	0x179c
 4366 1796 2C       		.uleb128 0x2c
 4367 1797 01       		.uleb128 0x1
 4368 1798 50       		.byte	0x50
 4369 1799 01       		.uleb128 0x1
 4370 179a 44       		.byte	0x44
 4371 179b 00       		.byte	0
 4372 179c 2A       		.uleb128 0x2a
 4373 179d 40000000 		.4byte	.LVL37
 4374 17a1 55200000 		.4byte	0x2055
 4375 17a5 00       		.byte	0
 4376 17a6 37       		.uleb128 0x37
 4377 17a7 41160000 		.4byte	.LASF396
 4378 17ab 01       		.byte	0x1
 4379 17ac F9       		.byte	0xf9
 4380 17ad 00000000 		.4byte	.LFB608
 4381 17b1 40000000 		.4byte	.LFE608-.LFB608
 4382 17b5 01       		.uleb128 0x1
 4383 17b6 9C       		.byte	0x9c
 4384 17b7 4F180000 		.4byte	0x184f
 4385 17bb 2B       		.uleb128 0x2b
 4386 17bc 08000000 		.4byte	.LVL38
 4387 17c0 6C200000 		.4byte	0x206c
 4388 17c4 CE170000 		.4byte	0x17ce
 4389 17c8 2C       		.uleb128 0x2c
 4390 17c9 01       		.uleb128 0x1
 4391 17ca 50       		.byte	0x50
 4392 17cb 01       		.uleb128 0x1
 4393 17cc 30       		.byte	0x30
 4394 17cd 00       		.byte	0
 4395 17ce 2B       		.uleb128 0x2b
ARM GAS  C:\Users\rober\AppData\Local\Temp\ccBCZTBX.s 			page 146


 4396 17cf 10000000 		.4byte	.LVL39
 4397 17d3 78200000 		.4byte	0x2078
 4398 17d7 E5170000 		.4byte	0x17e5
 4399 17db 2C       		.uleb128 0x2c
 4400 17dc 01       		.uleb128 0x1
 4401 17dd 50       		.byte	0x50
 4402 17de 05       		.uleb128 0x5
 4403 17df 0C       		.byte	0xc
 4404 17e0 FFFFFF00 		.4byte	0xffffff
 4405 17e4 00       		.byte	0
 4406 17e5 2B       		.uleb128 0x2b
 4407 17e6 16000000 		.4byte	.LVL40
 4408 17ea C0200000 		.4byte	0x20c0
 4409 17ee F8170000 		.4byte	0x17f8
 4410 17f2 2C       		.uleb128 0x2c
 4411 17f3 01       		.uleb128 0x1
 4412 17f4 50       		.byte	0x50
 4413 17f5 01       		.uleb128 0x1
 4414 17f6 30       		.byte	0x30
 4415 17f7 00       		.byte	0
 4416 17f8 2B       		.uleb128 0x2b
 4417 17f9 1C000000 		.4byte	.LVL41
 4418 17fd CC200000 		.4byte	0x20cc
 4419 1801 0B180000 		.4byte	0x180b
 4420 1805 2C       		.uleb128 0x2c
 4421 1806 01       		.uleb128 0x1
 4422 1807 50       		.byte	0x50
 4423 1808 01       		.uleb128 0x1
 4424 1809 30       		.byte	0x30
 4425 180a 00       		.byte	0
 4426 180b 2A       		.uleb128 0x2a
 4427 180c 20000000 		.4byte	.LVL42
 4428 1810 84200000 		.4byte	0x2084
 4429 1814 2A       		.uleb128 0x2a
 4430 1815 26000000 		.4byte	.LVL43
 4431 1819 60200000 		.4byte	0x2060
 4432 181d 2B       		.uleb128 0x2b
 4433 181e 2C000000 		.4byte	.LVL44
 4434 1822 9C200000 		.4byte	0x209c
 4435 1826 30180000 		.4byte	0x1830
 4436 182a 2C       		.uleb128 0x2c
 4437 182b 01       		.uleb128 0x1
 4438 182c 50       		.byte	0x50
 4439 182d 01       		.uleb128 0x1
 4440 182e 32       		.byte	0x32
 4441 182f 00       		.byte	0
 4442 1830 2D       		.uleb128 0x2d
 4443 1831 36000000 		.4byte	.LVL45
 4444 1835 A8200000 		.4byte	0x20a8
 4445 1839 2C       		.uleb128 0x2c
 4446 183a 01       		.uleb128 0x1
 4447 183b 50       		.byte	0x50
 4448 183c 05       		.uleb128 0x5
 4449 183d 03       		.byte	0x3
 4450 183e 2C000000 		.4byte	.LC10
 4451 1842 2C       		.uleb128 0x2c
 4452 1843 01       		.uleb128 0x1
ARM GAS  C:\Users\rober\AppData\Local\Temp\ccBCZTBX.s 			page 147


 4453 1844 51       		.byte	0x51
 4454 1845 02       		.uleb128 0x2
 4455 1846 08       		.byte	0x8
 4456 1847 84       		.byte	0x84
 4457 1848 2C       		.uleb128 0x2c
 4458 1849 01       		.uleb128 0x1
 4459 184a 52       		.byte	0x52
 4460 184b 01       		.uleb128 0x1
 4461 184c 35       		.byte	0x35
 4462 184d 00       		.byte	0
 4463 184e 00       		.byte	0
 4464 184f 2E       		.uleb128 0x2e
 4465 1850 EE100000 		.4byte	.LASF384
 4466 1854 01       		.byte	0x1
 4467 1855 1D01     		.2byte	0x11d
 4468 1857 00000000 		.4byte	.LFB609
 4469 185b AC010000 		.4byte	.LFE609-.LFB609
 4470 185f 01       		.uleb128 0x1
 4471 1860 9C       		.byte	0x9c
 4472 1861 431A0000 		.4byte	0x1a43
 4473 1865 38       		.uleb128 0x38
 4474 1866 601B0000 		.4byte	.LASF385
 4475 186a 01       		.byte	0x1
 4476 186b 2701     		.2byte	0x127
 4477 186d 55040000 		.4byte	0x455
 4478 1871 13010000 		.4byte	.LLST12
 4479 1875 39       		.uleb128 0x39
 4480 1876 561A0000 		.4byte	0x1a56
 4481 187a 3F010000 		.4byte	.LLST13
 4482 187e 38       		.uleb128 0x38
 4483 187f 84130000 		.4byte	.LASF386
 4484 1883 01       		.byte	0x1
 4485 1884 3201     		.2byte	0x132
 4486 1886 431A0000 		.4byte	0x1a43
 4487 188a 52010000 		.4byte	.LLST14
 4488 188e 33       		.uleb128 0x33
 4489 188f 1D060000 		.4byte	.LASF387
 4490 1893 01       		.byte	0x1
 4491 1894 4401     		.2byte	0x144
 4492 1896 5B1A0000 		.4byte	0x1a5b
 4493 189a 03       		.uleb128 0x3
 4494 189b 91       		.byte	0x91
 4495 189c B07F     		.sleb128 -80
 4496 189e 33       		.uleb128 0x33
 4497 189f 780C0000 		.4byte	.LASF388
 4498 18a3 01       		.byte	0x1
 4499 18a4 4501     		.2byte	0x145
 4500 18a6 711A0000 		.4byte	0x1a71
 4501 18aa 03       		.uleb128 0x3
 4502 18ab 91       		.byte	0x91
 4503 18ac 987F     		.sleb128 -104
 4504 18ae 33       		.uleb128 0x33
 4505 18af 88170000 		.4byte	.LASF389
 4506 18b3 01       		.byte	0x1
 4507 18b4 4601     		.2byte	0x146
 4508 18b6 871A0000 		.4byte	0x1a87
 4509 18ba 03       		.uleb128 0x3
ARM GAS  C:\Users\rober\AppData\Local\Temp\ccBCZTBX.s 			page 148


 4510 18bb 91       		.byte	0x91
 4511 18bc F87E     		.sleb128 -136
 4512 18be 33       		.uleb128 0x33
 4513 18bf 741E0000 		.4byte	.LASF390
 4514 18c3 01       		.byte	0x1
 4515 18c4 4701     		.2byte	0x147
 4516 18c6 971A0000 		.4byte	0x1a97
 4517 18ca 03       		.uleb128 0x3
 4518 18cb 91       		.byte	0x91
 4519 18cc E07E     		.sleb128 -160
 4520 18ce 3A       		.uleb128 0x3a
 4521 18cf 00000000 		.4byte	.Ldebug_ranges0+0
 4522 18d3 E6180000 		.4byte	0x18e6
 4523 18d7 32       		.uleb128 0x32
 4524 18d8 6900     		.ascii	"i\000"
 4525 18da 01       		.byte	0x1
 4526 18db 3601     		.2byte	0x136
 4527 18dd 55040000 		.4byte	0x455
 4528 18e1 66010000 		.4byte	.LLST15
 4529 18e5 00       		.byte	0
 4530 18e6 3A       		.uleb128 0x3a
 4531 18e7 18000000 		.4byte	.Ldebug_ranges0+0x18
 4532 18eb FE180000 		.4byte	0x18fe
 4533 18ef 32       		.uleb128 0x32
 4534 18f0 6900     		.ascii	"i\000"
 4535 18f2 01       		.byte	0x1
 4536 18f3 3D01     		.2byte	0x13d
 4537 18f5 55040000 		.4byte	0x455
 4538 18f9 84010000 		.4byte	.LLST16
 4539 18fd 00       		.byte	0
 4540 18fe 3B       		.uleb128 0x3b
 4541 18ff 1C010000 		.4byte	.LBB34
 4542 1903 3C000000 		.4byte	.LBE34-.LBB34
 4543 1907 68190000 		.4byte	0x1968
 4544 190b 32       		.uleb128 0x32
 4545 190c 6900     		.ascii	"i\000"
 4546 190e 01       		.byte	0x1
 4547 190f 5101     		.2byte	0x151
 4548 1911 55040000 		.4byte	0x455
 4549 1915 A2010000 		.4byte	.LLST17
 4550 1919 2B       		.uleb128 0x2b
 4551 191a 38010000 		.4byte	.LVL66
 4552 191e 49200000 		.4byte	0x2049
 4553 1922 3F190000 		.4byte	0x193f
 4554 1926 2C       		.uleb128 0x2c
 4555 1927 01       		.uleb128 0x1
 4556 1928 50       		.byte	0x50
 4557 1929 02       		.uleb128 0x2
 4558 192a 75       		.byte	0x75
 4559 192b 00       		.sleb128 0
 4560 192c 2C       		.uleb128 0x2c
 4561 192d 01       		.uleb128 0x1
 4562 192e 51       		.byte	0x51
 4563 192f 02       		.uleb128 0x2
 4564 1930 08       		.byte	0x8
 4565 1931 96       		.byte	0x96
 4566 1932 2C       		.uleb128 0x2c
ARM GAS  C:\Users\rober\AppData\Local\Temp\ccBCZTBX.s 			page 149


 4567 1933 01       		.uleb128 0x1
 4568 1934 52       		.byte	0x52
 4569 1935 02       		.uleb128 0x2
 4570 1936 75       		.byte	0x75
 4571 1937 00       		.sleb128 0
 4572 1938 2C       		.uleb128 0x2c
 4573 1939 01       		.uleb128 0x1
 4574 193a 53       		.byte	0x53
 4575 193b 02       		.uleb128 0x2
 4576 193c 08       		.byte	0x8
 4577 193d 9B       		.byte	0x9b
 4578 193e 00       		.byte	0
 4579 193f 2D       		.uleb128 0x2d
 4580 1940 4E010000 		.4byte	.LVL67
 4581 1944 A8200000 		.4byte	0x20a8
 4582 1948 2C       		.uleb128 0x2c
 4583 1949 01       		.uleb128 0x1
 4584 194a 50       		.byte	0x50
 4585 194b 0E       		.uleb128 0xe
 4586 194c 74       		.byte	0x74
 4587 194d 00       		.sleb128 0
 4588 194e 31       		.byte	0x31
 4589 194f 24       		.byte	0x24
 4590 1950 74       		.byte	0x74
 4591 1951 00       		.sleb128 0
 4592 1952 22       		.byte	0x22
 4593 1953 31       		.byte	0x31
 4594 1954 24       		.byte	0x24
 4595 1955 77       		.byte	0x77
 4596 1956 00       		.sleb128 0
 4597 1957 22       		.byte	0x22
 4598 1958 23       		.byte	0x23
 4599 1959 68       		.uleb128 0x68
 4600 195a 2C       		.uleb128 0x2c
 4601 195b 01       		.uleb128 0x1
 4602 195c 51       		.byte	0x51
 4603 195d 02       		.uleb128 0x2
 4604 195e 75       		.byte	0x75
 4605 195f 76       		.sleb128 -10
 4606 1960 2C       		.uleb128 0x2c
 4607 1961 01       		.uleb128 0x1
 4608 1962 52       		.byte	0x52
 4609 1963 02       		.uleb128 0x2
 4610 1964 08       		.byte	0x8
 4611 1965 9B       		.byte	0x9b
 4612 1966 00       		.byte	0
 4613 1967 00       		.byte	0
 4614 1968 3B       		.uleb128 0x3b
 4615 1969 58010000 		.4byte	.LBB35
 4616 196d 30000000 		.4byte	.LBE35-.LBB35
 4617 1971 D1190000 		.4byte	0x19d1
 4618 1975 32       		.uleb128 0x32
 4619 1976 6900     		.ascii	"i\000"
 4620 1978 01       		.byte	0x1
 4621 1979 5601     		.2byte	0x156
 4622 197b 55040000 		.4byte	0x455
 4623 197f C1010000 		.4byte	.LLST18
ARM GAS  C:\Users\rober\AppData\Local\Temp\ccBCZTBX.s 			page 150


 4624 1983 2B       		.uleb128 0x2b
 4625 1984 72010000 		.4byte	.LVL71
 4626 1988 49200000 		.4byte	0x2049
 4627 198c AD190000 		.4byte	0x19ad
 4628 1990 2C       		.uleb128 0x2c
 4629 1991 01       		.uleb128 0x1
 4630 1992 50       		.byte	0x50
 4631 1993 01       		.uleb128 0x1
 4632 1994 49       		.byte	0x49
 4633 1995 2C       		.uleb128 0x2c
 4634 1996 01       		.uleb128 0x1
 4635 1997 51       		.byte	0x51
 4636 1998 05       		.uleb128 0x5
 4637 1999 08       		.byte	0x8
 4638 199a AA       		.byte	0xaa
 4639 199b 79       		.byte	0x79
 4640 199c 00       		.sleb128 0
 4641 199d 1C       		.byte	0x1c
 4642 199e 2C       		.uleb128 0x2c
 4643 199f 01       		.uleb128 0x1
 4644 19a0 52       		.byte	0x52
 4645 19a1 01       		.uleb128 0x1
 4646 19a2 4E       		.byte	0x4e
 4647 19a3 2C       		.uleb128 0x2c
 4648 19a4 01       		.uleb128 0x1
 4649 19a5 53       		.byte	0x53
 4650 19a6 05       		.uleb128 0x5
 4651 19a7 08       		.byte	0x8
 4652 19a8 AA       		.byte	0xaa
 4653 19a9 79       		.byte	0x79
 4654 19aa 00       		.sleb128 0
 4655 19ab 1C       		.byte	0x1c
 4656 19ac 00       		.byte	0
 4657 19ad 2D       		.uleb128 0x2d
 4658 19ae 82010000 		.4byte	.LVL72
 4659 19b2 A8200000 		.4byte	0x20a8
 4660 19b6 2C       		.uleb128 0x2c
 4661 19b7 01       		.uleb128 0x1
 4662 19b8 50       		.byte	0x50
 4663 19b9 07       		.uleb128 0x7
 4664 19ba 77       		.byte	0x77
 4665 19bb 00       		.sleb128 0
 4666 19bc 75       		.byte	0x75
 4667 19bd 00       		.sleb128 0
 4668 19be 22       		.byte	0x22
 4669 19bf 23       		.byte	0x23
 4670 19c0 50       		.uleb128 0x50
 4671 19c1 2C       		.uleb128 0x2c
 4672 19c2 01       		.uleb128 0x1
 4673 19c3 51       		.byte	0x51
 4674 19c4 01       		.uleb128 0x1
 4675 19c5 35       		.byte	0x35
 4676 19c6 2C       		.uleb128 0x2c
 4677 19c7 01       		.uleb128 0x1
 4678 19c8 52       		.byte	0x52
 4679 19c9 05       		.uleb128 0x5
 4680 19ca 08       		.byte	0x8
ARM GAS  C:\Users\rober\AppData\Local\Temp\ccBCZTBX.s 			page 151


 4681 19cb A4       		.byte	0xa4
 4682 19cc 79       		.byte	0x79
 4683 19cd 00       		.sleb128 0
 4684 19ce 1C       		.byte	0x1c
 4685 19cf 00       		.byte	0
 4686 19d0 00       		.byte	0
 4687 19d1 2A       		.uleb128 0x2a
 4688 19d2 0C000000 		.4byte	.LVL46
 4689 19d6 B3160000 		.4byte	0x16b3
 4690 19da 2B       		.uleb128 0x2b
 4691 19db 04010000 		.4byte	.LVL62
 4692 19df D8200000 		.4byte	0x20d8
 4693 19e3 FE190000 		.4byte	0x19fe
 4694 19e7 2C       		.uleb128 0x2c
 4695 19e8 01       		.uleb128 0x1
 4696 19e9 50       		.byte	0x50
 4697 19ea 01       		.uleb128 0x1
 4698 19eb 3A       		.byte	0x3a
 4699 19ec 2C       		.uleb128 0x2c
 4700 19ed 01       		.uleb128 0x1
 4701 19ee 51       		.byte	0x51
 4702 19ef 01       		.uleb128 0x1
 4703 19f0 44       		.byte	0x44
 4704 19f1 2C       		.uleb128 0x2c
 4705 19f2 01       		.uleb128 0x1
 4706 19f3 52       		.byte	0x52
 4707 19f4 02       		.uleb128 0x2
 4708 19f5 08       		.byte	0x8
 4709 19f6 FE       		.byte	0xfe
 4710 19f7 2C       		.uleb128 0x2c
 4711 19f8 01       		.uleb128 0x1
 4712 19f9 53       		.byte	0x53
 4713 19fa 02       		.uleb128 0x2
 4714 19fb 08       		.byte	0x8
 4715 19fc 96       		.byte	0x96
 4716 19fd 00       		.byte	0
 4717 19fe 2B       		.uleb128 0x2b
 4718 19ff 10010000 		.4byte	.LVL63
 4719 1a03 49200000 		.4byte	0x2049
 4720 1a07 211A0000 		.4byte	0x1a21
 4721 1a0b 2C       		.uleb128 0x2c
 4722 1a0c 01       		.uleb128 0x1
 4723 1a0d 50       		.byte	0x50
 4724 1a0e 01       		.uleb128 0x1
 4725 1a0f 4E       		.byte	0x4e
 4726 1a10 2C       		.uleb128 0x2c
 4727 1a11 01       		.uleb128 0x1
 4728 1a12 51       		.byte	0x51
 4729 1a13 01       		.uleb128 0x1
 4730 1a14 44       		.byte	0x44
 4731 1a15 2C       		.uleb128 0x2c
 4732 1a16 01       		.uleb128 0x1
 4733 1a17 52       		.byte	0x52
 4734 1a18 01       		.uleb128 0x1
 4735 1a19 4E       		.byte	0x4e
 4736 1a1a 2C       		.uleb128 0x2c
 4737 1a1b 01       		.uleb128 0x1
ARM GAS  C:\Users\rober\AppData\Local\Temp\ccBCZTBX.s 			page 152


 4738 1a1c 53       		.byte	0x53
 4739 1a1d 02       		.uleb128 0x2
 4740 1a1e 08       		.byte	0x8
 4741 1a1f C8       		.byte	0xc8
 4742 1a20 00       		.byte	0
 4743 1a21 2D       		.uleb128 0x2d
 4744 1a22 1C010000 		.4byte	.LVL64
 4745 1a26 49200000 		.4byte	0x2049
 4746 1a2a 2C       		.uleb128 0x2c
 4747 1a2b 01       		.uleb128 0x1
 4748 1a2c 50       		.byte	0x50
 4749 1a2d 01       		.uleb128 0x1
 4750 1a2e 4E       		.byte	0x4e
 4751 1a2f 2C       		.uleb128 0x2c
 4752 1a30 01       		.uleb128 0x1
 4753 1a31 51       		.byte	0x51
 4754 1a32 02       		.uleb128 0x2
 4755 1a33 08       		.byte	0x8
 4756 1a34 96       		.byte	0x96
 4757 1a35 2C       		.uleb128 0x2c
 4758 1a36 01       		.uleb128 0x1
 4759 1a37 52       		.byte	0x52
 4760 1a38 02       		.uleb128 0x2
 4761 1a39 08       		.byte	0x8
 4762 1a3a FA       		.byte	0xfa
 4763 1a3b 2C       		.uleb128 0x2c
 4764 1a3c 01       		.uleb128 0x1
 4765 1a3d 53       		.byte	0x53
 4766 1a3e 02       		.uleb128 0x2
 4767 1a3f 08       		.byte	0x8
 4768 1a40 96       		.byte	0x96
 4769 1a41 00       		.byte	0
 4770 1a42 00       		.byte	0
 4771 1a43 0C       		.uleb128 0xc
 4772 1a44 F4120000 		.4byte	0x12f4
 4773 1a48 561A0000 		.4byte	0x1a56
 4774 1a4c 3C       		.uleb128 0x3c
 4775 1a4d 5B050000 		.4byte	0x55b
 4776 1a51 75180000 		.4byte	0x1875
 4777 1a55 00       		.byte	0
 4778 1a56 11       		.uleb128 0x11
 4779 1a57 5B050000 		.4byte	0x55b
 4780 1a5b 0C       		.uleb128 0xc
 4781 1a5c 6E070000 		.4byte	0x76e
 4782 1a60 711A0000 		.4byte	0x1a71
 4783 1a64 0D       		.uleb128 0xd
 4784 1a65 5B050000 		.4byte	0x55b
 4785 1a69 07       		.byte	0x7
 4786 1a6a 0D       		.uleb128 0xd
 4787 1a6b 5B050000 		.4byte	0x55b
 4788 1a6f 05       		.byte	0x5
 4789 1a70 00       		.byte	0
 4790 1a71 0C       		.uleb128 0xc
 4791 1a72 6E070000 		.4byte	0x76e
 4792 1a76 871A0000 		.4byte	0x1a87
 4793 1a7a 0D       		.uleb128 0xd
 4794 1a7b 5B050000 		.4byte	0x55b
ARM GAS  C:\Users\rober\AppData\Local\Temp\ccBCZTBX.s 			page 153


 4795 1a7f 05       		.byte	0x5
 4796 1a80 0D       		.uleb128 0xd
 4797 1a81 5B050000 		.4byte	0x55b
 4798 1a85 03       		.byte	0x3
 4799 1a86 00       		.byte	0
 4800 1a87 0C       		.uleb128 0xc
 4801 1a88 55040000 		.4byte	0x455
 4802 1a8c 971A0000 		.4byte	0x1a97
 4803 1a90 0D       		.uleb128 0xd
 4804 1a91 5B050000 		.4byte	0x55b
 4805 1a95 07       		.byte	0x7
 4806 1a96 00       		.byte	0
 4807 1a97 0C       		.uleb128 0xc
 4808 1a98 55040000 		.4byte	0x455
 4809 1a9c A71A0000 		.4byte	0x1aa7
 4810 1aa0 0D       		.uleb128 0xd
 4811 1aa1 5B050000 		.4byte	0x55b
 4812 1aa5 05       		.byte	0x5
 4813 1aa6 00       		.byte	0
 4814 1aa7 2E       		.uleb128 0x2e
 4815 1aa8 3E0A0000 		.4byte	.LASF391
 4816 1aac 01       		.byte	0x1
 4817 1aad 5F01     		.2byte	0x15f
 4818 1aaf 00000000 		.4byte	.LFB610
 4819 1ab3 80010000 		.4byte	.LFE610-.LFB610
 4820 1ab7 01       		.uleb128 0x1
 4821 1ab8 9C       		.byte	0x9c
 4822 1ab9 D31C0000 		.4byte	0x1cd3
 4823 1abd 38       		.uleb128 0x38
 4824 1abe 601B0000 		.4byte	.LASF385
 4825 1ac2 01       		.byte	0x1
 4826 1ac3 6C01     		.2byte	0x16c
 4827 1ac5 55040000 		.4byte	0x455
 4828 1ac9 D4010000 		.4byte	.LLST19
 4829 1acd 39       		.uleb128 0x39
 4830 1ace E61C0000 		.4byte	0x1ce6
 4831 1ad2 F3010000 		.4byte	.LLST20
 4832 1ad6 38       		.uleb128 0x38
 4833 1ad7 84130000 		.4byte	.LASF386
 4834 1adb 01       		.byte	0x1
 4835 1adc 7901     		.2byte	0x179
 4836 1ade D31C0000 		.4byte	0x1cd3
 4837 1ae2 08020000 		.4byte	.LLST21
 4838 1ae6 33       		.uleb128 0x33
 4839 1ae7 E31A0000 		.4byte	.LASF392
 4840 1aeb 01       		.byte	0x1
 4841 1aec 7B01     		.2byte	0x17b
 4842 1aee EB1C0000 		.4byte	0x1ceb
 4843 1af2 02       		.uleb128 0x2
 4844 1af3 91       		.byte	0x91
 4845 1af4 60       		.sleb128 -32
 4846 1af5 38       		.uleb128 0x38
 4847 1af6 B5080000 		.4byte	.LASF393
 4848 1afa 01       		.byte	0x1
 4849 1afb 9101     		.2byte	0x191
 4850 1afd 55040000 		.4byte	0x455
 4851 1b01 1C020000 		.4byte	.LLST22
ARM GAS  C:\Users\rober\AppData\Local\Temp\ccBCZTBX.s 			page 154


 4852 1b05 3B       		.uleb128 0x3b
 4853 1b06 62000000 		.4byte	.LBB36
 4854 1b0a 22000000 		.4byte	.LBE36-.LBB36
 4855 1b0e 211B0000 		.4byte	0x1b21
 4856 1b12 32       		.uleb128 0x32
 4857 1b13 6900     		.ascii	"i\000"
 4858 1b15 01       		.byte	0x1
 4859 1b16 7F01     		.2byte	0x17f
 4860 1b18 55040000 		.4byte	0x455
 4861 1b1c 2F020000 		.4byte	.LLST23
 4862 1b20 00       		.byte	0
 4863 1b21 3B       		.uleb128 0x3b
 4864 1b22 88000000 		.4byte	.LBB37
 4865 1b26 20000000 		.4byte	.LBE37-.LBB37
 4866 1b2a 3D1B0000 		.4byte	0x1b3d
 4867 1b2e 32       		.uleb128 0x32
 4868 1b2f 6900     		.ascii	"i\000"
 4869 1b31 01       		.byte	0x1
 4870 1b32 8601     		.2byte	0x186
 4871 1b34 55040000 		.4byte	0x455
 4872 1b38 42020000 		.4byte	.LLST24
 4873 1b3c 00       		.byte	0
 4874 1b3d 3B       		.uleb128 0x3b
 4875 1b3e DC000000 		.4byte	.LBB38
 4876 1b42 78000000 		.4byte	.LBE38-.LBB38
 4877 1b46 271C0000 		.4byte	0x1c27
 4878 1b4a 32       		.uleb128 0x32
 4879 1b4b 6900     		.ascii	"i\000"
 4880 1b4d 01       		.byte	0x1
 4881 1b4e 9901     		.2byte	0x199
 4882 1b50 55040000 		.4byte	0x455
 4883 1b54 55020000 		.4byte	.LLST25
 4884 1b58 31       		.uleb128 0x31
 4885 1b59 DE000000 		.4byte	.LBB39
 4886 1b5d 70000000 		.4byte	.LBE39-.LBB39
 4887 1b61 33       		.uleb128 0x33
 4888 1b62 B2120000 		.4byte	.LASF394
 4889 1b66 01       		.byte	0x1
 4890 1b67 A101     		.2byte	0x1a1
 4891 1b69 FB1C0000 		.4byte	0x1cfb
 4892 1b6d 02       		.uleb128 0x2
 4893 1b6e 91       		.byte	0x91
 4894 1b6f 48       		.sleb128 -56
 4895 1b70 33       		.uleb128 0x33
 4896 1b71 820F0000 		.4byte	.LASF395
 4897 1b75 01       		.byte	0x1
 4898 1b76 A201     		.2byte	0x1a2
 4899 1b78 FB1C0000 		.4byte	0x1cfb
 4900 1b7c 02       		.uleb128 0x2
 4901 1b7d 91       		.byte	0x91
 4902 1b7e 54       		.sleb128 -44
 4903 1b7f 2B       		.uleb128 0x2b
 4904 1b80 F2000000 		.4byte	.LVL96
 4905 1b84 A8200000 		.4byte	0x20a8
 4906 1b88 A01B0000 		.4byte	0x1ba0
 4907 1b8c 2C       		.uleb128 0x2c
 4908 1b8d 01       		.uleb128 0x1
ARM GAS  C:\Users\rober\AppData\Local\Temp\ccBCZTBX.s 			page 155


 4909 1b8e 50       		.byte	0x50
 4910 1b8f 05       		.uleb128 0x5
 4911 1b90 03       		.byte	0x3
 4912 1b91 3C000000 		.4byte	.LC12
 4913 1b95 2C       		.uleb128 0x2c
 4914 1b96 01       		.uleb128 0x1
 4915 1b97 51       		.byte	0x51
 4916 1b98 01       		.uleb128 0x1
 4917 1b99 44       		.byte	0x44
 4918 1b9a 2C       		.uleb128 0x2c
 4919 1b9b 01       		.uleb128 0x1
 4920 1b9c 52       		.byte	0x52
 4921 1b9d 01       		.uleb128 0x1
 4922 1b9e 4E       		.byte	0x4e
 4923 1b9f 00       		.byte	0
 4924 1ba0 2B       		.uleb128 0x2b
 4925 1ba1 FC000000 		.4byte	.LVL97
 4926 1ba5 A8200000 		.4byte	0x20a8
 4927 1ba9 C21B0000 		.4byte	0x1bc2
 4928 1bad 2C       		.uleb128 0x2c
 4929 1bae 01       		.uleb128 0x1
 4930 1baf 50       		.byte	0x50
 4931 1bb0 05       		.uleb128 0x5
 4932 1bb1 03       		.byte	0x3
 4933 1bb2 48000000 		.4byte	.LC13
 4934 1bb6 2C       		.uleb128 0x2c
 4935 1bb7 01       		.uleb128 0x1
 4936 1bb8 51       		.byte	0x51
 4937 1bb9 02       		.uleb128 0x2
 4938 1bba 08       		.byte	0x8
 4939 1bbb 64       		.byte	0x64
 4940 1bbc 2C       		.uleb128 0x2c
 4941 1bbd 01       		.uleb128 0x1
 4942 1bbe 52       		.byte	0x52
 4943 1bbf 01       		.uleb128 0x1
 4944 1bc0 4E       		.byte	0x4e
 4945 1bc1 00       		.byte	0
 4946 1bc2 2B       		.uleb128 0x2b
 4947 1bc3 0C010000 		.4byte	.LVL98
 4948 1bc7 E4200000 		.4byte	0x20e4
 4949 1bcb DC1B0000 		.4byte	0x1bdc
 4950 1bcf 2C       		.uleb128 0x2c
 4951 1bd0 01       		.uleb128 0x1
 4952 1bd1 50       		.byte	0x50
 4953 1bd2 02       		.uleb128 0x2
 4954 1bd3 77       		.byte	0x77
 4955 1bd4 10       		.sleb128 16
 4956 1bd5 2C       		.uleb128 0x2c
 4957 1bd6 01       		.uleb128 0x1
 4958 1bd7 51       		.byte	0x51
 4959 1bd8 02       		.uleb128 0x2
 4960 1bd9 78       		.byte	0x78
 4961 1bda 00       		.sleb128 0
 4962 1bdb 00       		.byte	0
 4963 1bdc 2B       		.uleb128 0x2b
 4964 1bdd 1C010000 		.4byte	.LVL99
 4965 1be1 E4200000 		.4byte	0x20e4
ARM GAS  C:\Users\rober\AppData\Local\Temp\ccBCZTBX.s 			page 156


 4966 1be5 F61B0000 		.4byte	0x1bf6
 4967 1be9 2C       		.uleb128 0x2c
 4968 1bea 01       		.uleb128 0x1
 4969 1beb 50       		.byte	0x50
 4970 1bec 02       		.uleb128 0x2
 4971 1bed 77       		.byte	0x77
 4972 1bee 1C       		.sleb128 28
 4973 1bef 2C       		.uleb128 0x2c
 4974 1bf0 01       		.uleb128 0x1
 4975 1bf1 51       		.byte	0x51
 4976 1bf2 02       		.uleb128 0x2
 4977 1bf3 78       		.byte	0x78
 4978 1bf4 00       		.sleb128 0
 4979 1bf5 00       		.byte	0
 4980 1bf6 2B       		.uleb128 0x2b
 4981 1bf7 36010000 		.4byte	.LVL100
 4982 1bfb A8200000 		.4byte	0x20a8
 4983 1bff 0F1C0000 		.4byte	0x1c0f
 4984 1c03 2C       		.uleb128 0x2c
 4985 1c04 01       		.uleb128 0x1
 4986 1c05 50       		.byte	0x50
 4987 1c06 02       		.uleb128 0x2
 4988 1c07 77       		.byte	0x77
 4989 1c08 10       		.sleb128 16
 4990 1c09 2C       		.uleb128 0x2c
 4991 1c0a 01       		.uleb128 0x1
 4992 1c0b 51       		.byte	0x51
 4993 1c0c 01       		.uleb128 0x1
 4994 1c0d 44       		.byte	0x44
 4995 1c0e 00       		.byte	0
 4996 1c0f 2D       		.uleb128 0x2d
 4997 1c10 4E010000 		.4byte	.LVL101
 4998 1c14 A8200000 		.4byte	0x20a8
 4999 1c18 2C       		.uleb128 0x2c
 5000 1c19 01       		.uleb128 0x1
 5001 1c1a 50       		.byte	0x50
 5002 1c1b 02       		.uleb128 0x2
 5003 1c1c 77       		.byte	0x77
 5004 1c1d 1C       		.sleb128 28
 5005 1c1e 2C       		.uleb128 0x2c
 5006 1c1f 01       		.uleb128 0x1
 5007 1c20 51       		.byte	0x51
 5008 1c21 02       		.uleb128 0x2
 5009 1c22 08       		.byte	0x8
 5010 1c23 64       		.byte	0x64
 5011 1c24 00       		.byte	0
 5012 1c25 00       		.byte	0
 5013 1c26 00       		.byte	0
 5014 1c27 2A       		.uleb128 0x2a
 5015 1c28 0C000000 		.4byte	.LVL75
 5016 1c2c B3160000 		.4byte	0x16b3
 5017 1c30 2B       		.uleb128 0x2b
 5018 1c31 12000000 		.4byte	.LVL76
 5019 1c35 6C200000 		.4byte	0x206c
 5020 1c39 431C0000 		.4byte	0x1c43
 5021 1c3d 2C       		.uleb128 0x2c
 5022 1c3e 01       		.uleb128 0x1
ARM GAS  C:\Users\rober\AppData\Local\Temp\ccBCZTBX.s 			page 157


 5023 1c3f 50       		.byte	0x50
 5024 1c40 01       		.uleb128 0x1
 5025 1c41 30       		.byte	0x30
 5026 1c42 00       		.byte	0
 5027 1c43 2B       		.uleb128 0x2b
 5028 1c44 1A000000 		.4byte	.LVL77
 5029 1c48 78200000 		.4byte	0x2078
 5030 1c4c 5A1C0000 		.4byte	0x1c5a
 5031 1c50 2C       		.uleb128 0x2c
 5032 1c51 01       		.uleb128 0x1
 5033 1c52 50       		.byte	0x50
 5034 1c53 05       		.uleb128 0x5
 5035 1c54 0C       		.byte	0xc
 5036 1c55 FFFFFF00 		.4byte	0xffffff
 5037 1c59 00       		.byte	0
 5038 1c5a 2B       		.uleb128 0x2b
 5039 1c5b 20000000 		.4byte	.LVL78
 5040 1c5f C0200000 		.4byte	0x20c0
 5041 1c63 6D1C0000 		.4byte	0x1c6d
 5042 1c67 2C       		.uleb128 0x2c
 5043 1c68 01       		.uleb128 0x1
 5044 1c69 50       		.byte	0x50
 5045 1c6a 01       		.uleb128 0x1
 5046 1c6b 30       		.byte	0x30
 5047 1c6c 00       		.byte	0
 5048 1c6d 2B       		.uleb128 0x2b
 5049 1c6e 26000000 		.4byte	.LVL79
 5050 1c72 CC200000 		.4byte	0x20cc
 5051 1c76 801C0000 		.4byte	0x1c80
 5052 1c7a 2C       		.uleb128 0x2c
 5053 1c7b 01       		.uleb128 0x1
 5054 1c7c 50       		.byte	0x50
 5055 1c7d 01       		.uleb128 0x1
 5056 1c7e 30       		.byte	0x30
 5057 1c7f 00       		.byte	0
 5058 1c80 2A       		.uleb128 0x2a
 5059 1c81 2A000000 		.4byte	.LVL80
 5060 1c85 84200000 		.4byte	0x2084
 5061 1c89 2A       		.uleb128 0x2a
 5062 1c8a AE000000 		.4byte	.LVL90
 5063 1c8e 60200000 		.4byte	0x2060
 5064 1c92 2B       		.uleb128 0x2b
 5065 1c93 B4000000 		.4byte	.LVL91
 5066 1c97 9C200000 		.4byte	0x209c
 5067 1c9b A51C0000 		.4byte	0x1ca5
 5068 1c9f 2C       		.uleb128 0x2c
 5069 1ca0 01       		.uleb128 0x1
 5070 1ca1 50       		.byte	0x50
 5071 1ca2 01       		.uleb128 0x1
 5072 1ca3 32       		.byte	0x32
 5073 1ca4 00       		.byte	0
 5074 1ca5 2B       		.uleb128 0x2b
 5075 1ca6 CE000000 		.4byte	.LVL92
 5076 1caa A8200000 		.4byte	0x20a8
 5077 1cae BE1C0000 		.4byte	0x1cbe
 5078 1cb2 2C       		.uleb128 0x2c
 5079 1cb3 01       		.uleb128 0x1
ARM GAS  C:\Users\rober\AppData\Local\Temp\ccBCZTBX.s 			page 158


 5080 1cb4 51       		.byte	0x51
 5081 1cb5 02       		.uleb128 0x2
 5082 1cb6 08       		.byte	0x8
 5083 1cb7 84       		.byte	0x84
 5084 1cb8 2C       		.uleb128 0x2c
 5085 1cb9 01       		.uleb128 0x1
 5086 1cba 52       		.byte	0x52
 5087 1cbb 01       		.uleb128 0x1
 5088 1cbc 35       		.byte	0x35
 5089 1cbd 00       		.byte	0
 5090 1cbe 2D       		.uleb128 0x2d
 5091 1cbf 5C010000 		.4byte	.LVL103
 5092 1cc3 24140000 		.4byte	0x1424
 5093 1cc7 2C       		.uleb128 0x2c
 5094 1cc8 01       		.uleb128 0x1
 5095 1cc9 50       		.byte	0x50
 5096 1cca 01       		.uleb128 0x1
 5097 1ccb 30       		.byte	0x30
 5098 1ccc 2C       		.uleb128 0x2c
 5099 1ccd 01       		.uleb128 0x1
 5100 1cce 51       		.byte	0x51
 5101 1ccf 01       		.uleb128 0x1
 5102 1cd0 31       		.byte	0x31
 5103 1cd1 00       		.byte	0
 5104 1cd2 00       		.byte	0
 5105 1cd3 0C       		.uleb128 0xc
 5106 1cd4 F4120000 		.4byte	0x12f4
 5107 1cd8 E61C0000 		.4byte	0x1ce6
 5108 1cdc 3C       		.uleb128 0x3c
 5109 1cdd 5B050000 		.4byte	0x55b
 5110 1ce1 CD1A0000 		.4byte	0x1acd
 5111 1ce5 00       		.byte	0
 5112 1ce6 11       		.uleb128 0x11
 5113 1ce7 5B050000 		.4byte	0x55b
 5114 1ceb 0C       		.uleb128 0xc
 5115 1cec EC0F0000 		.4byte	0xfec
 5116 1cf0 FB1C0000 		.4byte	0x1cfb
 5117 1cf4 0D       		.uleb128 0xd
 5118 1cf5 5B050000 		.4byte	0x55b
 5119 1cf9 01       		.byte	0x1
 5120 1cfa 00       		.byte	0
 5121 1cfb 0C       		.uleb128 0xc
 5122 1cfc 6E070000 		.4byte	0x76e
 5123 1d00 0B1D0000 		.4byte	0x1d0b
 5124 1d04 0D       		.uleb128 0xd
 5125 1d05 5B050000 		.4byte	0x55b
 5126 1d09 09       		.byte	0x9
 5127 1d0a 00       		.byte	0
 5128 1d0b 3D       		.uleb128 0x3d
 5129 1d0c 65010000 		.4byte	.LASF397
 5130 1d10 01       		.byte	0x1
 5131 1d11 CE01     		.2byte	0x1ce
 5132 1d13 00000000 		.4byte	.LFB612
 5133 1d17 70000000 		.4byte	.LFE612-.LFB612
 5134 1d1b 01       		.uleb128 0x1
 5135 1d1c 9C       		.byte	0x9c
 5136 1d1d 1E1E0000 		.4byte	0x1e1e
ARM GAS  C:\Users\rober\AppData\Local\Temp\ccBCZTBX.s 			page 159


 5137 1d21 2F       		.uleb128 0x2f
 5138 1d22 8C130000 		.4byte	0x138c
 5139 1d26 10000000 		.4byte	.LBB40
 5140 1d2a 16000000 		.4byte	.LBE40-.LBB40
 5141 1d2e 01       		.byte	0x1
 5142 1d2f D301     		.2byte	0x1d3
 5143 1d31 3F1D0000 		.4byte	0x1d3f
 5144 1d35 30       		.uleb128 0x30
 5145 1d36 99130000 		.4byte	0x1399
 5146 1d3a 68020000 		.4byte	.LLST26
 5147 1d3e 00       		.byte	0
 5148 1d3f 2F       		.uleb128 0x2f
 5149 1d40 72130000 		.4byte	0x1372
 5150 1d44 26000000 		.4byte	.LBB42
 5151 1d48 16000000 		.4byte	.LBE42-.LBB42
 5152 1d4c 01       		.byte	0x1
 5153 1d4d D401     		.2byte	0x1d4
 5154 1d4f 5D1D0000 		.4byte	0x1d5d
 5155 1d53 30       		.uleb128 0x30
 5156 1d54 7F130000 		.4byte	0x137f
 5157 1d58 7B020000 		.4byte	.LLST27
 5158 1d5c 00       		.byte	0
 5159 1d5d 3E       		.uleb128 0x3e
 5160 1d5e 6A130000 		.4byte	0x136a
 5161 1d62 3C000000 		.4byte	.LBB44
 5162 1d66 02000000 		.4byte	.LBE44-.LBB44
 5163 1d6a 01       		.byte	0x1
 5164 1d6b D501     		.2byte	0x1d5
 5165 1d6d 2F       		.uleb128 0x2f
 5166 1d6e FE130000 		.4byte	0x13fe
 5167 1d72 4A000000 		.4byte	.LBB46
 5168 1d76 04000000 		.4byte	.LBE46-.LBB46
 5169 1d7a 01       		.byte	0x1
 5170 1d7b DB01     		.2byte	0x1db
 5171 1d7d 941D0000 		.4byte	0x1d94
 5172 1d81 30       		.uleb128 0x30
 5173 1d82 17140000 		.4byte	0x1417
 5174 1d86 9A020000 		.4byte	.LLST28
 5175 1d8a 30       		.uleb128 0x30
 5176 1d8b 0B140000 		.4byte	0x140b
 5177 1d8f AE020000 		.4byte	.LLST29
 5178 1d93 00       		.byte	0
 5179 1d94 2F       		.uleb128 0x2f
 5180 1d95 CC130000 		.4byte	0x13cc
 5181 1d99 4E000000 		.4byte	.LBB48
 5182 1d9d 06000000 		.4byte	.LBE48-.LBB48
 5183 1da1 01       		.byte	0x1
 5184 1da2 DF01     		.2byte	0x1df
 5185 1da4 C41D0000 		.4byte	0x1dc4
 5186 1da8 30       		.uleb128 0x30
 5187 1da9 F1130000 		.4byte	0x13f1
 5188 1dad C6020000 		.4byte	.LLST30
 5189 1db1 30       		.uleb128 0x30
 5190 1db2 E5130000 		.4byte	0x13e5
 5191 1db6 DE020000 		.4byte	.LLST31
 5192 1dba 30       		.uleb128 0x30
 5193 1dbb D9130000 		.4byte	0x13d9
ARM GAS  C:\Users\rober\AppData\Local\Temp\ccBCZTBX.s 			page 160


 5194 1dbf F2020000 		.4byte	.LLST32
 5195 1dc3 00       		.byte	0
 5196 1dc4 2F       		.uleb128 0x2f
 5197 1dc5 A6130000 		.4byte	0x13a6
 5198 1dc9 54000000 		.4byte	.LBB50
 5199 1dcd 1C000000 		.4byte	.LBE50-.LBB50
 5200 1dd1 01       		.byte	0x1
 5201 1dd2 E401     		.2byte	0x1e4
 5202 1dd4 EB1D0000 		.4byte	0x1deb
 5203 1dd8 30       		.uleb128 0x30
 5204 1dd9 BF130000 		.4byte	0x13bf
 5205 1ddd 0A030000 		.4byte	.LLST33
 5206 1de1 30       		.uleb128 0x30
 5207 1de2 B3130000 		.4byte	0x13b3
 5208 1de6 1E030000 		.4byte	.LLST34
 5209 1dea 00       		.byte	0
 5210 1deb 2B       		.uleb128 0x2b
 5211 1dec 0C000000 		.4byte	.LVL105
 5212 1df0 EF200000 		.4byte	0x20ef
 5213 1df4 081E0000 		.4byte	0x1e08
 5214 1df8 2C       		.uleb128 0x2c
 5215 1df9 01       		.uleb128 0x1
 5216 1dfa 50       		.byte	0x50
 5217 1dfb 02       		.uleb128 0x2
 5218 1dfc 74       		.byte	0x74
 5219 1dfd 00       		.sleb128 0
 5220 1dfe 2C       		.uleb128 0x2c
 5221 1dff 01       		.uleb128 0x1
 5222 1e00 51       		.byte	0x51
 5223 1e01 05       		.uleb128 0x5
 5224 1e02 03       		.byte	0x3
 5225 1e03 00000000 		.4byte	TimerInterruptHandler
 5226 1e07 00       		.byte	0
 5227 1e08 2D       		.uleb128 0x2d
 5228 1e09 4A000000 		.4byte	.LVL110
 5229 1e0d FB200000 		.4byte	0x20fb
 5230 1e11 2C       		.uleb128 0x2c
 5231 1e12 01       		.uleb128 0x1
 5232 1e13 50       		.byte	0x50
 5233 1e14 02       		.uleb128 0x2
 5234 1e15 74       		.byte	0x74
 5235 1e16 00       		.sleb128 0
 5236 1e17 2C       		.uleb128 0x2c
 5237 1e18 01       		.uleb128 0x1
 5238 1e19 51       		.byte	0x51
 5239 1e1a 01       		.uleb128 0x1
 5240 1e1b 31       		.byte	0x31
 5241 1e1c 00       		.byte	0
 5242 1e1d 00       		.byte	0
 5243 1e1e 3F       		.uleb128 0x3f
 5244 1e1f 151C0000 		.4byte	.LASF446
 5245 1e23 01       		.byte	0x1
 5246 1e24 E701     		.2byte	0x1e7
 5247 1e26 55040000 		.4byte	0x455
 5248 1e2a 00000000 		.4byte	.LFB613
 5249 1e2e 48000000 		.4byte	.LFE613-.LFB613
 5250 1e32 01       		.uleb128 0x1
ARM GAS  C:\Users\rober\AppData\Local\Temp\ccBCZTBX.s 			page 161


 5251 1e33 9C       		.byte	0x9c
 5252 1e34 B41E0000 		.4byte	0x1eb4
 5253 1e38 40       		.uleb128 0x40
 5254 1e39 13080000 		.4byte	.LASF398
 5255 1e3d 01       		.byte	0x1
 5256 1e3e EA01     		.2byte	0x1ea
 5257 1e40 83070000 		.4byte	0x783
 5258 1e44 00       		.byte	0
 5259 1e45 2A       		.uleb128 0x2a
 5260 1e46 06000000 		.4byte	.LVL115
 5261 1e4a 0B1D0000 		.4byte	0x1d0b
 5262 1e4e 2A       		.uleb128 0x2a
 5263 1e4f 0A000000 		.4byte	.LVL116
 5264 1e53 06210000 		.4byte	0x2106
 5265 1e57 2A       		.uleb128 0x2a
 5266 1e58 0E000000 		.4byte	.LVL117
 5267 1e5c 11210000 		.4byte	0x2111
 5268 1e60 2B       		.uleb128 0x2b
 5269 1e61 14000000 		.4byte	.LVL118
 5270 1e65 1D210000 		.4byte	0x211d
 5271 1e69 731E0000 		.4byte	0x1e73
 5272 1e6d 2C       		.uleb128 0x2c
 5273 1e6e 01       		.uleb128 0x1
 5274 1e6f 50       		.byte	0x50
 5275 1e70 01       		.uleb128 0x1
 5276 1e71 44       		.byte	0x44
 5277 1e72 00       		.byte	0
 5278 1e73 2B       		.uleb128 0x2b
 5279 1e74 1A000000 		.4byte	.LVL119
 5280 1e78 28210000 		.4byte	0x2128
 5281 1e7c 861E0000 		.4byte	0x1e86
 5282 1e80 2C       		.uleb128 0x2c
 5283 1e81 01       		.uleb128 0x1
 5284 1e82 50       		.byte	0x50
 5285 1e83 01       		.uleb128 0x1
 5286 1e84 31       		.byte	0x31
 5287 1e85 00       		.byte	0
 5288 1e86 2A       		.uleb128 0x2a
 5289 1e87 1E000000 		.4byte	.LVL120
 5290 1e8b A6170000 		.4byte	0x17a6
 5291 1e8f 2A       		.uleb128 0x2a
 5292 1e90 34000000 		.4byte	.LVL121
 5293 1e94 A71A0000 		.4byte	0x1aa7
 5294 1e98 2A       		.uleb128 0x2a
 5295 1e99 38000000 		.4byte	.LVL122
 5296 1e9d 10170000 		.4byte	0x1710
 5297 1ea1 2A       		.uleb128 0x2a
 5298 1ea2 3E000000 		.4byte	.LVL123
 5299 1ea6 4F180000 		.4byte	0x184f
 5300 1eaa 2A       		.uleb128 0x2a
 5301 1eab 42000000 		.4byte	.LVL124
 5302 1eaf 10170000 		.4byte	0x1710
 5303 1eb3 00       		.byte	0
 5304 1eb4 41       		.uleb128 0x41
 5305 1eb5 CA150000 		.4byte	.LASF399
 5306 1eb9 04       		.byte	0x4
 5307 1eba EA07     		.2byte	0x7ea
ARM GAS  C:\Users\rober\AppData\Local\Temp\ccBCZTBX.s 			page 162


 5308 1ebc C01E0000 		.4byte	0x1ec0
 5309 1ec0 0E       		.uleb128 0xe
 5310 1ec1 79040000 		.4byte	0x479
 5311 1ec5 42       		.uleb128 0x42
 5312 1ec6 940B0000 		.4byte	.LASF400
 5313 1eca 12       		.byte	0x12
 5314 1ecb 1C       		.byte	0x1c
 5315 1ecc D01E0000 		.4byte	0x1ed0
 5316 1ed0 11       		.uleb128 0x11
 5317 1ed1 B0070000 		.4byte	0x7b0
 5318 1ed5 42       		.uleb128 0x42
 5319 1ed6 DD030000 		.4byte	.LASF401
 5320 1eda 13       		.byte	0x13
 5321 1edb 5E       		.byte	0x5e
 5322 1edc A40A0000 		.4byte	0xaa4
 5323 1ee0 42       		.uleb128 0x42
 5324 1ee1 1C0F0000 		.4byte	.LASF402
 5325 1ee5 14       		.byte	0x14
 5326 1ee6 1F       		.byte	0x1f
 5327 1ee7 EB1E0000 		.4byte	0x1eeb
 5328 1eeb 11       		.uleb128 0x11
 5329 1eec B5080000 		.4byte	0x8b5
 5330 1ef0 42       		.uleb128 0x42
 5331 1ef1 B0170000 		.4byte	.LASF403
 5332 1ef5 15       		.byte	0x15
 5333 1ef6 1F       		.byte	0x1f
 5334 1ef7 FB1E0000 		.4byte	0x1efb
 5335 1efb 11       		.uleb128 0x11
 5336 1efc F9090000 		.4byte	0x9f9
 5337 1f00 42       		.uleb128 0x42
 5338 1f01 B5180000 		.4byte	.LASF404
 5339 1f05 16       		.byte	0x16
 5340 1f06 1F       		.byte	0x1f
 5341 1f07 EB1E0000 		.4byte	0x1eeb
 5342 1f0b 41       		.uleb128 0x41
 5343 1f0c F4080000 		.4byte	.LASF405
 5344 1f10 17       		.byte	0x17
 5345 1f11 0408     		.2byte	0x804
 5346 1f13 B6110000 		.4byte	0x11b6
 5347 1f17 41       		.uleb128 0x41
 5348 1f18 A1160000 		.4byte	.LASF406
 5349 1f1c 17       		.byte	0x17
 5350 1f1d 0808     		.2byte	0x808
 5351 1f1f B6110000 		.4byte	0x11b6
 5352 1f23 0C       		.uleb128 0xc
 5353 1f24 83070000 		.4byte	0x783
 5354 1f28 341F0000 		.4byte	0x1f34
 5355 1f2c 0F       		.uleb128 0xf
 5356 1f2d 5B050000 		.4byte	0x55b
 5357 1f31 AF16     		.2byte	0x16af
 5358 1f33 00       		.byte	0
 5359 1f34 43       		.uleb128 0x43
 5360 1f35 16020000 		.4byte	.LASF407
 5361 1f39 01       		.byte	0x1
 5362 1f3a 44       		.byte	0x44
 5363 1f3b 231F0000 		.4byte	0x1f23
 5364 1f3f 05       		.uleb128 0x5
ARM GAS  C:\Users\rober\AppData\Local\Temp\ccBCZTBX.s 			page 163


 5365 1f40 03       		.byte	0x3
 5366 1f41 00000000 		.4byte	imageBufferCache
 5367 1f45 42       		.uleb128 0x42
 5368 1f46 F7180000 		.4byte	.LASF408
 5369 1f4a 01       		.byte	0x1
 5370 1f4b 47       		.byte	0x47
 5371 1f4c 8B120000 		.4byte	0x128b
 5372 1f50 43       		.uleb128 0x43
 5373 1f51 6E080000 		.4byte	.LASF409
 5374 1f55 01       		.byte	0x1
 5375 1f56 B9       		.byte	0xb9
 5376 1f57 55040000 		.4byte	0x455
 5377 1f5b 05       		.uleb128 0x5
 5378 1f5c 03       		.byte	0x3
 5379 1f5d 00000000 		.4byte	compareValue
 5380 1f61 43       		.uleb128 0x43
 5381 1f62 C80A0000 		.4byte	.LASF410
 5382 1f66 01       		.byte	0x1
 5383 1f67 BB       		.byte	0xbb
 5384 1f68 55040000 		.4byte	0x455
 5385 1f6c 05       		.uleb128 0x5
 5386 1f6d 03       		.byte	0x3
 5387 1f6e 00000000 		.4byte	start_point
 5388 1f72 43       		.uleb128 0x43
 5389 1f73 A4090000 		.4byte	.LASF411
 5390 1f77 01       		.byte	0x1
 5391 1f78 BD       		.byte	0xbd
 5392 1f79 55040000 		.4byte	0x455
 5393 1f7d 05       		.uleb128 0x5
 5394 1f7e 03       		.byte	0x3
 5395 1f7f 00000000 		.4byte	which_data_table
 5396 1f83 43       		.uleb128 0x43
 5397 1f84 481E0000 		.4byte	.LASF412
 5398 1f88 01       		.byte	0x1
 5399 1f89 BE       		.byte	0xbe
 5400 1f8a 55040000 		.4byte	0x455
 5401 1f8e 05       		.uleb128 0x5
 5402 1f8f 03       		.byte	0x3
 5403 1f90 00000000 		.4byte	dataSize_global
 5404 1f94 43       		.uleb128 0x43
 5405 1f95 1D110000 		.4byte	.LASF413
 5406 1f99 01       		.byte	0x1
 5407 1f9a C0       		.byte	0xc0
 5408 1f9b 55040000 		.4byte	0x455
 5409 1f9f 05       		.uleb128 0x5
 5410 1fa0 03       		.byte	0x3
 5411 1fa1 00000000 		.4byte	modeSwitch
 5412 1fa5 0C       		.uleb128 0xc
 5413 1fa6 F4120000 		.4byte	0x12f4
 5414 1faa B51F0000 		.4byte	0x1fb5
 5415 1fae 0D       		.uleb128 0xd
 5416 1faf 5B050000 		.4byte	0x55b
 5417 1fb3 04       		.byte	0x4
 5418 1fb4 00       		.byte	0
 5419 1fb5 44       		.uleb128 0x44
 5420 1fb6 CB140000 		.4byte	.LASF414
 5421 1fba 01       		.byte	0x1
ARM GAS  C:\Users\rober\AppData\Local\Temp\ccBCZTBX.s 			page 164


 5422 1fbb 0F01     		.2byte	0x10f
 5423 1fbd A51F0000 		.4byte	0x1fa5
 5424 1fc1 05       		.uleb128 0x5
 5425 1fc2 03       		.byte	0x3
 5426 1fc3 00000000 		.4byte	reflowData
 5427 1fc7 0C       		.uleb128 0xc
 5428 1fc8 F4120000 		.4byte	0x12f4
 5429 1fcc D71F0000 		.4byte	0x1fd7
 5430 1fd0 0D       		.uleb128 0xd
 5431 1fd1 5B050000 		.4byte	0x55b
 5432 1fd5 0B       		.byte	0xb
 5433 1fd6 00       		.byte	0
 5434 1fd7 44       		.uleb128 0x44
 5435 1fd8 AA050000 		.4byte	.LASF415
 5436 1fdc 01       		.byte	0x1
 5437 1fdd 1301     		.2byte	0x113
 5438 1fdf C71F0000 		.4byte	0x1fc7
 5439 1fe3 05       		.uleb128 0x5
 5440 1fe4 03       		.byte	0x3
 5441 1fe5 00000000 		.4byte	leadData
 5442 1fe9 44       		.uleb128 0x44
 5443 1fea 43140000 		.4byte	.LASF416
 5444 1fee 01       		.byte	0x1
 5445 1fef 1801     		.2byte	0x118
 5446 1ff1 55040000 		.4byte	0x455
 5447 1ff5 05       		.uleb128 0x5
 5448 1ff6 03       		.byte	0x3
 5449 1ff7 00000000 		.4byte	whichData
 5450 1ffb 44       		.uleb128 0x44
 5451 1ffc 3D0D0000 		.4byte	.LASF417
 5452 2000 01       		.byte	0x1
 5453 2001 1A01     		.2byte	0x11a
 5454 2003 BD070000 		.4byte	0x7bd
 5455 2007 05       		.uleb128 0x5
 5456 2008 03       		.byte	0x3
 5457 2009 00000000 		.4byte	programStarted
 5458 200d 44       		.uleb128 0x44
 5459 200e 19010000 		.4byte	.LASF418
 5460 2012 01       		.byte	0x1
 5461 2013 1B01     		.2byte	0x11b
 5462 2015 55040000 		.4byte	0x455
 5463 2019 05       		.uleb128 0x5
 5464 201a 03       		.byte	0x3
 5465 201b 00000000 		.4byte	maxTimeInGraph
 5466 201f 45       		.uleb128 0x45
 5467 2020 AF160000 		.4byte	.LASF419
 5468 2024 AF160000 		.4byte	.LASF419
 5469 2028 18       		.byte	0x18
 5470 2029 34       		.byte	0x34
 5471 202a 45       		.uleb128 0x45
 5472 202b 6D060000 		.4byte	.LASF420
 5473 202f 6D060000 		.4byte	.LASF420
 5474 2033 11       		.byte	0x11
 5475 2034 7E       		.byte	0x7e
 5476 2035 46       		.uleb128 0x46
 5477 2036 0E1C0000 		.4byte	.LASF447
 5478 203a 0E1C0000 		.4byte	.LASF447
ARM GAS  C:\Users\rober\AppData\Local\Temp\ccBCZTBX.s 			page 165


 5479 203e 45       		.uleb128 0x45
 5480 203f DC000000 		.4byte	.LASF421
 5481 2043 DC000000 		.4byte	.LASF421
 5482 2047 19       		.byte	0x19
 5483 2048 88       		.byte	0x88
 5484 2049 47       		.uleb128 0x47
 5485 204a 870B0000 		.4byte	.LASF422
 5486 204e 870B0000 		.4byte	.LASF422
 5487 2052 17       		.byte	0x17
 5488 2053 0902     		.2byte	0x209
 5489 2055 45       		.uleb128 0x45
 5490 2056 1E120000 		.4byte	.LASF423
 5491 205a 1E120000 		.4byte	.LASF423
 5492 205e 1A       		.byte	0x1a
 5493 205f 30       		.byte	0x30
 5494 2060 47       		.uleb128 0x47
 5495 2061 B21B0000 		.4byte	.LASF424
 5496 2065 B21B0000 		.4byte	.LASF424
 5497 2069 17       		.byte	0x17
 5498 206a 2B03     		.2byte	0x32b
 5499 206c 47       		.uleb128 0x47
 5500 206d 36140000 		.4byte	.LASF425
 5501 2071 36140000 		.4byte	.LASF425
 5502 2075 17       		.byte	0x17
 5503 2076 C101     		.2byte	0x1c1
 5504 2078 47       		.uleb128 0x47
 5505 2079 730F0000 		.4byte	.LASF426
 5506 207d 730F0000 		.4byte	.LASF426
 5507 2081 17       		.byte	0x17
 5508 2082 C001     		.2byte	0x1c0
 5509 2084 47       		.uleb128 0x47
 5510 2085 EF1E0000 		.4byte	.LASF427
 5511 2089 EF1E0000 		.4byte	.LASF427
 5512 208d 17       		.byte	0x17
 5513 208e F601     		.2byte	0x1f6
 5514 2090 47       		.uleb128 0x47
 5515 2091 9E150000 		.4byte	.LASF428
 5516 2095 9E150000 		.4byte	.LASF428
 5517 2099 17       		.byte	0x17
 5518 209a FB01     		.2byte	0x1fb
 5519 209c 47       		.uleb128 0x47
 5520 209d 3C1B0000 		.4byte	.LASF429
 5521 20a1 3C1B0000 		.4byte	.LASF429
 5522 20a5 17       		.byte	0x17
 5523 20a6 2603     		.2byte	0x326
 5524 20a8 47       		.uleb128 0x47
 5525 20a9 F70A0000 		.4byte	.LASF430
 5526 20ad F70A0000 		.4byte	.LASF430
 5527 20b1 17       		.byte	0x17
 5528 20b2 0503     		.2byte	0x305
 5529 20b4 47       		.uleb128 0x47
 5530 20b5 71070000 		.4byte	.LASF431
 5531 20b9 71070000 		.4byte	.LASF431
 5532 20bd 0B       		.byte	0xb
 5533 20be 2103     		.2byte	0x321
 5534 20c0 47       		.uleb128 0x47
 5535 20c1 ED140000 		.4byte	.LASF432
ARM GAS  C:\Users\rober\AppData\Local\Temp\ccBCZTBX.s 			page 166


 5536 20c5 ED140000 		.4byte	.LASF432
 5537 20c9 17       		.byte	0x17
 5538 20ca 2703     		.2byte	0x327
 5539 20cc 47       		.uleb128 0x47
 5540 20cd 1E100000 		.4byte	.LASF433
 5541 20d1 1E100000 		.4byte	.LASF433
 5542 20d5 17       		.byte	0x17
 5543 20d6 2803     		.2byte	0x328
 5544 20d8 47       		.uleb128 0x47
 5545 20d9 AE1D0000 		.4byte	.LASF434
 5546 20dd AE1D0000 		.4byte	.LASF434
 5547 20e1 17       		.byte	0x17
 5548 20e2 F701     		.2byte	0x1f7
 5549 20e4 45       		.uleb128 0x45
 5550 20e5 C8130000 		.4byte	.LASF435
 5551 20e9 C8130000 		.4byte	.LASF435
 5552 20ed 1B       		.byte	0x1b
 5553 20ee E7       		.byte	0xe7
 5554 20ef 47       		.uleb128 0x47
 5555 20f0 E5010000 		.4byte	.LASF436
 5556 20f4 E5010000 		.4byte	.LASF436
 5557 20f8 0C       		.byte	0xc
 5558 20f9 1B01     		.2byte	0x11b
 5559 20fb 45       		.uleb128 0x45
 5560 20fc 67170000 		.4byte	.LASF437
 5561 2100 67170000 		.4byte	.LASF437
 5562 2104 06       		.byte	0x6
 5563 2105 8D       		.byte	0x8d
 5564 2106 45       		.uleb128 0x45
 5565 2107 8E040000 		.4byte	.LASF438
 5566 210b 8E040000 		.4byte	.LASF438
 5567 210f 15       		.byte	0x15
 5568 2110 2A       		.byte	0x2a
 5569 2111 47       		.uleb128 0x47
 5570 2112 F20F0000 		.4byte	.LASF439
 5571 2116 F20F0000 		.4byte	.LASF439
 5572 211a 17       		.byte	0x17
 5573 211b 6D01     		.2byte	0x16d
 5574 211d 45       		.uleb128 0x45
 5575 211e DF140000 		.4byte	.LASF440
 5576 2122 DF140000 		.4byte	.LASF440
 5577 2126 11       		.byte	0x11
 5578 2127 79       		.byte	0x79
 5579 2128 45       		.uleb128 0x45
 5580 2129 D80E0000 		.4byte	.LASF441
 5581 212d D80E0000 		.4byte	.LASF441
 5582 2131 11       		.byte	0x11
 5583 2132 7A       		.byte	0x7a
 5584 2133 00       		.byte	0
 5585              		.section	.debug_abbrev,"",%progbits
 5586              	.Ldebug_abbrev0:
 5587 0000 01       		.uleb128 0x1
 5588 0001 11       		.uleb128 0x11
 5589 0002 01       		.byte	0x1
 5590 0003 25       		.uleb128 0x25
 5591 0004 0E       		.uleb128 0xe
 5592 0005 13       		.uleb128 0x13
ARM GAS  C:\Users\rober\AppData\Local\Temp\ccBCZTBX.s 			page 167


 5593 0006 0B       		.uleb128 0xb
 5594 0007 03       		.uleb128 0x3
 5595 0008 0E       		.uleb128 0xe
 5596 0009 1B       		.uleb128 0x1b
 5597 000a 0E       		.uleb128 0xe
 5598 000b 55       		.uleb128 0x55
 5599 000c 17       		.uleb128 0x17
 5600 000d 11       		.uleb128 0x11
 5601 000e 01       		.uleb128 0x1
 5602 000f 10       		.uleb128 0x10
 5603 0010 17       		.uleb128 0x17
 5604 0011 00       		.byte	0
 5605 0012 00       		.byte	0
 5606 0013 02       		.uleb128 0x2
 5607 0014 04       		.uleb128 0x4
 5608 0015 01       		.byte	0x1
 5609 0016 0B       		.uleb128 0xb
 5610 0017 0B       		.uleb128 0xb
 5611 0018 49       		.uleb128 0x49
 5612 0019 13       		.uleb128 0x13
 5613 001a 3A       		.uleb128 0x3a
 5614 001b 0B       		.uleb128 0xb
 5615 001c 3B       		.uleb128 0x3b
 5616 001d 0B       		.uleb128 0xb
 5617 001e 01       		.uleb128 0x1
 5618 001f 13       		.uleb128 0x13
 5619 0020 00       		.byte	0
 5620 0021 00       		.byte	0
 5621 0022 03       		.uleb128 0x3
 5622 0023 28       		.uleb128 0x28
 5623 0024 00       		.byte	0
 5624 0025 03       		.uleb128 0x3
 5625 0026 0E       		.uleb128 0xe
 5626 0027 1C       		.uleb128 0x1c
 5627 0028 0D       		.uleb128 0xd
 5628 0029 00       		.byte	0
 5629 002a 00       		.byte	0
 5630 002b 04       		.uleb128 0x4
 5631 002c 28       		.uleb128 0x28
 5632 002d 00       		.byte	0
 5633 002e 03       		.uleb128 0x3
 5634 002f 0E       		.uleb128 0xe
 5635 0030 1C       		.uleb128 0x1c
 5636 0031 0B       		.uleb128 0xb
 5637 0032 00       		.byte	0
 5638 0033 00       		.byte	0
 5639 0034 05       		.uleb128 0x5
 5640 0035 24       		.uleb128 0x24
 5641 0036 00       		.byte	0
 5642 0037 0B       		.uleb128 0xb
 5643 0038 0B       		.uleb128 0xb
 5644 0039 3E       		.uleb128 0x3e
 5645 003a 0B       		.uleb128 0xb
 5646 003b 03       		.uleb128 0x3
 5647 003c 0E       		.uleb128 0xe
 5648 003d 00       		.byte	0
 5649 003e 00       		.byte	0
ARM GAS  C:\Users\rober\AppData\Local\Temp\ccBCZTBX.s 			page 168


 5650 003f 06       		.uleb128 0x6
 5651 0040 16       		.uleb128 0x16
 5652 0041 00       		.byte	0
 5653 0042 03       		.uleb128 0x3
 5654 0043 0E       		.uleb128 0xe
 5655 0044 3A       		.uleb128 0x3a
 5656 0045 0B       		.uleb128 0xb
 5657 0046 3B       		.uleb128 0x3b
 5658 0047 0B       		.uleb128 0xb
 5659 0048 49       		.uleb128 0x49
 5660 0049 13       		.uleb128 0x13
 5661 004a 00       		.byte	0
 5662 004b 00       		.byte	0
 5663 004c 07       		.uleb128 0x7
 5664 004d 24       		.uleb128 0x24
 5665 004e 00       		.byte	0
 5666 004f 0B       		.uleb128 0xb
 5667 0050 0B       		.uleb128 0xb
 5668 0051 3E       		.uleb128 0x3e
 5669 0052 0B       		.uleb128 0xb
 5670 0053 03       		.uleb128 0x3
 5671 0054 08       		.uleb128 0x8
 5672 0055 00       		.byte	0
 5673 0056 00       		.byte	0
 5674 0057 08       		.uleb128 0x8
 5675 0058 13       		.uleb128 0x13
 5676 0059 01       		.byte	0x1
 5677 005a 0B       		.uleb128 0xb
 5678 005b 05       		.uleb128 0x5
 5679 005c 3A       		.uleb128 0x3a
 5680 005d 0B       		.uleb128 0xb
 5681 005e 3B       		.uleb128 0x3b
 5682 005f 05       		.uleb128 0x5
 5683 0060 01       		.uleb128 0x1
 5684 0061 13       		.uleb128 0x13
 5685 0062 00       		.byte	0
 5686 0063 00       		.byte	0
 5687 0064 09       		.uleb128 0x9
 5688 0065 0D       		.uleb128 0xd
 5689 0066 00       		.byte	0
 5690 0067 03       		.uleb128 0x3
 5691 0068 0E       		.uleb128 0xe
 5692 0069 3A       		.uleb128 0x3a
 5693 006a 0B       		.uleb128 0xb
 5694 006b 3B       		.uleb128 0x3b
 5695 006c 05       		.uleb128 0x5
 5696 006d 49       		.uleb128 0x49
 5697 006e 13       		.uleb128 0x13
 5698 006f 38       		.uleb128 0x38
 5699 0070 0B       		.uleb128 0xb
 5700 0071 00       		.byte	0
 5701 0072 00       		.byte	0
 5702 0073 0A       		.uleb128 0xa
 5703 0074 0D       		.uleb128 0xd
 5704 0075 00       		.byte	0
 5705 0076 03       		.uleb128 0x3
 5706 0077 0E       		.uleb128 0xe
ARM GAS  C:\Users\rober\AppData\Local\Temp\ccBCZTBX.s 			page 169


 5707 0078 3A       		.uleb128 0x3a
 5708 0079 0B       		.uleb128 0xb
 5709 007a 3B       		.uleb128 0x3b
 5710 007b 05       		.uleb128 0x5
 5711 007c 49       		.uleb128 0x49
 5712 007d 13       		.uleb128 0x13
 5713 007e 38       		.uleb128 0x38
 5714 007f 05       		.uleb128 0x5
 5715 0080 00       		.byte	0
 5716 0081 00       		.byte	0
 5717 0082 0B       		.uleb128 0xb
 5718 0083 0D       		.uleb128 0xd
 5719 0084 00       		.byte	0
 5720 0085 03       		.uleb128 0x3
 5721 0086 08       		.uleb128 0x8
 5722 0087 3A       		.uleb128 0x3a
 5723 0088 0B       		.uleb128 0xb
 5724 0089 3B       		.uleb128 0x3b
 5725 008a 05       		.uleb128 0x5
 5726 008b 49       		.uleb128 0x49
 5727 008c 13       		.uleb128 0x13
 5728 008d 38       		.uleb128 0x38
 5729 008e 05       		.uleb128 0x5
 5730 008f 00       		.byte	0
 5731 0090 00       		.byte	0
 5732 0091 0C       		.uleb128 0xc
 5733 0092 01       		.uleb128 0x1
 5734 0093 01       		.byte	0x1
 5735 0094 49       		.uleb128 0x49
 5736 0095 13       		.uleb128 0x13
 5737 0096 01       		.uleb128 0x1
 5738 0097 13       		.uleb128 0x13
 5739 0098 00       		.byte	0
 5740 0099 00       		.byte	0
 5741 009a 0D       		.uleb128 0xd
 5742 009b 21       		.uleb128 0x21
 5743 009c 00       		.byte	0
 5744 009d 49       		.uleb128 0x49
 5745 009e 13       		.uleb128 0x13
 5746 009f 2F       		.uleb128 0x2f
 5747 00a0 0B       		.uleb128 0xb
 5748 00a1 00       		.byte	0
 5749 00a2 00       		.byte	0
 5750 00a3 0E       		.uleb128 0xe
 5751 00a4 35       		.uleb128 0x35
 5752 00a5 00       		.byte	0
 5753 00a6 49       		.uleb128 0x49
 5754 00a7 13       		.uleb128 0x13
 5755 00a8 00       		.byte	0
 5756 00a9 00       		.byte	0
 5757 00aa 0F       		.uleb128 0xf
 5758 00ab 21       		.uleb128 0x21
 5759 00ac 00       		.byte	0
 5760 00ad 49       		.uleb128 0x49
 5761 00ae 13       		.uleb128 0x13
 5762 00af 2F       		.uleb128 0x2f
 5763 00b0 05       		.uleb128 0x5
ARM GAS  C:\Users\rober\AppData\Local\Temp\ccBCZTBX.s 			page 170


 5764 00b1 00       		.byte	0
 5765 00b2 00       		.byte	0
 5766 00b3 10       		.uleb128 0x10
 5767 00b4 16       		.uleb128 0x16
 5768 00b5 00       		.byte	0
 5769 00b6 03       		.uleb128 0x3
 5770 00b7 0E       		.uleb128 0xe
 5771 00b8 3A       		.uleb128 0x3a
 5772 00b9 0B       		.uleb128 0xb
 5773 00ba 3B       		.uleb128 0x3b
 5774 00bb 05       		.uleb128 0x5
 5775 00bc 49       		.uleb128 0x49
 5776 00bd 13       		.uleb128 0x13
 5777 00be 00       		.byte	0
 5778 00bf 00       		.byte	0
 5779 00c0 11       		.uleb128 0x11
 5780 00c1 26       		.uleb128 0x26
 5781 00c2 00       		.byte	0
 5782 00c3 49       		.uleb128 0x49
 5783 00c4 13       		.uleb128 0x13
 5784 00c5 00       		.byte	0
 5785 00c6 00       		.byte	0
 5786 00c7 12       		.uleb128 0x12
 5787 00c8 13       		.uleb128 0x13
 5788 00c9 01       		.byte	0x1
 5789 00ca 0B       		.uleb128 0xb
 5790 00cb 0B       		.uleb128 0xb
 5791 00cc 3A       		.uleb128 0x3a
 5792 00cd 0B       		.uleb128 0xb
 5793 00ce 3B       		.uleb128 0x3b
 5794 00cf 0B       		.uleb128 0xb
 5795 00d0 01       		.uleb128 0x1
 5796 00d1 13       		.uleb128 0x13
 5797 00d2 00       		.byte	0
 5798 00d3 00       		.byte	0
 5799 00d4 13       		.uleb128 0x13
 5800 00d5 0D       		.uleb128 0xd
 5801 00d6 00       		.byte	0
 5802 00d7 03       		.uleb128 0x3
 5803 00d8 0E       		.uleb128 0xe
 5804 00d9 3A       		.uleb128 0x3a
 5805 00da 0B       		.uleb128 0xb
 5806 00db 3B       		.uleb128 0x3b
 5807 00dc 0B       		.uleb128 0xb
 5808 00dd 49       		.uleb128 0x49
 5809 00de 13       		.uleb128 0x13
 5810 00df 38       		.uleb128 0x38
 5811 00e0 0B       		.uleb128 0xb
 5812 00e1 00       		.byte	0
 5813 00e2 00       		.byte	0
 5814 00e3 14       		.uleb128 0x14
 5815 00e4 0D       		.uleb128 0xd
 5816 00e5 00       		.byte	0
 5817 00e6 03       		.uleb128 0x3
 5818 00e7 08       		.uleb128 0x8
 5819 00e8 3A       		.uleb128 0x3a
 5820 00e9 0B       		.uleb128 0xb
ARM GAS  C:\Users\rober\AppData\Local\Temp\ccBCZTBX.s 			page 171


 5821 00ea 3B       		.uleb128 0x3b
 5822 00eb 0B       		.uleb128 0xb
 5823 00ec 49       		.uleb128 0x49
 5824 00ed 13       		.uleb128 0x13
 5825 00ee 38       		.uleb128 0x38
 5826 00ef 0B       		.uleb128 0xb
 5827 00f0 00       		.byte	0
 5828 00f1 00       		.byte	0
 5829 00f2 15       		.uleb128 0x15
 5830 00f3 13       		.uleb128 0x13
 5831 00f4 01       		.byte	0x1
 5832 00f5 0B       		.uleb128 0xb
 5833 00f6 05       		.uleb128 0x5
 5834 00f7 3A       		.uleb128 0x3a
 5835 00f8 0B       		.uleb128 0xb
 5836 00f9 3B       		.uleb128 0x3b
 5837 00fa 0B       		.uleb128 0xb
 5838 00fb 01       		.uleb128 0x1
 5839 00fc 13       		.uleb128 0x13
 5840 00fd 00       		.byte	0
 5841 00fe 00       		.byte	0
 5842 00ff 16       		.uleb128 0x16
 5843 0100 0D       		.uleb128 0xd
 5844 0101 00       		.byte	0
 5845 0102 03       		.uleb128 0x3
 5846 0103 08       		.uleb128 0x8
 5847 0104 3A       		.uleb128 0x3a
 5848 0105 0B       		.uleb128 0xb
 5849 0106 3B       		.uleb128 0x3b
 5850 0107 0B       		.uleb128 0xb
 5851 0108 49       		.uleb128 0x49
 5852 0109 13       		.uleb128 0x13
 5853 010a 38       		.uleb128 0x38
 5854 010b 05       		.uleb128 0x5
 5855 010c 00       		.byte	0
 5856 010d 00       		.byte	0
 5857 010e 17       		.uleb128 0x17
 5858 010f 0F       		.uleb128 0xf
 5859 0110 00       		.byte	0
 5860 0111 0B       		.uleb128 0xb
 5861 0112 0B       		.uleb128 0xb
 5862 0113 00       		.byte	0
 5863 0114 00       		.byte	0
 5864 0115 18       		.uleb128 0x18
 5865 0116 13       		.uleb128 0x13
 5866 0117 01       		.byte	0x1
 5867 0118 03       		.uleb128 0x3
 5868 0119 0E       		.uleb128 0xe
 5869 011a 0B       		.uleb128 0xb
 5870 011b 0B       		.uleb128 0xb
 5871 011c 3A       		.uleb128 0x3a
 5872 011d 0B       		.uleb128 0xb
 5873 011e 3B       		.uleb128 0x3b
 5874 011f 0B       		.uleb128 0xb
 5875 0120 01       		.uleb128 0x1
 5876 0121 13       		.uleb128 0x13
 5877 0122 00       		.byte	0
ARM GAS  C:\Users\rober\AppData\Local\Temp\ccBCZTBX.s 			page 172


 5878 0123 00       		.byte	0
 5879 0124 19       		.uleb128 0x19
 5880 0125 0F       		.uleb128 0xf
 5881 0126 00       		.byte	0
 5882 0127 0B       		.uleb128 0xb
 5883 0128 0B       		.uleb128 0xb
 5884 0129 49       		.uleb128 0x49
 5885 012a 13       		.uleb128 0x13
 5886 012b 00       		.byte	0
 5887 012c 00       		.byte	0
 5888 012d 1A       		.uleb128 0x1a
 5889 012e 15       		.uleb128 0x15
 5890 012f 01       		.byte	0x1
 5891 0130 27       		.uleb128 0x27
 5892 0131 19       		.uleb128 0x19
 5893 0132 01       		.uleb128 0x1
 5894 0133 13       		.uleb128 0x13
 5895 0134 00       		.byte	0
 5896 0135 00       		.byte	0
 5897 0136 1B       		.uleb128 0x1b
 5898 0137 05       		.uleb128 0x5
 5899 0138 00       		.byte	0
 5900 0139 49       		.uleb128 0x49
 5901 013a 13       		.uleb128 0x13
 5902 013b 00       		.byte	0
 5903 013c 00       		.byte	0
 5904 013d 1C       		.uleb128 0x1c
 5905 013e 13       		.uleb128 0x13
 5906 013f 01       		.byte	0x1
 5907 0140 03       		.uleb128 0x3
 5908 0141 0E       		.uleb128 0xe
 5909 0142 0B       		.uleb128 0xb
 5910 0143 0B       		.uleb128 0xb
 5911 0144 3A       		.uleb128 0x3a
 5912 0145 0B       		.uleb128 0xb
 5913 0146 3B       		.uleb128 0x3b
 5914 0147 05       		.uleb128 0x5
 5915 0148 01       		.uleb128 0x1
 5916 0149 13       		.uleb128 0x13
 5917 014a 00       		.byte	0
 5918 014b 00       		.byte	0
 5919 014c 1D       		.uleb128 0x1d
 5920 014d 15       		.uleb128 0x15
 5921 014e 01       		.byte	0x1
 5922 014f 27       		.uleb128 0x27
 5923 0150 19       		.uleb128 0x19
 5924 0151 49       		.uleb128 0x49
 5925 0152 13       		.uleb128 0x13
 5926 0153 01       		.uleb128 0x1
 5927 0154 13       		.uleb128 0x13
 5928 0155 00       		.byte	0
 5929 0156 00       		.byte	0
 5930 0157 1E       		.uleb128 0x1e
 5931 0158 15       		.uleb128 0x15
 5932 0159 00       		.byte	0
 5933 015a 27       		.uleb128 0x27
 5934 015b 19       		.uleb128 0x19
ARM GAS  C:\Users\rober\AppData\Local\Temp\ccBCZTBX.s 			page 173


 5935 015c 49       		.uleb128 0x49
 5936 015d 13       		.uleb128 0x13
 5937 015e 00       		.byte	0
 5938 015f 00       		.byte	0
 5939 0160 1F       		.uleb128 0x1f
 5940 0161 26       		.uleb128 0x26
 5941 0162 00       		.byte	0
 5942 0163 00       		.byte	0
 5943 0164 00       		.byte	0
 5944 0165 20       		.uleb128 0x20
 5945 0166 13       		.uleb128 0x13
 5946 0167 01       		.byte	0x1
 5947 0168 0B       		.uleb128 0xb
 5948 0169 0B       		.uleb128 0xb
 5949 016a 3A       		.uleb128 0x3a
 5950 016b 0B       		.uleb128 0xb
 5951 016c 3B       		.uleb128 0x3b
 5952 016d 05       		.uleb128 0x5
 5953 016e 01       		.uleb128 0x1
 5954 016f 13       		.uleb128 0x13
 5955 0170 00       		.byte	0
 5956 0171 00       		.byte	0
 5957 0172 21       		.uleb128 0x21
 5958 0173 0D       		.uleb128 0xd
 5959 0174 00       		.byte	0
 5960 0175 03       		.uleb128 0x3
 5961 0176 08       		.uleb128 0x8
 5962 0177 3A       		.uleb128 0x3a
 5963 0178 0B       		.uleb128 0xb
 5964 0179 3B       		.uleb128 0x3b
 5965 017a 05       		.uleb128 0x5
 5966 017b 49       		.uleb128 0x49
 5967 017c 13       		.uleb128 0x13
 5968 017d 38       		.uleb128 0x38
 5969 017e 0B       		.uleb128 0xb
 5970 017f 00       		.byte	0
 5971 0180 00       		.byte	0
 5972 0181 22       		.uleb128 0x22
 5973 0182 17       		.uleb128 0x17
 5974 0183 01       		.byte	0x1
 5975 0184 0B       		.uleb128 0xb
 5976 0185 0B       		.uleb128 0xb
 5977 0186 3A       		.uleb128 0x3a
 5978 0187 0B       		.uleb128 0xb
 5979 0188 3B       		.uleb128 0x3b
 5980 0189 05       		.uleb128 0x5
 5981 018a 01       		.uleb128 0x1
 5982 018b 13       		.uleb128 0x13
 5983 018c 00       		.byte	0
 5984 018d 00       		.byte	0
 5985 018e 23       		.uleb128 0x23
 5986 018f 0D       		.uleb128 0xd
 5987 0190 00       		.byte	0
 5988 0191 03       		.uleb128 0x3
 5989 0192 0E       		.uleb128 0xe
 5990 0193 3A       		.uleb128 0x3a
 5991 0194 0B       		.uleb128 0xb
ARM GAS  C:\Users\rober\AppData\Local\Temp\ccBCZTBX.s 			page 174


 5992 0195 3B       		.uleb128 0x3b
 5993 0196 05       		.uleb128 0x5
 5994 0197 49       		.uleb128 0x49
 5995 0198 13       		.uleb128 0x13
 5996 0199 00       		.byte	0
 5997 019a 00       		.byte	0
 5998 019b 24       		.uleb128 0x24
 5999 019c 2E       		.uleb128 0x2e
 6000 019d 01       		.byte	0x1
 6001 019e 03       		.uleb128 0x3
 6002 019f 0E       		.uleb128 0xe
 6003 01a0 3A       		.uleb128 0x3a
 6004 01a1 0B       		.uleb128 0xb
 6005 01a2 3B       		.uleb128 0x3b
 6006 01a3 05       		.uleb128 0x5
 6007 01a4 27       		.uleb128 0x27
 6008 01a5 19       		.uleb128 0x19
 6009 01a6 20       		.uleb128 0x20
 6010 01a7 0B       		.uleb128 0xb
 6011 01a8 01       		.uleb128 0x1
 6012 01a9 13       		.uleb128 0x13
 6013 01aa 00       		.byte	0
 6014 01ab 00       		.byte	0
 6015 01ac 25       		.uleb128 0x25
 6016 01ad 05       		.uleb128 0x5
 6017 01ae 00       		.byte	0
 6018 01af 03       		.uleb128 0x3
 6019 01b0 0E       		.uleb128 0xe
 6020 01b1 3A       		.uleb128 0x3a
 6021 01b2 0B       		.uleb128 0xb
 6022 01b3 3B       		.uleb128 0x3b
 6023 01b4 05       		.uleb128 0x5
 6024 01b5 49       		.uleb128 0x49
 6025 01b6 13       		.uleb128 0x13
 6026 01b7 00       		.byte	0
 6027 01b8 00       		.byte	0
 6028 01b9 26       		.uleb128 0x26
 6029 01ba 2E       		.uleb128 0x2e
 6030 01bb 00       		.byte	0
 6031 01bc 03       		.uleb128 0x3
 6032 01bd 0E       		.uleb128 0xe
 6033 01be 3A       		.uleb128 0x3a
 6034 01bf 0B       		.uleb128 0xb
 6035 01c0 3B       		.uleb128 0x3b
 6036 01c1 0B       		.uleb128 0xb
 6037 01c2 27       		.uleb128 0x27
 6038 01c3 19       		.uleb128 0x19
 6039 01c4 20       		.uleb128 0x20
 6040 01c5 0B       		.uleb128 0xb
 6041 01c6 00       		.byte	0
 6042 01c7 00       		.byte	0
 6043 01c8 27       		.uleb128 0x27
 6044 01c9 2E       		.uleb128 0x2e
 6045 01ca 01       		.byte	0x1
 6046 01cb 3F       		.uleb128 0x3f
 6047 01cc 19       		.uleb128 0x19
 6048 01cd 03       		.uleb128 0x3
ARM GAS  C:\Users\rober\AppData\Local\Temp\ccBCZTBX.s 			page 175


 6049 01ce 0E       		.uleb128 0xe
 6050 01cf 3A       		.uleb128 0x3a
 6051 01d0 0B       		.uleb128 0xb
 6052 01d1 3B       		.uleb128 0x3b
 6053 01d2 0B       		.uleb128 0xb
 6054 01d3 27       		.uleb128 0x27
 6055 01d4 19       		.uleb128 0x19
 6056 01d5 11       		.uleb128 0x11
 6057 01d6 01       		.uleb128 0x1
 6058 01d7 12       		.uleb128 0x12
 6059 01d8 06       		.uleb128 0x6
 6060 01d9 40       		.uleb128 0x40
 6061 01da 18       		.uleb128 0x18
 6062 01db 9742     		.uleb128 0x2117
 6063 01dd 19       		.uleb128 0x19
 6064 01de 01       		.uleb128 0x1
 6065 01df 13       		.uleb128 0x13
 6066 01e0 00       		.byte	0
 6067 01e1 00       		.byte	0
 6068 01e2 28       		.uleb128 0x28
 6069 01e3 05       		.uleb128 0x5
 6070 01e4 00       		.byte	0
 6071 01e5 03       		.uleb128 0x3
 6072 01e6 0E       		.uleb128 0xe
 6073 01e7 3A       		.uleb128 0x3a
 6074 01e8 0B       		.uleb128 0xb
 6075 01e9 3B       		.uleb128 0x3b
 6076 01ea 0B       		.uleb128 0xb
 6077 01eb 49       		.uleb128 0x49
 6078 01ec 13       		.uleb128 0x13
 6079 01ed 02       		.uleb128 0x2
 6080 01ee 17       		.uleb128 0x17
 6081 01ef 00       		.byte	0
 6082 01f0 00       		.byte	0
 6083 01f1 29       		.uleb128 0x29
 6084 01f2 34       		.uleb128 0x34
 6085 01f3 00       		.byte	0
 6086 01f4 03       		.uleb128 0x3
 6087 01f5 0E       		.uleb128 0xe
 6088 01f6 3A       		.uleb128 0x3a
 6089 01f7 0B       		.uleb128 0xb
 6090 01f8 3B       		.uleb128 0x3b
 6091 01f9 0B       		.uleb128 0xb
 6092 01fa 49       		.uleb128 0x49
 6093 01fb 13       		.uleb128 0x13
 6094 01fc 02       		.uleb128 0x2
 6095 01fd 17       		.uleb128 0x17
 6096 01fe 00       		.byte	0
 6097 01ff 00       		.byte	0
 6098 0200 2A       		.uleb128 0x2a
 6099 0201 898201   		.uleb128 0x4109
 6100 0204 00       		.byte	0
 6101 0205 11       		.uleb128 0x11
 6102 0206 01       		.uleb128 0x1
 6103 0207 31       		.uleb128 0x31
 6104 0208 13       		.uleb128 0x13
 6105 0209 00       		.byte	0
ARM GAS  C:\Users\rober\AppData\Local\Temp\ccBCZTBX.s 			page 176


 6106 020a 00       		.byte	0
 6107 020b 2B       		.uleb128 0x2b
 6108 020c 898201   		.uleb128 0x4109
 6109 020f 01       		.byte	0x1
 6110 0210 11       		.uleb128 0x11
 6111 0211 01       		.uleb128 0x1
 6112 0212 31       		.uleb128 0x31
 6113 0213 13       		.uleb128 0x13
 6114 0214 01       		.uleb128 0x1
 6115 0215 13       		.uleb128 0x13
 6116 0216 00       		.byte	0
 6117 0217 00       		.byte	0
 6118 0218 2C       		.uleb128 0x2c
 6119 0219 8A8201   		.uleb128 0x410a
 6120 021c 00       		.byte	0
 6121 021d 02       		.uleb128 0x2
 6122 021e 18       		.uleb128 0x18
 6123 021f 9142     		.uleb128 0x2111
 6124 0221 18       		.uleb128 0x18
 6125 0222 00       		.byte	0
 6126 0223 00       		.byte	0
 6127 0224 2D       		.uleb128 0x2d
 6128 0225 898201   		.uleb128 0x4109
 6129 0228 01       		.byte	0x1
 6130 0229 11       		.uleb128 0x11
 6131 022a 01       		.uleb128 0x1
 6132 022b 31       		.uleb128 0x31
 6133 022c 13       		.uleb128 0x13
 6134 022d 00       		.byte	0
 6135 022e 00       		.byte	0
 6136 022f 2E       		.uleb128 0x2e
 6137 0230 2E       		.uleb128 0x2e
 6138 0231 01       		.byte	0x1
 6139 0232 3F       		.uleb128 0x3f
 6140 0233 19       		.uleb128 0x19
 6141 0234 03       		.uleb128 0x3
 6142 0235 0E       		.uleb128 0xe
 6143 0236 3A       		.uleb128 0x3a
 6144 0237 0B       		.uleb128 0xb
 6145 0238 3B       		.uleb128 0x3b
 6146 0239 05       		.uleb128 0x5
 6147 023a 27       		.uleb128 0x27
 6148 023b 19       		.uleb128 0x19
 6149 023c 11       		.uleb128 0x11
 6150 023d 01       		.uleb128 0x1
 6151 023e 12       		.uleb128 0x12
 6152 023f 06       		.uleb128 0x6
 6153 0240 40       		.uleb128 0x40
 6154 0241 18       		.uleb128 0x18
 6155 0242 9742     		.uleb128 0x2117
 6156 0244 19       		.uleb128 0x19
 6157 0245 01       		.uleb128 0x1
 6158 0246 13       		.uleb128 0x13
 6159 0247 00       		.byte	0
 6160 0248 00       		.byte	0
 6161 0249 2F       		.uleb128 0x2f
 6162 024a 1D       		.uleb128 0x1d
ARM GAS  C:\Users\rober\AppData\Local\Temp\ccBCZTBX.s 			page 177


 6163 024b 01       		.byte	0x1
 6164 024c 31       		.uleb128 0x31
 6165 024d 13       		.uleb128 0x13
 6166 024e 11       		.uleb128 0x11
 6167 024f 01       		.uleb128 0x1
 6168 0250 12       		.uleb128 0x12
 6169 0251 06       		.uleb128 0x6
 6170 0252 58       		.uleb128 0x58
 6171 0253 0B       		.uleb128 0xb
 6172 0254 59       		.uleb128 0x59
 6173 0255 05       		.uleb128 0x5
 6174 0256 01       		.uleb128 0x1
 6175 0257 13       		.uleb128 0x13
 6176 0258 00       		.byte	0
 6177 0259 00       		.byte	0
 6178 025a 30       		.uleb128 0x30
 6179 025b 05       		.uleb128 0x5
 6180 025c 00       		.byte	0
 6181 025d 31       		.uleb128 0x31
 6182 025e 13       		.uleb128 0x13
 6183 025f 02       		.uleb128 0x2
 6184 0260 17       		.uleb128 0x17
 6185 0261 00       		.byte	0
 6186 0262 00       		.byte	0
 6187 0263 31       		.uleb128 0x31
 6188 0264 0B       		.uleb128 0xb
 6189 0265 01       		.byte	0x1
 6190 0266 11       		.uleb128 0x11
 6191 0267 01       		.uleb128 0x1
 6192 0268 12       		.uleb128 0x12
 6193 0269 06       		.uleb128 0x6
 6194 026a 00       		.byte	0
 6195 026b 00       		.byte	0
 6196 026c 32       		.uleb128 0x32
 6197 026d 34       		.uleb128 0x34
 6198 026e 00       		.byte	0
 6199 026f 03       		.uleb128 0x3
 6200 0270 08       		.uleb128 0x8
 6201 0271 3A       		.uleb128 0x3a
 6202 0272 0B       		.uleb128 0xb
 6203 0273 3B       		.uleb128 0x3b
 6204 0274 05       		.uleb128 0x5
 6205 0275 49       		.uleb128 0x49
 6206 0276 13       		.uleb128 0x13
 6207 0277 02       		.uleb128 0x2
 6208 0278 17       		.uleb128 0x17
 6209 0279 00       		.byte	0
 6210 027a 00       		.byte	0
 6211 027b 33       		.uleb128 0x33
 6212 027c 34       		.uleb128 0x34
 6213 027d 00       		.byte	0
 6214 027e 03       		.uleb128 0x3
 6215 027f 0E       		.uleb128 0xe
 6216 0280 3A       		.uleb128 0x3a
 6217 0281 0B       		.uleb128 0xb
 6218 0282 3B       		.uleb128 0x3b
 6219 0283 05       		.uleb128 0x5
ARM GAS  C:\Users\rober\AppData\Local\Temp\ccBCZTBX.s 			page 178


 6220 0284 49       		.uleb128 0x49
 6221 0285 13       		.uleb128 0x13
 6222 0286 02       		.uleb128 0x2
 6223 0287 18       		.uleb128 0x18
 6224 0288 00       		.byte	0
 6225 0289 00       		.byte	0
 6226 028a 34       		.uleb128 0x34
 6227 028b 1D       		.uleb128 0x1d
 6228 028c 01       		.byte	0x1
 6229 028d 31       		.uleb128 0x31
 6230 028e 13       		.uleb128 0x13
 6231 028f 11       		.uleb128 0x11
 6232 0290 01       		.uleb128 0x1
 6233 0291 12       		.uleb128 0x12
 6234 0292 06       		.uleb128 0x6
 6235 0293 58       		.uleb128 0x58
 6236 0294 0B       		.uleb128 0xb
 6237 0295 59       		.uleb128 0x59
 6238 0296 0B       		.uleb128 0xb
 6239 0297 01       		.uleb128 0x1
 6240 0298 13       		.uleb128 0x13
 6241 0299 00       		.byte	0
 6242 029a 00       		.byte	0
 6243 029b 35       		.uleb128 0x35
 6244 029c 05       		.uleb128 0x5
 6245 029d 00       		.byte	0
 6246 029e 31       		.uleb128 0x31
 6247 029f 13       		.uleb128 0x13
 6248 02a0 1C       		.uleb128 0x1c
 6249 02a1 0B       		.uleb128 0xb
 6250 02a2 00       		.byte	0
 6251 02a3 00       		.byte	0
 6252 02a4 36       		.uleb128 0x36
 6253 02a5 05       		.uleb128 0x5
 6254 02a6 00       		.byte	0
 6255 02a7 31       		.uleb128 0x31
 6256 02a8 13       		.uleb128 0x13
 6257 02a9 1C       		.uleb128 0x1c
 6258 02aa 06       		.uleb128 0x6
 6259 02ab 00       		.byte	0
 6260 02ac 00       		.byte	0
 6261 02ad 37       		.uleb128 0x37
 6262 02ae 2E       		.uleb128 0x2e
 6263 02af 01       		.byte	0x1
 6264 02b0 3F       		.uleb128 0x3f
 6265 02b1 19       		.uleb128 0x19
 6266 02b2 03       		.uleb128 0x3
 6267 02b3 0E       		.uleb128 0xe
 6268 02b4 3A       		.uleb128 0x3a
 6269 02b5 0B       		.uleb128 0xb
 6270 02b6 3B       		.uleb128 0x3b
 6271 02b7 0B       		.uleb128 0xb
 6272 02b8 11       		.uleb128 0x11
 6273 02b9 01       		.uleb128 0x1
 6274 02ba 12       		.uleb128 0x12
 6275 02bb 06       		.uleb128 0x6
 6276 02bc 40       		.uleb128 0x40
ARM GAS  C:\Users\rober\AppData\Local\Temp\ccBCZTBX.s 			page 179


 6277 02bd 18       		.uleb128 0x18
 6278 02be 9742     		.uleb128 0x2117
 6279 02c0 19       		.uleb128 0x19
 6280 02c1 01       		.uleb128 0x1
 6281 02c2 13       		.uleb128 0x13
 6282 02c3 00       		.byte	0
 6283 02c4 00       		.byte	0
 6284 02c5 38       		.uleb128 0x38
 6285 02c6 34       		.uleb128 0x34
 6286 02c7 00       		.byte	0
 6287 02c8 03       		.uleb128 0x3
 6288 02c9 0E       		.uleb128 0xe
 6289 02ca 3A       		.uleb128 0x3a
 6290 02cb 0B       		.uleb128 0xb
 6291 02cc 3B       		.uleb128 0x3b
 6292 02cd 05       		.uleb128 0x5
 6293 02ce 49       		.uleb128 0x49
 6294 02cf 13       		.uleb128 0x13
 6295 02d0 02       		.uleb128 0x2
 6296 02d1 17       		.uleb128 0x17
 6297 02d2 00       		.byte	0
 6298 02d3 00       		.byte	0
 6299 02d4 39       		.uleb128 0x39
 6300 02d5 34       		.uleb128 0x34
 6301 02d6 00       		.byte	0
 6302 02d7 34       		.uleb128 0x34
 6303 02d8 19       		.uleb128 0x19
 6304 02d9 49       		.uleb128 0x49
 6305 02da 13       		.uleb128 0x13
 6306 02db 02       		.uleb128 0x2
 6307 02dc 17       		.uleb128 0x17
 6308 02dd 00       		.byte	0
 6309 02de 00       		.byte	0
 6310 02df 3A       		.uleb128 0x3a
 6311 02e0 0B       		.uleb128 0xb
 6312 02e1 01       		.byte	0x1
 6313 02e2 55       		.uleb128 0x55
 6314 02e3 17       		.uleb128 0x17
 6315 02e4 01       		.uleb128 0x1
 6316 02e5 13       		.uleb128 0x13
 6317 02e6 00       		.byte	0
 6318 02e7 00       		.byte	0
 6319 02e8 3B       		.uleb128 0x3b
 6320 02e9 0B       		.uleb128 0xb
 6321 02ea 01       		.byte	0x1
 6322 02eb 11       		.uleb128 0x11
 6323 02ec 01       		.uleb128 0x1
 6324 02ed 12       		.uleb128 0x12
 6325 02ee 06       		.uleb128 0x6
 6326 02ef 01       		.uleb128 0x1
 6327 02f0 13       		.uleb128 0x13
 6328 02f1 00       		.byte	0
 6329 02f2 00       		.byte	0
 6330 02f3 3C       		.uleb128 0x3c
 6331 02f4 21       		.uleb128 0x21
 6332 02f5 00       		.byte	0
 6333 02f6 49       		.uleb128 0x49
ARM GAS  C:\Users\rober\AppData\Local\Temp\ccBCZTBX.s 			page 180


 6334 02f7 13       		.uleb128 0x13
 6335 02f8 2F       		.uleb128 0x2f
 6336 02f9 13       		.uleb128 0x13
 6337 02fa 00       		.byte	0
 6338 02fb 00       		.byte	0
 6339 02fc 3D       		.uleb128 0x3d
 6340 02fd 2E       		.uleb128 0x2e
 6341 02fe 01       		.byte	0x1
 6342 02ff 3F       		.uleb128 0x3f
 6343 0300 19       		.uleb128 0x19
 6344 0301 03       		.uleb128 0x3
 6345 0302 0E       		.uleb128 0xe
 6346 0303 3A       		.uleb128 0x3a
 6347 0304 0B       		.uleb128 0xb
 6348 0305 3B       		.uleb128 0x3b
 6349 0306 05       		.uleb128 0x5
 6350 0307 11       		.uleb128 0x11
 6351 0308 01       		.uleb128 0x1
 6352 0309 12       		.uleb128 0x12
 6353 030a 06       		.uleb128 0x6
 6354 030b 40       		.uleb128 0x40
 6355 030c 18       		.uleb128 0x18
 6356 030d 9742     		.uleb128 0x2117
 6357 030f 19       		.uleb128 0x19
 6358 0310 01       		.uleb128 0x1
 6359 0311 13       		.uleb128 0x13
 6360 0312 00       		.byte	0
 6361 0313 00       		.byte	0
 6362 0314 3E       		.uleb128 0x3e
 6363 0315 1D       		.uleb128 0x1d
 6364 0316 00       		.byte	0
 6365 0317 31       		.uleb128 0x31
 6366 0318 13       		.uleb128 0x13
 6367 0319 11       		.uleb128 0x11
 6368 031a 01       		.uleb128 0x1
 6369 031b 12       		.uleb128 0x12
 6370 031c 06       		.uleb128 0x6
 6371 031d 58       		.uleb128 0x58
 6372 031e 0B       		.uleb128 0xb
 6373 031f 59       		.uleb128 0x59
 6374 0320 05       		.uleb128 0x5
 6375 0321 00       		.byte	0
 6376 0322 00       		.byte	0
 6377 0323 3F       		.uleb128 0x3f
 6378 0324 2E       		.uleb128 0x2e
 6379 0325 01       		.byte	0x1
 6380 0326 3F       		.uleb128 0x3f
 6381 0327 19       		.uleb128 0x19
 6382 0328 03       		.uleb128 0x3
 6383 0329 0E       		.uleb128 0xe
 6384 032a 3A       		.uleb128 0x3a
 6385 032b 0B       		.uleb128 0xb
 6386 032c 3B       		.uleb128 0x3b
 6387 032d 05       		.uleb128 0x5
 6388 032e 27       		.uleb128 0x27
 6389 032f 19       		.uleb128 0x19
 6390 0330 49       		.uleb128 0x49
ARM GAS  C:\Users\rober\AppData\Local\Temp\ccBCZTBX.s 			page 181


 6391 0331 13       		.uleb128 0x13
 6392 0332 8701     		.uleb128 0x87
 6393 0334 19       		.uleb128 0x19
 6394 0335 11       		.uleb128 0x11
 6395 0336 01       		.uleb128 0x1
 6396 0337 12       		.uleb128 0x12
 6397 0338 06       		.uleb128 0x6
 6398 0339 40       		.uleb128 0x40
 6399 033a 18       		.uleb128 0x18
 6400 033b 9742     		.uleb128 0x2117
 6401 033d 19       		.uleb128 0x19
 6402 033e 01       		.uleb128 0x1
 6403 033f 13       		.uleb128 0x13
 6404 0340 00       		.byte	0
 6405 0341 00       		.byte	0
 6406 0342 40       		.uleb128 0x40
 6407 0343 34       		.uleb128 0x34
 6408 0344 00       		.byte	0
 6409 0345 03       		.uleb128 0x3
 6410 0346 0E       		.uleb128 0xe
 6411 0347 3A       		.uleb128 0x3a
 6412 0348 0B       		.uleb128 0xb
 6413 0349 3B       		.uleb128 0x3b
 6414 034a 05       		.uleb128 0x5
 6415 034b 49       		.uleb128 0x49
 6416 034c 13       		.uleb128 0x13
 6417 034d 1C       		.uleb128 0x1c
 6418 034e 0B       		.uleb128 0xb
 6419 034f 00       		.byte	0
 6420 0350 00       		.byte	0
 6421 0351 41       		.uleb128 0x41
 6422 0352 34       		.uleb128 0x34
 6423 0353 00       		.byte	0
 6424 0354 03       		.uleb128 0x3
 6425 0355 0E       		.uleb128 0xe
 6426 0356 3A       		.uleb128 0x3a
 6427 0357 0B       		.uleb128 0xb
 6428 0358 3B       		.uleb128 0x3b
 6429 0359 05       		.uleb128 0x5
 6430 035a 49       		.uleb128 0x49
 6431 035b 13       		.uleb128 0x13
 6432 035c 3F       		.uleb128 0x3f
 6433 035d 19       		.uleb128 0x19
 6434 035e 3C       		.uleb128 0x3c
 6435 035f 19       		.uleb128 0x19
 6436 0360 00       		.byte	0
 6437 0361 00       		.byte	0
 6438 0362 42       		.uleb128 0x42
 6439 0363 34       		.uleb128 0x34
 6440 0364 00       		.byte	0
 6441 0365 03       		.uleb128 0x3
 6442 0366 0E       		.uleb128 0xe
 6443 0367 3A       		.uleb128 0x3a
 6444 0368 0B       		.uleb128 0xb
 6445 0369 3B       		.uleb128 0x3b
 6446 036a 0B       		.uleb128 0xb
 6447 036b 49       		.uleb128 0x49
ARM GAS  C:\Users\rober\AppData\Local\Temp\ccBCZTBX.s 			page 182


 6448 036c 13       		.uleb128 0x13
 6449 036d 3F       		.uleb128 0x3f
 6450 036e 19       		.uleb128 0x19
 6451 036f 3C       		.uleb128 0x3c
 6452 0370 19       		.uleb128 0x19
 6453 0371 00       		.byte	0
 6454 0372 00       		.byte	0
 6455 0373 43       		.uleb128 0x43
 6456 0374 34       		.uleb128 0x34
 6457 0375 00       		.byte	0
 6458 0376 03       		.uleb128 0x3
 6459 0377 0E       		.uleb128 0xe
 6460 0378 3A       		.uleb128 0x3a
 6461 0379 0B       		.uleb128 0xb
 6462 037a 3B       		.uleb128 0x3b
 6463 037b 0B       		.uleb128 0xb
 6464 037c 49       		.uleb128 0x49
 6465 037d 13       		.uleb128 0x13
 6466 037e 3F       		.uleb128 0x3f
 6467 037f 19       		.uleb128 0x19
 6468 0380 02       		.uleb128 0x2
 6469 0381 18       		.uleb128 0x18
 6470 0382 00       		.byte	0
 6471 0383 00       		.byte	0
 6472 0384 44       		.uleb128 0x44
 6473 0385 34       		.uleb128 0x34
 6474 0386 00       		.byte	0
 6475 0387 03       		.uleb128 0x3
 6476 0388 0E       		.uleb128 0xe
 6477 0389 3A       		.uleb128 0x3a
 6478 038a 0B       		.uleb128 0xb
 6479 038b 3B       		.uleb128 0x3b
 6480 038c 05       		.uleb128 0x5
 6481 038d 49       		.uleb128 0x49
 6482 038e 13       		.uleb128 0x13
 6483 038f 3F       		.uleb128 0x3f
 6484 0390 19       		.uleb128 0x19
 6485 0391 02       		.uleb128 0x2
 6486 0392 18       		.uleb128 0x18
 6487 0393 00       		.byte	0
 6488 0394 00       		.byte	0
 6489 0395 45       		.uleb128 0x45
 6490 0396 2E       		.uleb128 0x2e
 6491 0397 00       		.byte	0
 6492 0398 3F       		.uleb128 0x3f
 6493 0399 19       		.uleb128 0x19
 6494 039a 3C       		.uleb128 0x3c
 6495 039b 19       		.uleb128 0x19
 6496 039c 6E       		.uleb128 0x6e
 6497 039d 0E       		.uleb128 0xe
 6498 039e 03       		.uleb128 0x3
 6499 039f 0E       		.uleb128 0xe
 6500 03a0 3A       		.uleb128 0x3a
 6501 03a1 0B       		.uleb128 0xb
 6502 03a2 3B       		.uleb128 0x3b
 6503 03a3 0B       		.uleb128 0xb
 6504 03a4 00       		.byte	0
ARM GAS  C:\Users\rober\AppData\Local\Temp\ccBCZTBX.s 			page 183


 6505 03a5 00       		.byte	0
 6506 03a6 46       		.uleb128 0x46
 6507 03a7 2E       		.uleb128 0x2e
 6508 03a8 00       		.byte	0
 6509 03a9 3F       		.uleb128 0x3f
 6510 03aa 19       		.uleb128 0x19
 6511 03ab 3C       		.uleb128 0x3c
 6512 03ac 19       		.uleb128 0x19
 6513 03ad 6E       		.uleb128 0x6e
 6514 03ae 0E       		.uleb128 0xe
 6515 03af 03       		.uleb128 0x3
 6516 03b0 0E       		.uleb128 0xe
 6517 03b1 00       		.byte	0
 6518 03b2 00       		.byte	0
 6519 03b3 47       		.uleb128 0x47
 6520 03b4 2E       		.uleb128 0x2e
 6521 03b5 00       		.byte	0
 6522 03b6 3F       		.uleb128 0x3f
 6523 03b7 19       		.uleb128 0x19
 6524 03b8 3C       		.uleb128 0x3c
 6525 03b9 19       		.uleb128 0x19
 6526 03ba 6E       		.uleb128 0x6e
 6527 03bb 0E       		.uleb128 0xe
 6528 03bc 03       		.uleb128 0x3
 6529 03bd 0E       		.uleb128 0xe
 6530 03be 3A       		.uleb128 0x3a
 6531 03bf 0B       		.uleb128 0xb
 6532 03c0 3B       		.uleb128 0x3b
 6533 03c1 05       		.uleb128 0x5
 6534 03c2 00       		.byte	0
 6535 03c3 00       		.byte	0
 6536 03c4 00       		.byte	0
 6537              		.section	.debug_loc,"",%progbits
 6538              	.Ldebug_loc0:
 6539              	.LLST0:
 6540 0000 00000000 		.4byte	.LVL0
 6541 0004 09000000 		.4byte	.LVL1-1
 6542 0008 0100     		.2byte	0x1
 6543 000a 50       		.byte	0x50
 6544 000b 09000000 		.4byte	.LVL1-1
 6545 000f 2C000000 		.4byte	.LFE604
 6546 0013 0400     		.2byte	0x4
 6547 0015 F3       		.byte	0xf3
 6548 0016 01       		.uleb128 0x1
 6549 0017 50       		.byte	0x50
 6550 0018 9F       		.byte	0x9f
 6551 0019 00000000 		.4byte	0
 6552 001d 00000000 		.4byte	0
 6553              	.LLST1:
 6554 0021 00000000 		.4byte	.LVL0
 6555 0025 09000000 		.4byte	.LVL1-1
 6556 0029 0100     		.2byte	0x1
 6557 002b 51       		.byte	0x51
 6558 002c 09000000 		.4byte	.LVL1-1
 6559 0030 2C000000 		.4byte	.LFE604
 6560 0034 0400     		.2byte	0x4
 6561 0036 F3       		.byte	0xf3
ARM GAS  C:\Users\rober\AppData\Local\Temp\ccBCZTBX.s 			page 184


 6562 0037 01       		.uleb128 0x1
 6563 0038 51       		.byte	0x51
 6564 0039 9F       		.byte	0x9f
 6565 003a 00000000 		.4byte	0
 6566 003e 00000000 		.4byte	0
 6567              	.LLST2:
 6568 0042 0C000000 		.4byte	.LVL2
 6569 0046 16000000 		.4byte	.LVL3
 6570 004a 0100     		.2byte	0x1
 6571 004c 50       		.byte	0x50
 6572 004d 16000000 		.4byte	.LVL3
 6573 0051 19000000 		.4byte	.LVL4-1
 6574 0055 0100     		.2byte	0x1
 6575 0057 51       		.byte	0x51
 6576 0058 19000000 		.4byte	.LVL4-1
 6577 005c 28000000 		.4byte	.LVL6
 6578 0060 0100     		.2byte	0x1
 6579 0062 55       		.byte	0x55
 6580 0063 00000000 		.4byte	0
 6581 0067 00000000 		.4byte	0
 6582              	.LLST3:
 6583 006b 02000000 		.4byte	.LVL7
 6584 006f 0E000000 		.4byte	.LVL8
 6585 0073 0200     		.2byte	0x2
 6586 0075 31       		.byte	0x31
 6587 0076 9F       		.byte	0x9f
 6588 0077 00000000 		.4byte	0
 6589 007b 00000000 		.4byte	0
 6590              	.LLST5:
 6591 007f 02000000 		.4byte	.LVL7
 6592 0083 0E000000 		.4byte	.LVL8
 6593 0087 0600     		.2byte	0x6
 6594 0089 0C       		.byte	0xc
 6595 008a 00003840 		.4byte	0x40380000
 6596 008e 9F       		.byte	0x9f
 6597 008f 00000000 		.4byte	0
 6598 0093 00000000 		.4byte	0
 6599              	.LLST6:
 6600 0097 18000000 		.4byte	.LVL9
 6601 009b A6000000 		.4byte	.LVL14
 6602 009f 0200     		.2byte	0x2
 6603 00a1 30       		.byte	0x30
 6604 00a2 9F       		.byte	0x9f
 6605 00a3 00000000 		.4byte	0
 6606 00a7 00000000 		.4byte	0
 6607              	.LLST7:
 6608 00ab 18000000 		.4byte	.LVL9
 6609 00af A6000000 		.4byte	.LVL14
 6610 00b3 0400     		.2byte	0x4
 6611 00b5 0A       		.byte	0xa
 6612 00b6 2C01     		.2byte	0x12c
 6613 00b8 9F       		.byte	0x9f
 6614 00b9 00000000 		.4byte	0
 6615 00bd 00000000 		.4byte	0
 6616              	.LLST8:
 6617 00c1 06000000 		.4byte	.LVL31
 6618 00c5 0C000000 		.4byte	.LVL32
ARM GAS  C:\Users\rober\AppData\Local\Temp\ccBCZTBX.s 			page 185


 6619 00c9 0100     		.2byte	0x1
 6620 00cb 52       		.byte	0x52
 6621 00cc 00000000 		.4byte	0
 6622 00d0 00000000 		.4byte	0
 6623              	.LLST9:
 6624 00d4 1A000000 		.4byte	.LVL34
 6625 00d8 20000000 		.4byte	.LVL35
 6626 00dc 0100     		.2byte	0x1
 6627 00de 53       		.byte	0x53
 6628 00df 00000000 		.4byte	0
 6629 00e3 00000000 		.4byte	0
 6630              	.LLST10:
 6631 00e7 1A000000 		.4byte	.LVL34
 6632 00eb 20000000 		.4byte	.LVL35
 6633 00ef 0200     		.2byte	0x2
 6634 00f1 32       		.byte	0x32
 6635 00f2 9F       		.byte	0x9f
 6636 00f3 00000000 		.4byte	0
 6637 00f7 00000000 		.4byte	0
 6638              	.LLST11:
 6639 00fb 1A000000 		.4byte	.LVL34
 6640 00ff 20000000 		.4byte	.LVL35
 6641 0103 0600     		.2byte	0x6
 6642 0105 0C       		.byte	0xc
 6643 0106 00003840 		.4byte	0x40380000
 6644 010a 9F       		.byte	0x9f
 6645 010b 00000000 		.4byte	0
 6646 010f 00000000 		.4byte	0
 6647              	.LLST12:
 6648 0113 24000000 		.4byte	.LVL47
 6649 0117 3C000000 		.4byte	.LVL48
 6650 011b 0200     		.2byte	0x2
 6651 011d 30       		.byte	0x30
 6652 011e 9F       		.byte	0x9f
 6653 011f 3C000000 		.4byte	.LVL48
 6654 0123 92000000 		.4byte	.LVL61
 6655 0127 0100     		.2byte	0x1
 6656 0129 54       		.byte	0x54
 6657 012a 92000000 		.4byte	.LVL61
 6658 012e A0010000 		.4byte	.LVL74
 6659 0132 0300     		.2byte	0x3
 6660 0134 78       		.byte	0x78
 6661 0135 01       		.sleb128 1
 6662 0136 9F       		.byte	0x9f
 6663 0137 00000000 		.4byte	0
 6664 013b 00000000 		.4byte	0
 6665              	.LLST13:
 6666 013f 40000000 		.4byte	.LVL49
 6667 0143 A0010000 		.4byte	.LVL74
 6668 0147 0100     		.2byte	0x1
 6669 0149 58       		.byte	0x58
 6670 014a 00000000 		.4byte	0
 6671 014e 00000000 		.4byte	0
 6672              	.LLST14:
 6673 0152 4A000000 		.4byte	.LVL50
 6674 0156 A0010000 		.4byte	.LVL74
 6675 015a 0200     		.2byte	0x2
ARM GAS  C:\Users\rober\AppData\Local\Temp\ccBCZTBX.s 			page 186


 6676 015c 76       		.byte	0x76
 6677 015d 00       		.sleb128 0
 6678 015e 00000000 		.4byte	0
 6679 0162 00000000 		.4byte	0
 6680              	.LLST15:
 6681 0166 50000000 		.4byte	.LVL51
 6682 016a 66000000 		.4byte	.LVL53
 6683 016e 0100     		.2byte	0x1
 6684 0170 53       		.byte	0x53
 6685 0171 68000000 		.4byte	.LVL54
 6686 0175 6E000000 		.4byte	.LVL55
 6687 0179 0100     		.2byte	0x1
 6688 017b 53       		.byte	0x53
 6689 017c 00000000 		.4byte	0
 6690 0180 00000000 		.4byte	0
 6691              	.LLST16:
 6692 0184 74000000 		.4byte	.LVL56
 6693 0188 8A000000 		.4byte	.LVL58
 6694 018c 0100     		.2byte	0x1
 6695 018e 53       		.byte	0x53
 6696 018f 8C000000 		.4byte	.LVL59
 6697 0193 90000000 		.4byte	.LVL60
 6698 0197 0100     		.2byte	0x1
 6699 0199 53       		.byte	0x53
 6700 019a 00000000 		.4byte	0
 6701 019e 00000000 		.4byte	0
 6702              	.LLST17:
 6703 01a2 1C010000 		.4byte	.LVL64
 6704 01a6 20010000 		.4byte	.LVL65
 6705 01aa 0200     		.2byte	0x2
 6706 01ac 30       		.byte	0x30
 6707 01ad 9F       		.byte	0x9f
 6708 01ae 20010000 		.4byte	.LVL65
 6709 01b2 56010000 		.4byte	.LVL69
 6710 01b6 0100     		.2byte	0x1
 6711 01b8 54       		.byte	0x54
 6712 01b9 00000000 		.4byte	0
 6713 01bd 00000000 		.4byte	0
 6714              	.LLST18:
 6715 01c1 58010000 		.4byte	.LVL70
 6716 01c5 A0010000 		.4byte	.LVL74
 6717 01c9 0100     		.2byte	0x1
 6718 01cb 54       		.byte	0x54
 6719 01cc 00000000 		.4byte	0
 6720 01d0 00000000 		.4byte	0
 6721              	.LLST19:
 6722 01d4 2A000000 		.4byte	.LVL80
 6723 01d8 40000000 		.4byte	.LVL81
 6724 01dc 0200     		.2byte	0x2
 6725 01de 30       		.byte	0x30
 6726 01df 9F       		.byte	0x9f
 6727 01e0 40000000 		.4byte	.LVL81
 6728 01e4 DC000000 		.4byte	.LVL94
 6729 01e8 0100     		.2byte	0x1
 6730 01ea 56       		.byte	0x56
 6731 01eb 00000000 		.4byte	0
 6732 01ef 00000000 		.4byte	0
ARM GAS  C:\Users\rober\AppData\Local\Temp\ccBCZTBX.s 			page 187


 6733              	.LLST20:
 6734 01f3 46000000 		.4byte	.LVL82
 6735 01f7 DC000000 		.4byte	.LVL94
 6736 01fb 0300     		.2byte	0x3
 6737 01fd 76       		.byte	0x76
 6738 01fe 7F       		.sleb128 -1
 6739 01ff 9F       		.byte	0x9f
 6740 0200 00000000 		.4byte	0
 6741 0204 00000000 		.4byte	0
 6742              	.LLST21:
 6743 0208 50000000 		.4byte	.LVL83
 6744 020c 64010000 		.4byte	.LVL104
 6745 0210 0200     		.2byte	0x2
 6746 0212 75       		.byte	0x75
 6747 0213 00       		.sleb128 0
 6748 0214 00000000 		.4byte	0
 6749 0218 00000000 		.4byte	0
 6750              	.LLST22:
 6751 021c D6000000 		.4byte	.LVL93
 6752 0220 DE000000 		.4byte	.LVL95
 6753 0224 0100     		.2byte	0x1
 6754 0226 53       		.byte	0x53
 6755 0227 00000000 		.4byte	0
 6756 022b 00000000 		.4byte	0
 6757              	.LLST23:
 6758 022f 68000000 		.4byte	.LVL84
 6759 0233 84000000 		.4byte	.LVL86
 6760 0237 0100     		.2byte	0x1
 6761 0239 53       		.byte	0x53
 6762 023a 00000000 		.4byte	0
 6763 023e 00000000 		.4byte	0
 6764              	.LLST24:
 6765 0242 8E000000 		.4byte	.LVL87
 6766 0246 A8000000 		.4byte	.LVL89
 6767 024a 0100     		.2byte	0x1
 6768 024c 53       		.byte	0x53
 6769 024d 00000000 		.4byte	0
 6770 0251 00000000 		.4byte	0
 6771              	.LLST25:
 6772 0255 DC000000 		.4byte	.LVL94
 6773 0259 64010000 		.4byte	.LVL104
 6774 025d 0100     		.2byte	0x1
 6775 025f 54       		.byte	0x54
 6776 0260 00000000 		.4byte	0
 6777 0264 00000000 		.4byte	0
 6778              	.LLST26:
 6779 0268 10000000 		.4byte	.LVL106
 6780 026c 26000000 		.4byte	.LVL107
 6781 0270 0100     		.2byte	0x1
 6782 0272 53       		.byte	0x53
 6783 0273 00000000 		.4byte	0
 6784 0277 00000000 		.4byte	0
 6785              	.LLST27:
 6786 027b 26000000 		.4byte	.LVL107
 6787 027f 30000000 		.4byte	.LVL108
 6788 0283 0100     		.2byte	0x1
 6789 0285 53       		.byte	0x53
ARM GAS  C:\Users\rober\AppData\Local\Temp\ccBCZTBX.s 			page 188


 6790 0286 30000000 		.4byte	.LVL108
 6791 028a 3C000000 		.4byte	.LVL109
 6792 028e 0200     		.2byte	0x2
 6793 0290 74       		.byte	0x74
 6794 0291 00       		.sleb128 0
 6795 0292 00000000 		.4byte	0
 6796 0296 00000000 		.4byte	0
 6797              	.LLST28:
 6798 029a 4A000000 		.4byte	.LVL110
 6799 029e 4E000000 		.4byte	.LVL111
 6800 02a2 0200     		.2byte	0x2
 6801 02a4 32       		.byte	0x32
 6802 02a5 9F       		.byte	0x9f
 6803 02a6 00000000 		.4byte	0
 6804 02aa 00000000 		.4byte	0
 6805              	.LLST29:
 6806 02ae 4A000000 		.4byte	.LVL110
 6807 02b2 4E000000 		.4byte	.LVL111
 6808 02b6 0600     		.2byte	0x6
 6809 02b8 0C       		.byte	0xc
 6810 02b9 00003840 		.4byte	0x40380000
 6811 02bd 9F       		.byte	0x9f
 6812 02be 00000000 		.4byte	0
 6813 02c2 00000000 		.4byte	0
 6814              	.LLST30:
 6815 02c6 4E000000 		.4byte	.LVL111
 6816 02ca 54000000 		.4byte	.LVL112
 6817 02ce 0600     		.2byte	0x6
 6818 02d0 0C       		.byte	0xc
 6819 02d1 3F420F00 		.4byte	0xf423f
 6820 02d5 9F       		.byte	0x9f
 6821 02d6 00000000 		.4byte	0
 6822 02da 00000000 		.4byte	0
 6823              	.LLST31:
 6824 02de 4E000000 		.4byte	.LVL111
 6825 02e2 54000000 		.4byte	.LVL112
 6826 02e6 0200     		.2byte	0x2
 6827 02e8 31       		.byte	0x31
 6828 02e9 9F       		.byte	0x9f
 6829 02ea 00000000 		.4byte	0
 6830 02ee 00000000 		.4byte	0
 6831              	.LLST32:
 6832 02f2 4E000000 		.4byte	.LVL111
 6833 02f6 54000000 		.4byte	.LVL112
 6834 02fa 0600     		.2byte	0x6
 6835 02fc 0C       		.byte	0xc
 6836 02fd 00003840 		.4byte	0x40380000
 6837 0301 9F       		.byte	0x9f
 6838 0302 00000000 		.4byte	0
 6839 0306 00000000 		.4byte	0
 6840              	.LLST33:
 6841 030a 54000000 		.4byte	.LVL112
 6842 030e 56000000 		.4byte	.LVL113
 6843 0312 0200     		.2byte	0x2
 6844 0314 32       		.byte	0x32
 6845 0315 9F       		.byte	0x9f
 6846 0316 00000000 		.4byte	0
ARM GAS  C:\Users\rober\AppData\Local\Temp\ccBCZTBX.s 			page 189


 6847 031a 00000000 		.4byte	0
 6848              	.LLST34:
 6849 031e 54000000 		.4byte	.LVL112
 6850 0322 56000000 		.4byte	.LVL113
 6851 0326 0600     		.2byte	0x6
 6852 0328 0C       		.byte	0xc
 6853 0329 00003840 		.4byte	0x40380000
 6854 032d 9F       		.byte	0x9f
 6855 032e 00000000 		.4byte	0
 6856 0332 00000000 		.4byte	0
 6857              		.section	.debug_aranges,"",%progbits
 6858 0000 64000000 		.4byte	0x64
 6859 0004 0200     		.2byte	0x2
 6860 0006 00000000 		.4byte	.Ldebug_info0
 6861 000a 04       		.byte	0x4
 6862 000b 00       		.byte	0
 6863 000c 0000     		.2byte	0
 6864 000e 0000     		.2byte	0
 6865 0010 00000000 		.4byte	.LFB604
 6866 0014 2C000000 		.4byte	.LFE604-.LFB604
 6867 0018 00000000 		.4byte	.LFB611
 6868 001c B8000000 		.4byte	.LFE611-.LFB611
 6869 0020 00000000 		.4byte	.LFB605
 6870 0024 74000000 		.4byte	.LFE605-.LFB605
 6871 0028 00000000 		.4byte	.LFB606
 6872 002c 1E000000 		.4byte	.LFE606-.LFB606
 6873 0030 00000000 		.4byte	.LFB607
 6874 0034 AC000000 		.4byte	.LFE607-.LFB607
 6875 0038 00000000 		.4byte	.LFB608
 6876 003c 40000000 		.4byte	.LFE608-.LFB608
 6877 0040 00000000 		.4byte	.LFB609
 6878 0044 AC010000 		.4byte	.LFE609-.LFB609
 6879 0048 00000000 		.4byte	.LFB610
 6880 004c 80010000 		.4byte	.LFE610-.LFB610
 6881 0050 00000000 		.4byte	.LFB612
 6882 0054 70000000 		.4byte	.LFE612-.LFB612
 6883 0058 00000000 		.4byte	.LFB613
 6884 005c 48000000 		.4byte	.LFE613-.LFB613
 6885 0060 00000000 		.4byte	0
 6886 0064 00000000 		.4byte	0
 6887              		.section	.debug_ranges,"",%progbits
 6888              	.Ldebug_ranges0:
 6889 0000 50000000 		.4byte	.LBB30
 6890 0004 66000000 		.4byte	.LBE30
 6891 0008 68000000 		.4byte	.LBB31
 6892 000c 6E000000 		.4byte	.LBE31
 6893 0010 00000000 		.4byte	0
 6894 0014 00000000 		.4byte	0
 6895 0018 74000000 		.4byte	.LBB32
 6896 001c 8A000000 		.4byte	.LBE32
 6897 0020 8C000000 		.4byte	.LBB33
 6898 0024 90000000 		.4byte	.LBE33
 6899 0028 00000000 		.4byte	0
 6900 002c 00000000 		.4byte	0
 6901 0030 00000000 		.4byte	.LFB604
 6902 0034 2C000000 		.4byte	.LFE604
 6903 0038 00000000 		.4byte	.LFB611
ARM GAS  C:\Users\rober\AppData\Local\Temp\ccBCZTBX.s 			page 190


 6904 003c B8000000 		.4byte	.LFE611
 6905 0040 00000000 		.4byte	.LFB605
 6906 0044 74000000 		.4byte	.LFE605
 6907 0048 00000000 		.4byte	.LFB606
 6908 004c 1E000000 		.4byte	.LFE606
 6909 0050 00000000 		.4byte	.LFB607
 6910 0054 AC000000 		.4byte	.LFE607
 6911 0058 00000000 		.4byte	.LFB608
 6912 005c 40000000 		.4byte	.LFE608
 6913 0060 00000000 		.4byte	.LFB609
 6914 0064 AC010000 		.4byte	.LFE609
 6915 0068 00000000 		.4byte	.LFB610
 6916 006c 80010000 		.4byte	.LFE610
 6917 0070 00000000 		.4byte	.LFB612
 6918 0074 70000000 		.4byte	.LFE612
 6919 0078 00000000 		.4byte	.LFB613
 6920 007c 48000000 		.4byte	.LFE613
 6921 0080 00000000 		.4byte	0
 6922 0084 00000000 		.4byte	0
 6923              		.section	.debug_line,"",%progbits
 6924              	.Ldebug_line0:
 6925 0000 EF060000 		.section	.debug_str,"MS",%progbits,1
 6925      0200C904 
 6925      00000201 
 6925      FB0E0D00 
 6925      01010101 
 6926              	.LASF137:
 6927 0000 7564625F 		.ascii	"udb_interrupts_5_IRQn\000"
 6927      696E7465 
 6927      72727570 
 6927      74735F35 
 6927      5F495251 
 6928              	.LASF62:
 6929 0016 63707573 		.ascii	"cpuss_interrupts_dw0_2_IRQn\000"
 6929      735F696E 
 6929      74657272 
 6929      75707473 
 6929      5F647730 
 6930              	.LASF221:
 6931 0032 63795F73 		.ascii	"cy_stc_sysint_t\000"
 6931      74635F73 
 6931      7973696E 
 6931      745F7400 
 6932              	.LASF25:
 6933 0042 696F7373 		.ascii	"ioss_interrupt_gpio_IRQn\000"
 6933      5F696E74 
 6933      65727275 
 6933      70745F67 
 6933      70696F5F 
 6934              	.LASF259:
 6935 005b 63795F63 		.ascii	"cy_cb_scb_spi_handle_events_t\000"
 6935      625F7363 
 6935      625F7370 
 6935      695F6861 
 6935      6E646C65 
 6936              	.LASF332:
 6937 0079 74475549 		.ascii	"tGUI_ENC_APIList\000"
ARM GAS  C:\Users\rober\AppData\Local\Temp\ccBCZTBX.s 			page 191


 6937      5F454E43 
 6937      5F415049 
 6937      4C697374 
 6937      00
 6938              	.LASF123:
 6939 008a 74637077 		.ascii	"tcpwm_1_interrupts_15_IRQn\000"
 6939      6D5F315F 
 6939      696E7465 
 6939      72727570 
 6939      74735F31 
 6940              	.LASF313:
 6941 00a5 46697273 		.ascii	"First\000"
 6941      7400
 6942              	.LASF208:
 6943 00ab 434D445F 		.ascii	"CMD_CAPTURE\000"
 6943      43415054 
 6943      55524500 
 6944              	.LASF443:
 6945 00b7 6D61696E 		.ascii	"main_cm4.c\000"
 6945      5F636D34 
 6945      2E6300
 6946              	.LASF114:
 6947 00c2 74637077 		.ascii	"tcpwm_1_interrupts_6_IRQn\000"
 6947      6D5F315F 
 6947      696E7465 
 6947      72727570 
 6947      74735F36 
 6948              	.LASF421:
 6949 00dc 72616E64 		.ascii	"rand\000"
 6949      00
 6950              	.LASF142:
 6951 00e1 7564625F 		.ascii	"udb_interrupts_10_IRQn\000"
 6951      696E7465 
 6951      72727570 
 6951      74735F31 
 6951      305F4952 
 6952              	.LASF361:
 6953 00f8 62617365 		.ascii	"base\000"
 6953      00
 6954              	.LASF67:
 6955 00fd 63707573 		.ascii	"cpuss_interrupts_dw0_7_IRQn\000"
 6955      735F696E 
 6955      74657272 
 6955      75707473 
 6955      5F647730 
 6956              	.LASF418:
 6957 0119 6D617854 		.ascii	"maxTimeInGraph\000"
 6957      696D6549 
 6957      6E477261 
 6957      706800
 6958              	.LASF36:
 6959 0128 63707573 		.ascii	"cpuss_interrupts_ipc_1_IRQn\000"
 6959      735F696E 
 6959      74657272 
 6959      75707473 
 6959      5F697063 
 6960              	.LASF317:
ARM GAS  C:\Users\rober\AppData\Local\Temp\ccBCZTBX.s 			page 192


 6961 0144 4755495F 		.ascii	"GUI_FONT_PROP_EXT\000"
 6961      464F4E54 
 6961      5F50524F 
 6961      505F4558 
 6961      5400
 6962              	.LASF205:
 6963 0156 54435057 		.ascii	"TCPWM_CNT_Type\000"
 6963      4D5F434E 
 6963      545F5479 
 6963      706500
 6964              	.LASF397:
 6965 0165 496E6974 		.ascii	"Init_Interrupts\000"
 6965      5F496E74 
 6965      65727275 
 6965      70747300 
 6966              	.LASF310:
 6967 0175 59506F73 		.ascii	"YPos\000"
 6967      00
 6968              	.LASF122:
 6969 017a 74637077 		.ascii	"tcpwm_1_interrupts_14_IRQn\000"
 6969      6D5F315F 
 6969      696E7465 
 6969      72727570 
 6969      74735F31 
 6970              	.LASF84:
 6971 0195 63707573 		.ascii	"cpuss_interrupts_dw1_8_IRQn\000"
 6971      735F696E 
 6971      74657272 
 6971      75707473 
 6971      5F647731 
 6972              	.LASF257:
 6973 01b1 6B696C6C 		.ascii	"killInput\000"
 6973      496E7075 
 6973      7400
 6974              	.LASF90:
 6975 01bb 63707573 		.ascii	"cpuss_interrupts_dw1_14_IRQn\000"
 6975      735F696E 
 6975      74657272 
 6975      75707473 
 6975      5F647731 
 6976              	.LASF246:
 6977 01d8 70776D41 		.ascii	"pwmAlignment\000"
 6977      6C69676E 
 6977      6D656E74 
 6977      00
 6978              	.LASF436:
 6979 01e5 43795F53 		.ascii	"Cy_SysInt_Init\000"
 6979      7973496E 
 6979      745F496E 
 6979      697400
 6980              	.LASF364:
 6981 01f4 43795F54 		.ascii	"Cy_TCPWM_ClearInterrupt\000"
 6981      4350574D 
 6981      5F436C65 
 6981      6172496E 
 6981      74657272 
 6982              	.LASF288:
ARM GAS  C:\Users\rober\AppData\Local\Temp\ccBCZTBX.s 			page 193


 6983 020c 4755495F 		.ascii	"GUI_COLOR\000"
 6983      434F4C4F 
 6983      5200
 6984              	.LASF407:
 6985 0216 696D6167 		.ascii	"imageBufferCache\000"
 6985      65427566 
 6985      66657243 
 6985      61636865 
 6985      00
 6986              	.LASF297:
 6987 0227 42697473 		.ascii	"BitsPerPixel\000"
 6987      50657250 
 6987      6978656C 
 6987      00
 6988              	.LASF171:
 6989 0234 756E7369 		.ascii	"unsigned int\000"
 6989      676E6564 
 6989      20696E74 
 6989      00
 6990              	.LASF209:
 6991 0241 434D445F 		.ascii	"CMD_RELOAD\000"
 6991      52454C4F 
 6991      414400
 6992              	.LASF321:
 6993 024c 466C6167 		.ascii	"Flags\000"
 6993      7300
 6994              	.LASF46:
 6995 0252 63707573 		.ascii	"cpuss_interrupts_ipc_11_IRQn\000"
 6995      735F696E 
 6995      74657272 
 6995      75707473 
 6995      5F697063 
 6996              	.LASF374:
 6997 026f 706F7765 		.ascii	"powerCycle\000"
 6997      72437963 
 6997      6C6500
 6998              	.LASF212:
 6999 027a 494E5452 		.ascii	"INTR_CAUSE\000"
 6999      5F434155 
 6999      534500
 7000              	.LASF115:
 7001 0285 74637077 		.ascii	"tcpwm_1_interrupts_7_IRQn\000"
 7001      6D5F315F 
 7001      696E7465 
 7001      72727570 
 7001      74735F37 
 7002              	.LASF267:
 7003 029f 74784275 		.ascii	"txBufIdx\000"
 7003      66496478 
 7003      00
 7004              	.LASF140:
 7005 02a8 7564625F 		.ascii	"udb_interrupts_8_IRQn\000"
 7005      696E7465 
 7005      72727570 
 7005      74735F38 
 7005      5F495251 
 7006              	.LASF237:
ARM GAS  C:\Users\rober\AppData\Local\Temp\ccBCZTBX.s 			page 194


 7007 02be 73746172 		.ascii	"startInput\000"
 7007      74496E70 
 7007      757400
 7008              	.LASF165:
 7009 02c9 5F5F696E 		.ascii	"__int32_t\000"
 7009      7433325F 
 7009      7400
 7010              	.LASF33:
 7011 02d3 70617373 		.ascii	"pass_interrupt_ctbs_IRQn\000"
 7011      5F696E74 
 7011      65727275 
 7011      70745F63 
 7011      7462735F 
 7012              	.LASF306:
 7013 02ec 4755495F 		.ascii	"GUI_FONT_TRANSINFO\000"
 7013      464F4E54 
 7013      5F545241 
 7013      4E53494E 
 7013      464F00
 7014              	.LASF348:
 7015 02ff 70466F6E 		.ascii	"pFontData\000"
 7015      74446174 
 7015      6100
 7016              	.LASF30:
 7017 0309 73727373 		.ascii	"srss_interrupt_mcwdt_1_IRQn\000"
 7017      5F696E74 
 7017      65727275 
 7017      70745F6D 
 7017      63776474 
 7018              	.LASF355:
 7019 0325 43595F45 		.ascii	"CY_EINK_FULL_4STAGE\000"
 7019      494E4B5F 
 7019      46554C4C 
 7019      5F345354 
 7019      41474500 
 7020              	.LASF12:
 7021 0339 696F7373 		.ascii	"ioss_interrupts_gpio_2_IRQn\000"
 7021      5F696E74 
 7021      65727275 
 7021      7074735F 
 7021      6770696F 
 7022              	.LASF73:
 7023 0355 63707573 		.ascii	"cpuss_interrupts_dw0_13_IRQn\000"
 7023      735F696E 
 7023      74657272 
 7023      75707473 
 7023      5F647730 
 7024              	.LASF158:
 7025 0372 73686F72 		.ascii	"short int\000"
 7025      7420696E 
 7025      7400
 7026              	.LASF131:
 7027 037c 74637077 		.ascii	"tcpwm_1_interrupts_23_IRQn\000"
 7027      6D5F315F 
 7027      696E7465 
 7027      72727570 
 7027      74735F32 
ARM GAS  C:\Users\rober\AppData\Local\Temp\ccBCZTBX.s 			page 195


 7028              	.LASF129:
 7029 0397 74637077 		.ascii	"tcpwm_1_interrupts_21_IRQn\000"
 7029      6D5F315F 
 7029      696E7465 
 7029      72727570 
 7029      74735F32 
 7030              	.LASF245:
 7031 03b2 70776D4D 		.ascii	"pwmMode\000"
 7031      6F646500 
 7032              	.LASF107:
 7033 03ba 74637077 		.ascii	"tcpwm_0_interrupts_7_IRQn\000"
 7033      6D5F305F 
 7033      696E7465 
 7033      72727570 
 7033      74735F37 
 7034              	.LASF202:
 7035 03d4 494E5452 		.ascii	"INTR_SET\000"
 7035      5F534554 
 7035      00
 7036              	.LASF401:
 7037 03dd 43595F45 		.ascii	"CY_EINK_SPIM_context\000"
 7037      494E4B5F 
 7037      5350494D 
 7037      5F636F6E 
 7037      74657874 
 7038              	.LASF357:
 7039 03f2 63795F65 		.ascii	"cy_eink_update_t\000"
 7039      696E6B5F 
 7039      75706461 
 7039      74655F74 
 7039      00
 7040              	.LASF76:
 7041 0403 63707573 		.ascii	"cpuss_interrupts_dw1_0_IRQn\000"
 7041      735F696E 
 7041      74657272 
 7041      75707473 
 7041      5F647731 
 7042              	.LASF146:
 7043 041f 7564625F 		.ascii	"udb_interrupts_14_IRQn\000"
 7043      696E7465 
 7043      72727570 
 7043      74735F31 
 7043      345F4952 
 7044              	.LASF277:
 7045 0436 744C4344 		.ascii	"tLCDDEV_Color2Index\000"
 7045      4445565F 
 7045      436F6C6F 
 7045      7232496E 
 7045      64657800 
 7046              	.LASF298:
 7047 044a 70446174 		.ascii	"pData\000"
 7047      6100
 7048              	.LASF102:
 7049 0450 74637077 		.ascii	"tcpwm_0_interrupts_2_IRQn\000"
 7049      6D5F305F 
 7049      696E7465 
 7049      72727570 
ARM GAS  C:\Users\rober\AppData\Local\Temp\ccBCZTBX.s 			page 196


 7049      74735F32 
 7050              	.LASF8:
 7051 046a 50656E64 		.ascii	"PendSV_IRQn\000"
 7051      53565F49 
 7051      52516E00 
 7052              	.LASF283:
 7053 0476 70664765 		.ascii	"pfGetIndexMask\000"
 7053      74496E64 
 7053      65784D61 
 7053      736B00
 7054              	.LASF229:
 7055 0485 636F6D70 		.ascii	"compare1\000"
 7055      61726531 
 7055      00
 7056              	.LASF438:
 7057 048e 50574D5F 		.ascii	"PWM_Start\000"
 7057      53746172 
 7057      7400
 7058              	.LASF442:
 7059 0498 474E5520 		.ascii	"GNU C11 5.4.1 20160609 (release) [ARM/embedded-5-br"
 7059      43313120 
 7059      352E342E 
 7059      31203230 
 7059      31363036 
 7060 04cb 616E6368 		.ascii	"anch revision 237715] -mcpu=cortex-m4 -mfloat-abi=s"
 7060      20726576 
 7060      6973696F 
 7060      6E203233 
 7060      37373135 
 7061 04fe 6F667466 		.ascii	"oftfp -mfpu=fpv4-sp-d16 -mthumb -g -Og -ffunction-s"
 7061      70202D6D 
 7061      6670753D 
 7061      66707634 
 7061      2D73702D 
 7062 0531 65637469 		.ascii	"ections -ffat-lto-objects\000"
 7062      6F6E7320 
 7062      2D666661 
 7062      742D6C74 
 7062      6F2D6F62 
 7063              	.LASF196:
 7064 054b 52455345 		.ascii	"RESERVED\000"
 7064      52564544 
 7064      00
 7065              	.LASF244:
 7066 0554 63795F73 		.ascii	"cy_stc_tcpwm_pwm_config\000"
 7066      74635F74 
 7066      6370776D 
 7066      5F70776D 
 7066      5F636F6E 
 7067              	.LASF287:
 7068 056c 4C43445F 		.ascii	"LCD_API_COLOR_CONV\000"
 7068      4150495F 
 7068      434F4C4F 
 7068      525F434F 
 7068      4E5600
 7069              	.LASF139:
 7070 057f 7564625F 		.ascii	"udb_interrupts_7_IRQn\000"
ARM GAS  C:\Users\rober\AppData\Local\Temp\ccBCZTBX.s 			page 197


 7070      696E7465 
 7070      72727570 
 7070      74735F37 
 7070      5F495251 
 7071              	.LASF28:
 7072 0595 7363625F 		.ascii	"scb_8_interrupt_IRQn\000"
 7072      385F696E 
 7072      74657272 
 7072      7570745F 
 7072      4952516E 
 7073              	.LASF415:
 7074 05aa 6C656164 		.ascii	"leadData\000"
 7074      44617461 
 7074      00
 7075              	.LASF3:
 7076 05b3 4D656D6F 		.ascii	"MemoryManagement_IRQn\000"
 7076      72794D61 
 7076      6E616765 
 7076      6D656E74 
 7076      5F495251 
 7077              	.LASF381:
 7078 05c9 53686F77 		.ascii	"ShowStartupScreen\000"
 7078      53746172 
 7078      74757053 
 7078      63726565 
 7078      6E00
 7079              	.LASF125:
 7080 05db 74637077 		.ascii	"tcpwm_1_interrupts_17_IRQn\000"
 7080      6D5F315F 
 7080      696E7465 
 7080      72727570 
 7080      74735F31 
 7081              	.LASF134:
 7082 05f6 7564625F 		.ascii	"udb_interrupts_2_IRQn\000"
 7082      696E7465 
 7082      72727570 
 7082      74735F32 
 7082      5F495251 
 7083              	.LASF231:
 7084 060c 696E7465 		.ascii	"interruptSources\000"
 7084      72727570 
 7084      74536F75 
 7084      72636573 
 7084      00
 7085              	.LASF387:
 7086 061d 78417869 		.ascii	"xAxisLabels\000"
 7086      734C6162 
 7086      656C7300 
 7087              	.LASF175:
 7088 0629 75696E74 		.ascii	"uint32_t\000"
 7088      33325F74 
 7088      00
 7089              	.LASF383:
 7090 0632 57616974 		.ascii	"WaitforSwitchPressAndRelease\000"
 7090      666F7253 
 7090      77697463 
 7090      68507265 
ARM GAS  C:\Users\rober\AppData\Local\Temp\ccBCZTBX.s 			page 198


 7090      7373416E 
 7091              	.LASF250:
 7092 064f 656E6162 		.ascii	"enablePeriodSwap\000"
 7092      6C655065 
 7092      72696F64 
 7092      53776170 
 7092      00
 7093              	.LASF325:
 7094 0660 4755495F 		.ascii	"GUI_FONTINFO\000"
 7094      464F4E54 
 7094      494E464F 
 7094      00
 7095              	.LASF420:
 7096 066d 43795F45 		.ascii	"Cy_EINK_ShowFrame\000"
 7096      494E4B5F 
 7096      53686F77 
 7096      4672616D 
 7096      6500
 7097              	.LASF307:
 7098 067f 58446973 		.ascii	"XDist\000"
 7098      7400
 7099              	.LASF120:
 7100 0685 74637077 		.ascii	"tcpwm_1_interrupts_12_IRQn\000"
 7100      6D5F315F 
 7100      696E7465 
 7100      72727570 
 7100      74735F31 
 7101              	.LASF17:
 7102 06a0 696F7373 		.ascii	"ioss_interrupts_gpio_7_IRQn\000"
 7102      5F696E74 
 7102      65727275 
 7102      7074735F 
 7102      6770696F 
 7103              	.LASF23:
 7104 06bc 696F7373 		.ascii	"ioss_interrupts_gpio_13_IRQn\000"
 7104      5F696E74 
 7104      65727275 
 7104      7074735F 
 7104      6770696F 
 7105              	.LASF292:
 7106 06d9 70436F6C 		.ascii	"pColorConvAPI\000"
 7106      6F72436F 
 7106      6E764150 
 7106      4900
 7107              	.LASF147:
 7108 06e7 7564625F 		.ascii	"udb_interrupts_15_IRQn\000"
 7108      696E7465 
 7108      72727570 
 7108      74735F31 
 7108      355F4952 
 7109              	.LASF199:
 7110 06fe 54525F43 		.ascii	"TR_CTRL2\000"
 7110      54524C32 
 7110      00
 7111              	.LASF176:
 7112 0707 49534552 		.ascii	"ISER\000"
 7112      00
ARM GAS  C:\Users\rober\AppData\Local\Temp\ccBCZTBX.s 			page 199


 7113              	.LASF97:
 7114 070c 63707573 		.ascii	"cpuss_interrupts_cm0_cti_1_IRQn\000"
 7114      735F696E 
 7114      74657272 
 7114      75707473 
 7114      5F636D30 
 7115              	.LASF216:
 7116 072c 666C6F61 		.ascii	"float\000"
 7116      7400
 7117              	.LASF64:
 7118 0732 63707573 		.ascii	"cpuss_interrupts_dw0_4_IRQn\000"
 7118      735F696E 
 7118      74657272 
 7118      75707473 
 7118      5F647730 
 7119              	.LASF320:
 7120 074e 4755495F 		.ascii	"GUI_FONT_MONO\000"
 7120      464F4E54 
 7120      5F4D4F4E 
 7120      4F00
 7121              	.LASF55:
 7122 075c 7363625F 		.ascii	"scb_4_interrupt_IRQn\000"
 7122      345F696E 
 7122      74657272 
 7122      7570745F 
 7122      4952516E 
 7123              	.LASF431:
 7124 0771 43795F53 		.ascii	"Cy_SysLib_Delay\000"
 7124      79734C69 
 7124      625F4465 
 7124      6C617900 
 7125              	.LASF179:
 7126 0781 52534552 		.ascii	"RSERVED1\000"
 7126      56454431 
 7126      00
 7127              	.LASF170:
 7128 078a 6C6F6E67 		.ascii	"long long unsigned int\000"
 7128      206C6F6E 
 7128      6720756E 
 7128      7369676E 
 7128      65642069 
 7129              	.LASF235:
 7130 07a1 72656C6F 		.ascii	"reloadInput\000"
 7130      6164496E 
 7130      70757400 
 7131              	.LASF81:
 7132 07ad 63707573 		.ascii	"cpuss_interrupts_dw1_5_IRQn\000"
 7132      735F696E 
 7132      74657272 
 7132      75707473 
 7132      5F647731 
 7133              	.LASF87:
 7134 07c9 63707573 		.ascii	"cpuss_interrupts_dw1_11_IRQn\000"
 7134      735F696E 
 7134      74657272 
 7134      75707473 
 7134      5F647731 
ARM GAS  C:\Users\rober\AppData\Local\Temp\ccBCZTBX.s 			page 200


 7135              	.LASF154:
 7136 07e6 7573625F 		.ascii	"usb_interrupt_med_IRQn\000"
 7136      696E7465 
 7136      72727570 
 7136      745F6D65 
 7136      645F4952 
 7137              	.LASF376:
 7138 07fd 54696D65 		.ascii	"TimerInterruptHandler\000"
 7138      72496E74 
 7138      65727275 
 7138      70744861 
 7138      6E646C65 
 7139              	.LASF398:
 7140 0813 70616765 		.ascii	"pageNumber\000"
 7140      4E756D62 
 7140      657200
 7141              	.LASF279:
 7142 081e 744C4344 		.ascii	"tLCDDEV_Index2ColorBulk\000"
 7142      4445565F 
 7142      496E6465 
 7142      7832436F 
 7142      6C6F7242 
 7143              	.LASF48:
 7144 0836 63707573 		.ascii	"cpuss_interrupts_ipc_13_IRQn\000"
 7144      735F696E 
 7144      74657272 
 7144      75707473 
 7144      5F697063 
 7145              	.LASF31:
 7146 0853 73727373 		.ascii	"srss_interrupt_backup_IRQn\000"
 7146      5F696E74 
 7146      65727275 
 7146      70745F62 
 7146      61636B75 
 7147              	.LASF409:
 7148 086e 636F6D70 		.ascii	"compareValue\000"
 7148      61726556 
 7148      616C7565 
 7148      00
 7149              	.LASF311:
 7150 087b 4755495F 		.ascii	"GUI_CHARINFO_EXT\000"
 7150      43484152 
 7150      494E464F 
 7150      5F455854 
 7150      00
 7151              	.LASF275:
 7152 088c 4C43445F 		.ascii	"LCD_LOGPALETTE\000"
 7152      4C4F4750 
 7152      414C4554 
 7152      544500
 7153              	.LASF117:
 7154 089b 74637077 		.ascii	"tcpwm_1_interrupts_9_IRQn\000"
 7154      6D5F315F 
 7154      696E7465 
 7154      72727570 
 7154      74735F39 
 7155              	.LASF393:
ARM GAS  C:\Users\rober\AppData\Local\Temp\ccBCZTBX.s 			page 201


 7156 08b5 6C617374 		.ascii	"last_point\000"
 7156      5F706F69 
 7156      6E7400
 7157              	.LASF377:
 7158 08c0 70456D77 		.ascii	"pEmwinBuffer\000"
 7158      696E4275 
 7158      66666572 
 7158      00
 7159              	.LASF163:
 7160 08cd 5F5F7569 		.ascii	"__uint16_t\000"
 7160      6E743136 
 7160      5F7400
 7161              	.LASF6:
 7162 08d8 53564361 		.ascii	"SVCall_IRQn\000"
 7162      6C6C5F49 
 7162      52516E00 
 7163              	.LASF318:
 7164 08e4 70547261 		.ascii	"pTransData\000"
 7164      6E734461 
 7164      746100
 7165              	.LASF215:
 7166 08ef 63686172 		.ascii	"char\000"
 7166      00
 7167              	.LASF405:
 7168 08f4 4755495F 		.ascii	"GUI_Font13B_1\000"
 7168      466F6E74 
 7168      3133425F 
 7168      3100
 7169              	.LASF112:
 7170 0902 74637077 		.ascii	"tcpwm_1_interrupts_4_IRQn\000"
 7170      6D5F315F 
 7170      696E7465 
 7170      72727570 
 7170      74735F34 
 7171              	.LASF322:
 7172 091c 42617365 		.ascii	"Baseline\000"
 7172      6C696E65 
 7172      00
 7173              	.LASF252:
 7174 0925 696E7665 		.ascii	"invertPWMOutN\000"
 7174      72745057 
 7174      4D4F7574 
 7174      4E00
 7175              	.LASF236:
 7176 0933 73746172 		.ascii	"startInputMode\000"
 7176      74496E70 
 7176      75744D6F 
 7176      646500
 7177              	.LASF151:
 7178 0942 70726F66 		.ascii	"profile_interrupt_IRQn\000"
 7178      696C655F 
 7178      696E7465 
 7178      72727570 
 7178      745F4952 
 7179              	.LASF358:
 7180 0959 74696D65 		.ascii	"time\000"
 7180      00
ARM GAS  C:\Users\rober\AppData\Local\Temp\ccBCZTBX.s 			page 202


 7181              	.LASF232:
 7182 095e 63617074 		.ascii	"captureInputMode\000"
 7182      75726549 
 7182      6E707574 
 7182      4D6F6465 
 7182      00
 7183              	.LASF360:
 7184 096f 44617461 		.ascii	"DataPoint\000"
 7184      506F696E 
 7184      7400
 7185              	.LASF238:
 7186 0979 73746F70 		.ascii	"stopInputMode\000"
 7186      496E7075 
 7186      744D6F64 
 7186      6500
 7187              	.LASF21:
 7188 0987 696F7373 		.ascii	"ioss_interrupts_gpio_11_IRQn\000"
 7188      5F696E74 
 7188      65727275 
 7188      7074735F 
 7188      6770696F 
 7189              	.LASF411:
 7190 09a4 77686963 		.ascii	"which_data_table\000"
 7190      685F6461 
 7190      74615F74 
 7190      61626C65 
 7190      00
 7191              	.LASF258:
 7192 09b5 63795F73 		.ascii	"cy_stc_tcpwm_pwm_config_t\000"
 7192      74635F74 
 7192      6370776D 
 7192      5F70776D 
 7192      5F636F6E 
 7193              	.LASF43:
 7194 09cf 63707573 		.ascii	"cpuss_interrupts_ipc_8_IRQn\000"
 7194      735F696E 
 7194      74657272 
 7194      75707473 
 7194      5F697063 
 7195              	.LASF262:
 7196 09eb 72784275 		.ascii	"rxBuf\000"
 7196      6600
 7197              	.LASF92:
 7198 09f1 63707573 		.ascii	"cpuss_interrupts_fault_0_IRQn\000"
 7198      735F696E 
 7198      74657272 
 7198      75707473 
 7198      5F666175 
 7199              	.LASF206:
 7200 0a0f 4354524C 		.ascii	"CTRL_CLR\000"
 7200      5F434C52 
 7200      00
 7201              	.LASF160:
 7202 0a18 4952516E 		.ascii	"IRQn_Type\000"
 7202      5F547970 
 7202      6500
 7203              	.LASF69:
ARM GAS  C:\Users\rober\AppData\Local\Temp\ccBCZTBX.s 			page 203


 7204 0a22 63707573 		.ascii	"cpuss_interrupts_dw0_9_IRQn\000"
 7204      735F696E 
 7204      74657272 
 7204      75707473 
 7204      5F647730 
 7205              	.LASF391:
 7206 0a3e 53686F77 		.ascii	"ShowTable\000"
 7206      5461626C 
 7206      6500
 7207              	.LASF143:
 7208 0a48 7564625F 		.ascii	"udb_interrupts_11_IRQn\000"
 7208      696E7465 
 7208      72727570 
 7208      74735F31 
 7208      315F4952 
 7209              	.LASF37:
 7210 0a5f 63707573 		.ascii	"cpuss_interrupts_ipc_2_IRQn\000"
 7210      735F696E 
 7210      74657272 
 7210      75707473 
 7210      5F697063 
 7211              	.LASF271:
 7212 0a7b 4C43445F 		.ascii	"LCD_COLOR\000"
 7212      434F4C4F 
 7212      5200
 7213              	.LASF335:
 7214 0a85 70664765 		.ascii	"pfGetCharDistX\000"
 7214      74436861 
 7214      72446973 
 7214      745800
 7215              	.LASF104:
 7216 0a94 74637077 		.ascii	"tcpwm_0_interrupts_4_IRQn\000"
 7216      6D5F305F 
 7216      696E7465 
 7216      72727570 
 7216      74735F34 
 7217              	.LASF334:
 7218 0aae 70664469 		.ascii	"pfDispChar\000"
 7218      73704368 
 7218      617200
 7219              	.LASF305:
 7220 0ab9 704C6973 		.ascii	"pList\000"
 7220      7400
 7221              	.LASF268:
 7222 0abf 63624576 		.ascii	"cbEvents\000"
 7222      656E7473 
 7222      00
 7223              	.LASF410:
 7224 0ac8 73746172 		.ascii	"start_point\000"
 7224      745F706F 
 7224      696E7400 
 7225              	.LASF222:
 7226 0ad4 5F426F6F 		.ascii	"_Bool\000"
 7226      6C00
 7227              	.LASF266:
 7228 0ada 74784275 		.ascii	"txBufSize\000"
 7228      6653697A 
ARM GAS  C:\Users\rober\AppData\Local\Temp\ccBCZTBX.s 			page 204


 7228      6500
 7229              	.LASF341:
 7230 0ae4 584D6167 		.ascii	"XMag\000"
 7230      00
 7231              	.LASF338:
 7232 0ae9 70664765 		.ascii	"pfGetCharInfo\000"
 7232      74436861 
 7232      72496E66 
 7232      6F00
 7233              	.LASF430:
 7234 0af7 4755495F 		.ascii	"GUI_DispStringAt\000"
 7234      44697370 
 7234      53747269 
 7234      6E674174 
 7234      00
 7235              	.LASF255:
 7236 0b08 73776170 		.ascii	"swapInput\000"
 7236      496E7075 
 7236      7400
 7237              	.LASF337:
 7238 0b12 70664973 		.ascii	"pfIsInFont\000"
 7238      496E466F 
 7238      6E7400
 7239              	.LASF291:
 7240 0b1d 70664472 		.ascii	"pfDrawHW\000"
 7240      61774857 
 7240      00
 7241              	.LASF329:
 7242 0b26 70664765 		.ascii	"pfGetLineDistX\000"
 7242      744C696E 
 7242      65446973 
 7242      745800
 7243              	.LASF156:
 7244 0b35 70617373 		.ascii	"pass_interrupt_dacs_IRQn\000"
 7244      5F696E74 
 7244      65727275 
 7244      70745F64 
 7244      6163735F 
 7245              	.LASF109:
 7246 0b4e 74637077 		.ascii	"tcpwm_1_interrupts_1_IRQn\000"
 7246      6D5F315F 
 7246      696E7465 
 7246      72727570 
 7246      74735F31 
 7247              	.LASF136:
 7248 0b68 7564625F 		.ascii	"udb_interrupts_4_IRQn\000"
 7248      696E7465 
 7248      72727570 
 7248      74735F34 
 7248      5F495251 
 7249              	.LASF370:
 7250 0b7e 636F756E 		.ascii	"counters\000"
 7250      74657273 
 7250      00
 7251              	.LASF422:
 7252 0b87 4755495F 		.ascii	"GUI_DrawLine\000"
 7252      44726177 
ARM GAS  C:\Users\rober\AppData\Local\Temp\ccBCZTBX.s 			page 205


 7252      4C696E65 
 7252      00
 7253              	.LASF400:
 7254 0b94 69737254 		.ascii	"isrTimer_cfg\000"
 7254      696D6572 
 7254      5F636667 
 7254      00
 7255              	.LASF150:
 7256 0ba1 61756469 		.ascii	"audioss_interrupt_pdm_IRQn\000"
 7256      6F73735F 
 7256      696E7465 
 7256      72727570 
 7256      745F7064 
 7257              	.LASF70:
 7258 0bbc 63707573 		.ascii	"cpuss_interrupts_dw0_10_IRQn\000"
 7258      735F696E 
 7258      74657272 
 7258      75707473 
 7258      5F647730 
 7259              	.LASF256:
 7260 0bd9 6B696C6C 		.ascii	"killInputMode\000"
 7260      496E7075 
 7260      744D6F64 
 7260      6500
 7261              	.LASF19:
 7262 0be7 696F7373 		.ascii	"ioss_interrupts_gpio_9_IRQn\000"
 7262      5F696E74 
 7262      65727275 
 7262      7074735F 
 7262      6770696F 
 7263              	.LASF201:
 7264 0c03 494E5452 		.ascii	"INTR\000"
 7264      00
 7265              	.LASF343:
 7266 0c08 4755495F 		.ascii	"GUI_DISPCHAR\000"
 7266      44495350 
 7266      43484152 
 7266      00
 7267              	.LASF299:
 7268 0c15 7050616C 		.ascii	"pPal\000"
 7268      00
 7269              	.LASF203:
 7270 0c1a 494E5452 		.ascii	"INTR_MASK\000"
 7270      5F4D4153 
 7270      4B00
 7271              	.LASF66:
 7272 0c24 63707573 		.ascii	"cpuss_interrupts_dw0_6_IRQn\000"
 7272      735F696E 
 7272      74657272 
 7272      75707473 
 7272      5F647730 
 7273              	.LASF124:
 7274 0c40 74637077 		.ascii	"tcpwm_1_interrupts_16_IRQn\000"
 7274      6D5F315F 
 7274      696E7465 
 7274      72727570 
 7274      74735F31 
ARM GAS  C:\Users\rober\AppData\Local\Temp\ccBCZTBX.s 			page 206


 7275              	.LASF20:
 7276 0c5b 696F7373 		.ascii	"ioss_interrupts_gpio_10_IRQn\000"
 7276      5F696E74 
 7276      65727275 
 7276      7074735F 
 7276      6770696F 
 7277              	.LASF388:
 7278 0c78 79417869 		.ascii	"yAxisLabels\000"
 7278      734C6162 
 7278      656C7300 
 7279              	.LASF359:
 7280 0c84 74656D70 		.ascii	"temperature\000"
 7280      65726174 
 7280      75726500 
 7281              	.LASF75:
 7282 0c90 63707573 		.ascii	"cpuss_interrupts_dw0_15_IRQn\000"
 7282      735F696E 
 7282      74657272 
 7282      75707473 
 7282      5F647730 
 7283              	.LASF32:
 7284 0cad 73727373 		.ascii	"srss_interrupt_IRQn\000"
 7284      5F696E74 
 7284      65727275 
 7284      70745F49 
 7284      52516E00 
 7285              	.LASF296:
 7286 0cc1 42797465 		.ascii	"BytesPerLine\000"
 7286      73506572 
 7286      4C696E65 
 7286      00
 7287              	.LASF303:
 7288 0cce 46697273 		.ascii	"FirstChar\000"
 7288      74436861 
 7288      7200
 7289              	.LASF83:
 7290 0cd8 63707573 		.ascii	"cpuss_interrupts_dw1_7_IRQn\000"
 7290      735F696E 
 7290      74657272 
 7290      75707473 
 7290      5F647731 
 7291              	.LASF194:
 7292 0cf4 50455249 		.ascii	"PERIOD\000"
 7292      4F4400
 7293              	.LASF89:
 7294 0cfb 63707573 		.ascii	"cpuss_interrupts_dw1_13_IRQn\000"
 7294      735F696E 
 7294      74657272 
 7294      75707473 
 7294      5F647731 
 7295              	.LASF61:
 7296 0d18 63707573 		.ascii	"cpuss_interrupts_dw0_1_IRQn\000"
 7296      735F696E 
 7296      74657272 
 7296      75707473 
 7296      5F647730 
 7297              	.LASF207:
ARM GAS  C:\Users\rober\AppData\Local\Temp\ccBCZTBX.s 			page 207


 7298 0d34 4354524C 		.ascii	"CTRL_SET\000"
 7298      5F534554 
 7298      00
 7299              	.LASF417:
 7300 0d3d 70726F67 		.ascii	"programStarted\000"
 7300      72616D53 
 7300      74617274 
 7300      656400
 7301              	.LASF211:
 7302 0d4c 434D445F 		.ascii	"CMD_START\000"
 7302      53544152 
 7302      5400
 7303              	.LASF41:
 7304 0d56 63707573 		.ascii	"cpuss_interrupts_ipc_6_IRQn\000"
 7304      735F696E 
 7304      74657272 
 7304      75707473 
 7304      5F697063 
 7305              	.LASF157:
 7306 0d72 756E636F 		.ascii	"unconnected_IRQn\000"
 7306      6E6E6563 
 7306      7465645F 
 7306      4952516E 
 7306      00
 7307              	.LASF145:
 7308 0d83 7564625F 		.ascii	"udb_interrupts_13_IRQn\000"
 7308      696E7465 
 7308      72727570 
 7308      74735F31 
 7308      335F4952 
 7309              	.LASF78:
 7310 0d9a 63707573 		.ascii	"cpuss_interrupts_dw1_2_IRQn\000"
 7310      735F696E 
 7310      74657272 
 7310      75707473 
 7310      5F647731 
 7311              	.LASF227:
 7312 0db6 636F6D70 		.ascii	"compareOrCapture\000"
 7312      6172654F 
 7312      72436170 
 7312      74757265 
 7312      00
 7313              	.LASF224:
 7314 0dc7 636C6F63 		.ascii	"clockPrescaler\000"
 7314      6B507265 
 7314      7363616C 
 7314      657200
 7315              	.LASF45:
 7316 0dd6 63707573 		.ascii	"cpuss_interrupts_ipc_10_IRQn\000"
 7316      735F696E 
 7316      74657272 
 7316      75707473 
 7316      5F697063 
 7317              	.LASF95:
 7318 0df3 63707573 		.ascii	"cpuss_interrupt_fm_IRQn\000"
 7318      735F696E 
 7318      74657272 
ARM GAS  C:\Users\rober\AppData\Local\Temp\ccBCZTBX.s 			page 208


 7318      7570745F 
 7318      666D5F49 
 7319              	.LASF264:
 7320 0e0b 72784275 		.ascii	"rxBufIdx\000"
 7320      66496478 
 7320      00
 7321              	.LASF193:
 7322 0e14 43435F42 		.ascii	"CC_BUFF\000"
 7322      55464600 
 7323              	.LASF141:
 7324 0e1c 7564625F 		.ascii	"udb_interrupts_9_IRQn\000"
 7324      696E7465 
 7324      72727570 
 7324      74735F39 
 7324      5F495251 
 7325              	.LASF282:
 7326 0e32 7066496E 		.ascii	"pfIndex2Color\000"
 7326      64657832 
 7326      436F6C6F 
 7326      7200
 7327              	.LASF172:
 7328 0e40 75696E74 		.ascii	"uint8_t\000"
 7328      385F7400 
 7329              	.LASF261:
 7330 0e48 73746174 		.ascii	"status\000"
 7330      757300
 7331              	.LASF315:
 7332 0e4f 70614368 		.ascii	"paCharInfo\000"
 7332      6172496E 
 7332      666F00
 7333              	.LASF127:
 7334 0e5a 74637077 		.ascii	"tcpwm_1_interrupts_19_IRQn\000"
 7334      6D5F315F 
 7334      696E7465 
 7334      72727570 
 7334      74735F31 
 7335              	.LASF309:
 7336 0e75 58506F73 		.ascii	"XPos\000"
 7336      00
 7337              	.LASF219:
 7338 0e7a 696E7472 		.ascii	"intrSrc\000"
 7338      53726300 
 7339              	.LASF29:
 7340 0e82 73727373 		.ascii	"srss_interrupt_mcwdt_0_IRQn\000"
 7340      5F696E74 
 7340      65727275 
 7340      70745F6D 
 7340      63776474 
 7341              	.LASF340:
 7342 0e9e 59446973 		.ascii	"YDist\000"
 7342      7400
 7343              	.LASF54:
 7344 0ea4 7363625F 		.ascii	"scb_3_interrupt_IRQn\000"
 7344      335F696E 
 7344      74657272 
 7344      7570745F 
 7344      4952516E 
ARM GAS  C:\Users\rober\AppData\Local\Temp\ccBCZTBX.s 			page 209


 7345              	.LASF228:
 7346 0eb9 636F6D70 		.ascii	"compare0\000"
 7346      61726530 
 7346      00
 7347              	.LASF27:
 7348 0ec2 6C70636F 		.ascii	"lpcomp_interrupt_IRQn\000"
 7348      6D705F69 
 7348      6E746572 
 7348      72757074 
 7348      5F495251 
 7349              	.LASF441:
 7350 0ed8 43795F45 		.ascii	"Cy_EINK_Power\000"
 7350      494E4B5F 
 7350      506F7765 
 7350      7200
 7351              	.LASF40:
 7352 0ee6 63707573 		.ascii	"cpuss_interrupts_ipc_5_IRQn\000"
 7352      735F696E 
 7352      74657272 
 7352      75707473 
 7352      5F697063 
 7353              	.LASF111:
 7354 0f02 74637077 		.ascii	"tcpwm_1_interrupts_3_IRQn\000"
 7354      6D5F315F 
 7354      696E7465 
 7354      72727570 
 7354      74735F33 
 7355              	.LASF402:
 7356 0f1c 43595F45 		.ascii	"CY_EINK_Timer_config\000"
 7356      494E4B5F 
 7356      54696D65 
 7356      725F636F 
 7356      6E666967 
 7357              	.LASF128:
 7358 0f31 74637077 		.ascii	"tcpwm_1_interrupts_20_IRQn\000"
 7358      6D5F315F 
 7358      696E7465 
 7358      72727570 
 7358      74735F32 
 7359              	.LASF213:
 7360 0f4c 54435057 		.ascii	"TCPWM_Type\000"
 7360      4D5F5479 
 7360      706500
 7361              	.LASF169:
 7362 0f57 6C6F6E67 		.ascii	"long long int\000"
 7362      206C6F6E 
 7362      6720696E 
 7362      7400
 7363              	.LASF336:
 7364 0f65 70664765 		.ascii	"pfGetFontInfo\000"
 7364      74466F6E 
 7364      74496E66 
 7364      6F00
 7365              	.LASF426:
 7366 0f73 4755495F 		.ascii	"GUI_SetBkColor\000"
 7366      53657442 
 7366      6B436F6C 
ARM GAS  C:\Users\rober\AppData\Local\Temp\ccBCZTBX.s 			page 210


 7366      6F7200
 7367              	.LASF395:
 7368 0f82 64617461 		.ascii	"dataString\000"
 7368      53747269 
 7368      6E6700
 7369              	.LASF247:
 7370 0f8d 64656164 		.ascii	"deadTimeClocks\000"
 7370      54696D65 
 7370      436C6F63 
 7370      6B7300
 7371              	.LASF35:
 7372 0f9c 63707573 		.ascii	"cpuss_interrupts_ipc_0_IRQn\000"
 7372      735F696E 
 7372      74657272 
 7372      75707473 
 7372      5F697063 
 7373              	.LASF371:
 7374 0fb8 43795F54 		.ascii	"Cy_TCPWM_Counter_SetPeriod\000"
 7374      4350574D 
 7374      5F436F75 
 7374      6E746572 
 7374      5F536574 
 7375              	.LASF344:
 7376 0fd3 4755495F 		.ascii	"GUI_GETCHARDISTX\000"
 7376      47455443 
 7376      48415244 
 7376      49535458 
 7376      00
 7377              	.LASF254:
 7378 0fe4 73776170 		.ascii	"swapInputMode\000"
 7378      496E7075 
 7378      744D6F64 
 7378      6500
 7379              	.LASF439:
 7380 0ff2 4755495F 		.ascii	"GUI_Init\000"
 7380      496E6974 
 7380      00
 7381              	.LASF300:
 7382 0ffb 704D6574 		.ascii	"pMethods\000"
 7382      686F6473 
 7382      00
 7383              	.LASF101:
 7384 1004 74637077 		.ascii	"tcpwm_0_interrupts_1_IRQn\000"
 7384      6D5F305F 
 7384      696E7465 
 7384      72727570 
 7384      74735F31 
 7385              	.LASF433:
 7386 101e 4755495F 		.ascii	"GUI_SetTextStyle\000"
 7386      53657454 
 7386      65787453 
 7386      74796C65 
 7386      00
 7387              	.LASF56:
 7388 102f 7363625F 		.ascii	"scb_5_interrupt_IRQn\000"
 7388      355F696E 
 7388      74657272 
ARM GAS  C:\Users\rober\AppData\Local\Temp\ccBCZTBX.s 			page 211


 7388      7570745F 
 7388      4952516E 
 7389              	.LASF339:
 7390 1044 70616645 		.ascii	"pafEncode\000"
 7390      6E636F64 
 7390      6500
 7391              	.LASF248:
 7392 104e 70657269 		.ascii	"period0\000"
 7392      6F643000 
 7393              	.LASF249:
 7394 1056 70657269 		.ascii	"period1\000"
 7394      6F643100 
 7395              	.LASF444:
 7396 105e 433A5C55 		.ascii	"C:\\Users\\rober\\Desktop\\SMIW_projekt\\projekt_sm"
 7396      73657273 
 7396      5C726F62 
 7396      65725C44 
 7396      65736B74 
 7397 108c 69775C43 		.ascii	"iw\\CE223727_EmWin_EInk_Display01\\CE223727_EmWin_E"
 7397      45323233 
 7397      3732375F 
 7397      456D5769 
 7397      6E5F4549 
 7398 10bd 496E6B5F 		.ascii	"Ink_Display01.cydsn\000"
 7398      44697370 
 7398      6C617930 
 7398      312E6379 
 7398      64736E00 
 7399              	.LASF50:
 7400 10d1 63707573 		.ascii	"cpuss_interrupts_ipc_15_IRQn\000"
 7400      735F696E 
 7400      74657272 
 7400      75707473 
 7400      5F697063 
 7401              	.LASF384:
 7402 10ee 53686F77 		.ascii	"ShowGraph_WithUpdate\000"
 7402      47726170 
 7402      685F5769 
 7402      74685570 
 7402      64617465 
 7403              	.LASF373:
 7404 1103 75706461 		.ascii	"updateMethod\000"
 7404      74654D65 
 7404      74686F64 
 7404      00
 7405              	.LASF328:
 7406 1110 74474C5F 		.ascii	"tGL_DispLine\000"
 7406      44697370 
 7406      4C696E65 
 7406      00
 7407              	.LASF413:
 7408 111d 6D6F6465 		.ascii	"modeSwitch\000"
 7408      53776974 
 7408      636800
 7409              	.LASF274:
 7410 1128 7050616C 		.ascii	"pPalEntries\000"
 7410      456E7472 
ARM GAS  C:\Users\rober\AppData\Local\Temp\ccBCZTBX.s 			page 212


 7410      69657300 
 7411              	.LASF4:
 7412 1134 42757346 		.ascii	"BusFault_IRQn\000"
 7412      61756C74 
 7412      5F495251 
 7412      6E00
 7413              	.LASF270:
 7414 1142 63795F73 		.ascii	"cy_stc_scb_spi_context_t\000"
 7414      74635F73 
 7414      63625F73 
 7414      70695F63 
 7414      6F6E7465 
 7415              	.LASF133:
 7416 115b 7564625F 		.ascii	"udb_interrupts_1_IRQn\000"
 7416      696E7465 
 7416      72727570 
 7416      74735F31 
 7416      5F495251 
 7417              	.LASF234:
 7418 1171 72656C6F 		.ascii	"reloadInputMode\000"
 7418      6164496E 
 7418      7075744D 
 7418      6F646500 
 7419              	.LASF153:
 7420 1181 7573625F 		.ascii	"usb_interrupt_hi_IRQn\000"
 7420      696E7465 
 7420      72727570 
 7420      745F6869 
 7420      5F495251 
 7421              	.LASF330:
 7422 1197 70664765 		.ascii	"pfGetLineLen\000"
 7422      744C696E 
 7422      654C656E 
 7422      00
 7423              	.LASF52:
 7424 11a4 7363625F 		.ascii	"scb_1_interrupt_IRQn\000"
 7424      315F696E 
 7424      74657272 
 7424      7570745F 
 7424      4952516E 
 7425              	.LASF119:
 7426 11b9 74637077 		.ascii	"tcpwm_1_interrupts_11_IRQn\000"
 7426      6D5F315F 
 7426      696E7465 
 7426      72727570 
 7426      74735F31 
 7427              	.LASF16:
 7428 11d4 696F7373 		.ascii	"ioss_interrupts_gpio_6_IRQn\000"
 7428      5F696E74 
 7428      65727275 
 7428      7074735F 
 7428      6770696F 
 7429              	.LASF295:
 7430 11f0 5953697A 		.ascii	"YSize\000"
 7430      6500
 7431              	.LASF324:
 7432 11f6 43486569 		.ascii	"CHeight\000"
ARM GAS  C:\Users\rober\AppData\Local\Temp\ccBCZTBX.s 			page 213


 7432      67687400 
 7433              	.LASF96:
 7434 11fe 63707573 		.ascii	"cpuss_interrupts_cm0_cti_0_IRQn\000"
 7434      735F696E 
 7434      74657272 
 7434      75707473 
 7434      5F636D30 
 7435              	.LASF423:
 7436 121e 53746174 		.ascii	"Status_SW2_Read\000"
 7436      75735F53 
 7436      57325F52 
 7436      65616400 
 7437              	.LASF85:
 7438 122e 63707573 		.ascii	"cpuss_interrupts_dw1_9_IRQn\000"
 7438      735F696E 
 7438      74657272 
 7438      75707473 
 7438      5F647731 
 7439              	.LASF149:
 7440 124a 61756469 		.ascii	"audioss_interrupt_i2s_IRQn\000"
 7440      6F73735F 
 7440      696E7465 
 7440      72727570 
 7440      745F6932 
 7441              	.LASF63:
 7442 1265 63707573 		.ascii	"cpuss_interrupts_dw0_3_IRQn\000"
 7442      735F696E 
 7442      74657272 
 7442      75707473 
 7442      5F647730 
 7443              	.LASF352:
 7444 1281 70765F65 		.ascii	"pv_eink_frame_data_t\000"
 7444      696E6B5F 
 7444      6672616D 
 7444      655F6461 
 7444      74615F74 
 7445              	.LASF11:
 7446 1296 696F7373 		.ascii	"ioss_interrupts_gpio_1_IRQn\000"
 7446      5F696E74 
 7446      65727275 
 7446      7074735F 
 7446      6770696F 
 7447              	.LASF394:
 7448 12b2 74696D65 		.ascii	"timeString\000"
 7448      53747269 
 7448      6E6700
 7449              	.LASF354:
 7450 12bd 43595F45 		.ascii	"CY_EINK_PARTIAL\000"
 7450      494E4B5F 
 7450      50415254 
 7450      49414C00 
 7451              	.LASF182:
 7452 12cd 49435052 		.ascii	"ICPR\000"
 7452      00
 7453              	.LASF72:
 7454 12d2 63707573 		.ascii	"cpuss_interrupts_dw0_12_IRQn\000"
 7454      735F696E 
ARM GAS  C:\Users\rober\AppData\Local\Temp\ccBCZTBX.s 			page 214


 7454      74657272 
 7454      75707473 
 7454      5F647730 
 7455              	.LASF24:
 7456 12ef 696F7373 		.ascii	"ioss_interrupts_gpio_14_IRQn\000"
 7456      5F696E74 
 7456      65727275 
 7456      7074735F 
 7456      6770696F 
 7457              	.LASF80:
 7458 130c 63707573 		.ascii	"cpuss_interrupts_dw1_4_IRQn\000"
 7458      735F696E 
 7458      74657272 
 7458      75707473 
 7458      5F647731 
 7459              	.LASF86:
 7460 1328 63707573 		.ascii	"cpuss_interrupts_dw1_10_IRQn\000"
 7460      735F696E 
 7460      74657272 
 7460      75707473 
 7460      5F647731 
 7461              	.LASF106:
 7462 1345 74637077 		.ascii	"tcpwm_0_interrupts_6_IRQn\000"
 7462      6D5F305F 
 7462      696E7465 
 7462      72727570 
 7462      74735F36 
 7463              	.LASF265:
 7464 135f 74784275 		.ascii	"txBuf\000"
 7464      6600
 7465              	.LASF286:
 7466 1365 7066496E 		.ascii	"pfIndex2ColorBulk\000"
 7466      64657832 
 7466      436F6C6F 
 7466      7242756C 
 7466      6B00
 7467              	.LASF251:
 7468 1377 696E7665 		.ascii	"invertPWMOut\000"
 7468      72745057 
 7468      4D4F7574 
 7468      00
 7469              	.LASF386:
 7470 1384 64617461 		.ascii	"data\000"
 7470      00
 7471              	.LASF319:
 7472 1389 70547261 		.ascii	"pTrans\000"
 7472      6E7300
 7473              	.LASF116:
 7474 1390 74637077 		.ascii	"tcpwm_1_interrupts_8_IRQn\000"
 7474      6D5F315F 
 7474      696E7465 
 7474      72727570 
 7474      74735F38 
 7475              	.LASF326:
 7476 13aa 74475549 		.ascii	"tGUI_GetLineDistX\000"
 7476      5F476574 
 7476      4C696E65 
ARM GAS  C:\Users\rober\AppData\Local\Temp\ccBCZTBX.s 			page 215


 7476      44697374 
 7476      5800
 7477              	.LASF214:
 7478 13bc 6C6F6E67 		.ascii	"long double\000"
 7478      20646F75 
 7478      626C6500 
 7479              	.LASF435:
 7480 13c8 73707269 		.ascii	"sprintf\000"
 7480      6E746600 
 7481              	.LASF173:
 7482 13d0 75696E74 		.ascii	"uint16_t\000"
 7482      31365F74 
 7482      00
 7483              	.LASF367:
 7484 13d9 4952516E 		.ascii	"IRQn\000"
 7484      00
 7485              	.LASF225:
 7486 13de 72756E4D 		.ascii	"runMode\000"
 7486      6F646500 
 7487              	.LASF99:
 7488 13e6 63707573 		.ascii	"cpuss_interrupts_cm4_cti_1_IRQn\000"
 7488      735F696E 
 7488      74657272 
 7488      75707473 
 7488      5F636D34 
 7489              	.LASF58:
 7490 1406 7363625F 		.ascii	"scb_7_interrupt_IRQn\000"
 7490      375F696E 
 7490      74657272 
 7490      7570745F 
 7490      4952516E 
 7491              	.LASF138:
 7492 141b 7564625F 		.ascii	"udb_interrupts_6_IRQn\000"
 7492      696E7465 
 7492      72727570 
 7492      74735F36 
 7492      5F495251 
 7493              	.LASF187:
 7494 1431 53544952 		.ascii	"STIR\000"
 7494      00
 7495              	.LASF425:
 7496 1436 4755495F 		.ascii	"GUI_SetColor\000"
 7496      53657443 
 7496      6F6C6F72 
 7496      00
 7497              	.LASF416:
 7498 1443 77686963 		.ascii	"whichData\000"
 7498      68446174 
 7498      6100
 7499              	.LASF242:
 7500 144d 63795F73 		.ascii	"cy_stc_tcpwm_counter_config_t\000"
 7500      74635F74 
 7500      6370776D 
 7500      5F636F75 
 7500      6E746572 
 7501              	.LASF368:
 7502 146b 5F5F4E56 		.ascii	"__NVIC_ClearPendingIRQ\000"
ARM GAS  C:\Users\rober\AppData\Local\Temp\ccBCZTBX.s 			page 216


 7502      49435F43 
 7502      6C656172 
 7502      50656E64 
 7502      696E6749 
 7503              	.LASF14:
 7504 1482 696F7373 		.ascii	"ioss_interrupts_gpio_4_IRQn\000"
 7504      5F696E74 
 7504      65727275 
 7504      7074735F 
 7504      6770696F 
 7505              	.LASF323:
 7506 149e 4C486569 		.ascii	"LHeight\000"
 7506      67687400 
 7507              	.LASF273:
 7508 14a6 48617354 		.ascii	"HasTrans\000"
 7508      72616E73 
 7508      00
 7509              	.LASF42:
 7510 14af 63707573 		.ascii	"cpuss_interrupts_ipc_7_IRQn\000"
 7510      735F696E 
 7510      74657272 
 7510      75707473 
 7510      5F697063 
 7511              	.LASF414:
 7512 14cb 7265666C 		.ascii	"reflowData\000"
 7512      6F774461 
 7512      746100
 7513              	.LASF188:
 7514 14d6 73697A65 		.ascii	"sizetype\000"
 7514      74797065 
 7514      00
 7515              	.LASF440:
 7516 14df 43795F45 		.ascii	"Cy_EINK_Start\000"
 7516      494E4B5F 
 7516      53746172 
 7516      7400
 7517              	.LASF432:
 7518 14ed 4755495F 		.ascii	"GUI_SetTextMode\000"
 7518      53657454 
 7518      6578744D 
 7518      6F646500 
 7519              	.LASF177:
 7520 14fd 52455345 		.ascii	"RESERVED0\000"
 7520      52564544 
 7520      3000
 7521              	.LASF200:
 7522 1507 52455345 		.ascii	"RESERVED1\000"
 7522      52564544 
 7522      3100
 7523              	.LASF181:
 7524 1511 52455345 		.ascii	"RESERVED2\000"
 7524      52564544 
 7524      3200
 7525              	.LASF183:
 7526 151b 52455345 		.ascii	"RESERVED3\000"
 7526      52564544 
 7526      3300
ARM GAS  C:\Users\rober\AppData\Local\Temp\ccBCZTBX.s 			page 217


 7527              	.LASF185:
 7528 1525 52455345 		.ascii	"RESERVED4\000"
 7528      52564544 
 7528      3400
 7529              	.LASF186:
 7530 152f 52455345 		.ascii	"RESERVED5\000"
 7530      52564544 
 7530      3500
 7531              	.LASF22:
 7532 1539 696F7373 		.ascii	"ioss_interrupts_gpio_12_IRQn\000"
 7532      5F696E74 
 7532      65727275 
 7532      7074735F 
 7532      6770696F 
 7533              	.LASF34:
 7534 1556 626C6573 		.ascii	"bless_interrupt_IRQn\000"
 7534      735F696E 
 7534      74657272 
 7534      7570745F 
 7534      4952516E 
 7535              	.LASF253:
 7536 156b 6B696C6C 		.ascii	"killMode\000"
 7536      4D6F6465 
 7536      00
 7537              	.LASF333:
 7538 1574 4755495F 		.ascii	"GUI_FONT\000"
 7538      464F4E54 
 7538      00
 7539              	.LASF230:
 7540 157d 656E6162 		.ascii	"enableCompareSwap\000"
 7540      6C65436F 
 7540      6D706172 
 7540      65537761 
 7540      7000
 7541              	.LASF350:
 7542 158f 7050726F 		.ascii	"pProp\000"
 7542      7000
 7543              	.LASF166:
 7544 1595 6C6F6E67 		.ascii	"long int\000"
 7544      20696E74 
 7544      00
 7545              	.LASF428:
 7546 159e 4755495F 		.ascii	"GUI_DrawBitmap\000"
 7546      44726177 
 7546      4269746D 
 7546      617000
 7547              	.LASF91:
 7548 15ad 63707573 		.ascii	"cpuss_interrupts_dw1_15_IRQn\000"
 7548      735F696E 
 7548      74657272 
 7548      75707473 
 7548      5F647731 
 7549              	.LASF399:
 7550 15ca 49544D5F 		.ascii	"ITM_RxBuffer\000"
 7550      52784275 
 7550      66666572 
 7550      00
ARM GAS  C:\Users\rober\AppData\Local\Temp\ccBCZTBX.s 			page 218


 7551              	.LASF240:
 7552 15d7 636F756E 		.ascii	"countInputMode\000"
 7552      74496E70 
 7552      75744D6F 
 7552      646500
 7553              	.LASF1:
 7554 15e6 4E6F6E4D 		.ascii	"NonMaskableInt_IRQn\000"
 7554      61736B61 
 7554      626C6549 
 7554      6E745F49 
 7554      52516E00 
 7555              	.LASF349:
 7556 15fa 704D6F6E 		.ascii	"pMono\000"
 7556      6F00
 7557              	.LASF290:
 7558 1600 70664472 		.ascii	"pfDraw\000"
 7558      617700
 7559              	.LASF445:
 7560 1607 5F5F656E 		.ascii	"__enable_irq\000"
 7560      61626C65 
 7560      5F697271 
 7560      00
 7561              	.LASF304:
 7562 1614 4C617374 		.ascii	"LastChar\000"
 7562      43686172 
 7562      00
 7563              	.LASF57:
 7564 161d 7363625F 		.ascii	"scb_6_interrupt_IRQn\000"
 7564      365F696E 
 7564      74657272 
 7564      7570745F 
 7564      4952516E 
 7565              	.LASF226:
 7566 1632 636F756E 		.ascii	"countDirection\000"
 7566      74446972 
 7566      65637469 
 7566      6F6E00
 7567              	.LASF396:
 7568 1641 496E6974 		.ascii	"InitGraph\000"
 7568      47726170 
 7568      6800
 7569              	.LASF375:
 7570 164b 55706461 		.ascii	"UpdateDisplay\000"
 7570      74654469 
 7570      73706C61 
 7570      7900
 7571              	.LASF47:
 7572 1659 63707573 		.ascii	"cpuss_interrupts_ipc_12_IRQn\000"
 7572      735F696E 
 7572      74657272 
 7572      75707473 
 7572      5F697063 
 7573              	.LASF280:
 7574 1676 744C4344 		.ascii	"tLCDDEV_Color2IndexBulk\000"
 7574      4445565F 
 7574      436F6C6F 
 7574      7232496E 
ARM GAS  C:\Users\rober\AppData\Local\Temp\ccBCZTBX.s 			page 219


 7574      64657842 
 7575              	.LASF293:
 7576 168e 4755495F 		.ascii	"GUI_BITMAP_METHODS\000"
 7576      4249544D 
 7576      41505F4D 
 7576      4554484F 
 7576      445300
 7577              	.LASF406:
 7578 16a1 4755495F 		.ascii	"GUI_Font16B_1\000"
 7578      466F6E74 
 7578      3136425F 
 7578      3100
 7579              	.LASF419:
 7580 16af 4C43445F 		.ascii	"LCD_GetDisplayBuffer\000"
 7580      47657444 
 7580      6973706C 
 7580      61794275 
 7580      66666572 
 7581              	.LASF285:
 7582 16c4 7066436F 		.ascii	"pfColor2IndexBulk\000"
 7582      6C6F7232 
 7582      496E6465 
 7582      7842756C 
 7582      6B00
 7583              	.LASF88:
 7584 16d6 63707573 		.ascii	"cpuss_interrupts_dw1_12_IRQn\000"
 7584      735F696E 
 7584      74657272 
 7584      75707473 
 7584      5F647731 
 7585              	.LASF18:
 7586 16f3 696F7373 		.ascii	"ioss_interrupts_gpio_8_IRQn\000"
 7586      5F696E74 
 7586      65727275 
 7586      7074735F 
 7586      6770696F 
 7587              	.LASF272:
 7588 170f 4E756D45 		.ascii	"NumEntries\000"
 7588      6E747269 
 7588      657300
 7589              	.LASF362:
 7590 171a 636E744E 		.ascii	"cntNum\000"
 7590      756D00
 7591              	.LASF155:
 7592 1721 7573625F 		.ascii	"usb_interrupt_lo_IRQn\000"
 7592      696E7465 
 7592      72727570 
 7592      745F6C6F 
 7592      5F495251 
 7593              	.LASF152:
 7594 1737 736D6966 		.ascii	"smif_interrupt_IRQn\000"
 7594      5F696E74 
 7594      65727275 
 7594      70745F49 
 7594      52516E00 
 7595              	.LASF363:
 7596 174b 736F7572 		.ascii	"source\000"
ARM GAS  C:\Users\rober\AppData\Local\Temp\ccBCZTBX.s 			page 220


 7596      636500
 7597              	.LASF53:
 7598 1752 7363625F 		.ascii	"scb_2_interrupt_IRQn\000"
 7598      325F696E 
 7598      74657272 
 7598      7570745F 
 7598      4952516E 
 7599              	.LASF437:
 7600 1767 43795F54 		.ascii	"Cy_TCPWM_Counter_Init\000"
 7600      4350574D 
 7600      5F436F75 
 7600      6E746572 
 7600      5F496E69 
 7601              	.LASF331:
 7602 177d 70664469 		.ascii	"pfDispLine\000"
 7602      73704C69 
 7602      6E6500
 7603              	.LASF389:
 7604 1788 78417869 		.ascii	"xAxisTicks\000"
 7604      73546963 
 7604      6B7300
 7605              	.LASF74:
 7606 1793 63707573 		.ascii	"cpuss_interrupts_dw0_14_IRQn\000"
 7606      735F696E 
 7606      74657272 
 7606      75707473 
 7606      5F647730 
 7607              	.LASF403:
 7608 17b0 50574D5F 		.ascii	"PWM_config\000"
 7608      636F6E66 
 7608      696700
 7609              	.LASF356:
 7610 17bb 43595F45 		.ascii	"CY_EINK_FULL_2STAGE\000"
 7610      494E4B5F 
 7610      46554C4C 
 7610      5F325354 
 7610      41474500 
 7611              	.LASF378:
 7612 17cf 706F696E 		.ascii	"pointCounter\000"
 7612      74436F75 
 7612      6E746572 
 7612      00
 7613              	.LASF130:
 7614 17dc 74637077 		.ascii	"tcpwm_1_interrupts_22_IRQn\000"
 7614      6D5F315F 
 7614      696E7465 
 7614      72727570 
 7614      74735F32 
 7615              	.LASF204:
 7616 17f7 494E5452 		.ascii	"INTR_MASKED\000"
 7616      5F4D4153 
 7616      4B454400 
 7617              	.LASF327:
 7618 1803 74475549 		.ascii	"tGUI_GetLineLen\000"
 7618      5F476574 
 7618      4C696E65 
 7618      4C656E00 
ARM GAS  C:\Users\rober\AppData\Local\Temp\ccBCZTBX.s 			page 221


 7619              	.LASF60:
 7620 1813 63707573 		.ascii	"cpuss_interrupts_dw0_0_IRQn\000"
 7620      735F696E 
 7620      74657272 
 7620      75707473 
 7620      5F647730 
 7621              	.LASF220:
 7622 182f 696E7472 		.ascii	"intrPriority\000"
 7622      5072696F 
 7622      72697479 
 7622      00
 7623              	.LASF144:
 7624 183c 7564625F 		.ascii	"udb_interrupts_12_IRQn\000"
 7624      696E7465 
 7624      72727570 
 7624      74735F31 
 7624      325F4952 
 7625              	.LASF9:
 7626 1853 53797354 		.ascii	"SysTick_IRQn\000"
 7626      69636B5F 
 7626      4952516E 
 7626      00
 7627              	.LASF346:
 7628 1860 4755495F 		.ascii	"GUI_ISINFONT\000"
 7628      4953494E 
 7628      464F4E54 
 7628      00
 7629              	.LASF77:
 7630 186d 63707573 		.ascii	"cpuss_interrupts_dw1_1_IRQn\000"
 7630      735F696E 
 7630      74657272 
 7630      75707473 
 7630      5F647731 
 7631              	.LASF168:
 7632 1889 6C6F6E67 		.ascii	"long unsigned int\000"
 7632      20756E73 
 7632      69676E65 
 7632      6420696E 
 7632      7400
 7633              	.LASF103:
 7634 189b 74637077 		.ascii	"tcpwm_0_interrupts_3_IRQn\000"
 7634      6D5F305F 
 7634      696E7465 
 7634      72727570 
 7634      74735F33 
 7635              	.LASF404:
 7636 18b5 54696D65 		.ascii	"Timer_config\000"
 7636      725F636F 
 7636      6E666967 
 7636      00
 7637              	.LASF302:
 7638 18c2 4755495F 		.ascii	"GUI_FONT_TRANSLIST\000"
 7638      464F4E54 
 7638      5F545241 
 7638      4E534C49 
 7638      535400
 7639              	.LASF276:
ARM GAS  C:\Users\rober\AppData\Local\Temp\ccBCZTBX.s 			page 222


 7640 18d5 744C4344 		.ascii	"tLCDDEV_Index2Color\000"
 7640      4445565F 
 7640      496E6465 
 7640      7832436F 
 7640      6C6F7200 
 7641              	.LASF281:
 7642 18e9 7066436F 		.ascii	"pfColor2Index\000"
 7642      6C6F7232 
 7642      496E6465 
 7642      7800
 7643              	.LASF408:
 7644 18f7 626D4379 		.ascii	"bmCypressLogoFullColor_PNG_1bpp\000"
 7644      70726573 
 7644      734C6F67 
 7644      6F46756C 
 7644      6C436F6C 
 7645              	.LASF113:
 7646 1917 74637077 		.ascii	"tcpwm_1_interrupts_5_IRQn\000"
 7646      6D5F315F 
 7646      696E7465 
 7646      72727570 
 7646      74735F35 
 7647              	.LASF369:
 7648 1931 43795F54 		.ascii	"Cy_TCPWM_TriggerReloadOrIndex\000"
 7648      4350574D 
 7648      5F547269 
 7648      67676572 
 7648      52656C6F 
 7649              	.LASF278:
 7650 194f 744C4344 		.ascii	"tLCDDEV_GetIndexMask\000"
 7650      4445565F 
 7650      47657449 
 7650      6E646578 
 7650      4D61736B 
 7651              	.LASF233:
 7652 1964 63617074 		.ascii	"captureInput\000"
 7652      75726549 
 7652      6E707574 
 7652      00
 7653              	.LASF365:
 7654 1971 43795F54 		.ascii	"Cy_TCPWM_PWM_SetCompare0\000"
 7654      4350574D 
 7654      5F50574D 
 7654      5F536574 
 7654      436F6D70 
 7655              	.LASF366:
 7656 198a 5F5F4E56 		.ascii	"__NVIC_EnableIRQ\000"
 7656      49435F45 
 7656      6E61626C 
 7656      65495251 
 7656      00
 7657              	.LASF126:
 7658 199b 74637077 		.ascii	"tcpwm_1_interrupts_18_IRQn\000"
 7658      6D5F315F 
 7658      696E7465 
 7658      72727570 
 7658      74735F31 
ARM GAS  C:\Users\rober\AppData\Local\Temp\ccBCZTBX.s 			page 223


 7659              	.LASF7:
 7660 19b6 44656275 		.ascii	"DebugMonitor_IRQn\000"
 7660      674D6F6E 
 7660      69746F72 
 7660      5F495251 
 7660      6E00
 7661              	.LASF5:
 7662 19c8 55736167 		.ascii	"UsageFault_IRQn\000"
 7662      65466175 
 7662      6C745F49 
 7662      52516E00 
 7663              	.LASF108:
 7664 19d8 74637077 		.ascii	"tcpwm_1_interrupts_0_IRQn\000"
 7664      6D5F315F 
 7664      696E7465 
 7664      72727570 
 7664      74735F30 
 7665              	.LASF135:
 7666 19f2 7564625F 		.ascii	"udb_interrupts_3_IRQn\000"
 7666      696E7465 
 7666      72727570 
 7666      74735F33 
 7666      5F495251 
 7667              	.LASF162:
 7668 1a08 756E7369 		.ascii	"unsigned char\000"
 7668      676E6564 
 7668      20636861 
 7668      7200
 7669              	.LASF167:
 7670 1a16 5F5F7569 		.ascii	"__uint32_t\000"
 7670      6E743332 
 7670      5F7400
 7671              	.LASF347:
 7672 1a21 4755495F 		.ascii	"GUI_GETCHARINFO\000"
 7672      47455443 
 7672      48415249 
 7672      4E464F00 
 7673              	.LASF241:
 7674 1a31 636F756E 		.ascii	"countInput\000"
 7674      74496E70 
 7674      757400
 7675              	.LASF51:
 7676 1a3c 7363625F 		.ascii	"scb_0_interrupt_IRQn\000"
 7676      305F696E 
 7676      74657272 
 7676      7570745F 
 7676      4952516E 
 7677              	.LASF39:
 7678 1a51 63707573 		.ascii	"cpuss_interrupts_ipc_4_IRQn\000"
 7678      735F696E 
 7678      74657272 
 7678      75707473 
 7678      5F697063 
 7679              	.LASF239:
 7680 1a6d 73746F70 		.ascii	"stopInput\000"
 7680      496E7075 
 7680      7400
ARM GAS  C:\Users\rober\AppData\Local\Temp\ccBCZTBX.s 			page 224


 7681              	.LASF260:
 7682 1a77 63795F73 		.ascii	"cy_stc_scb_spi_context\000"
 7682      74635F73 
 7682      63625F73 
 7682      70695F63 
 7682      6F6E7465 
 7683              	.LASF65:
 7684 1a8e 63707573 		.ascii	"cpuss_interrupts_dw0_5_IRQn\000"
 7684      735F696E 
 7684      74657272 
 7684      75707473 
 7684      5F647730 
 7685              	.LASF178:
 7686 1aaa 49434552 		.ascii	"ICER\000"
 7686      00
 7687              	.LASF210:
 7688 1aaf 434D445F 		.ascii	"CMD_STOP\000"
 7688      53544F50 
 7688      00
 7689              	.LASF379:
 7690 1ab8 72616E64 		.ascii	"randomTemperature1\000"
 7690      6F6D5465 
 7690      6D706572 
 7690      61747572 
 7690      653100
 7691              	.LASF380:
 7692 1acb 72616E64 		.ascii	"randomTemperature2\000"
 7692      6F6D5465 
 7692      6D706572 
 7692      61747572 
 7692      653200
 7693              	.LASF184:
 7694 1ade 49414252 		.ascii	"IABR\000"
 7694      00
 7695              	.LASF392:
 7696 1ae3 64617461 		.ascii	"data_title\000"
 7696      5F746974 
 7696      6C6500
 7697              	.LASF26:
 7698 1aee 696F7373 		.ascii	"ioss_interrupt_vdd_IRQn\000"
 7698      5F696E74 
 7698      65727275 
 7698      70745F76 
 7698      64645F49 
 7699              	.LASF289:
 7700 1b06 4755495F 		.ascii	"GUI_LOGPALETTE\000"
 7700      4C4F4750 
 7700      414C4554 
 7700      544500
 7701              	.LASF161:
 7702 1b15 5F5F7569 		.ascii	"__uint8_t\000"
 7702      6E74385F 
 7702      7400
 7703              	.LASF49:
 7704 1b1f 63707573 		.ascii	"cpuss_interrupts_ipc_14_IRQn\000"
 7704      735F696E 
 7704      74657272 
ARM GAS  C:\Users\rober\AppData\Local\Temp\ccBCZTBX.s 			page 225


 7704      75707473 
 7704      5F697063 
 7705              	.LASF429:
 7706 1b3c 4755495F 		.ascii	"GUI_SetTextAlign\000"
 7706      53657454 
 7706      65787441 
 7706      6C69676E 
 7706      00
 7707              	.LASF0:
 7708 1b4d 52657365 		.ascii	"Reset_IRQn\000"
 7708      745F4952 
 7708      516E00
 7709              	.LASF284:
 7710 1b58 4E6F416C 		.ascii	"NoAlpha\000"
 7710      70686100 
 7711              	.LASF385:
 7712 1b60 64617461 		.ascii	"dataSize\000"
 7712      53697A65 
 7712      00
 7713              	.LASF68:
 7714 1b69 63707573 		.ascii	"cpuss_interrupts_dw0_8_IRQn\000"
 7714      735F696E 
 7714      74657272 
 7714      75707473 
 7714      5F647730 
 7715              	.LASF301:
 7716 1b85 4755495F 		.ascii	"GUI_BITMAP\000"
 7716      4249544D 
 7716      415000
 7717              	.LASF2:
 7718 1b90 48617264 		.ascii	"HardFault_IRQn\000"
 7718      4661756C 
 7718      745F4952 
 7718      516E00
 7719              	.LASF159:
 7720 1b9f 7369676E 		.ascii	"signed char\000"
 7720      65642063 
 7720      68617200 
 7721              	.LASF223:
 7722 1bab 70657269 		.ascii	"period\000"
 7722      6F6400
 7723              	.LASF424:
 7724 1bb2 4755495F 		.ascii	"GUI_SetFont\000"
 7724      53657446 
 7724      6F6E7400 
 7725              	.LASF132:
 7726 1bbe 7564625F 		.ascii	"udb_interrupts_0_IRQn\000"
 7726      696E7465 
 7726      72727570 
 7726      74735F30 
 7726      5F495251 
 7727              	.LASF164:
 7728 1bd4 73686F72 		.ascii	"short unsigned int\000"
 7728      7420756E 
 7728      7369676E 
 7728      65642069 
 7728      6E7400
ARM GAS  C:\Users\rober\AppData\Local\Temp\ccBCZTBX.s 			page 226


 7729              	.LASF243:
 7730 1be7 63795F73 		.ascii	"cy_stc_tcpwm_counter_config\000"
 7730      74635F74 
 7730      6370776D 
 7730      5F636F75 
 7730      6E746572 
 7731              	.LASF342:
 7732 1c03 594D6167 		.ascii	"YMag\000"
 7732      00
 7733              	.LASF294:
 7734 1c08 5853697A 		.ascii	"XSize\000"
 7734      6500
 7735              	.LASF447:
 7736 1c0e 6D656D63 		.ascii	"memcpy\000"
 7736      707900
 7737              	.LASF446:
 7738 1c15 6D61696E 		.ascii	"main\000"
 7738      00
 7739              	.LASF118:
 7740 1c1a 74637077 		.ascii	"tcpwm_1_interrupts_10_IRQn\000"
 7740      6D5F315F 
 7740      696E7465 
 7740      72727570 
 7740      74735F31 
 7741              	.LASF15:
 7742 1c35 696F7373 		.ascii	"ioss_interrupts_gpio_5_IRQn\000"
 7742      5F696E74 
 7742      65727275 
 7742      7074735F 
 7742      6770696F 
 7743              	.LASF197:
 7744 1c51 54525F43 		.ascii	"TR_CTRL0\000"
 7744      54524C30 
 7744      00
 7745              	.LASF198:
 7746 1c5a 54525F43 		.ascii	"TR_CTRL1\000"
 7746      54524C31 
 7746      00
 7747              	.LASF353:
 7748 1c63 63795F65 		.ascii	"cy_eink_frame_t\000"
 7748      696E6B5F 
 7748      6672616D 
 7748      655F7400 
 7749              	.LASF44:
 7750 1c73 63707573 		.ascii	"cpuss_interrupts_ipc_9_IRQn\000"
 7750      735F696E 
 7750      74657272 
 7750      75707473 
 7750      5F697063 
 7751              	.LASF372:
 7752 1c8f 43795F54 		.ascii	"Cy_TCPWM_Enable_Multiple\000"
 7752      4350574D 
 7752      5F456E61 
 7752      626C655F 
 7752      4D756C74 
 7753              	.LASF180:
 7754 1ca8 49535052 		.ascii	"ISPR\000"
ARM GAS  C:\Users\rober\AppData\Local\Temp\ccBCZTBX.s 			page 227


 7754      00
 7755              	.LASF59:
 7756 1cad 6373645F 		.ascii	"csd_interrupt_IRQn\000"
 7756      696E7465 
 7756      72727570 
 7756      745F4952 
 7756      516E00
 7757              	.LASF269:
 7758 1cc0 696E6974 		.ascii	"initKey\000"
 7758      4B657900 
 7759              	.LASF93:
 7760 1cc8 63707573 		.ascii	"cpuss_interrupts_fault_1_IRQn\000"
 7760      735F696E 
 7760      74657272 
 7760      75707473 
 7760      5F666175 
 7761              	.LASF218:
 7762 1ce6 75696E74 		.ascii	"uint8\000"
 7762      3800
 7763              	.LASF217:
 7764 1cec 646F7562 		.ascii	"double\000"
 7764      6C6500
 7765              	.LASF308:
 7766 1cf3 4755495F 		.ascii	"GUI_CHARINFO\000"
 7766      43484152 
 7766      494E464F 
 7766      00
 7767              	.LASF10:
 7768 1d00 696F7373 		.ascii	"ioss_interrupts_gpio_0_IRQn\000"
 7768      5F696E74 
 7768      65727275 
 7768      7074735F 
 7768      6770696F 
 7769              	.LASF189:
 7770 1d1c 4E564943 		.ascii	"NVIC_Type\000"
 7770      5F547970 
 7770      6500
 7771              	.LASF71:
 7772 1d26 63707573 		.ascii	"cpuss_interrupts_dw0_11_IRQn\000"
 7772      735F696E 
 7772      74657272 
 7772      75707473 
 7772      5F647730 
 7773              	.LASF191:
 7774 1d43 53544154 		.ascii	"STATUS\000"
 7774      555300
 7775              	.LASF314:
 7776 1d4a 4C617374 		.ascii	"Last\000"
 7776      00
 7777              	.LASF174:
 7778 1d4f 696E7433 		.ascii	"int32_t\000"
 7778      325F7400 
 7779              	.LASF79:
 7780 1d57 63707573 		.ascii	"cpuss_interrupts_dw1_3_IRQn\000"
 7780      735F696E 
 7780      74657272 
 7780      75707473 
ARM GAS  C:\Users\rober\AppData\Local\Temp\ccBCZTBX.s 			page 228


 7780      5F647731 
 7781              	.LASF105:
 7782 1d73 74637077 		.ascii	"tcpwm_0_interrupts_5_IRQn\000"
 7782      6D5F305F 
 7782      696E7465 
 7782      72727570 
 7782      74735F35 
 7783              	.LASF121:
 7784 1d8d 74637077 		.ascii	"tcpwm_1_interrupts_13_IRQn\000"
 7784      6D5F315F 
 7784      696E7465 
 7784      72727570 
 7784      74735F31 
 7785              	.LASF316:
 7786 1da8 704E6578 		.ascii	"pNext\000"
 7786      7400
 7787              	.LASF434:
 7788 1dae 4755495F 		.ascii	"GUI_ClearRect\000"
 7788      436C6561 
 7788      72526563 
 7788      7400
 7789              	.LASF192:
 7790 1dbc 434F554E 		.ascii	"COUNTER\000"
 7790      54455200 
 7791              	.LASF148:
 7792 1dc4 70617373 		.ascii	"pass_interrupt_sar_IRQn\000"
 7792      5F696E74 
 7792      65727275 
 7792      70745F73 
 7792      61725F49 
 7793              	.LASF382:
 7794 1ddc 436C6561 		.ascii	"ClearScreen\000"
 7794      72536372 
 7794      65656E00 
 7795              	.LASF13:
 7796 1de8 696F7373 		.ascii	"ioss_interrupts_gpio_3_IRQn\000"
 7796      5F696E74 
 7796      65727275 
 7796      7074735F 
 7796      6770696F 
 7797              	.LASF94:
 7798 1e04 63707573 		.ascii	"cpuss_interrupt_crypto_IRQn\000"
 7798      735F696E 
 7798      74657272 
 7798      7570745F 
 7798      63727970 
 7799              	.LASF312:
 7800 1e20 4755495F 		.ascii	"GUI_FONT_PROP\000"
 7800      464F4E54 
 7800      5F50524F 
 7800      5000
 7801              	.LASF100:
 7802 1e2e 74637077 		.ascii	"tcpwm_0_interrupts_0_IRQn\000"
 7802      6D5F305F 
 7802      696E7465 
 7802      72727570 
 7802      74735F30 
ARM GAS  C:\Users\rober\AppData\Local\Temp\ccBCZTBX.s 			page 229


 7803              	.LASF412:
 7804 1e48 64617461 		.ascii	"dataSize_global\000"
 7804      53697A65 
 7804      5F676C6F 
 7804      62616C00 
 7805              	.LASF82:
 7806 1e58 63707573 		.ascii	"cpuss_interrupts_dw1_6_IRQn\000"
 7806      735F696E 
 7806      74657272 
 7806      75707473 
 7806      5F647731 
 7807              	.LASF390:
 7808 1e74 79417869 		.ascii	"yAxisTicks\000"
 7808      73546963 
 7808      6B7300
 7809              	.LASF345:
 7810 1e7f 4755495F 		.ascii	"GUI_GETFONTINFO\000"
 7810      47455446 
 7810      4F4E5449 
 7810      4E464F00 
 7811              	.LASF351:
 7812 1e8f 7050726F 		.ascii	"pPropExt\000"
 7812      70457874 
 7812      00
 7813              	.LASF38:
 7814 1e98 63707573 		.ascii	"cpuss_interrupts_ipc_3_IRQn\000"
 7814      735F696E 
 7814      74657272 
 7814      75707473 
 7814      5F697063 
 7815              	.LASF195:
 7816 1eb4 50455249 		.ascii	"PERIOD_BUFF\000"
 7816      4F445F42 
 7816      55464600 
 7817              	.LASF263:
 7818 1ec0 72784275 		.ascii	"rxBufSize\000"
 7818      6653697A 
 7818      6500
 7819              	.LASF190:
 7820 1eca 4354524C 		.ascii	"CTRL\000"
 7820      00
 7821              	.LASF98:
 7822 1ecf 63707573 		.ascii	"cpuss_interrupts_cm4_cti_0_IRQn\000"
 7822      735F696E 
 7822      74657272 
 7822      75707473 
 7822      5F636D34 
 7823              	.LASF427:
 7824 1eef 4755495F 		.ascii	"GUI_Clear\000"
 7824      436C6561 
 7824      7200
 7825              	.LASF110:
 7826 1ef9 74637077 		.ascii	"tcpwm_1_interrupts_2_IRQn\000"
 7826      6D5F315F 
 7826      696E7465 
 7826      72727570 
 7826      74735F32 
ARM GAS  C:\Users\rober\AppData\Local\Temp\ccBCZTBX.s 			page 230


 7827              		.ident	"GCC: (GNU Tools for ARM Embedded Processors) 5.4.1 20160609 (release) [ARM/embedded-5-bran
