ARM GAS  C:\Users\rober\AppData\Local\Temp\ccBlBMtt.s 			page 1


   1              		.syntax unified
   2              		.cpu cortex-m4
   3              		.eabi_attribute 27, 1
   4              		.fpu fpv4-sp-d16
   5              		.eabi_attribute 20, 1
   6              		.eabi_attribute 21, 1
   7              		.eabi_attribute 23, 3
   8              		.eabi_attribute 24, 1
   9              		.eabi_attribute 25, 1
  10              		.eabi_attribute 26, 1
  11              		.eabi_attribute 30, 1
  12              		.eabi_attribute 34, 1
  13              		.eabi_attribute 18, 4
  14              		.thumb
  15              		.syntax unified
  16              		.file	"pervasive_eink_hardware_driver.c"
  17              		.text
  18              	.Ltext0:
  19              		.cfi_sections	.debug_frame
  20              		.section	.text.Pv_EINK_SendData,"ax",%progbits
  21              		.align	2
  22              		.global	Pv_EINK_SendData
  23              		.thumb
  24              		.thumb_func
  25              		.type	Pv_EINK_SendData, %function
  26              	Pv_EINK_SendData:
  27              	.LFB603:
  28              		.file 1 "eInk Library\\pervasive_eink_hardware_driver.c"
   1:eInk Library/pervasive_eink_hardware_driver.c **** /*******************************************************************************
   2:eInk Library/pervasive_eink_hardware_driver.c **** * Copyright (2017), Pervasive Displays Inc.
   3:eInk Library/pervasive_eink_hardware_driver.c **** *******************************************************************************
   4:eInk Library/pervasive_eink_hardware_driver.c **** *
   5:eInk Library/pervasive_eink_hardware_driver.c **** *  Authors: Pervasive Displays Inc.
   6:eInk Library/pervasive_eink_hardware_driver.c **** *
   7:eInk Library/pervasive_eink_hardware_driver.c **** *  Redistribution and use in source and binary forms, with or without
   8:eInk Library/pervasive_eink_hardware_driver.c **** *  modification, are permitted provided that the following conditions
   9:eInk Library/pervasive_eink_hardware_driver.c **** *  are met:
  10:eInk Library/pervasive_eink_hardware_driver.c **** *
  11:eInk Library/pervasive_eink_hardware_driver.c **** *  1. Redistributions of source code must retain the above copyright
  12:eInk Library/pervasive_eink_hardware_driver.c **** *     notice, this list of conditions and the following disclaimer.
  13:eInk Library/pervasive_eink_hardware_driver.c **** *  2. Redistributions in binary form must reproduce the above copyright
  14:eInk Library/pervasive_eink_hardware_driver.c **** *     notice, this list of conditions and the following disclaimer in
  15:eInk Library/pervasive_eink_hardware_driver.c **** *     the documentation and/or other materials provided with the
  16:eInk Library/pervasive_eink_hardware_driver.c **** *     distribution.
  17:eInk Library/pervasive_eink_hardware_driver.c **** *
  18:eInk Library/pervasive_eink_hardware_driver.c **** *  THIS SOFTWARE IS PROVIDED BY THE COPYRIGHT HOLDERS AND CONTRIBUTORS
  19:eInk Library/pervasive_eink_hardware_driver.c **** *  "AS IS" AND ANY EXPRESS OR IMPLIED WARRANTIES, INCLUDING, BUT NOT
  20:eInk Library/pervasive_eink_hardware_driver.c **** *  LIMITED TO, THE IMPLIED WARRANTIES OF MERCHANTABILITY AND FITNESS FOR
  21:eInk Library/pervasive_eink_hardware_driver.c **** *  A PARTICULAR PURPOSE ARE DISCLAIMED. IN NO EVENT SHALL THE COPYRIGHT
  22:eInk Library/pervasive_eink_hardware_driver.c **** *  OWNER OR CONTRIBUTORS BE LIABLE FOR ANY DIRECT, INDIRECT, INCIDENTAL,
  23:eInk Library/pervasive_eink_hardware_driver.c **** *  SPECIAL, EXEMPLARY, OR CONSEQUENTIAL DAMAGES (INCLUDING, BUT NOT
  24:eInk Library/pervasive_eink_hardware_driver.c **** *  LIMITED TO, PROCUREMENT OF SUBSTITUTE GOODS OR SERVICES; LOSS OF USE,
  25:eInk Library/pervasive_eink_hardware_driver.c **** *  DATA, OR PROFITS; OR BUSINESS INTERRUPTION) HOWEVER CAUSED AND ON ANY
  26:eInk Library/pervasive_eink_hardware_driver.c **** *  THEORY OF LIABILITY, WHETHER IN CONTRACT, STRICT LIABILITY, OR TORT
  27:eInk Library/pervasive_eink_hardware_driver.c **** *  (INCLUDING NEGLIGENCE OR OTHERWISE) ARISING IN ANY WAY OUT OF THE USE
  28:eInk Library/pervasive_eink_hardware_driver.c **** *  OF THIS SOFTWARE, EVEN IF ADVISED OF THE POSSIBILITY OF SUCH DAMAGE.
  29:eInk Library/pervasive_eink_hardware_driver.c **** *******************************************************************************/
ARM GAS  C:\Users\rober\AppData\Local\Temp\ccBlBMtt.s 			page 2


  30:eInk Library/pervasive_eink_hardware_driver.c **** /******************************************************************************
  31:eInk Library/pervasive_eink_hardware_driver.c **** * For the details of E-INK display hardware and driver, see the 2.7 inch display
  32:eInk Library/pervasive_eink_hardware_driver.c **** * product specification and G2 COG driver interface documents available at the
  33:eInk Library/pervasive_eink_hardware_driver.c **** * following location:
  34:eInk Library/pervasive_eink_hardware_driver.c **** * http://www.pervasivedisplays.com/products/271
  35:eInk Library/pervasive_eink_hardware_driver.c **** *******************************************************************************/
  36:eInk Library/pervasive_eink_hardware_driver.c **** 
  37:eInk Library/pervasive_eink_hardware_driver.c **** /* Header file includes */
  38:eInk Library/pervasive_eink_hardware_driver.c **** #include <string.h>
  39:eInk Library/pervasive_eink_hardware_driver.c **** #include "pervasive_eink_hardware_driver.h"
  40:eInk Library/pervasive_eink_hardware_driver.c **** 
  41:eInk Library/pervasive_eink_hardware_driver.c **** #define BUFFERED_WRITE  1
  42:eInk Library/pervasive_eink_hardware_driver.c **** 
  43:eInk Library/pervasive_eink_hardware_driver.c **** /* Macro for the dummy byte used in the line data */
  44:eInk Library/pervasive_eink_hardware_driver.c **** #define PV_EINK_DUMMY_BYTE     (uint8_t)(0x00u)
  45:eInk Library/pervasive_eink_hardware_driver.c **** 
  46:eInk Library/pervasive_eink_hardware_driver.c **** /* Data used to initialize the scan bytes */
  47:eInk Library/pervasive_eink_hardware_driver.c **** #define PV_EINK_SCAN_BYTE_INIT (uint8_t)(0x00u)
  48:eInk Library/pervasive_eink_hardware_driver.c **** 
  49:eInk Library/pervasive_eink_hardware_driver.c **** /* Line data structure of 2.7" display. Refer to driver document Section 5.1 
  50:eInk Library/pervasive_eink_hardware_driver.c ****    for details */
  51:eInk Library/pervasive_eink_hardware_driver.c **** struct eink_lineData
  52:eInk Library/pervasive_eink_hardware_driver.c **** {
  53:eInk Library/pervasive_eink_hardware_driver.c ****     /*  Dummy byte (0x00) */
  54:eInk Library/pervasive_eink_hardware_driver.c ****     uint8_t dummyData;
  55:eInk Library/pervasive_eink_hardware_driver.c **** 
  56:eInk Library/pervasive_eink_hardware_driver.c ****     /*  2.7" even byte array */
  57:eInk Library/pervasive_eink_hardware_driver.c ****     uint8_t even[PV_EINK_HORIZONTAL_SIZE];
  58:eInk Library/pervasive_eink_hardware_driver.c **** 
  59:eInk Library/pervasive_eink_hardware_driver.c ****     /*  2.7" scan byte array */
  60:eInk Library/pervasive_eink_hardware_driver.c ****     uint8_t scan[PV_EINK_SCAN_LINE_SIZE];
  61:eInk Library/pervasive_eink_hardware_driver.c **** 
  62:eInk Library/pervasive_eink_hardware_driver.c ****     /*  2.7" odd byte array */
  63:eInk Library/pervasive_eink_hardware_driver.c ****     uint8_t odd[PV_EINK_HORIZONTAL_SIZE];
  64:eInk Library/pervasive_eink_hardware_driver.c **** };
  65:eInk Library/pervasive_eink_hardware_driver.c **** 
  66:eInk Library/pervasive_eink_hardware_driver.c **** /* Packet structure of a line data */
  67:eInk Library/pervasive_eink_hardware_driver.c **** typedef union
  68:eInk Library/pervasive_eink_hardware_driver.c **** {
  69:eInk Library/pervasive_eink_hardware_driver.c ****     /* Line data structure of 2.7" E-INK display */
  70:eInk Library/pervasive_eink_hardware_driver.c ****     struct eink_lineData    lineDataBySize;
  71:eInk Library/pervasive_eink_hardware_driver.c **** 
  72:eInk Library/pervasive_eink_hardware_driver.c ****     /* Line buffer equal to the data line size */
  73:eInk Library/pervasive_eink_hardware_driver.c ****     uint8_t                 lineBuffer[PV_EINK_DATA_LINE_SIZE];
  74:eInk Library/pervasive_eink_hardware_driver.c **** 
  75:eInk Library/pervasive_eink_hardware_driver.c ****     /* The maximum line buffer data size as length */
  76:eInk Library/pervasive_eink_hardware_driver.c **** }   driver_data_packet_t;
  77:eInk Library/pervasive_eink_hardware_driver.c **** 
  78:eInk Library/pervasive_eink_hardware_driver.c **** /* Variable that stores the packets for one full drive frame. This variable
  79:eInk Library/pervasive_eink_hardware_driver.c ****    is used for full and partial updates */
  80:eInk Library/pervasive_eink_hardware_driver.c **** driver_data_packet_t  bulkDriverPacket[PV_EINK_VERTICAL_SIZE];
  81:eInk Library/pervasive_eink_hardware_driver.c **** 
  82:eInk Library/pervasive_eink_hardware_driver.c **** /* Variable that stores a single line data. This variable is used to prepare 
  83:eInk Library/pervasive_eink_hardware_driver.c ****    dummy frames */
  84:eInk Library/pervasive_eink_hardware_driver.c **** driver_data_packet_t  static driverPacket;
  85:eInk Library/pervasive_eink_hardware_driver.c **** 
  86:eInk Library/pervasive_eink_hardware_driver.c **** /* Scan table for the four stages of display update*/
ARM GAS  C:\Users\rober\AppData\Local\Temp\ccBlBMtt.s 			page 3


  87:eInk Library/pervasive_eink_hardware_driver.c **** uint8_t const               scanTable[PV_EINK_SCAN_TABLE_SIZE] =
  88:eInk Library/pervasive_eink_hardware_driver.c ****                             PV_EINK_SCAN_TABLE_DATA;
  89:eInk Library/pervasive_eink_hardware_driver.c **** 
  90:eInk Library/pervasive_eink_hardware_driver.c **** /* The SPI register addresses for Channel Select */
  91:eInk Library/pervasive_eink_hardware_driver.c **** uint8_t const               channelSelect[PV_EINK_CHANNEL_SEL_SIZE] =
  92:eInk Library/pervasive_eink_hardware_driver.c ****                             PV_EINK_CHANNEL_SEL_DATA;
  93:eInk Library/pervasive_eink_hardware_driver.c **** 
  94:eInk Library/pervasive_eink_hardware_driver.c **** /* Variables that store the driver timing information */
  95:eInk Library/pervasive_eink_hardware_driver.c **** uint16_t static             fullUpdateTime;
  96:eInk Library/pervasive_eink_hardware_driver.c **** uint16_t static             partialUpdateTime;
  97:eInk Library/pervasive_eink_hardware_driver.c **** 
  98:eInk Library/pervasive_eink_hardware_driver.c **** /* Pointers for the data structures used by the driver */
  99:eInk Library/pervasive_eink_hardware_driver.c **** uint8_t static*             dataLineEven;
 100:eInk Library/pervasive_eink_hardware_driver.c **** uint8_t static*             dataLineOdd;
 101:eInk Library/pervasive_eink_hardware_driver.c **** uint8_t static*             dataLineScan;
 102:eInk Library/pervasive_eink_hardware_driver.c **** 
 103:eInk Library/pervasive_eink_hardware_driver.c **** /*******************************************************************************
 104:eInk Library/pervasive_eink_hardware_driver.c **** * Function Name: void Pv_EINK_SendData(uint8_t regAddr, uint8_t* data, 
 105:eInk Library/pervasive_eink_hardware_driver.c **** *                                   uint16_t dataLength)
 106:eInk Library/pervasive_eink_hardware_driver.c **** ********************************************************************************
 107:eInk Library/pervasive_eink_hardware_driver.c **** *
 108:eInk Library/pervasive_eink_hardware_driver.c **** * Summary: Sends an array of data to the E-INK driver.
 109:eInk Library/pervasive_eink_hardware_driver.c **** *
 110:eInk Library/pervasive_eink_hardware_driver.c **** * Parameters:
 111:eInk Library/pervasive_eink_hardware_driver.c **** *  uint8_t regAddr    : Display driver register address
 112:eInk Library/pervasive_eink_hardware_driver.c **** *  uint8_t* data      : Pointer to the data array that will be sent to the driver
 113:eInk Library/pervasive_eink_hardware_driver.c **** *  uint16_t dataLength: Length of the data array
 114:eInk Library/pervasive_eink_hardware_driver.c **** *
 115:eInk Library/pervasive_eink_hardware_driver.c **** * Return:
 116:eInk Library/pervasive_eink_hardware_driver.c **** *  None
 117:eInk Library/pervasive_eink_hardware_driver.c **** *
 118:eInk Library/pervasive_eink_hardware_driver.c **** * Side Effects:
 119:eInk Library/pervasive_eink_hardware_driver.c **** *  None
 120:eInk Library/pervasive_eink_hardware_driver.c **** *******************************************************************************/
 121:eInk Library/pervasive_eink_hardware_driver.c **** void Pv_EINK_SendData(uint8_t regAddr, uint8_t* data, uint16_t dataLength)
 122:eInk Library/pervasive_eink_hardware_driver.c **** {
  29              		.loc 1 122 0
  30              		.cfi_startproc
  31              		@ args = 0, pretend = 0, frame = 0
  32              		@ frame_needed = 0, uses_anonymous_args = 0
  33              	.LVL0:
  34 0000 2DE9F041 		push	{r4, r5, r6, r7, r8, lr}
  35              		.cfi_def_cfa_offset 24
  36              		.cfi_offset 4, -24
  37              		.cfi_offset 5, -20
  38              		.cfi_offset 6, -16
  39              		.cfi_offset 7, -12
  40              		.cfi_offset 8, -8
  41              		.cfi_offset 14, -4
  42 0004 8046     		mov	r8, r0
  43 0006 0E46     		mov	r6, r1
  44 0008 1746     		mov	r7, r2
  45              	.LVL1:
  46              	.LBB58:
  47              	.LBB59:
  48              		.file 2 "Generated_Source\\PSoC6\\pdl\\drivers/peripheral/gpio/cy_gpio.h"
   1:Generated_Source\PSoC6\pdl\drivers/peripheral/gpio/cy_gpio.h **** /***************************************************************************//**
ARM GAS  C:\Users\rober\AppData\Local\Temp\ccBlBMtt.s 			page 4


   2:Generated_Source\PSoC6\pdl\drivers/peripheral/gpio/cy_gpio.h **** * \file cy_gpio.h
   3:Generated_Source\PSoC6\pdl\drivers/peripheral/gpio/cy_gpio.h **** * \version 1.10.1
   4:Generated_Source\PSoC6\pdl\drivers/peripheral/gpio/cy_gpio.h **** *
   5:Generated_Source\PSoC6\pdl\drivers/peripheral/gpio/cy_gpio.h **** * \brief
   6:Generated_Source\PSoC6\pdl\drivers/peripheral/gpio/cy_gpio.h **** * Provides an API declaration of the GPIO driver
   7:Generated_Source\PSoC6\pdl\drivers/peripheral/gpio/cy_gpio.h **** *
   8:Generated_Source\PSoC6\pdl\drivers/peripheral/gpio/cy_gpio.h **** ********************************************************************************
   9:Generated_Source\PSoC6\pdl\drivers/peripheral/gpio/cy_gpio.h **** * \copyright
  10:Generated_Source\PSoC6\pdl\drivers/peripheral/gpio/cy_gpio.h **** * Copyright 2016-2018, Cypress Semiconductor Corporation. All rights reserved.
  11:Generated_Source\PSoC6\pdl\drivers/peripheral/gpio/cy_gpio.h **** * You may use this file only in accordance with the license, terms, conditions,
  12:Generated_Source\PSoC6\pdl\drivers/peripheral/gpio/cy_gpio.h **** * disclaimers, and limitations in the end user license agreement accompanying
  13:Generated_Source\PSoC6\pdl\drivers/peripheral/gpio/cy_gpio.h **** * the software package with which this file was provided.
  14:Generated_Source\PSoC6\pdl\drivers/peripheral/gpio/cy_gpio.h **** *******************************************************************************/
  15:Generated_Source\PSoC6\pdl\drivers/peripheral/gpio/cy_gpio.h **** 
  16:Generated_Source\PSoC6\pdl\drivers/peripheral/gpio/cy_gpio.h **** /**
  17:Generated_Source\PSoC6\pdl\drivers/peripheral/gpio/cy_gpio.h **** * \defgroup group_gpio General Purpose Input Output (GPIO)
  18:Generated_Source\PSoC6\pdl\drivers/peripheral/gpio/cy_gpio.h **** * \{
  19:Generated_Source\PSoC6\pdl\drivers/peripheral/gpio/cy_gpio.h **** * The GPIO driver provides an API to configure and access device Input/Output pins.
  20:Generated_Source\PSoC6\pdl\drivers/peripheral/gpio/cy_gpio.h **** * IO pins include all general purpose types such as GPIO, SIO, HSIO, AUXIO, and
  21:Generated_Source\PSoC6\pdl\drivers/peripheral/gpio/cy_gpio.h **** * their variants.
  22:Generated_Source\PSoC6\pdl\drivers/peripheral/gpio/cy_gpio.h **** *
  23:Generated_Source\PSoC6\pdl\drivers/peripheral/gpio/cy_gpio.h **** * Initialization can be performed either at the port level or by configuring the
  24:Generated_Source\PSoC6\pdl\drivers/peripheral/gpio/cy_gpio.h **** * individual pins. For efficient use of code space, port
  25:Generated_Source\PSoC6\pdl\drivers/peripheral/gpio/cy_gpio.h **** * configuration should be used in the field. Refer to the product device header files 
  26:Generated_Source\PSoC6\pdl\drivers/peripheral/gpio/cy_gpio.h **** * for the list of supported ports and pins.
  27:Generated_Source\PSoC6\pdl\drivers/peripheral/gpio/cy_gpio.h **** * 
  28:Generated_Source\PSoC6\pdl\drivers/peripheral/gpio/cy_gpio.h **** * - Single pin configuration is performed by using \ref Cy_GPIO_Pin_FastInit 
  29:Generated_Source\PSoC6\pdl\drivers/peripheral/gpio/cy_gpio.h **** *   (provide specific values) or \ref Cy_GPIO_Pin_Init (provide a filled
  30:Generated_Source\PSoC6\pdl\drivers/peripheral/gpio/cy_gpio.h **** *   cy_stc_gpio_pin_config_t structure).
  31:Generated_Source\PSoC6\pdl\drivers/peripheral/gpio/cy_gpio.h **** * - An entire port can be configured using \ref Cy_GPIO_Port_Init. Provide a filled 
  32:Generated_Source\PSoC6\pdl\drivers/peripheral/gpio/cy_gpio.h **** *   cy_stc_gpio_prt_config_t structure. The values in the structure are 
  33:Generated_Source\PSoC6\pdl\drivers/peripheral/gpio/cy_gpio.h **** *   bitfields representing the desired value for each pin in the port.
  34:Generated_Source\PSoC6\pdl\drivers/peripheral/gpio/cy_gpio.h **** * - Pin configuration and management is based on the port address and pin number.
  35:Generated_Source\PSoC6\pdl\drivers/peripheral/gpio/cy_gpio.h **** *   \ref Cy_GPIO_PortToAddr function can optionally be used to calculate the port
  36:Generated_Source\PSoC6\pdl\drivers/peripheral/gpio/cy_gpio.h **** *   address from the port number at run-time.
  37:Generated_Source\PSoC6\pdl\drivers/peripheral/gpio/cy_gpio.h **** *
  38:Generated_Source\PSoC6\pdl\drivers/peripheral/gpio/cy_gpio.h **** * Once the pin/port initialization is complete, each pin can be accessed by 
  39:Generated_Source\PSoC6\pdl\drivers/peripheral/gpio/cy_gpio.h **** * specifying the port (GPIO_PRT_Type) and the pin (0-7) in the provided API 
  40:Generated_Source\PSoC6\pdl\drivers/peripheral/gpio/cy_gpio.h **** * functions.
  41:Generated_Source\PSoC6\pdl\drivers/peripheral/gpio/cy_gpio.h **** *
  42:Generated_Source\PSoC6\pdl\drivers/peripheral/gpio/cy_gpio.h **** * \section group_gpio_configuration Configuration Considerations
  43:Generated_Source\PSoC6\pdl\drivers/peripheral/gpio/cy_gpio.h **** *
  44:Generated_Source\PSoC6\pdl\drivers/peripheral/gpio/cy_gpio.h **** * 1. Pin multiplexing is controlled through the High-Speed IO Matrix (HSIOM) selection.
  45:Generated_Source\PSoC6\pdl\drivers/peripheral/gpio/cy_gpio.h **** *    This allows the pin to connect to signal sources/sinks throughout the device,
  46:Generated_Source\PSoC6\pdl\drivers/peripheral/gpio/cy_gpio.h **** *    as defined by the pin HSIOM selection options (en_hsiom_sel_t).
  47:Generated_Source\PSoC6\pdl\drivers/peripheral/gpio/cy_gpio.h **** * 2. All pins are initialized to High-Z drive mode with HSIOM connected to CPU (SW
  48:Generated_Source\PSoC6\pdl\drivers/peripheral/gpio/cy_gpio.h **** *    control digital pin only) at Power-On-Reset(POR).
  49:Generated_Source\PSoC6\pdl\drivers/peripheral/gpio/cy_gpio.h **** * 3. Some API functions perform read-modify-write operations on shared port
  50:Generated_Source\PSoC6\pdl\drivers/peripheral/gpio/cy_gpio.h **** *    registers. These functions are not thread safe and care must be taken when
  51:Generated_Source\PSoC6\pdl\drivers/peripheral/gpio/cy_gpio.h **** *    called by the application.
  52:Generated_Source\PSoC6\pdl\drivers/peripheral/gpio/cy_gpio.h **** *
  53:Generated_Source\PSoC6\pdl\drivers/peripheral/gpio/cy_gpio.h **** * Multiple pins on a port can be updated using direct port register writes with an
  54:Generated_Source\PSoC6\pdl\drivers/peripheral/gpio/cy_gpio.h **** * appropriate port mask. An example is shown below, highlighting the different ways of 
  55:Generated_Source\PSoC6\pdl\drivers/peripheral/gpio/cy_gpio.h **** * configuring Port 1 pins using,
  56:Generated_Source\PSoC6\pdl\drivers/peripheral/gpio/cy_gpio.h **** * 
  57:Generated_Source\PSoC6\pdl\drivers/peripheral/gpio/cy_gpio.h **** * - Port output data register
  58:Generated_Source\PSoC6\pdl\drivers/peripheral/gpio/cy_gpio.h **** * - Port output data set register
ARM GAS  C:\Users\rober\AppData\Local\Temp\ccBlBMtt.s 			page 5


  59:Generated_Source\PSoC6\pdl\drivers/peripheral/gpio/cy_gpio.h **** * - Port output data clear register
  60:Generated_Source\PSoC6\pdl\drivers/peripheral/gpio/cy_gpio.h **** *
  61:Generated_Source\PSoC6\pdl\drivers/peripheral/gpio/cy_gpio.h **** * \snippet gpio/gpio_v1_10_sut_01.cydsn/main_cm4.c Cy_GPIO_Snippet
  62:Generated_Source\PSoC6\pdl\drivers/peripheral/gpio/cy_gpio.h **** *
  63:Generated_Source\PSoC6\pdl\drivers/peripheral/gpio/cy_gpio.h **** * \section group_gpio_more_information More Information
  64:Generated_Source\PSoC6\pdl\drivers/peripheral/gpio/cy_gpio.h **** *
  65:Generated_Source\PSoC6\pdl\drivers/peripheral/gpio/cy_gpio.h **** * Refer to the technical reference manual (TRM) and the device datasheet.
  66:Generated_Source\PSoC6\pdl\drivers/peripheral/gpio/cy_gpio.h **** *
  67:Generated_Source\PSoC6\pdl\drivers/peripheral/gpio/cy_gpio.h **** * \section group_gpio_MISRA MISRA-C Compliance]
  68:Generated_Source\PSoC6\pdl\drivers/peripheral/gpio/cy_gpio.h **** * <table class="doxtable">
  69:Generated_Source\PSoC6\pdl\drivers/peripheral/gpio/cy_gpio.h **** *   <tr>
  70:Generated_Source\PSoC6\pdl\drivers/peripheral/gpio/cy_gpio.h **** *     <th>MISRA Rule</th>
  71:Generated_Source\PSoC6\pdl\drivers/peripheral/gpio/cy_gpio.h **** *     <th>Rule Class (Required/Advisory)</th>
  72:Generated_Source\PSoC6\pdl\drivers/peripheral/gpio/cy_gpio.h **** *     <th>Rule Description</th>
  73:Generated_Source\PSoC6\pdl\drivers/peripheral/gpio/cy_gpio.h **** *     <th>Description of Deviation(s)</th>
  74:Generated_Source\PSoC6\pdl\drivers/peripheral/gpio/cy_gpio.h **** *   </tr>
  75:Generated_Source\PSoC6\pdl\drivers/peripheral/gpio/cy_gpio.h **** *   <tr>
  76:Generated_Source\PSoC6\pdl\drivers/peripheral/gpio/cy_gpio.h **** *     <td>16.7</td>
  77:Generated_Source\PSoC6\pdl\drivers/peripheral/gpio/cy_gpio.h **** *     <td>A</td>
  78:Generated_Source\PSoC6\pdl\drivers/peripheral/gpio/cy_gpio.h **** *     <td>A pointer parameter in a function prototype should be declared as pointer 
  79:Generated_Source\PSoC6\pdl\drivers/peripheral/gpio/cy_gpio.h **** *         to const if the pointer is not used to modify the addressed object.</td>
  80:Generated_Source\PSoC6\pdl\drivers/peripheral/gpio/cy_gpio.h **** *     <td>The objects pointed to by the base addresses of the GPIO port are not always modified.
  81:Generated_Source\PSoC6\pdl\drivers/peripheral/gpio/cy_gpio.h **** *         While a const qualifier can be used in select scenarios, it brings little benefit
  82:Generated_Source\PSoC6\pdl\drivers/peripheral/gpio/cy_gpio.h **** *         in adding this to the affected functions. </td>
  83:Generated_Source\PSoC6\pdl\drivers/peripheral/gpio/cy_gpio.h **** *   </tr>
  84:Generated_Source\PSoC6\pdl\drivers/peripheral/gpio/cy_gpio.h **** * </table>
  85:Generated_Source\PSoC6\pdl\drivers/peripheral/gpio/cy_gpio.h **** *
  86:Generated_Source\PSoC6\pdl\drivers/peripheral/gpio/cy_gpio.h **** * \section group_gpio_changelog Changelog
  87:Generated_Source\PSoC6\pdl\drivers/peripheral/gpio/cy_gpio.h **** * <table class="doxtable">
  88:Generated_Source\PSoC6\pdl\drivers/peripheral/gpio/cy_gpio.h **** *   <tr><th>Version</th><th>Changes</th><th>Reason for Change</th></tr>
  89:Generated_Source\PSoC6\pdl\drivers/peripheral/gpio/cy_gpio.h **** *   <tr>
  90:Generated_Source\PSoC6\pdl\drivers/peripheral/gpio/cy_gpio.h **** *     <td>1.10.1</td>
  91:Generated_Source\PSoC6\pdl\drivers/peripheral/gpio/cy_gpio.h **** *     <td>Updated description for the functions: \ref Cy_GPIO_GetInterruptStatus, 
  92:Generated_Source\PSoC6\pdl\drivers/peripheral/gpio/cy_gpio.h **** *         \ref Cy_GPIO_GetInterruptMask, \ref Cy_GPIO_GetInterruptStatusMasked.
  93:Generated_Source\PSoC6\pdl\drivers/peripheral/gpio/cy_gpio.h **** *         Minor documentation edits.
  94:Generated_Source\PSoC6\pdl\drivers/peripheral/gpio/cy_gpio.h **** *     </td>
  95:Generated_Source\PSoC6\pdl\drivers/peripheral/gpio/cy_gpio.h **** *     <td>Documentation update and clarification</td>
  96:Generated_Source\PSoC6\pdl\drivers/peripheral/gpio/cy_gpio.h **** *   </tr>
  97:Generated_Source\PSoC6\pdl\drivers/peripheral/gpio/cy_gpio.h **** *   <tr>
  98:Generated_Source\PSoC6\pdl\drivers/peripheral/gpio/cy_gpio.h **** *     <td>1.10</td>
  99:Generated_Source\PSoC6\pdl\drivers/peripheral/gpio/cy_gpio.h **** *     <td>Added input parameter validation to the API functions</td>
 100:Generated_Source\PSoC6\pdl\drivers/peripheral/gpio/cy_gpio.h **** *     <td></td>
 101:Generated_Source\PSoC6\pdl\drivers/peripheral/gpio/cy_gpio.h **** *   </tr>
 102:Generated_Source\PSoC6\pdl\drivers/peripheral/gpio/cy_gpio.h **** *   <tr>
 103:Generated_Source\PSoC6\pdl\drivers/peripheral/gpio/cy_gpio.h **** *     <td>1.0</td>
 104:Generated_Source\PSoC6\pdl\drivers/peripheral/gpio/cy_gpio.h **** *     <td>Initial version</td>
 105:Generated_Source\PSoC6\pdl\drivers/peripheral/gpio/cy_gpio.h **** *     <td></td>
 106:Generated_Source\PSoC6\pdl\drivers/peripheral/gpio/cy_gpio.h **** *   </tr>
 107:Generated_Source\PSoC6\pdl\drivers/peripheral/gpio/cy_gpio.h **** * </table>
 108:Generated_Source\PSoC6\pdl\drivers/peripheral/gpio/cy_gpio.h **** *
 109:Generated_Source\PSoC6\pdl\drivers/peripheral/gpio/cy_gpio.h **** * \defgroup group_gpio_macros Macros
 110:Generated_Source\PSoC6\pdl\drivers/peripheral/gpio/cy_gpio.h **** * \defgroup group_gpio_functions Functions
 111:Generated_Source\PSoC6\pdl\drivers/peripheral/gpio/cy_gpio.h **** * \{
 112:Generated_Source\PSoC6\pdl\drivers/peripheral/gpio/cy_gpio.h **** *   \defgroup group_gpio_functions_init       Initialization Functions
 113:Generated_Source\PSoC6\pdl\drivers/peripheral/gpio/cy_gpio.h **** *   \defgroup group_gpio_functions_gpio       GPIO Functions
 114:Generated_Source\PSoC6\pdl\drivers/peripheral/gpio/cy_gpio.h **** *   \defgroup group_gpio_functions_sio        SIO Functions
 115:Generated_Source\PSoC6\pdl\drivers/peripheral/gpio/cy_gpio.h **** *   \defgroup group_gpio_functions_interrupt  Port Interrupt Functions
ARM GAS  C:\Users\rober\AppData\Local\Temp\ccBlBMtt.s 			page 6


 116:Generated_Source\PSoC6\pdl\drivers/peripheral/gpio/cy_gpio.h **** * \}
 117:Generated_Source\PSoC6\pdl\drivers/peripheral/gpio/cy_gpio.h **** * \defgroup group_gpio_data_structures Data Structures
 118:Generated_Source\PSoC6\pdl\drivers/peripheral/gpio/cy_gpio.h **** * \defgroup group_gpio_enums Enumerated Types
 119:Generated_Source\PSoC6\pdl\drivers/peripheral/gpio/cy_gpio.h **** */
 120:Generated_Source\PSoC6\pdl\drivers/peripheral/gpio/cy_gpio.h **** 
 121:Generated_Source\PSoC6\pdl\drivers/peripheral/gpio/cy_gpio.h **** #if !defined(CY_GPIO_H)
 122:Generated_Source\PSoC6\pdl\drivers/peripheral/gpio/cy_gpio.h **** #define CY_GPIO_H
 123:Generated_Source\PSoC6\pdl\drivers/peripheral/gpio/cy_gpio.h **** 
 124:Generated_Source\PSoC6\pdl\drivers/peripheral/gpio/cy_gpio.h **** #include <stddef.h>
 125:Generated_Source\PSoC6\pdl\drivers/peripheral/gpio/cy_gpio.h **** #include "syslib/cy_syslib.h"
 126:Generated_Source\PSoC6\pdl\drivers/peripheral/gpio/cy_gpio.h **** #include "cy_device_headers.h"
 127:Generated_Source\PSoC6\pdl\drivers/peripheral/gpio/cy_gpio.h **** 
 128:Generated_Source\PSoC6\pdl\drivers/peripheral/gpio/cy_gpio.h **** #if defined(__cplusplus)
 129:Generated_Source\PSoC6\pdl\drivers/peripheral/gpio/cy_gpio.h **** extern "C" {
 130:Generated_Source\PSoC6\pdl\drivers/peripheral/gpio/cy_gpio.h **** #endif
 131:Generated_Source\PSoC6\pdl\drivers/peripheral/gpio/cy_gpio.h **** 
 132:Generated_Source\PSoC6\pdl\drivers/peripheral/gpio/cy_gpio.h **** /** \addtogroup group_gpio_macros
 133:Generated_Source\PSoC6\pdl\drivers/peripheral/gpio/cy_gpio.h **** * \{
 134:Generated_Source\PSoC6\pdl\drivers/peripheral/gpio/cy_gpio.h **** */
 135:Generated_Source\PSoC6\pdl\drivers/peripheral/gpio/cy_gpio.h **** 
 136:Generated_Source\PSoC6\pdl\drivers/peripheral/gpio/cy_gpio.h **** /** Driver major version */
 137:Generated_Source\PSoC6\pdl\drivers/peripheral/gpio/cy_gpio.h **** #define CY_GPIO_DRV_VERSION_MAJOR       1
 138:Generated_Source\PSoC6\pdl\drivers/peripheral/gpio/cy_gpio.h **** 
 139:Generated_Source\PSoC6\pdl\drivers/peripheral/gpio/cy_gpio.h **** /** Driver minor version */
 140:Generated_Source\PSoC6\pdl\drivers/peripheral/gpio/cy_gpio.h **** #define CY_GPIO_DRV_VERSION_MINOR       10
 141:Generated_Source\PSoC6\pdl\drivers/peripheral/gpio/cy_gpio.h **** 
 142:Generated_Source\PSoC6\pdl\drivers/peripheral/gpio/cy_gpio.h **** /** GPIO driver ID */
 143:Generated_Source\PSoC6\pdl\drivers/peripheral/gpio/cy_gpio.h **** #define CY_GPIO_ID CY_PDL_DRV_ID(0x16u)
 144:Generated_Source\PSoC6\pdl\drivers/peripheral/gpio/cy_gpio.h **** 
 145:Generated_Source\PSoC6\pdl\drivers/peripheral/gpio/cy_gpio.h **** /** \} group_gpio_macros */
 146:Generated_Source\PSoC6\pdl\drivers/peripheral/gpio/cy_gpio.h **** 
 147:Generated_Source\PSoC6\pdl\drivers/peripheral/gpio/cy_gpio.h **** 
 148:Generated_Source\PSoC6\pdl\drivers/peripheral/gpio/cy_gpio.h **** /***************************************
 149:Generated_Source\PSoC6\pdl\drivers/peripheral/gpio/cy_gpio.h **** *       Enumerations
 150:Generated_Source\PSoC6\pdl\drivers/peripheral/gpio/cy_gpio.h **** ***************************************/
 151:Generated_Source\PSoC6\pdl\drivers/peripheral/gpio/cy_gpio.h **** /**
 152:Generated_Source\PSoC6\pdl\drivers/peripheral/gpio/cy_gpio.h **** * \addtogroup group_gpio_enums
 153:Generated_Source\PSoC6\pdl\drivers/peripheral/gpio/cy_gpio.h **** * \{
 154:Generated_Source\PSoC6\pdl\drivers/peripheral/gpio/cy_gpio.h **** */
 155:Generated_Source\PSoC6\pdl\drivers/peripheral/gpio/cy_gpio.h **** 
 156:Generated_Source\PSoC6\pdl\drivers/peripheral/gpio/cy_gpio.h **** /**
 157:Generated_Source\PSoC6\pdl\drivers/peripheral/gpio/cy_gpio.h **** * GPIO Driver error codes
 158:Generated_Source\PSoC6\pdl\drivers/peripheral/gpio/cy_gpio.h **** */
 159:Generated_Source\PSoC6\pdl\drivers/peripheral/gpio/cy_gpio.h **** typedef enum 
 160:Generated_Source\PSoC6\pdl\drivers/peripheral/gpio/cy_gpio.h **** {
 161:Generated_Source\PSoC6\pdl\drivers/peripheral/gpio/cy_gpio.h ****     CY_GPIO_SUCCESS   = 0x00u,                                    /**< Returned successful */
 162:Generated_Source\PSoC6\pdl\drivers/peripheral/gpio/cy_gpio.h ****     CY_GPIO_BAD_PARAM = CY_GPIO_ID | CY_PDL_STATUS_ERROR | 0x01u, /**< Bad parameter was passed */
 163:Generated_Source\PSoC6\pdl\drivers/peripheral/gpio/cy_gpio.h **** } cy_en_gpio_status_t;
 164:Generated_Source\PSoC6\pdl\drivers/peripheral/gpio/cy_gpio.h **** 
 165:Generated_Source\PSoC6\pdl\drivers/peripheral/gpio/cy_gpio.h **** /** \} group_gpio_enums */
 166:Generated_Source\PSoC6\pdl\drivers/peripheral/gpio/cy_gpio.h **** 
 167:Generated_Source\PSoC6\pdl\drivers/peripheral/gpio/cy_gpio.h **** 
 168:Generated_Source\PSoC6\pdl\drivers/peripheral/gpio/cy_gpio.h **** /***************************************
 169:Generated_Source\PSoC6\pdl\drivers/peripheral/gpio/cy_gpio.h **** *       Configuration Structures
 170:Generated_Source\PSoC6\pdl\drivers/peripheral/gpio/cy_gpio.h **** ***************************************/
 171:Generated_Source\PSoC6\pdl\drivers/peripheral/gpio/cy_gpio.h **** 
 172:Generated_Source\PSoC6\pdl\drivers/peripheral/gpio/cy_gpio.h **** /**
ARM GAS  C:\Users\rober\AppData\Local\Temp\ccBlBMtt.s 			page 7


 173:Generated_Source\PSoC6\pdl\drivers/peripheral/gpio/cy_gpio.h **** * \addtogroup group_gpio_data_structures
 174:Generated_Source\PSoC6\pdl\drivers/peripheral/gpio/cy_gpio.h **** * \{
 175:Generated_Source\PSoC6\pdl\drivers/peripheral/gpio/cy_gpio.h **** */
 176:Generated_Source\PSoC6\pdl\drivers/peripheral/gpio/cy_gpio.h **** 
 177:Generated_Source\PSoC6\pdl\drivers/peripheral/gpio/cy_gpio.h **** /** This structure is used to initialize a port of GPIO pins */
 178:Generated_Source\PSoC6\pdl\drivers/peripheral/gpio/cy_gpio.h **** typedef struct {
 179:Generated_Source\PSoC6\pdl\drivers/peripheral/gpio/cy_gpio.h ****     uint32_t out;           /**< Initial output data for the IO pins in the port */
 180:Generated_Source\PSoC6\pdl\drivers/peripheral/gpio/cy_gpio.h ****     uint32_t intrMask;      /**< Interrupt enable mask for the port interrupt */
 181:Generated_Source\PSoC6\pdl\drivers/peripheral/gpio/cy_gpio.h ****     uint32_t intrCfg;       /**< Port pin interrupt edge detection configuration */
 182:Generated_Source\PSoC6\pdl\drivers/peripheral/gpio/cy_gpio.h ****     uint32_t cfg;           /**< Port pin drive modes and input buffer enable configuration */
 183:Generated_Source\PSoC6\pdl\drivers/peripheral/gpio/cy_gpio.h ****     uint32_t cfgIn;         /**< Port pin input buffer configuration */
 184:Generated_Source\PSoC6\pdl\drivers/peripheral/gpio/cy_gpio.h ****     uint32_t cfgOut;        /**< Port pin output buffer configuration */
 185:Generated_Source\PSoC6\pdl\drivers/peripheral/gpio/cy_gpio.h ****     uint32_t cfgSIO;        /**< Port SIO pins configuration */
 186:Generated_Source\PSoC6\pdl\drivers/peripheral/gpio/cy_gpio.h ****     uint32_t sel0Active;    /**< HSIOM selection for port pins 0,1,2,3 */
 187:Generated_Source\PSoC6\pdl\drivers/peripheral/gpio/cy_gpio.h ****     uint32_t sel1Active;    /**< HSIOM selection for port pins 4,5,6,7 */
 188:Generated_Source\PSoC6\pdl\drivers/peripheral/gpio/cy_gpio.h **** } cy_stc_gpio_prt_config_t;
 189:Generated_Source\PSoC6\pdl\drivers/peripheral/gpio/cy_gpio.h **** 
 190:Generated_Source\PSoC6\pdl\drivers/peripheral/gpio/cy_gpio.h **** /** This structure is used to initialize a single GPIO pin */
 191:Generated_Source\PSoC6\pdl\drivers/peripheral/gpio/cy_gpio.h **** typedef struct {
 192:Generated_Source\PSoC6\pdl\drivers/peripheral/gpio/cy_gpio.h ****     uint32_t outVal;         /**< Pin output state */
 193:Generated_Source\PSoC6\pdl\drivers/peripheral/gpio/cy_gpio.h ****     uint32_t driveMode;      /**< Drive mode */
 194:Generated_Source\PSoC6\pdl\drivers/peripheral/gpio/cy_gpio.h ****     en_hsiom_sel_t hsiom;   /**< HSIOM selection */
 195:Generated_Source\PSoC6\pdl\drivers/peripheral/gpio/cy_gpio.h ****     uint32_t intEdge;        /**< Interrupt Edge type */
 196:Generated_Source\PSoC6\pdl\drivers/peripheral/gpio/cy_gpio.h ****     uint32_t intMask;        /**< Interrupt enable mask */
 197:Generated_Source\PSoC6\pdl\drivers/peripheral/gpio/cy_gpio.h ****     uint32_t vtrip;          /**< Input buffer voltage trip type */
 198:Generated_Source\PSoC6\pdl\drivers/peripheral/gpio/cy_gpio.h ****     uint32_t slewRate;       /**< Output buffer slew rate */
 199:Generated_Source\PSoC6\pdl\drivers/peripheral/gpio/cy_gpio.h ****     uint32_t driveSel;       /**< Drive strength */
 200:Generated_Source\PSoC6\pdl\drivers/peripheral/gpio/cy_gpio.h ****     uint32_t vregEn;         /**< SIO pair output buffer mode */
 201:Generated_Source\PSoC6\pdl\drivers/peripheral/gpio/cy_gpio.h ****     uint32_t ibufMode;       /**< SIO pair input buffer mode */
 202:Generated_Source\PSoC6\pdl\drivers/peripheral/gpio/cy_gpio.h ****     uint32_t vtripSel;       /**< SIO pair input buffer trip point */
 203:Generated_Source\PSoC6\pdl\drivers/peripheral/gpio/cy_gpio.h ****     uint32_t vrefSel;        /**< SIO pair reference voltage for input buffer trip point */
 204:Generated_Source\PSoC6\pdl\drivers/peripheral/gpio/cy_gpio.h ****     uint32_t vohSel;         /**< SIO pair regulated voltage output level */
 205:Generated_Source\PSoC6\pdl\drivers/peripheral/gpio/cy_gpio.h **** } cy_stc_gpio_pin_config_t;
 206:Generated_Source\PSoC6\pdl\drivers/peripheral/gpio/cy_gpio.h **** 
 207:Generated_Source\PSoC6\pdl\drivers/peripheral/gpio/cy_gpio.h **** /** \} group_gpio_data_structures */
 208:Generated_Source\PSoC6\pdl\drivers/peripheral/gpio/cy_gpio.h **** 
 209:Generated_Source\PSoC6\pdl\drivers/peripheral/gpio/cy_gpio.h **** /***************************************
 210:Generated_Source\PSoC6\pdl\drivers/peripheral/gpio/cy_gpio.h **** *        Constants
 211:Generated_Source\PSoC6\pdl\drivers/peripheral/gpio/cy_gpio.h **** ***************************************/
 212:Generated_Source\PSoC6\pdl\drivers/peripheral/gpio/cy_gpio.h **** 
 213:Generated_Source\PSoC6\pdl\drivers/peripheral/gpio/cy_gpio.h **** /** \cond INTERNAL */
 214:Generated_Source\PSoC6\pdl\drivers/peripheral/gpio/cy_gpio.h **** 
 215:Generated_Source\PSoC6\pdl\drivers/peripheral/gpio/cy_gpio.h **** /* General Constants */
 216:Generated_Source\PSoC6\pdl\drivers/peripheral/gpio/cy_gpio.h **** #define CY_GPIO_PRT_HALF                       (4UL)      /**< Half-way point of a GPIO port */
 217:Generated_Source\PSoC6\pdl\drivers/peripheral/gpio/cy_gpio.h **** #define CY_GPIO_PRT_DEINIT                     (0UL)      /**< De-init value for port registers */
 218:Generated_Source\PSoC6\pdl\drivers/peripheral/gpio/cy_gpio.h **** 
 219:Generated_Source\PSoC6\pdl\drivers/peripheral/gpio/cy_gpio.h **** /* GPIO Masks */
 220:Generated_Source\PSoC6\pdl\drivers/peripheral/gpio/cy_gpio.h **** #define CY_GPIO_HSIOM_MASK                     (0x1FUL)   /**< HSIOM selection mask */
 221:Generated_Source\PSoC6\pdl\drivers/peripheral/gpio/cy_gpio.h **** #define CY_GPIO_OUT_MASK                       (0x01UL)   /**< Single pin mask for OUT register */
 222:Generated_Source\PSoC6\pdl\drivers/peripheral/gpio/cy_gpio.h **** #define CY_GPIO_IN_MASK                        (0x01UL)   /**< Single pin mask for IN register */
 223:Generated_Source\PSoC6\pdl\drivers/peripheral/gpio/cy_gpio.h **** #define CY_GPIO_CFG_DM_MASK                    (0x0FUL)   /**< Single pin mask for drive mode in CF
 224:Generated_Source\PSoC6\pdl\drivers/peripheral/gpio/cy_gpio.h **** #define CY_GPIO_CFG_IN_VTRIP_SEL_MASK          (0x01UL)   /**< Single pin mask for VTRIP selection 
 225:Generated_Source\PSoC6\pdl\drivers/peripheral/gpio/cy_gpio.h **** #define CY_GPIO_CFG_OUT_SLOW_MASK              (0x01UL)   /**< Single pin mask for slew rate in CFG
 226:Generated_Source\PSoC6\pdl\drivers/peripheral/gpio/cy_gpio.h **** #define CY_GPIO_CFG_OUT_DRIVE_SEL_MASK         (0x03UL)   /**< Single pin mask for drive strength i
 227:Generated_Source\PSoC6\pdl\drivers/peripheral/gpio/cy_gpio.h **** #define CY_GPIO_INTR_STATUS_MASK               (0x01UL)   /**< Single pin mask for interrupt status
 228:Generated_Source\PSoC6\pdl\drivers/peripheral/gpio/cy_gpio.h **** #define CY_GPIO_INTR_EN_MASK                   (0x01UL)   /**< Single pin mask for interrupt status
 229:Generated_Source\PSoC6\pdl\drivers/peripheral/gpio/cy_gpio.h **** #define CY_GPIO_INTR_MASKED_MASK               (0x01UL)   /**< Single pin mask for masked interrupt
ARM GAS  C:\Users\rober\AppData\Local\Temp\ccBlBMtt.s 			page 8


 230:Generated_Source\PSoC6\pdl\drivers/peripheral/gpio/cy_gpio.h **** #define CY_GPIO_INTR_SET_MASK                  (0x01UL)   /**< Single pin mask for setting the inte
 231:Generated_Source\PSoC6\pdl\drivers/peripheral/gpio/cy_gpio.h **** #define CY_GPIO_INTR_EDGE_MASK                 (0x03UL)   /**< Single pin mask for interrupt edge t
 232:Generated_Source\PSoC6\pdl\drivers/peripheral/gpio/cy_gpio.h **** #define CY_GPIO_INTR_FLT_EDGE_MASK             (0x07UL)   /**< Single pin mask for setting filtered
 233:Generated_Source\PSoC6\pdl\drivers/peripheral/gpio/cy_gpio.h **** 
 234:Generated_Source\PSoC6\pdl\drivers/peripheral/gpio/cy_gpio.h **** /* SIO Masks */
 235:Generated_Source\PSoC6\pdl\drivers/peripheral/gpio/cy_gpio.h **** #define CY_GPIO_VREG_EN_MASK                   (0x01UL)   /**< Single SIO pin mask for voltage regu
 236:Generated_Source\PSoC6\pdl\drivers/peripheral/gpio/cy_gpio.h **** #define CY_GPIO_IBUF_MASK                      (0x01UL)   /**< Single SIO pin mask for input buffer
 237:Generated_Source\PSoC6\pdl\drivers/peripheral/gpio/cy_gpio.h **** #define CY_GPIO_IBUF_SHIFT                     (0x01UL)   /**< Single SIO pin shift for input buffe
 238:Generated_Source\PSoC6\pdl\drivers/peripheral/gpio/cy_gpio.h **** #define CY_GPIO_VTRIP_SEL_MASK                 (0x01UL)   /**< Single SIO pin mask for the input bu
 239:Generated_Source\PSoC6\pdl\drivers/peripheral/gpio/cy_gpio.h **** #define CY_GPIO_VTRIP_SEL_SHIFT                (0x02UL)   /**< Single SIO pin shift for the input b
 240:Generated_Source\PSoC6\pdl\drivers/peripheral/gpio/cy_gpio.h **** #define CY_GPIO_VREF_SEL_MASK                  (0x03UL)   /**< Single SIO pin mask for voltage refe
 241:Generated_Source\PSoC6\pdl\drivers/peripheral/gpio/cy_gpio.h **** #define CY_GPIO_VREF_SEL_SHIFT                 (0x03UL)   /**< Single SIO pin shift for voltage ref
 242:Generated_Source\PSoC6\pdl\drivers/peripheral/gpio/cy_gpio.h **** #define CY_GPIO_VOH_SEL_MASK                   (0x07UL)   /**< Single SIO pin mask for VOH */
 243:Generated_Source\PSoC6\pdl\drivers/peripheral/gpio/cy_gpio.h **** #define CY_GPIO_VOH_SEL_SHIFT                  (0x05UL)   /**< Single SIO pin shift for VOH */
 244:Generated_Source\PSoC6\pdl\drivers/peripheral/gpio/cy_gpio.h **** 
 245:Generated_Source\PSoC6\pdl\drivers/peripheral/gpio/cy_gpio.h **** /* Special mask for SIO pin pair setting */
 246:Generated_Source\PSoC6\pdl\drivers/peripheral/gpio/cy_gpio.h **** #define CY_GPIO_SIO_ODD_PIN_MASK               (0x00FEUL) /**< SIO pin pair selection mask */
 247:Generated_Source\PSoC6\pdl\drivers/peripheral/gpio/cy_gpio.h **** #define CY_GPIO_SIO_PIN_MASK                   (0x00FFUL) /**< SIO pin pair mask */
 248:Generated_Source\PSoC6\pdl\drivers/peripheral/gpio/cy_gpio.h **** 
 249:Generated_Source\PSoC6\pdl\drivers/peripheral/gpio/cy_gpio.h **** /* Offsets */
 250:Generated_Source\PSoC6\pdl\drivers/peripheral/gpio/cy_gpio.h **** #define CY_GPIO_HSIOM_OFFSET                   (3UL)      /**< Offset for HSIOM */
 251:Generated_Source\PSoC6\pdl\drivers/peripheral/gpio/cy_gpio.h **** #define CY_GPIO_DRIVE_MODE_OFFSET              (2UL)      /**< Offset for Drive mode */
 252:Generated_Source\PSoC6\pdl\drivers/peripheral/gpio/cy_gpio.h **** #define CY_GPIO_INBUF_OFFSET                   (3UL)      /**< Offset for input buffer */
 253:Generated_Source\PSoC6\pdl\drivers/peripheral/gpio/cy_gpio.h **** #define CY_GPIO_CFG_OUT_DRIVE_OFFSET           (16UL)     /**< Offset for drive strength */
 254:Generated_Source\PSoC6\pdl\drivers/peripheral/gpio/cy_gpio.h **** #define CY_GPIO_INTR_CFG_OFFSET                (1UL)      /**< Offset for interrupt config */
 255:Generated_Source\PSoC6\pdl\drivers/peripheral/gpio/cy_gpio.h **** #define CY_GPIO_INTR_FILT_OFFSET               (18UL)     /**< Offset for filtered interrupt config
 256:Generated_Source\PSoC6\pdl\drivers/peripheral/gpio/cy_gpio.h **** #define CY_GPIO_CFG_SIO_OFFSET                 (2UL)      /**< Offset for SIO config */
 257:Generated_Source\PSoC6\pdl\drivers/peripheral/gpio/cy_gpio.h **** 
 258:Generated_Source\PSoC6\pdl\drivers/peripheral/gpio/cy_gpio.h **** /* Parameter validation constants */
 259:Generated_Source\PSoC6\pdl\drivers/peripheral/gpio/cy_gpio.h **** #define CY_GPIO_PINS_MAX                       (8UL)      /**< Number of pins in the port */
 260:Generated_Source\PSoC6\pdl\drivers/peripheral/gpio/cy_gpio.h **** #define CY_GPIO_PRT_PINS_MASK                  (0x0000000FFUL)
 261:Generated_Source\PSoC6\pdl\drivers/peripheral/gpio/cy_gpio.h **** #define CY_GPIO_PRT_INTR_CFG_EDGE_SEL_MASK     (GPIO_PRT_INTR_CFG_EDGE0_SEL_Msk | \
 262:Generated_Source\PSoC6\pdl\drivers/peripheral/gpio/cy_gpio.h ****                                                 GPIO_PRT_INTR_CFG_EDGE1_SEL_Msk | \
 263:Generated_Source\PSoC6\pdl\drivers/peripheral/gpio/cy_gpio.h ****                                                 GPIO_PRT_INTR_CFG_EDGE2_SEL_Msk | \
 264:Generated_Source\PSoC6\pdl\drivers/peripheral/gpio/cy_gpio.h ****                                                 GPIO_PRT_INTR_CFG_EDGE3_SEL_Msk | \
 265:Generated_Source\PSoC6\pdl\drivers/peripheral/gpio/cy_gpio.h ****                                                 GPIO_PRT_INTR_CFG_EDGE4_SEL_Msk | \
 266:Generated_Source\PSoC6\pdl\drivers/peripheral/gpio/cy_gpio.h ****                                                 GPIO_PRT_INTR_CFG_EDGE5_SEL_Msk | \
 267:Generated_Source\PSoC6\pdl\drivers/peripheral/gpio/cy_gpio.h ****                                                 GPIO_PRT_INTR_CFG_EDGE6_SEL_Msk | \
 268:Generated_Source\PSoC6\pdl\drivers/peripheral/gpio/cy_gpio.h ****                                                 GPIO_PRT_INTR_CFG_EDGE7_SEL_Msk)            
 269:Generated_Source\PSoC6\pdl\drivers/peripheral/gpio/cy_gpio.h **** #define CY_GPIO_PRT_INTR_CFG_RANGE_MASK        (CY_GPIO_PRT_INTR_CFG_EDGE_SEL_MASK | \
 270:Generated_Source\PSoC6\pdl\drivers/peripheral/gpio/cy_gpio.h ****                                                 GPIO_PRT_INTR_CFG_FLT_EDGE_SEL_Msk | \
 271:Generated_Source\PSoC6\pdl\drivers/peripheral/gpio/cy_gpio.h ****                                                 GPIO_PRT_INTR_CFG_FLT_SEL_Msk)
 272:Generated_Source\PSoC6\pdl\drivers/peripheral/gpio/cy_gpio.h **** #define CY_GPIO_PRT_INT_MASK_MASK              (0x0000001FFUL)
 273:Generated_Source\PSoC6\pdl\drivers/peripheral/gpio/cy_gpio.h **** #define CY_GPIO_PRT_SEL_ACTIVE_MASK            (0x1FFFFFFFUL)
 274:Generated_Source\PSoC6\pdl\drivers/peripheral/gpio/cy_gpio.h **** 
 275:Generated_Source\PSoC6\pdl\drivers/peripheral/gpio/cy_gpio.h **** /* Parameter validation macros */
 276:Generated_Source\PSoC6\pdl\drivers/peripheral/gpio/cy_gpio.h **** #define CY_GPIO_IS_PIN_VALID(pinNum)           (CY_GPIO_PINS_MAX > (pinNum))
 277:Generated_Source\PSoC6\pdl\drivers/peripheral/gpio/cy_gpio.h **** #define CY_GPIO_IS_FILTER_PIN_VALID(pinNum)    (CY_GPIO_PINS_MAX >= (pinNum))
 278:Generated_Source\PSoC6\pdl\drivers/peripheral/gpio/cy_gpio.h **** #define CY_GPIO_IS_VALUE_VALID(outVal)         (1UL >= (outVal))
 279:Generated_Source\PSoC6\pdl\drivers/peripheral/gpio/cy_gpio.h **** #define CY_GPIO_IS_DM_VALID(driveMode)         (0U == ((driveMode) & (uint32_t)~CY_GPIO_CFG_DM_MASK
 280:Generated_Source\PSoC6\pdl\drivers/peripheral/gpio/cy_gpio.h **** 
 281:Generated_Source\PSoC6\pdl\drivers/peripheral/gpio/cy_gpio.h **** #define CY_GPIO_IS_HSIOM_VALID(hsiom)          (0U == ((hsiom) & (uint32_t)~CY_GPIO_HSIOM_MASK))
 282:Generated_Source\PSoC6\pdl\drivers/peripheral/gpio/cy_gpio.h **** 
 283:Generated_Source\PSoC6\pdl\drivers/peripheral/gpio/cy_gpio.h **** #define CY_GPIO_IS_INT_EDGE_VALID(intEdge)     ((CY_GPIO_INTR_DISABLE  == (intEdge)) || \
 284:Generated_Source\PSoC6\pdl\drivers/peripheral/gpio/cy_gpio.h ****                                                 (CY_GPIO_INTR_RISING   == (intEdge)) || \
 285:Generated_Source\PSoC6\pdl\drivers/peripheral/gpio/cy_gpio.h ****                                                 (CY_GPIO_INTR_FALLING  == (intEdge)) || \
 286:Generated_Source\PSoC6\pdl\drivers/peripheral/gpio/cy_gpio.h ****                                                 (CY_GPIO_INTR_BOTH     == (intEdge)))
ARM GAS  C:\Users\rober\AppData\Local\Temp\ccBlBMtt.s 			page 9


 287:Generated_Source\PSoC6\pdl\drivers/peripheral/gpio/cy_gpio.h **** 
 288:Generated_Source\PSoC6\pdl\drivers/peripheral/gpio/cy_gpio.h **** #define CY_GPIO_IS_DRIVE_SEL_VALID(driveSel)   ((CY_GPIO_DRIVE_FULL    == (driveSel)) || \
 289:Generated_Source\PSoC6\pdl\drivers/peripheral/gpio/cy_gpio.h ****                                                 (CY_GPIO_DRIVE_1_2     == (driveSel)) || \
 290:Generated_Source\PSoC6\pdl\drivers/peripheral/gpio/cy_gpio.h ****                                                 (CY_GPIO_DRIVE_1_4     == (driveSel)) || \
 291:Generated_Source\PSoC6\pdl\drivers/peripheral/gpio/cy_gpio.h ****                                                 (CY_GPIO_DRIVE_1_8     == (driveSel)))
 292:Generated_Source\PSoC6\pdl\drivers/peripheral/gpio/cy_gpio.h **** 
 293:Generated_Source\PSoC6\pdl\drivers/peripheral/gpio/cy_gpio.h **** #define CY_GPIO_IS_VREF_SEL_VALID(vrefSel)     ((CY_SIO_VREF_PINREF    == (vrefSel)) || \
 294:Generated_Source\PSoC6\pdl\drivers/peripheral/gpio/cy_gpio.h ****                                                 (CY_SIO_VREF_1_2V      == (vrefSel)) || \
 295:Generated_Source\PSoC6\pdl\drivers/peripheral/gpio/cy_gpio.h ****                                                 (CY_SIO_VREF_AMUX_A    == (vrefSel)) || \
 296:Generated_Source\PSoC6\pdl\drivers/peripheral/gpio/cy_gpio.h ****                                                 (CY_SIO_VREF_AMUX_B    == (vrefSel)))
 297:Generated_Source\PSoC6\pdl\drivers/peripheral/gpio/cy_gpio.h **** 
 298:Generated_Source\PSoC6\pdl\drivers/peripheral/gpio/cy_gpio.h **** #define CY_GPIO_IS_VOH_SEL_VALID(vrefSel)      ((CY_SIO_VOH_1_00       == (vrefSel)) || \
 299:Generated_Source\PSoC6\pdl\drivers/peripheral/gpio/cy_gpio.h ****                                                 (CY_SIO_VOH_1_25       == (vrefSel)) || \
 300:Generated_Source\PSoC6\pdl\drivers/peripheral/gpio/cy_gpio.h ****                                                 (CY_SIO_VOH_1_49       == (vrefSel)) || \
 301:Generated_Source\PSoC6\pdl\drivers/peripheral/gpio/cy_gpio.h ****                                                 (CY_SIO_VOH_1_67       == (vrefSel)) || \
 302:Generated_Source\PSoC6\pdl\drivers/peripheral/gpio/cy_gpio.h ****                                                 (CY_SIO_VOH_2_08       == (vrefSel)) || \
 303:Generated_Source\PSoC6\pdl\drivers/peripheral/gpio/cy_gpio.h ****                                                 (CY_SIO_VOH_2_50       == (vrefSel)) || \
 304:Generated_Source\PSoC6\pdl\drivers/peripheral/gpio/cy_gpio.h ****                                                 (CY_SIO_VOH_2_78       == (vrefSel)) || \
 305:Generated_Source\PSoC6\pdl\drivers/peripheral/gpio/cy_gpio.h ****                                                 (CY_SIO_VOH_4_16       == (vrefSel)))
 306:Generated_Source\PSoC6\pdl\drivers/peripheral/gpio/cy_gpio.h ****                    
 307:Generated_Source\PSoC6\pdl\drivers/peripheral/gpio/cy_gpio.h **** #define CY_GPIO_IS_PIN_BIT_VALID(pinBit)       (0U == ((pinBit) & (uint32_t)~CY_GPIO_PRT_PINS_MASK)
 308:Generated_Source\PSoC6\pdl\drivers/peripheral/gpio/cy_gpio.h **** #define CY_GPIO_IS_INTR_CFG_VALID(intrCfg)     (0U == ((intrCfg) & (uint32_t)~CY_GPIO_PRT_INTR_CFG_
 309:Generated_Source\PSoC6\pdl\drivers/peripheral/gpio/cy_gpio.h **** #define CY_GPIO_IS_INTR_MASK_VALID(intrMask)   (0U == ((intrMask) & (uint32_t)~CY_GPIO_PRT_INT_MASK
 310:Generated_Source\PSoC6\pdl\drivers/peripheral/gpio/cy_gpio.h **** #define CY_GPIO_IS_SEL_ACT_VALID(selActive)    (0U == ((selActive) & (uint32_t)~CY_GPIO_PRT_SEL_ACT
 311:Generated_Source\PSoC6\pdl\drivers/peripheral/gpio/cy_gpio.h **** 
 312:Generated_Source\PSoC6\pdl\drivers/peripheral/gpio/cy_gpio.h **** /** \endcond */
 313:Generated_Source\PSoC6\pdl\drivers/peripheral/gpio/cy_gpio.h **** 
 314:Generated_Source\PSoC6\pdl\drivers/peripheral/gpio/cy_gpio.h **** 
 315:Generated_Source\PSoC6\pdl\drivers/peripheral/gpio/cy_gpio.h **** /***************************************
 316:Generated_Source\PSoC6\pdl\drivers/peripheral/gpio/cy_gpio.h **** *        Function Constants
 317:Generated_Source\PSoC6\pdl\drivers/peripheral/gpio/cy_gpio.h **** ***************************************/
 318:Generated_Source\PSoC6\pdl\drivers/peripheral/gpio/cy_gpio.h **** 
 319:Generated_Source\PSoC6\pdl\drivers/peripheral/gpio/cy_gpio.h **** /**
 320:Generated_Source\PSoC6\pdl\drivers/peripheral/gpio/cy_gpio.h **** * \addtogroup group_gpio_macros
 321:Generated_Source\PSoC6\pdl\drivers/peripheral/gpio/cy_gpio.h **** * \{
 322:Generated_Source\PSoC6\pdl\drivers/peripheral/gpio/cy_gpio.h **** */
 323:Generated_Source\PSoC6\pdl\drivers/peripheral/gpio/cy_gpio.h **** 
 324:Generated_Source\PSoC6\pdl\drivers/peripheral/gpio/cy_gpio.h **** /**
 325:Generated_Source\PSoC6\pdl\drivers/peripheral/gpio/cy_gpio.h **** * \defgroup group_gpio_driveModes Pin drive mode
 326:Generated_Source\PSoC6\pdl\drivers/peripheral/gpio/cy_gpio.h **** * \{
 327:Generated_Source\PSoC6\pdl\drivers/peripheral/gpio/cy_gpio.h **** * Constants to be used for setting the drive mode of the pin.
 328:Generated_Source\PSoC6\pdl\drivers/peripheral/gpio/cy_gpio.h **** */
 329:Generated_Source\PSoC6\pdl\drivers/peripheral/gpio/cy_gpio.h **** #define CY_GPIO_DM_ANALOG                      (0x00UL) /**< \brief Analog High-Z. Input buffer off
 330:Generated_Source\PSoC6\pdl\drivers/peripheral/gpio/cy_gpio.h **** #define CY_GPIO_DM_PULLUP_IN_OFF               (0x02UL) /**< \brief Resistive Pull-Up. Input buffer
 331:Generated_Source\PSoC6\pdl\drivers/peripheral/gpio/cy_gpio.h **** #define CY_GPIO_DM_PULLDOWN_IN_OFF             (0x03UL) /**< \brief Resistive Pull-Down. Input buff
 332:Generated_Source\PSoC6\pdl\drivers/peripheral/gpio/cy_gpio.h **** #define CY_GPIO_DM_OD_DRIVESLOW_IN_OFF         (0x04UL) /**< \brief Open Drain, Drives Low. Input b
 333:Generated_Source\PSoC6\pdl\drivers/peripheral/gpio/cy_gpio.h **** #define CY_GPIO_DM_OD_DRIVESHIGH_IN_OFF        (0x05UL) /**< \brief Open Drain, Drives High. Input 
 334:Generated_Source\PSoC6\pdl\drivers/peripheral/gpio/cy_gpio.h **** #define CY_GPIO_DM_STRONG_IN_OFF               (0x06UL) /**< \brief Strong Drive. Input buffer off 
 335:Generated_Source\PSoC6\pdl\drivers/peripheral/gpio/cy_gpio.h **** #define CY_GPIO_DM_PULLUP_DOWN_IN_OFF          (0x07UL) /**< \brief Resistive Pull-Up/Down. Input b
 336:Generated_Source\PSoC6\pdl\drivers/peripheral/gpio/cy_gpio.h **** #define CY_GPIO_DM_HIGHZ                       (0x08UL) /**< \brief Digital High-Z. Input buffer on
 337:Generated_Source\PSoC6\pdl\drivers/peripheral/gpio/cy_gpio.h **** #define CY_GPIO_DM_PULLUP                      (0x0AUL) /**< \brief Resistive Pull-Up. Input buffer
 338:Generated_Source\PSoC6\pdl\drivers/peripheral/gpio/cy_gpio.h **** #define CY_GPIO_DM_PULLDOWN                    (0x0BUL) /**< \brief Resistive Pull-Down. Input buff
 339:Generated_Source\PSoC6\pdl\drivers/peripheral/gpio/cy_gpio.h **** #define CY_GPIO_DM_OD_DRIVESLOW                (0x0CUL) /**< \brief Open Drain, Drives Low. Input b
 340:Generated_Source\PSoC6\pdl\drivers/peripheral/gpio/cy_gpio.h **** #define CY_GPIO_DM_OD_DRIVESHIGH               (0x0DUL) /**< \brief Open Drain, Drives High. Input 
 341:Generated_Source\PSoC6\pdl\drivers/peripheral/gpio/cy_gpio.h **** #define CY_GPIO_DM_STRONG                      (0x0EUL) /**< \brief Strong Drive. Input buffer on *
 342:Generated_Source\PSoC6\pdl\drivers/peripheral/gpio/cy_gpio.h **** #define CY_GPIO_DM_PULLUP_DOWN                 (0x0FUL) /**< \brief Resistive Pull-Up/Down. Input b
 343:Generated_Source\PSoC6\pdl\drivers/peripheral/gpio/cy_gpio.h **** /** \} */
ARM GAS  C:\Users\rober\AppData\Local\Temp\ccBlBMtt.s 			page 10


 344:Generated_Source\PSoC6\pdl\drivers/peripheral/gpio/cy_gpio.h **** 
 345:Generated_Source\PSoC6\pdl\drivers/peripheral/gpio/cy_gpio.h **** /**
 346:Generated_Source\PSoC6\pdl\drivers/peripheral/gpio/cy_gpio.h **** * \defgroup group_gpio_vtrip Voltage trip mode
 347:Generated_Source\PSoC6\pdl\drivers/peripheral/gpio/cy_gpio.h **** * \{
 348:Generated_Source\PSoC6\pdl\drivers/peripheral/gpio/cy_gpio.h **** * Constants to be used for setting the voltage trip type on the pin.
 349:Generated_Source\PSoC6\pdl\drivers/peripheral/gpio/cy_gpio.h **** */
 350:Generated_Source\PSoC6\pdl\drivers/peripheral/gpio/cy_gpio.h **** #define CY_GPIO_VTRIP_CMOS                     (0x00UL) /**< \brief Input buffer compatible with CM
 351:Generated_Source\PSoC6\pdl\drivers/peripheral/gpio/cy_gpio.h **** #define CY_GPIO_VTRIP_TTL                      (0x01UL) /**< \brief Input buffer compatible with TT
 352:Generated_Source\PSoC6\pdl\drivers/peripheral/gpio/cy_gpio.h **** /** \} */
 353:Generated_Source\PSoC6\pdl\drivers/peripheral/gpio/cy_gpio.h **** 
 354:Generated_Source\PSoC6\pdl\drivers/peripheral/gpio/cy_gpio.h **** /**
 355:Generated_Source\PSoC6\pdl\drivers/peripheral/gpio/cy_gpio.h **** * \defgroup group_gpio_slewRate Slew Rate Mode
 356:Generated_Source\PSoC6\pdl\drivers/peripheral/gpio/cy_gpio.h **** * \{
 357:Generated_Source\PSoC6\pdl\drivers/peripheral/gpio/cy_gpio.h **** * Constants to be used for setting the slew rate of the pin.
 358:Generated_Source\PSoC6\pdl\drivers/peripheral/gpio/cy_gpio.h **** */
 359:Generated_Source\PSoC6\pdl\drivers/peripheral/gpio/cy_gpio.h **** #define CY_GPIO_SLEW_FAST                      (0x00UL) /**< \brief Fast slew rate */
 360:Generated_Source\PSoC6\pdl\drivers/peripheral/gpio/cy_gpio.h **** #define CY_GPIO_SLEW_SLOW                      (0x01UL) /**< \brief Slow slew rate */
 361:Generated_Source\PSoC6\pdl\drivers/peripheral/gpio/cy_gpio.h **** /** \} */
 362:Generated_Source\PSoC6\pdl\drivers/peripheral/gpio/cy_gpio.h **** 
 363:Generated_Source\PSoC6\pdl\drivers/peripheral/gpio/cy_gpio.h **** /**
 364:Generated_Source\PSoC6\pdl\drivers/peripheral/gpio/cy_gpio.h **** * \defgroup group_gpio_driveStrength Pin drive strength
 365:Generated_Source\PSoC6\pdl\drivers/peripheral/gpio/cy_gpio.h **** * \{
 366:Generated_Source\PSoC6\pdl\drivers/peripheral/gpio/cy_gpio.h **** * Constants to be used for setting the drive strength of the pin.
 367:Generated_Source\PSoC6\pdl\drivers/peripheral/gpio/cy_gpio.h **** */
 368:Generated_Source\PSoC6\pdl\drivers/peripheral/gpio/cy_gpio.h **** #define CY_GPIO_DRIVE_FULL                     (0x00UL) /**< \brief Full drive strength: Max drive 
 369:Generated_Source\PSoC6\pdl\drivers/peripheral/gpio/cy_gpio.h **** #define CY_GPIO_DRIVE_1_2                      (0x01UL) /**< \brief 1/2 drive strength: 1/2 drive c
 370:Generated_Source\PSoC6\pdl\drivers/peripheral/gpio/cy_gpio.h **** #define CY_GPIO_DRIVE_1_4                      (0x02UL) /**< \brief 1/4 drive strength: 1/4 drive c
 371:Generated_Source\PSoC6\pdl\drivers/peripheral/gpio/cy_gpio.h **** #define CY_GPIO_DRIVE_1_8                      (0x03UL) /**< \brief 1/8 drive strength: 1/8 drive c
 372:Generated_Source\PSoC6\pdl\drivers/peripheral/gpio/cy_gpio.h **** /** \} */
 373:Generated_Source\PSoC6\pdl\drivers/peripheral/gpio/cy_gpio.h **** 
 374:Generated_Source\PSoC6\pdl\drivers/peripheral/gpio/cy_gpio.h **** /**
 375:Generated_Source\PSoC6\pdl\drivers/peripheral/gpio/cy_gpio.h **** * \defgroup group_gpio_interruptTrigger Interrupt trigger type
 376:Generated_Source\PSoC6\pdl\drivers/peripheral/gpio/cy_gpio.h **** * \{
 377:Generated_Source\PSoC6\pdl\drivers/peripheral/gpio/cy_gpio.h **** * Constants to be used for setting the interrupt trigger type on the pin.
 378:Generated_Source\PSoC6\pdl\drivers/peripheral/gpio/cy_gpio.h **** */
 379:Generated_Source\PSoC6\pdl\drivers/peripheral/gpio/cy_gpio.h **** #define CY_GPIO_INTR_DISABLE                   (0x00UL) /**< \brief Disable the pin interrupt gener
 380:Generated_Source\PSoC6\pdl\drivers/peripheral/gpio/cy_gpio.h **** #define CY_GPIO_INTR_RISING                    (0x01UL) /**< \brief Rising-Edge interrupt */
 381:Generated_Source\PSoC6\pdl\drivers/peripheral/gpio/cy_gpio.h **** #define CY_GPIO_INTR_FALLING                   (0x02UL) /**< \brief Falling-Edge interrupt */
 382:Generated_Source\PSoC6\pdl\drivers/peripheral/gpio/cy_gpio.h **** #define CY_GPIO_INTR_BOTH                      (0x03UL) /**< \brief Both-Edge interrupt */
 383:Generated_Source\PSoC6\pdl\drivers/peripheral/gpio/cy_gpio.h **** /** \} */
 384:Generated_Source\PSoC6\pdl\drivers/peripheral/gpio/cy_gpio.h **** 
 385:Generated_Source\PSoC6\pdl\drivers/peripheral/gpio/cy_gpio.h **** /**
 386:Generated_Source\PSoC6\pdl\drivers/peripheral/gpio/cy_gpio.h **** * \defgroup group_gpio_sioVreg SIO output buffer mode
 387:Generated_Source\PSoC6\pdl\drivers/peripheral/gpio/cy_gpio.h **** * \{
 388:Generated_Source\PSoC6\pdl\drivers/peripheral/gpio/cy_gpio.h **** * Constants to be used for setting the SIO output buffer mode on the pin.
 389:Generated_Source\PSoC6\pdl\drivers/peripheral/gpio/cy_gpio.h **** */
 390:Generated_Source\PSoC6\pdl\drivers/peripheral/gpio/cy_gpio.h **** #define CY_SIO_VREG_UNREGULATED                (0x00UL) /**< \brief Unregulated output buffer */
 391:Generated_Source\PSoC6\pdl\drivers/peripheral/gpio/cy_gpio.h **** #define CY_SIO_VREG_REGULATED                  (0x01UL) /**< \brief Regulated output buffer */
 392:Generated_Source\PSoC6\pdl\drivers/peripheral/gpio/cy_gpio.h **** /** \} */
 393:Generated_Source\PSoC6\pdl\drivers/peripheral/gpio/cy_gpio.h **** 
 394:Generated_Source\PSoC6\pdl\drivers/peripheral/gpio/cy_gpio.h **** /**
 395:Generated_Source\PSoC6\pdl\drivers/peripheral/gpio/cy_gpio.h **** * \defgroup group_gpio_sioIbuf SIO input buffer mode
 396:Generated_Source\PSoC6\pdl\drivers/peripheral/gpio/cy_gpio.h **** * \{
 397:Generated_Source\PSoC6\pdl\drivers/peripheral/gpio/cy_gpio.h **** * Constants to be used for setting the SIO input buffer mode on the pin.
 398:Generated_Source\PSoC6\pdl\drivers/peripheral/gpio/cy_gpio.h **** */
 399:Generated_Source\PSoC6\pdl\drivers/peripheral/gpio/cy_gpio.h **** #define CY_SIO_IBUF_SINGLEENDED                (0x00UL) /**< \brief Single ended input buffer */
 400:Generated_Source\PSoC6\pdl\drivers/peripheral/gpio/cy_gpio.h **** #define CY_SIO_IBUF_DIFFERENTIAL               (0x01UL) /**< \brief Differential input buffer */
ARM GAS  C:\Users\rober\AppData\Local\Temp\ccBlBMtt.s 			page 11


 401:Generated_Source\PSoC6\pdl\drivers/peripheral/gpio/cy_gpio.h **** /** \} */
 402:Generated_Source\PSoC6\pdl\drivers/peripheral/gpio/cy_gpio.h **** 
 403:Generated_Source\PSoC6\pdl\drivers/peripheral/gpio/cy_gpio.h **** /**
 404:Generated_Source\PSoC6\pdl\drivers/peripheral/gpio/cy_gpio.h **** * \defgroup group_gpio_sioVtrip SIO input buffer trip-point
 405:Generated_Source\PSoC6\pdl\drivers/peripheral/gpio/cy_gpio.h **** * \{
 406:Generated_Source\PSoC6\pdl\drivers/peripheral/gpio/cy_gpio.h **** * Constants to be used for setting the SIO input buffer trip-point of the pin.
 407:Generated_Source\PSoC6\pdl\drivers/peripheral/gpio/cy_gpio.h **** */
 408:Generated_Source\PSoC6\pdl\drivers/peripheral/gpio/cy_gpio.h **** #define CY_SIO_VTRIP_CMOS                      (0x00UL) /**< \brief CMOS input buffer (single-ended
 409:Generated_Source\PSoC6\pdl\drivers/peripheral/gpio/cy_gpio.h **** #define CY_SIO_VTRIP_TTL                       (0x01UL) /**< \brief TTL input buffer (single-ended)
 410:Generated_Source\PSoC6\pdl\drivers/peripheral/gpio/cy_gpio.h **** #define CY_SIO_VTRIP_0_5VDDIO_0_5VOH           (0x00UL) /**< \brief 0.5xVddio or 0.5xVoh (different
 411:Generated_Source\PSoC6\pdl\drivers/peripheral/gpio/cy_gpio.h **** #define CY_SIO_VTRIP_0_4VDDIO_1_0VREF          (0x01UL) /**< \brief 0.4xVddio or 0.4xVoh (different
 412:Generated_Source\PSoC6\pdl\drivers/peripheral/gpio/cy_gpio.h **** /** \} */
 413:Generated_Source\PSoC6\pdl\drivers/peripheral/gpio/cy_gpio.h **** 
 414:Generated_Source\PSoC6\pdl\drivers/peripheral/gpio/cy_gpio.h **** /**
 415:Generated_Source\PSoC6\pdl\drivers/peripheral/gpio/cy_gpio.h **** * \defgroup group_gpio_sioVref SIO reference voltage for input buffer trip-point
 416:Generated_Source\PSoC6\pdl\drivers/peripheral/gpio/cy_gpio.h **** * \{
 417:Generated_Source\PSoC6\pdl\drivers/peripheral/gpio/cy_gpio.h **** * Constants to be used for setting the reference voltage of SIO input buffer trip-point.
 418:Generated_Source\PSoC6\pdl\drivers/peripheral/gpio/cy_gpio.h **** */
 419:Generated_Source\PSoC6\pdl\drivers/peripheral/gpio/cy_gpio.h **** #define CY_SIO_VREF_PINREF                     (0x00UL) /**< \brief Vref from analog pin */
 420:Generated_Source\PSoC6\pdl\drivers/peripheral/gpio/cy_gpio.h **** #define CY_SIO_VREF_1_2V                       (0x01UL) /**< \brief Vref from internal 1.2V referen
 421:Generated_Source\PSoC6\pdl\drivers/peripheral/gpio/cy_gpio.h **** #define CY_SIO_VREF_AMUX_A                     (0x02UL) /**< \brief Vref from AMUXBUS_A */
 422:Generated_Source\PSoC6\pdl\drivers/peripheral/gpio/cy_gpio.h **** #define CY_SIO_VREF_AMUX_B                     (0x03UL) /**< \brief Vref from AMUXBUS_B */
 423:Generated_Source\PSoC6\pdl\drivers/peripheral/gpio/cy_gpio.h **** /** \} */
 424:Generated_Source\PSoC6\pdl\drivers/peripheral/gpio/cy_gpio.h **** 
 425:Generated_Source\PSoC6\pdl\drivers/peripheral/gpio/cy_gpio.h **** /**
 426:Generated_Source\PSoC6\pdl\drivers/peripheral/gpio/cy_gpio.h **** * \defgroup group_gpio_sioVoh Regulated output voltage level (Voh) and input buffer trip-point of a
 427:Generated_Source\PSoC6\pdl\drivers/peripheral/gpio/cy_gpio.h **** * \{
 428:Generated_Source\PSoC6\pdl\drivers/peripheral/gpio/cy_gpio.h **** * Constants to be used for setting the Voh and input buffer trip-point of an SIO pair
 429:Generated_Source\PSoC6\pdl\drivers/peripheral/gpio/cy_gpio.h **** */
 430:Generated_Source\PSoC6\pdl\drivers/peripheral/gpio/cy_gpio.h **** #define CY_SIO_VOH_1_00                        (0x00UL) /**< \brief Voh = 1 x Reference */
 431:Generated_Source\PSoC6\pdl\drivers/peripheral/gpio/cy_gpio.h **** #define CY_SIO_VOH_1_25                        (0x01UL) /**< \brief Voh = 1.25 x Reference */
 432:Generated_Source\PSoC6\pdl\drivers/peripheral/gpio/cy_gpio.h **** #define CY_SIO_VOH_1_49                        (0x02UL) /**< \brief Voh = 1.49 x Reference */
 433:Generated_Source\PSoC6\pdl\drivers/peripheral/gpio/cy_gpio.h **** #define CY_SIO_VOH_1_67                        (0x03UL) /**< \brief Voh = 1.67 x Reference */
 434:Generated_Source\PSoC6\pdl\drivers/peripheral/gpio/cy_gpio.h **** #define CY_SIO_VOH_2_08                        (0x04UL) /**< \brief Voh = 2.08 x Reference */
 435:Generated_Source\PSoC6\pdl\drivers/peripheral/gpio/cy_gpio.h **** #define CY_SIO_VOH_2_50                        (0x05UL) /**< \brief Voh = 2.50 x Reference */
 436:Generated_Source\PSoC6\pdl\drivers/peripheral/gpio/cy_gpio.h **** #define CY_SIO_VOH_2_78                        (0x06UL) /**< \brief Voh = 2.78 x Reference */
 437:Generated_Source\PSoC6\pdl\drivers/peripheral/gpio/cy_gpio.h **** #define CY_SIO_VOH_4_16                        (0x07UL) /**< \brief Voh = 4.16 x Reference */
 438:Generated_Source\PSoC6\pdl\drivers/peripheral/gpio/cy_gpio.h **** /** \} */
 439:Generated_Source\PSoC6\pdl\drivers/peripheral/gpio/cy_gpio.h **** 
 440:Generated_Source\PSoC6\pdl\drivers/peripheral/gpio/cy_gpio.h **** /** \} group_gpio_macros */
 441:Generated_Source\PSoC6\pdl\drivers/peripheral/gpio/cy_gpio.h **** 
 442:Generated_Source\PSoC6\pdl\drivers/peripheral/gpio/cy_gpio.h **** /***************************************
 443:Generated_Source\PSoC6\pdl\drivers/peripheral/gpio/cy_gpio.h **** *        Function Prototypes
 444:Generated_Source\PSoC6\pdl\drivers/peripheral/gpio/cy_gpio.h **** ***************************************/
 445:Generated_Source\PSoC6\pdl\drivers/peripheral/gpio/cy_gpio.h **** 
 446:Generated_Source\PSoC6\pdl\drivers/peripheral/gpio/cy_gpio.h **** /**
 447:Generated_Source\PSoC6\pdl\drivers/peripheral/gpio/cy_gpio.h **** * \addtogroup group_gpio_functions
 448:Generated_Source\PSoC6\pdl\drivers/peripheral/gpio/cy_gpio.h **** * \{
 449:Generated_Source\PSoC6\pdl\drivers/peripheral/gpio/cy_gpio.h **** */
 450:Generated_Source\PSoC6\pdl\drivers/peripheral/gpio/cy_gpio.h **** 
 451:Generated_Source\PSoC6\pdl\drivers/peripheral/gpio/cy_gpio.h **** /**
 452:Generated_Source\PSoC6\pdl\drivers/peripheral/gpio/cy_gpio.h **** * \addtogroup group_gpio_functions_init
 453:Generated_Source\PSoC6\pdl\drivers/peripheral/gpio/cy_gpio.h **** * \{
 454:Generated_Source\PSoC6\pdl\drivers/peripheral/gpio/cy_gpio.h **** */
 455:Generated_Source\PSoC6\pdl\drivers/peripheral/gpio/cy_gpio.h **** 
 456:Generated_Source\PSoC6\pdl\drivers/peripheral/gpio/cy_gpio.h **** cy_en_gpio_status_t Cy_GPIO_Pin_Init(GPIO_PRT_Type* base, uint32_t pinNum, const cy_stc_gpio_pin_co
 457:Generated_Source\PSoC6\pdl\drivers/peripheral/gpio/cy_gpio.h **** cy_en_gpio_status_t Cy_GPIO_Port_Init(GPIO_PRT_Type* base, const cy_stc_gpio_prt_config_t *config);
ARM GAS  C:\Users\rober\AppData\Local\Temp\ccBlBMtt.s 			page 12


 458:Generated_Source\PSoC6\pdl\drivers/peripheral/gpio/cy_gpio.h **** void Cy_GPIO_Pin_FastInit(GPIO_PRT_Type* base, uint32_t pinNum, uint32_t driveMode, uint32_t outVal
 459:Generated_Source\PSoC6\pdl\drivers/peripheral/gpio/cy_gpio.h **** void Cy_GPIO_Port_Deinit(GPIO_PRT_Type* base);
 460:Generated_Source\PSoC6\pdl\drivers/peripheral/gpio/cy_gpio.h **** __STATIC_INLINE void Cy_GPIO_SetHSIOM(GPIO_PRT_Type* base, uint32_t pinNum, en_hsiom_sel_t value);
 461:Generated_Source\PSoC6\pdl\drivers/peripheral/gpio/cy_gpio.h **** __STATIC_INLINE en_hsiom_sel_t Cy_GPIO_GetHSIOM(GPIO_PRT_Type* base, uint32_t pinNum);
 462:Generated_Source\PSoC6\pdl\drivers/peripheral/gpio/cy_gpio.h **** __STATIC_INLINE GPIO_PRT_Type* Cy_GPIO_PortToAddr(uint32_t portNum);
 463:Generated_Source\PSoC6\pdl\drivers/peripheral/gpio/cy_gpio.h **** 
 464:Generated_Source\PSoC6\pdl\drivers/peripheral/gpio/cy_gpio.h **** /** \} group_gpio_functions_init */
 465:Generated_Source\PSoC6\pdl\drivers/peripheral/gpio/cy_gpio.h **** 
 466:Generated_Source\PSoC6\pdl\drivers/peripheral/gpio/cy_gpio.h **** /**
 467:Generated_Source\PSoC6\pdl\drivers/peripheral/gpio/cy_gpio.h **** * \addtogroup group_gpio_functions_gpio
 468:Generated_Source\PSoC6\pdl\drivers/peripheral/gpio/cy_gpio.h **** * \{
 469:Generated_Source\PSoC6\pdl\drivers/peripheral/gpio/cy_gpio.h **** */
 470:Generated_Source\PSoC6\pdl\drivers/peripheral/gpio/cy_gpio.h **** 
 471:Generated_Source\PSoC6\pdl\drivers/peripheral/gpio/cy_gpio.h **** __STATIC_INLINE uint32_t Cy_GPIO_Read(GPIO_PRT_Type* base, uint32_t pinNum);
 472:Generated_Source\PSoC6\pdl\drivers/peripheral/gpio/cy_gpio.h **** __STATIC_INLINE void Cy_GPIO_Write(GPIO_PRT_Type* base, uint32_t pinNum, uint32_t value);
 473:Generated_Source\PSoC6\pdl\drivers/peripheral/gpio/cy_gpio.h **** __STATIC_INLINE uint32_t Cy_GPIO_ReadOut(GPIO_PRT_Type* base, uint32_t pinNum);
 474:Generated_Source\PSoC6\pdl\drivers/peripheral/gpio/cy_gpio.h **** __STATIC_INLINE void Cy_GPIO_Set(GPIO_PRT_Type* base, uint32_t pinNum);
 475:Generated_Source\PSoC6\pdl\drivers/peripheral/gpio/cy_gpio.h **** __STATIC_INLINE void Cy_GPIO_Clr(GPIO_PRT_Type* base, uint32_t pinNum);
 476:Generated_Source\PSoC6\pdl\drivers/peripheral/gpio/cy_gpio.h **** __STATIC_INLINE void Cy_GPIO_Inv(GPIO_PRT_Type* base, uint32_t pinNum);
 477:Generated_Source\PSoC6\pdl\drivers/peripheral/gpio/cy_gpio.h **** __STATIC_INLINE void Cy_GPIO_SetDrivemode(GPIO_PRT_Type* base, uint32_t pinNum, uint32_t value);
 478:Generated_Source\PSoC6\pdl\drivers/peripheral/gpio/cy_gpio.h **** __STATIC_INLINE uint32_t Cy_GPIO_GetDrivemode(GPIO_PRT_Type* base, uint32_t pinNum);
 479:Generated_Source\PSoC6\pdl\drivers/peripheral/gpio/cy_gpio.h **** __STATIC_INLINE void Cy_GPIO_SetVtrip(GPIO_PRT_Type* base, uint32_t pinNum, uint32_t value);
 480:Generated_Source\PSoC6\pdl\drivers/peripheral/gpio/cy_gpio.h **** __STATIC_INLINE uint32_t Cy_GPIO_GetVtrip(GPIO_PRT_Type* base, uint32_t pinNum);
 481:Generated_Source\PSoC6\pdl\drivers/peripheral/gpio/cy_gpio.h **** __STATIC_INLINE void Cy_GPIO_SetSlewRate(GPIO_PRT_Type* base, uint32_t pinNum, uint32_t value);
 482:Generated_Source\PSoC6\pdl\drivers/peripheral/gpio/cy_gpio.h **** __STATIC_INLINE uint32_t Cy_GPIO_GetSlewRate(GPIO_PRT_Type* base, uint32_t pinNum);
 483:Generated_Source\PSoC6\pdl\drivers/peripheral/gpio/cy_gpio.h **** __STATIC_INLINE void Cy_GPIO_SetDriveSel(GPIO_PRT_Type* base, uint32_t pinNum, uint32_t value);
 484:Generated_Source\PSoC6\pdl\drivers/peripheral/gpio/cy_gpio.h **** __STATIC_INLINE uint32_t Cy_GPIO_GetDriveSel(GPIO_PRT_Type* base, uint32_t pinNum);
 485:Generated_Source\PSoC6\pdl\drivers/peripheral/gpio/cy_gpio.h **** 
 486:Generated_Source\PSoC6\pdl\drivers/peripheral/gpio/cy_gpio.h **** /** \} group_gpio_functions_gpio */
 487:Generated_Source\PSoC6\pdl\drivers/peripheral/gpio/cy_gpio.h **** 
 488:Generated_Source\PSoC6\pdl\drivers/peripheral/gpio/cy_gpio.h **** /**
 489:Generated_Source\PSoC6\pdl\drivers/peripheral/gpio/cy_gpio.h **** * \addtogroup group_gpio_functions_sio
 490:Generated_Source\PSoC6\pdl\drivers/peripheral/gpio/cy_gpio.h **** * \{
 491:Generated_Source\PSoC6\pdl\drivers/peripheral/gpio/cy_gpio.h **** */
 492:Generated_Source\PSoC6\pdl\drivers/peripheral/gpio/cy_gpio.h **** 
 493:Generated_Source\PSoC6\pdl\drivers/peripheral/gpio/cy_gpio.h **** __STATIC_INLINE void Cy_GPIO_SetVregEn(GPIO_PRT_Type* base, uint32_t pinNum, uint32_t value);
 494:Generated_Source\PSoC6\pdl\drivers/peripheral/gpio/cy_gpio.h **** __STATIC_INLINE uint32_t Cy_GPIO_GetVregEn(GPIO_PRT_Type* base, uint32_t pinNum);
 495:Generated_Source\PSoC6\pdl\drivers/peripheral/gpio/cy_gpio.h **** __STATIC_INLINE void Cy_GPIO_SetIbufMode(GPIO_PRT_Type* base, uint32_t pinNum, uint32_t value);
 496:Generated_Source\PSoC6\pdl\drivers/peripheral/gpio/cy_gpio.h **** __STATIC_INLINE uint32_t Cy_GPIO_GetIbufMode(GPIO_PRT_Type* base, uint32_t pinNum);
 497:Generated_Source\PSoC6\pdl\drivers/peripheral/gpio/cy_gpio.h **** __STATIC_INLINE void Cy_GPIO_SetVtripSel(GPIO_PRT_Type* base, uint32_t pinNum, uint32_t value);
 498:Generated_Source\PSoC6\pdl\drivers/peripheral/gpio/cy_gpio.h **** __STATIC_INLINE uint32_t Cy_GPIO_GetVtripSel(GPIO_PRT_Type* base, uint32_t pinNum);
 499:Generated_Source\PSoC6\pdl\drivers/peripheral/gpio/cy_gpio.h **** __STATIC_INLINE void Cy_GPIO_SetVrefSel(GPIO_PRT_Type* base, uint32_t pinNum, uint32_t value);
 500:Generated_Source\PSoC6\pdl\drivers/peripheral/gpio/cy_gpio.h **** __STATIC_INLINE uint32_t Cy_GPIO_GetVrefSel(GPIO_PRT_Type* base, uint32_t pinNum);
 501:Generated_Source\PSoC6\pdl\drivers/peripheral/gpio/cy_gpio.h **** __STATIC_INLINE void Cy_GPIO_SetVohSel(GPIO_PRT_Type* base, uint32_t pinNum, uint32_t value);
 502:Generated_Source\PSoC6\pdl\drivers/peripheral/gpio/cy_gpio.h **** __STATIC_INLINE uint32_t Cy_GPIO_GetVohSel(GPIO_PRT_Type* base, uint32_t pinNum);
 503:Generated_Source\PSoC6\pdl\drivers/peripheral/gpio/cy_gpio.h **** 
 504:Generated_Source\PSoC6\pdl\drivers/peripheral/gpio/cy_gpio.h **** /** \} group_gpio_functions_sio */
 505:Generated_Source\PSoC6\pdl\drivers/peripheral/gpio/cy_gpio.h **** 
 506:Generated_Source\PSoC6\pdl\drivers/peripheral/gpio/cy_gpio.h **** /**
 507:Generated_Source\PSoC6\pdl\drivers/peripheral/gpio/cy_gpio.h **** * \addtogroup group_gpio_functions_interrupt
 508:Generated_Source\PSoC6\pdl\drivers/peripheral/gpio/cy_gpio.h **** * \{
 509:Generated_Source\PSoC6\pdl\drivers/peripheral/gpio/cy_gpio.h **** */
 510:Generated_Source\PSoC6\pdl\drivers/peripheral/gpio/cy_gpio.h **** 
 511:Generated_Source\PSoC6\pdl\drivers/peripheral/gpio/cy_gpio.h **** __STATIC_INLINE uint32_t Cy_GPIO_GetInterruptStatus(GPIO_PRT_Type* base, uint32_t pinNum);
 512:Generated_Source\PSoC6\pdl\drivers/peripheral/gpio/cy_gpio.h **** __STATIC_INLINE void Cy_GPIO_ClearInterrupt(GPIO_PRT_Type* base, uint32_t pinNum);
 513:Generated_Source\PSoC6\pdl\drivers/peripheral/gpio/cy_gpio.h **** __STATIC_INLINE void Cy_GPIO_SetInterruptMask(GPIO_PRT_Type* base, uint32_t pinNum, uint32_t value)
 514:Generated_Source\PSoC6\pdl\drivers/peripheral/gpio/cy_gpio.h **** __STATIC_INLINE uint32_t Cy_GPIO_GetInterruptMask(GPIO_PRT_Type* base, uint32_t pinNum);
ARM GAS  C:\Users\rober\AppData\Local\Temp\ccBlBMtt.s 			page 13


 515:Generated_Source\PSoC6\pdl\drivers/peripheral/gpio/cy_gpio.h **** __STATIC_INLINE uint32_t Cy_GPIO_GetInterruptStatusMasked(GPIO_PRT_Type* base, uint32_t pinNum);
 516:Generated_Source\PSoC6\pdl\drivers/peripheral/gpio/cy_gpio.h **** __STATIC_INLINE void Cy_GPIO_SetSwInterrupt(GPIO_PRT_Type* base, uint32_t pinNum);
 517:Generated_Source\PSoC6\pdl\drivers/peripheral/gpio/cy_gpio.h **** __STATIC_INLINE void Cy_GPIO_SetInterruptEdge(GPIO_PRT_Type* base, uint32_t pinNum, uint32_t value)
 518:Generated_Source\PSoC6\pdl\drivers/peripheral/gpio/cy_gpio.h **** __STATIC_INLINE uint32_t Cy_GPIO_GetInterruptEdge(GPIO_PRT_Type* base, uint32_t pinNum);
 519:Generated_Source\PSoC6\pdl\drivers/peripheral/gpio/cy_gpio.h **** __STATIC_INLINE void Cy_GPIO_SetFilter(GPIO_PRT_Type* base, uint32_t value);
 520:Generated_Source\PSoC6\pdl\drivers/peripheral/gpio/cy_gpio.h **** __STATIC_INLINE uint32_t Cy_GPIO_GetFilter(GPIO_PRT_Type* base);
 521:Generated_Source\PSoC6\pdl\drivers/peripheral/gpio/cy_gpio.h **** 
 522:Generated_Source\PSoC6\pdl\drivers/peripheral/gpio/cy_gpio.h **** #if (IOSS_GPIO_GPIO_PORT_NR_0_31 != 0) || defined (CY_DOXYGEN)
 523:Generated_Source\PSoC6\pdl\drivers/peripheral/gpio/cy_gpio.h **** __STATIC_INLINE uint32_t Cy_GPIO_GetInterruptCause0(void);
 524:Generated_Source\PSoC6\pdl\drivers/peripheral/gpio/cy_gpio.h **** #endif /* (IOSS_GPIO_GPIO_PORT_NR_0_31 != 0) */
 525:Generated_Source\PSoC6\pdl\drivers/peripheral/gpio/cy_gpio.h **** 
 526:Generated_Source\PSoC6\pdl\drivers/peripheral/gpio/cy_gpio.h **** #if (IOSS_GPIO_GPIO_PORT_NR_32_63 != 0) || defined (CY_DOXYGEN)
 527:Generated_Source\PSoC6\pdl\drivers/peripheral/gpio/cy_gpio.h **** __STATIC_INLINE uint32_t Cy_GPIO_GetInterruptCause1(void);
 528:Generated_Source\PSoC6\pdl\drivers/peripheral/gpio/cy_gpio.h **** #endif /* (IOSS_GPIO_GPIO_PORT_NR_32_63 != 0) */
 529:Generated_Source\PSoC6\pdl\drivers/peripheral/gpio/cy_gpio.h **** 
 530:Generated_Source\PSoC6\pdl\drivers/peripheral/gpio/cy_gpio.h **** #if (IOSS_GPIO_GPIO_PORT_NR_64_95 != 0) || defined (CY_DOXYGEN)
 531:Generated_Source\PSoC6\pdl\drivers/peripheral/gpio/cy_gpio.h **** __STATIC_INLINE uint32_t Cy_GPIO_GetInterruptCause2(void);
 532:Generated_Source\PSoC6\pdl\drivers/peripheral/gpio/cy_gpio.h **** #endif /* (IOSS_GPIO_GPIO_PORT_NR_64_95 != 0) */
 533:Generated_Source\PSoC6\pdl\drivers/peripheral/gpio/cy_gpio.h **** 
 534:Generated_Source\PSoC6\pdl\drivers/peripheral/gpio/cy_gpio.h **** #if (IOSS_GPIO_GPIO_PORT_NR_96_127 != 0) || defined (CY_DOXYGEN)
 535:Generated_Source\PSoC6\pdl\drivers/peripheral/gpio/cy_gpio.h **** __STATIC_INLINE uint32_t Cy_GPIO_GetInterruptCause3(void);
 536:Generated_Source\PSoC6\pdl\drivers/peripheral/gpio/cy_gpio.h **** #endif /* (IOSS_GPIO_GPIO_PORT_NR_96_127 != 0) */
 537:Generated_Source\PSoC6\pdl\drivers/peripheral/gpio/cy_gpio.h **** 
 538:Generated_Source\PSoC6\pdl\drivers/peripheral/gpio/cy_gpio.h **** /** \} group_gpio_functions_interrupt */
 539:Generated_Source\PSoC6\pdl\drivers/peripheral/gpio/cy_gpio.h **** 
 540:Generated_Source\PSoC6\pdl\drivers/peripheral/gpio/cy_gpio.h **** 
 541:Generated_Source\PSoC6\pdl\drivers/peripheral/gpio/cy_gpio.h **** /**
 542:Generated_Source\PSoC6\pdl\drivers/peripheral/gpio/cy_gpio.h **** * \addtogroup group_gpio_functions_init
 543:Generated_Source\PSoC6\pdl\drivers/peripheral/gpio/cy_gpio.h **** * \{
 544:Generated_Source\PSoC6\pdl\drivers/peripheral/gpio/cy_gpio.h **** */
 545:Generated_Source\PSoC6\pdl\drivers/peripheral/gpio/cy_gpio.h **** 
 546:Generated_Source\PSoC6\pdl\drivers/peripheral/gpio/cy_gpio.h **** /*******************************************************************************
 547:Generated_Source\PSoC6\pdl\drivers/peripheral/gpio/cy_gpio.h **** * Function Name: Cy_GPIO_SetHSIOM
 548:Generated_Source\PSoC6\pdl\drivers/peripheral/gpio/cy_gpio.h **** ****************************************************************************//**
 549:Generated_Source\PSoC6\pdl\drivers/peripheral/gpio/cy_gpio.h **** *
 550:Generated_Source\PSoC6\pdl\drivers/peripheral/gpio/cy_gpio.h **** * \brief Configures the HSIOM connection to the pin.
 551:Generated_Source\PSoC6\pdl\drivers/peripheral/gpio/cy_gpio.h **** *
 552:Generated_Source\PSoC6\pdl\drivers/peripheral/gpio/cy_gpio.h **** * Connects the specified High-Speed Input Output Multiplexer (HSIOM) selection
 553:Generated_Source\PSoC6\pdl\drivers/peripheral/gpio/cy_gpio.h **** * to the pin.
 554:Generated_Source\PSoC6\pdl\drivers/peripheral/gpio/cy_gpio.h **** *
 555:Generated_Source\PSoC6\pdl\drivers/peripheral/gpio/cy_gpio.h **** * \param base
 556:Generated_Source\PSoC6\pdl\drivers/peripheral/gpio/cy_gpio.h **** * Pointer to the pin's port register base address
 557:Generated_Source\PSoC6\pdl\drivers/peripheral/gpio/cy_gpio.h **** *
 558:Generated_Source\PSoC6\pdl\drivers/peripheral/gpio/cy_gpio.h **** * \param pinNum
 559:Generated_Source\PSoC6\pdl\drivers/peripheral/gpio/cy_gpio.h **** * Position of the pin bit-field within the port register
 560:Generated_Source\PSoC6\pdl\drivers/peripheral/gpio/cy_gpio.h **** *
 561:Generated_Source\PSoC6\pdl\drivers/peripheral/gpio/cy_gpio.h **** * \param value
 562:Generated_Source\PSoC6\pdl\drivers/peripheral/gpio/cy_gpio.h **** * HSIOM input selection
 563:Generated_Source\PSoC6\pdl\drivers/peripheral/gpio/cy_gpio.h **** *
 564:Generated_Source\PSoC6\pdl\drivers/peripheral/gpio/cy_gpio.h **** * \return
 565:Generated_Source\PSoC6\pdl\drivers/peripheral/gpio/cy_gpio.h **** * void
 566:Generated_Source\PSoC6\pdl\drivers/peripheral/gpio/cy_gpio.h **** *
 567:Generated_Source\PSoC6\pdl\drivers/peripheral/gpio/cy_gpio.h **** * \note 
 568:Generated_Source\PSoC6\pdl\drivers/peripheral/gpio/cy_gpio.h **** * This function modifies a port register in a read-modify-write operation. It is
 569:Generated_Source\PSoC6\pdl\drivers/peripheral/gpio/cy_gpio.h **** * not thread safe as the resource is shared among multiple pins on a port.
 570:Generated_Source\PSoC6\pdl\drivers/peripheral/gpio/cy_gpio.h **** *
 571:Generated_Source\PSoC6\pdl\drivers/peripheral/gpio/cy_gpio.h **** * \funcusage
ARM GAS  C:\Users\rober\AppData\Local\Temp\ccBlBMtt.s 			page 14


 572:Generated_Source\PSoC6\pdl\drivers/peripheral/gpio/cy_gpio.h **** * \snippet gpio/gpio_v1_10_sut_01.cydsn/main_cm4.c snippet_Cy_GPIO_SetHSIOM
 573:Generated_Source\PSoC6\pdl\drivers/peripheral/gpio/cy_gpio.h **** *
 574:Generated_Source\PSoC6\pdl\drivers/peripheral/gpio/cy_gpio.h **** *******************************************************************************/
 575:Generated_Source\PSoC6\pdl\drivers/peripheral/gpio/cy_gpio.h **** __STATIC_INLINE void Cy_GPIO_SetHSIOM(GPIO_PRT_Type* base, uint32_t pinNum, en_hsiom_sel_t value)
 576:Generated_Source\PSoC6\pdl\drivers/peripheral/gpio/cy_gpio.h **** {
 577:Generated_Source\PSoC6\pdl\drivers/peripheral/gpio/cy_gpio.h ****     uint32_t portNum;
 578:Generated_Source\PSoC6\pdl\drivers/peripheral/gpio/cy_gpio.h ****     uint32_t tempReg;
 579:Generated_Source\PSoC6\pdl\drivers/peripheral/gpio/cy_gpio.h ****     HSIOM_PRT_Type* portAddrHSIOM;
 580:Generated_Source\PSoC6\pdl\drivers/peripheral/gpio/cy_gpio.h **** 
 581:Generated_Source\PSoC6\pdl\drivers/peripheral/gpio/cy_gpio.h ****     CY_ASSERT_L2(CY_GPIO_IS_PIN_VALID(pinNum));
 582:Generated_Source\PSoC6\pdl\drivers/peripheral/gpio/cy_gpio.h ****     CY_ASSERT_L2(CY_GPIO_IS_HSIOM_VALID(value));
 583:Generated_Source\PSoC6\pdl\drivers/peripheral/gpio/cy_gpio.h **** 
 584:Generated_Source\PSoC6\pdl\drivers/peripheral/gpio/cy_gpio.h ****     portNum = ((uint32_t)(base) - GPIO_BASE) / GPIO_PRT_SECTION_SIZE;
 585:Generated_Source\PSoC6\pdl\drivers/peripheral/gpio/cy_gpio.h ****     portAddrHSIOM = (HSIOM_PRT_Type*)(HSIOM_BASE + (HSIOM_PRT_SECTION_SIZE * portNum));
 586:Generated_Source\PSoC6\pdl\drivers/peripheral/gpio/cy_gpio.h **** 
 587:Generated_Source\PSoC6\pdl\drivers/peripheral/gpio/cy_gpio.h ****     if(pinNum < CY_GPIO_PRT_HALF)
 588:Generated_Source\PSoC6\pdl\drivers/peripheral/gpio/cy_gpio.h ****     {
 589:Generated_Source\PSoC6\pdl\drivers/peripheral/gpio/cy_gpio.h ****         tempReg = portAddrHSIOM->PORT_SEL0 & ~(CY_GPIO_HSIOM_MASK << (pinNum << CY_GPIO_HSIOM_OFFSE
 590:Generated_Source\PSoC6\pdl\drivers/peripheral/gpio/cy_gpio.h ****         portAddrHSIOM->PORT_SEL0 = tempReg | ((value & CY_GPIO_HSIOM_MASK) << (pinNum << CY_GPIO_HS
 591:Generated_Source\PSoC6\pdl\drivers/peripheral/gpio/cy_gpio.h ****     }
 592:Generated_Source\PSoC6\pdl\drivers/peripheral/gpio/cy_gpio.h ****     else
 593:Generated_Source\PSoC6\pdl\drivers/peripheral/gpio/cy_gpio.h ****     {
 594:Generated_Source\PSoC6\pdl\drivers/peripheral/gpio/cy_gpio.h ****         pinNum -= CY_GPIO_PRT_HALF;
 595:Generated_Source\PSoC6\pdl\drivers/peripheral/gpio/cy_gpio.h ****         tempReg = portAddrHSIOM->PORT_SEL1 & ~(CY_GPIO_HSIOM_MASK << (pinNum << CY_GPIO_HSIOM_OFFSE
 596:Generated_Source\PSoC6\pdl\drivers/peripheral/gpio/cy_gpio.h ****         portAddrHSIOM->PORT_SEL1 = tempReg | ((value & CY_GPIO_HSIOM_MASK) << (pinNum << CY_GPIO_HS
 597:Generated_Source\PSoC6\pdl\drivers/peripheral/gpio/cy_gpio.h ****     }
 598:Generated_Source\PSoC6\pdl\drivers/peripheral/gpio/cy_gpio.h **** }
 599:Generated_Source\PSoC6\pdl\drivers/peripheral/gpio/cy_gpio.h **** 
 600:Generated_Source\PSoC6\pdl\drivers/peripheral/gpio/cy_gpio.h **** 
 601:Generated_Source\PSoC6\pdl\drivers/peripheral/gpio/cy_gpio.h **** /*******************************************************************************
 602:Generated_Source\PSoC6\pdl\drivers/peripheral/gpio/cy_gpio.h **** * Function Name: Cy_GPIO_GetHSIOM
 603:Generated_Source\PSoC6\pdl\drivers/peripheral/gpio/cy_gpio.h **** ****************************************************************************//**
 604:Generated_Source\PSoC6\pdl\drivers/peripheral/gpio/cy_gpio.h **** *
 605:Generated_Source\PSoC6\pdl\drivers/peripheral/gpio/cy_gpio.h **** * \brief Returns the current HSIOM multiplexer connection to the pin.
 606:Generated_Source\PSoC6\pdl\drivers/peripheral/gpio/cy_gpio.h **** *
 607:Generated_Source\PSoC6\pdl\drivers/peripheral/gpio/cy_gpio.h **** * \param base
 608:Generated_Source\PSoC6\pdl\drivers/peripheral/gpio/cy_gpio.h **** * Pointer to the pin's port register base address
 609:Generated_Source\PSoC6\pdl\drivers/peripheral/gpio/cy_gpio.h **** *
 610:Generated_Source\PSoC6\pdl\drivers/peripheral/gpio/cy_gpio.h **** * \param pinNum
 611:Generated_Source\PSoC6\pdl\drivers/peripheral/gpio/cy_gpio.h **** * Position of the pin bit-field within the port register
 612:Generated_Source\PSoC6\pdl\drivers/peripheral/gpio/cy_gpio.h **** *
 613:Generated_Source\PSoC6\pdl\drivers/peripheral/gpio/cy_gpio.h **** * \return
 614:Generated_Source\PSoC6\pdl\drivers/peripheral/gpio/cy_gpio.h **** * HSIOM input selection
 615:Generated_Source\PSoC6\pdl\drivers/peripheral/gpio/cy_gpio.h **** *
 616:Generated_Source\PSoC6\pdl\drivers/peripheral/gpio/cy_gpio.h **** * \funcusage
 617:Generated_Source\PSoC6\pdl\drivers/peripheral/gpio/cy_gpio.h **** * \snippet gpio/gpio_v1_10_sut_01.cydsn/main_cm4.c snippet_Cy_GPIO_SetHSIOM
 618:Generated_Source\PSoC6\pdl\drivers/peripheral/gpio/cy_gpio.h **** *
 619:Generated_Source\PSoC6\pdl\drivers/peripheral/gpio/cy_gpio.h **** *******************************************************************************/
 620:Generated_Source\PSoC6\pdl\drivers/peripheral/gpio/cy_gpio.h **** __STATIC_INLINE en_hsiom_sel_t Cy_GPIO_GetHSIOM(GPIO_PRT_Type* base, uint32_t pinNum)
 621:Generated_Source\PSoC6\pdl\drivers/peripheral/gpio/cy_gpio.h **** {
 622:Generated_Source\PSoC6\pdl\drivers/peripheral/gpio/cy_gpio.h ****     uint32_t returnValue;
 623:Generated_Source\PSoC6\pdl\drivers/peripheral/gpio/cy_gpio.h ****     uint32_t portNum;
 624:Generated_Source\PSoC6\pdl\drivers/peripheral/gpio/cy_gpio.h ****     HSIOM_PRT_Type* portAddrHSIOM;
 625:Generated_Source\PSoC6\pdl\drivers/peripheral/gpio/cy_gpio.h ****     
 626:Generated_Source\PSoC6\pdl\drivers/peripheral/gpio/cy_gpio.h ****     CY_ASSERT_L2(CY_GPIO_IS_PIN_VALID(pinNum));
 627:Generated_Source\PSoC6\pdl\drivers/peripheral/gpio/cy_gpio.h **** 
 628:Generated_Source\PSoC6\pdl\drivers/peripheral/gpio/cy_gpio.h ****     portNum = ((uint32_t)(base) - GPIO_BASE) / GPIO_PRT_SECTION_SIZE;
ARM GAS  C:\Users\rober\AppData\Local\Temp\ccBlBMtt.s 			page 15


 629:Generated_Source\PSoC6\pdl\drivers/peripheral/gpio/cy_gpio.h ****     portAddrHSIOM = (HSIOM_PRT_Type*)(HSIOM_BASE + (HSIOM_PRT_SECTION_SIZE * portNum));
 630:Generated_Source\PSoC6\pdl\drivers/peripheral/gpio/cy_gpio.h **** 
 631:Generated_Source\PSoC6\pdl\drivers/peripheral/gpio/cy_gpio.h ****     if(pinNum < CY_GPIO_PRT_HALF)
 632:Generated_Source\PSoC6\pdl\drivers/peripheral/gpio/cy_gpio.h ****     {
 633:Generated_Source\PSoC6\pdl\drivers/peripheral/gpio/cy_gpio.h ****         returnValue = (portAddrHSIOM->PORT_SEL0 >> (pinNum << CY_GPIO_HSIOM_OFFSET)) & CY_GPIO_HSIO
 634:Generated_Source\PSoC6\pdl\drivers/peripheral/gpio/cy_gpio.h ****     }
 635:Generated_Source\PSoC6\pdl\drivers/peripheral/gpio/cy_gpio.h ****     else
 636:Generated_Source\PSoC6\pdl\drivers/peripheral/gpio/cy_gpio.h ****     {
 637:Generated_Source\PSoC6\pdl\drivers/peripheral/gpio/cy_gpio.h ****         pinNum -= CY_GPIO_PRT_HALF;
 638:Generated_Source\PSoC6\pdl\drivers/peripheral/gpio/cy_gpio.h ****         returnValue = (portAddrHSIOM->PORT_SEL1 >> (pinNum << CY_GPIO_HSIOM_OFFSET)) & CY_GPIO_HSIO
 639:Generated_Source\PSoC6\pdl\drivers/peripheral/gpio/cy_gpio.h ****     }
 640:Generated_Source\PSoC6\pdl\drivers/peripheral/gpio/cy_gpio.h **** 
 641:Generated_Source\PSoC6\pdl\drivers/peripheral/gpio/cy_gpio.h ****     return (en_hsiom_sel_t)returnValue;
 642:Generated_Source\PSoC6\pdl\drivers/peripheral/gpio/cy_gpio.h **** }
 643:Generated_Source\PSoC6\pdl\drivers/peripheral/gpio/cy_gpio.h **** 
 644:Generated_Source\PSoC6\pdl\drivers/peripheral/gpio/cy_gpio.h **** 
 645:Generated_Source\PSoC6\pdl\drivers/peripheral/gpio/cy_gpio.h **** /*******************************************************************************
 646:Generated_Source\PSoC6\pdl\drivers/peripheral/gpio/cy_gpio.h **** * Function Name: Cy_GPIO_PortToAddr
 647:Generated_Source\PSoC6\pdl\drivers/peripheral/gpio/cy_gpio.h **** ****************************************************************************//**
 648:Generated_Source\PSoC6\pdl\drivers/peripheral/gpio/cy_gpio.h **** *
 649:Generated_Source\PSoC6\pdl\drivers/peripheral/gpio/cy_gpio.h **** * \brief Retrieves the port address based on the given port number.
 650:Generated_Source\PSoC6\pdl\drivers/peripheral/gpio/cy_gpio.h **** *
 651:Generated_Source\PSoC6\pdl\drivers/peripheral/gpio/cy_gpio.h **** * This is a helper function to calculate the port base address when given a port
 652:Generated_Source\PSoC6\pdl\drivers/peripheral/gpio/cy_gpio.h **** * number. It is to be used when pin access needs to be calculated at runtime.
 653:Generated_Source\PSoC6\pdl\drivers/peripheral/gpio/cy_gpio.h **** *
 654:Generated_Source\PSoC6\pdl\drivers/peripheral/gpio/cy_gpio.h **** * \param portNum
 655:Generated_Source\PSoC6\pdl\drivers/peripheral/gpio/cy_gpio.h **** * Port number
 656:Generated_Source\PSoC6\pdl\drivers/peripheral/gpio/cy_gpio.h **** *
 657:Generated_Source\PSoC6\pdl\drivers/peripheral/gpio/cy_gpio.h **** * \return
 658:Generated_Source\PSoC6\pdl\drivers/peripheral/gpio/cy_gpio.h **** * Base address of the port register structure
 659:Generated_Source\PSoC6\pdl\drivers/peripheral/gpio/cy_gpio.h **** *
 660:Generated_Source\PSoC6\pdl\drivers/peripheral/gpio/cy_gpio.h **** * \funcusage
 661:Generated_Source\PSoC6\pdl\drivers/peripheral/gpio/cy_gpio.h **** * \snippet gpio/gpio_v1_10_sut_01.cydsn/main_cm4.c snippet_Cy_GPIO_PortToAddr
 662:Generated_Source\PSoC6\pdl\drivers/peripheral/gpio/cy_gpio.h **** *
 663:Generated_Source\PSoC6\pdl\drivers/peripheral/gpio/cy_gpio.h **** *******************************************************************************/
 664:Generated_Source\PSoC6\pdl\drivers/peripheral/gpio/cy_gpio.h **** __STATIC_INLINE GPIO_PRT_Type* Cy_GPIO_PortToAddr(uint32_t portNum)
 665:Generated_Source\PSoC6\pdl\drivers/peripheral/gpio/cy_gpio.h **** {
 666:Generated_Source\PSoC6\pdl\drivers/peripheral/gpio/cy_gpio.h ****     GPIO_PRT_Type* base;
 667:Generated_Source\PSoC6\pdl\drivers/peripheral/gpio/cy_gpio.h ****     
 668:Generated_Source\PSoC6\pdl\drivers/peripheral/gpio/cy_gpio.h ****     if(portNum < (uint32_t)IOSS_GPIO_GPIO_PORT_NR)
 669:Generated_Source\PSoC6\pdl\drivers/peripheral/gpio/cy_gpio.h ****     {
 670:Generated_Source\PSoC6\pdl\drivers/peripheral/gpio/cy_gpio.h ****          base = (GPIO_PRT_Type *)(GPIO_BASE + (GPIO_PRT_SECTION_SIZE * portNum));
 671:Generated_Source\PSoC6\pdl\drivers/peripheral/gpio/cy_gpio.h ****     }
 672:Generated_Source\PSoC6\pdl\drivers/peripheral/gpio/cy_gpio.h ****     else
 673:Generated_Source\PSoC6\pdl\drivers/peripheral/gpio/cy_gpio.h ****     {
 674:Generated_Source\PSoC6\pdl\drivers/peripheral/gpio/cy_gpio.h ****         /* Error: Return default base address */
 675:Generated_Source\PSoC6\pdl\drivers/peripheral/gpio/cy_gpio.h ****         base = (GPIO_PRT_Type *)(GPIO_BASE);
 676:Generated_Source\PSoC6\pdl\drivers/peripheral/gpio/cy_gpio.h ****     }
 677:Generated_Source\PSoC6\pdl\drivers/peripheral/gpio/cy_gpio.h **** 
 678:Generated_Source\PSoC6\pdl\drivers/peripheral/gpio/cy_gpio.h ****     return (base);
 679:Generated_Source\PSoC6\pdl\drivers/peripheral/gpio/cy_gpio.h **** }
 680:Generated_Source\PSoC6\pdl\drivers/peripheral/gpio/cy_gpio.h **** 
 681:Generated_Source\PSoC6\pdl\drivers/peripheral/gpio/cy_gpio.h **** /** \} group_gpio_functions_init */
 682:Generated_Source\PSoC6\pdl\drivers/peripheral/gpio/cy_gpio.h **** 
 683:Generated_Source\PSoC6\pdl\drivers/peripheral/gpio/cy_gpio.h **** /**
 684:Generated_Source\PSoC6\pdl\drivers/peripheral/gpio/cy_gpio.h **** * \addtogroup group_gpio_functions_gpio
 685:Generated_Source\PSoC6\pdl\drivers/peripheral/gpio/cy_gpio.h **** * \{
ARM GAS  C:\Users\rober\AppData\Local\Temp\ccBlBMtt.s 			page 16


 686:Generated_Source\PSoC6\pdl\drivers/peripheral/gpio/cy_gpio.h **** */
 687:Generated_Source\PSoC6\pdl\drivers/peripheral/gpio/cy_gpio.h **** 
 688:Generated_Source\PSoC6\pdl\drivers/peripheral/gpio/cy_gpio.h **** /*******************************************************************************
 689:Generated_Source\PSoC6\pdl\drivers/peripheral/gpio/cy_gpio.h **** * Function Name: Cy_GPIO_Read
 690:Generated_Source\PSoC6\pdl\drivers/peripheral/gpio/cy_gpio.h **** ****************************************************************************//**
 691:Generated_Source\PSoC6\pdl\drivers/peripheral/gpio/cy_gpio.h **** *
 692:Generated_Source\PSoC6\pdl\drivers/peripheral/gpio/cy_gpio.h **** * \brief Reads the current logic level on the input buffer of the pin.
 693:Generated_Source\PSoC6\pdl\drivers/peripheral/gpio/cy_gpio.h **** *
 694:Generated_Source\PSoC6\pdl\drivers/peripheral/gpio/cy_gpio.h **** * \param base
 695:Generated_Source\PSoC6\pdl\drivers/peripheral/gpio/cy_gpio.h **** * Pointer to the pin's port register base address
 696:Generated_Source\PSoC6\pdl\drivers/peripheral/gpio/cy_gpio.h **** *
 697:Generated_Source\PSoC6\pdl\drivers/peripheral/gpio/cy_gpio.h **** * \param pinNum
 698:Generated_Source\PSoC6\pdl\drivers/peripheral/gpio/cy_gpio.h **** * Position of the pin bit-field within the port register.
 699:Generated_Source\PSoC6\pdl\drivers/peripheral/gpio/cy_gpio.h **** * Bit position 8 is the routed pin through the port glitch filter.
 700:Generated_Source\PSoC6\pdl\drivers/peripheral/gpio/cy_gpio.h **** *
 701:Generated_Source\PSoC6\pdl\drivers/peripheral/gpio/cy_gpio.h **** * \return
 702:Generated_Source\PSoC6\pdl\drivers/peripheral/gpio/cy_gpio.h **** * Logic level present on the pin
 703:Generated_Source\PSoC6\pdl\drivers/peripheral/gpio/cy_gpio.h **** *
 704:Generated_Source\PSoC6\pdl\drivers/peripheral/gpio/cy_gpio.h **** * \funcusage
 705:Generated_Source\PSoC6\pdl\drivers/peripheral/gpio/cy_gpio.h **** * \snippet gpio/gpio_v1_10_sut_01.cydsn/main_cm4.c snippet_Cy_GPIO_Read
 706:Generated_Source\PSoC6\pdl\drivers/peripheral/gpio/cy_gpio.h **** *
 707:Generated_Source\PSoC6\pdl\drivers/peripheral/gpio/cy_gpio.h **** *******************************************************************************/
 708:Generated_Source\PSoC6\pdl\drivers/peripheral/gpio/cy_gpio.h **** __STATIC_INLINE uint32_t Cy_GPIO_Read(GPIO_PRT_Type* base, uint32_t pinNum)
 709:Generated_Source\PSoC6\pdl\drivers/peripheral/gpio/cy_gpio.h **** {
 710:Generated_Source\PSoC6\pdl\drivers/peripheral/gpio/cy_gpio.h ****     CY_ASSERT_L2(CY_GPIO_IS_FILTER_PIN_VALID(pinNum));
 711:Generated_Source\PSoC6\pdl\drivers/peripheral/gpio/cy_gpio.h ****     
 712:Generated_Source\PSoC6\pdl\drivers/peripheral/gpio/cy_gpio.h ****     return (base->IN >> (pinNum)) & CY_GPIO_IN_MASK;
 713:Generated_Source\PSoC6\pdl\drivers/peripheral/gpio/cy_gpio.h **** }
 714:Generated_Source\PSoC6\pdl\drivers/peripheral/gpio/cy_gpio.h **** 
 715:Generated_Source\PSoC6\pdl\drivers/peripheral/gpio/cy_gpio.h **** 
 716:Generated_Source\PSoC6\pdl\drivers/peripheral/gpio/cy_gpio.h **** /*******************************************************************************
 717:Generated_Source\PSoC6\pdl\drivers/peripheral/gpio/cy_gpio.h **** * Function Name: Cy_GPIO_Write
 718:Generated_Source\PSoC6\pdl\drivers/peripheral/gpio/cy_gpio.h **** ****************************************************************************//**
 719:Generated_Source\PSoC6\pdl\drivers/peripheral/gpio/cy_gpio.h **** *
 720:Generated_Source\PSoC6\pdl\drivers/peripheral/gpio/cy_gpio.h **** * \brief Write a logic 0 or logic 1 state to the output driver.
 721:Generated_Source\PSoC6\pdl\drivers/peripheral/gpio/cy_gpio.h **** *
 722:Generated_Source\PSoC6\pdl\drivers/peripheral/gpio/cy_gpio.h **** * This function should be used only for software driven pins. It does not have
 723:Generated_Source\PSoC6\pdl\drivers/peripheral/gpio/cy_gpio.h **** * any effect on peripheral driven pins.
 724:Generated_Source\PSoC6\pdl\drivers/peripheral/gpio/cy_gpio.h **** *
 725:Generated_Source\PSoC6\pdl\drivers/peripheral/gpio/cy_gpio.h **** * \param base
 726:Generated_Source\PSoC6\pdl\drivers/peripheral/gpio/cy_gpio.h **** * Pointer to the pin's port register base address
 727:Generated_Source\PSoC6\pdl\drivers/peripheral/gpio/cy_gpio.h **** *
 728:Generated_Source\PSoC6\pdl\drivers/peripheral/gpio/cy_gpio.h **** * \param pinNum
 729:Generated_Source\PSoC6\pdl\drivers/peripheral/gpio/cy_gpio.h **** * Position of the pin bit-field within the port register
 730:Generated_Source\PSoC6\pdl\drivers/peripheral/gpio/cy_gpio.h **** *
 731:Generated_Source\PSoC6\pdl\drivers/peripheral/gpio/cy_gpio.h **** * \param value
 732:Generated_Source\PSoC6\pdl\drivers/peripheral/gpio/cy_gpio.h **** * Logic level to drive out on the pin
 733:Generated_Source\PSoC6\pdl\drivers/peripheral/gpio/cy_gpio.h **** *
 734:Generated_Source\PSoC6\pdl\drivers/peripheral/gpio/cy_gpio.h **** * \return
 735:Generated_Source\PSoC6\pdl\drivers/peripheral/gpio/cy_gpio.h **** * void
 736:Generated_Source\PSoC6\pdl\drivers/peripheral/gpio/cy_gpio.h **** *
 737:Generated_Source\PSoC6\pdl\drivers/peripheral/gpio/cy_gpio.h **** * \funcusage
 738:Generated_Source\PSoC6\pdl\drivers/peripheral/gpio/cy_gpio.h **** * \snippet gpio/gpio_v1_10_sut_01.cydsn/main_cm4.c snippet_Cy_GPIO_Write
 739:Generated_Source\PSoC6\pdl\drivers/peripheral/gpio/cy_gpio.h **** *
 740:Generated_Source\PSoC6\pdl\drivers/peripheral/gpio/cy_gpio.h **** *******************************************************************************/
 741:Generated_Source\PSoC6\pdl\drivers/peripheral/gpio/cy_gpio.h **** __STATIC_INLINE void Cy_GPIO_Write(GPIO_PRT_Type* base, uint32_t pinNum, uint32_t value)
 742:Generated_Source\PSoC6\pdl\drivers/peripheral/gpio/cy_gpio.h **** {
ARM GAS  C:\Users\rober\AppData\Local\Temp\ccBlBMtt.s 			page 17


 743:Generated_Source\PSoC6\pdl\drivers/peripheral/gpio/cy_gpio.h ****     CY_ASSERT_L2(CY_GPIO_IS_PIN_VALID(pinNum));
 744:Generated_Source\PSoC6\pdl\drivers/peripheral/gpio/cy_gpio.h ****     CY_ASSERT_L2(CY_GPIO_IS_VALUE_VALID(value));
 745:Generated_Source\PSoC6\pdl\drivers/peripheral/gpio/cy_gpio.h **** 
 746:Generated_Source\PSoC6\pdl\drivers/peripheral/gpio/cy_gpio.h ****     /* Thread-safe: Directly access the pin registers instead of base->OUT */
 747:Generated_Source\PSoC6\pdl\drivers/peripheral/gpio/cy_gpio.h ****     if(0UL == value)
 748:Generated_Source\PSoC6\pdl\drivers/peripheral/gpio/cy_gpio.h ****     {
 749:Generated_Source\PSoC6\pdl\drivers/peripheral/gpio/cy_gpio.h ****         base->OUT_CLR = CY_GPIO_OUT_MASK << pinNum;
  49              		.loc 2 749 0
  50 000a 0A4C     		ldr	r4, .L3
  51 000c 0825     		movs	r5, #8
  52 000e 6560     		str	r5, [r4, #4]
  53              	.LVL2:
  54              	.LBE59:
  55              	.LBE58:
 123:eInk Library/pervasive_eink_hardware_driver.c ****     /* Pull the chip select line LOW to begin communication */
 124:eInk Library/pervasive_eink_hardware_driver.c ****     CY_EINK_CsLow;
 125:eInk Library/pervasive_eink_hardware_driver.c ****     /* Send the header of register address index */
 126:eInk Library/pervasive_eink_hardware_driver.c ****     Cy_EINK_WriteSPI(PV_EINK_REG_INDEX_HEADER);
  56              		.loc 1 126 0
  57 0010 7020     		movs	r0, #112
  58              	.LVL3:
  59 0012 FFF7FEFF 		bl	Cy_EINK_WriteSPI
  60              	.LVL4:
 127:eInk Library/pervasive_eink_hardware_driver.c ****     /* Send the register address */
 128:eInk Library/pervasive_eink_hardware_driver.c ****     Cy_EINK_WriteSPI(regAddr);
  61              		.loc 1 128 0
  62 0016 4046     		mov	r0, r8
  63 0018 FFF7FEFF 		bl	Cy_EINK_WriteSPI
  64              	.LVL5:
  65              	.LBB60:
  66              	.LBB61:
 750:Generated_Source\PSoC6\pdl\drivers/peripheral/gpio/cy_gpio.h ****     }
 751:Generated_Source\PSoC6\pdl\drivers/peripheral/gpio/cy_gpio.h ****     else
 752:Generated_Source\PSoC6\pdl\drivers/peripheral/gpio/cy_gpio.h ****     {
 753:Generated_Source\PSoC6\pdl\drivers/peripheral/gpio/cy_gpio.h ****         base->OUT_SET = CY_GPIO_OUT_MASK << pinNum;
  67              		.loc 2 753 0
  68 001c A560     		str	r5, [r4, #8]
  69              	.LVL6:
  70              	.LBE61:
  71              	.LBE60:
  72              	.LBB62:
  73              	.LBB63:
 749:Generated_Source\PSoC6\pdl\drivers/peripheral/gpio/cy_gpio.h ****     }
  74              		.loc 2 749 0
  75 001e 6560     		str	r5, [r4, #4]
  76              	.LVL7:
  77              	.LBE63:
  78              	.LBE62:
 129:eInk Library/pervasive_eink_hardware_driver.c ****     /* Push the chip select line HIGH to end communication */
 130:eInk Library/pervasive_eink_hardware_driver.c ****     CY_EINK_CsHigh;
 131:eInk Library/pervasive_eink_hardware_driver.c ****     
 132:eInk Library/pervasive_eink_hardware_driver.c ****     /* Wait for 10uS before the next transmission */
 133:eInk Library/pervasive_eink_hardware_driver.c ****     CY_EINK_Wait10uS;
 134:eInk Library/pervasive_eink_hardware_driver.c ****     
 135:eInk Library/pervasive_eink_hardware_driver.c ****     /* Pull the chip select line LOW to begin communication */
 136:eInk Library/pervasive_eink_hardware_driver.c ****     CY_EINK_CsLow;
 137:eInk Library/pervasive_eink_hardware_driver.c ****     
ARM GAS  C:\Users\rober\AppData\Local\Temp\ccBlBMtt.s 			page 18


 138:eInk Library/pervasive_eink_hardware_driver.c ****     /* Send the header of data write index */
 139:eInk Library/pervasive_eink_hardware_driver.c ****     Cy_EINK_WriteSPI(PV_EINK_REG_DATA_WRITE);
  79              		.loc 1 139 0
  80 0020 7220     		movs	r0, #114
  81 0022 FFF7FEFF 		bl	Cy_EINK_WriteSPI
  82              	.LVL8:
 140:eInk Library/pervasive_eink_hardware_driver.c **** 
 141:eInk Library/pervasive_eink_hardware_driver.c **** #if (BUFFERED_WRITE == 1)    
 142:eInk Library/pervasive_eink_hardware_driver.c ****     Cy_EINK_WriteSPIBuffer(data, dataLength);
  83              		.loc 1 142 0
  84 0026 3946     		mov	r1, r7
  85 0028 3046     		mov	r0, r6
  86 002a FFF7FEFF 		bl	Cy_EINK_WriteSPIBuffer
  87              	.LVL9:
  88              	.LBB64:
  89              	.LBB65:
  90              		.loc 2 753 0
  91 002e A560     		str	r5, [r4, #8]
  92              	.LVL10:
  93 0030 BDE8F081 		pop	{r4, r5, r6, r7, r8, pc}
  94              	.LVL11:
  95              	.L4:
  96              		.align	2
  97              	.L3:
  98 0034 00063240 		.word	1077020160
  99              	.LBE65:
 100              	.LBE64:
 101              		.cfi_endproc
 102              	.LFE603:
 103              		.size	Pv_EINK_SendData, .-Pv_EINK_SendData
 104              		.section	.text.Pv_EINK_SendByte,"ax",%progbits
 105              		.align	2
 106              		.global	Pv_EINK_SendByte
 107              		.thumb
 108              		.thumb_func
 109              		.type	Pv_EINK_SendByte, %function
 110              	Pv_EINK_SendByte:
 111              	.LFB604:
 143:eInk Library/pervasive_eink_hardware_driver.c **** #else    
 144:eInk Library/pervasive_eink_hardware_driver.c ****     //    /* Send the array of data */
 145:eInk Library/pervasive_eink_hardware_driver.c ****     while (dataLength--)
 146:eInk Library/pervasive_eink_hardware_driver.c ****     {
 147:eInk Library/pervasive_eink_hardware_driver.c ****         Cy_EINK_WriteSPI(*data++);
 148:eInk Library/pervasive_eink_hardware_driver.c ****     }
 149:eInk Library/pervasive_eink_hardware_driver.c **** #endif
 150:eInk Library/pervasive_eink_hardware_driver.c **** 
 151:eInk Library/pervasive_eink_hardware_driver.c ****     /* Push the chip select line HIGH to end communication */
 152:eInk Library/pervasive_eink_hardware_driver.c ****     CY_EINK_CsHigh;
 153:eInk Library/pervasive_eink_hardware_driver.c **** }
 154:eInk Library/pervasive_eink_hardware_driver.c **** 
 155:eInk Library/pervasive_eink_hardware_driver.c **** /*******************************************************************************
 156:eInk Library/pervasive_eink_hardware_driver.c **** * Function Name: void Pv_EINK_SendByte(uint8_t regAddr, uint8_t data)
 157:eInk Library/pervasive_eink_hardware_driver.c **** ********************************************************************************
 158:eInk Library/pervasive_eink_hardware_driver.c **** *
 159:eInk Library/pervasive_eink_hardware_driver.c **** * Summary: Sends a byte of data to the E-INK driver.
 160:eInk Library/pervasive_eink_hardware_driver.c **** *
 161:eInk Library/pervasive_eink_hardware_driver.c **** * Parameters:
ARM GAS  C:\Users\rober\AppData\Local\Temp\ccBlBMtt.s 			page 19


 162:eInk Library/pervasive_eink_hardware_driver.c **** *  uint8_t regAddr: Display driver register address
 163:eInk Library/pervasive_eink_hardware_driver.c **** *  uint8_t data   : Data byte that will be sent to the driver
 164:eInk Library/pervasive_eink_hardware_driver.c **** *
 165:eInk Library/pervasive_eink_hardware_driver.c **** * Return:
 166:eInk Library/pervasive_eink_hardware_driver.c **** *  None
 167:eInk Library/pervasive_eink_hardware_driver.c **** *
 168:eInk Library/pervasive_eink_hardware_driver.c **** * Side Effects:
 169:eInk Library/pervasive_eink_hardware_driver.c **** *  None
 170:eInk Library/pervasive_eink_hardware_driver.c **** *******************************************************************************/
 171:eInk Library/pervasive_eink_hardware_driver.c **** void Pv_EINK_SendByte(uint8_t regAddr, uint8_t data)
 172:eInk Library/pervasive_eink_hardware_driver.c **** {
 112              		.loc 1 172 0
 113              		.cfi_startproc
 114              		@ args = 0, pretend = 0, frame = 8
 115              		@ frame_needed = 0, uses_anonymous_args = 0
 116              	.LVL12:
 117 0000 00B5     		push	{lr}
 118              		.cfi_def_cfa_offset 4
 119              		.cfi_offset 14, -4
 120 0002 83B0     		sub	sp, sp, #12
 121              		.cfi_def_cfa_offset 16
 122 0004 02AB     		add	r3, sp, #8
 123 0006 03F8011D 		strb	r1, [r3, #-1]!
 173:eInk Library/pervasive_eink_hardware_driver.c ****     /* Send a single byte of data */
 174:eInk Library/pervasive_eink_hardware_driver.c ****     Pv_EINK_SendData(regAddr, &data, CY_EINK_SINGLE_BYTE);
 124              		.loc 1 174 0
 125 000a 0122     		movs	r2, #1
 126 000c 1946     		mov	r1, r3
 127              	.LVL13:
 128 000e FFF7FEFF 		bl	Pv_EINK_SendData
 129              	.LVL14:
 175:eInk Library/pervasive_eink_hardware_driver.c **** }
 130              		.loc 1 175 0
 131 0012 03B0     		add	sp, sp, #12
 132              		.cfi_def_cfa_offset 4
 133              		@ sp needed
 134 0014 5DF804FB 		ldr	pc, [sp], #4
 135              		.cfi_endproc
 136              	.LFE604:
 137              		.size	Pv_EINK_SendByte, .-Pv_EINK_SendByte
 138              		.section	.text.Pv_EINK_ReadByte,"ax",%progbits
 139              		.align	2
 140              		.global	Pv_EINK_ReadByte
 141              		.thumb
 142              		.thumb_func
 143              		.type	Pv_EINK_ReadByte, %function
 144              	Pv_EINK_ReadByte:
 145              	.LFB605:
 176:eInk Library/pervasive_eink_hardware_driver.c **** 
 177:eInk Library/pervasive_eink_hardware_driver.c **** /*******************************************************************************
 178:eInk Library/pervasive_eink_hardware_driver.c **** * Function Name: uint8_t Pv_EINK_ReadByte(uint8_t regAddr, uint8_t data)
 179:eInk Library/pervasive_eink_hardware_driver.c **** ********************************************************************************
 180:eInk Library/pervasive_eink_hardware_driver.c **** *
 181:eInk Library/pervasive_eink_hardware_driver.c **** * Summary: Sends a read command to the E-INK driver and receives a byte of data
 182:eInk Library/pervasive_eink_hardware_driver.c **** *  from the driver.
 183:eInk Library/pervasive_eink_hardware_driver.c **** *
 184:eInk Library/pervasive_eink_hardware_driver.c **** * Parameters:
ARM GAS  C:\Users\rober\AppData\Local\Temp\ccBlBMtt.s 			page 20


 185:eInk Library/pervasive_eink_hardware_driver.c **** *  uint8_t regAddr: Display driver register address
 186:eInk Library/pervasive_eink_hardware_driver.c **** *  uint8_t data   : Data command that will be sent to the driver
 187:eInk Library/pervasive_eink_hardware_driver.c **** *
 188:eInk Library/pervasive_eink_hardware_driver.c **** * Return:
 189:eInk Library/pervasive_eink_hardware_driver.c **** *  uint8_t :  Data received from the display driver
 190:eInk Library/pervasive_eink_hardware_driver.c **** *
 191:eInk Library/pervasive_eink_hardware_driver.c **** * Side Effects:
 192:eInk Library/pervasive_eink_hardware_driver.c **** *  None
 193:eInk Library/pervasive_eink_hardware_driver.c **** *******************************************************************************/
 194:eInk Library/pervasive_eink_hardware_driver.c **** uint8_t Pv_EINK_ReadByte(uint8_t regAddr, uint8_t data)
 195:eInk Library/pervasive_eink_hardware_driver.c **** {
 146              		.loc 1 195 0
 147              		.cfi_startproc
 148              		@ args = 0, pretend = 0, frame = 0
 149              		@ frame_needed = 0, uses_anonymous_args = 0
 150              	.LVL15:
 151 0000 F8B5     		push	{r3, r4, r5, r6, r7, lr}
 152              		.cfi_def_cfa_offset 24
 153              		.cfi_offset 3, -24
 154              		.cfi_offset 4, -20
 155              		.cfi_offset 5, -16
 156              		.cfi_offset 6, -12
 157              		.cfi_offset 7, -8
 158              		.cfi_offset 14, -4
 159 0002 0746     		mov	r7, r0
 160 0004 0E46     		mov	r6, r1
 161              	.LVL16:
 162              	.LBB66:
 163              	.LBB67:
 749:Generated_Source\PSoC6\pdl\drivers/peripheral/gpio/cy_gpio.h ****     }
 164              		.loc 2 749 0
 165 0006 094C     		ldr	r4, .L9
 166 0008 0825     		movs	r5, #8
 167 000a 6560     		str	r5, [r4, #4]
 168              	.LVL17:
 169              	.LBE67:
 170              	.LBE66:
 196:eInk Library/pervasive_eink_hardware_driver.c ****     /* Variable that stores received data */
 197:eInk Library/pervasive_eink_hardware_driver.c ****     uint8_t dataRead;
 198:eInk Library/pervasive_eink_hardware_driver.c ****     
 199:eInk Library/pervasive_eink_hardware_driver.c ****     /* Pull the chip select line LOW to begin communication */
 200:eInk Library/pervasive_eink_hardware_driver.c ****     CY_EINK_CsLow;
 201:eInk Library/pervasive_eink_hardware_driver.c ****     /* Send the header of register address index */
 202:eInk Library/pervasive_eink_hardware_driver.c ****     Cy_EINK_WriteSPI(PV_EINK_REG_INDEX_HEADER);
 171              		.loc 1 202 0
 172 000c 7020     		movs	r0, #112
 173              	.LVL18:
 174 000e FFF7FEFF 		bl	Cy_EINK_WriteSPI
 175              	.LVL19:
 203:eInk Library/pervasive_eink_hardware_driver.c ****     /* Send the register address */
 204:eInk Library/pervasive_eink_hardware_driver.c ****     Cy_EINK_WriteSPI(regAddr);
 176              		.loc 1 204 0
 177 0012 3846     		mov	r0, r7
 178 0014 FFF7FEFF 		bl	Cy_EINK_WriteSPI
 179              	.LVL20:
 180              	.LBB68:
 181              	.LBB69:
ARM GAS  C:\Users\rober\AppData\Local\Temp\ccBlBMtt.s 			page 21


 182              		.loc 2 753 0
 183 0018 A560     		str	r5, [r4, #8]
 184              	.LVL21:
 185              	.LBE69:
 186              	.LBE68:
 187              	.LBB70:
 188              	.LBB71:
 749:Generated_Source\PSoC6\pdl\drivers/peripheral/gpio/cy_gpio.h ****     }
 189              		.loc 2 749 0
 190 001a 6560     		str	r5, [r4, #4]
 191              	.LVL22:
 192              	.LBE71:
 193              	.LBE70:
 205:eInk Library/pervasive_eink_hardware_driver.c ****     /* Push the chip select line HIGH to end communication */
 206:eInk Library/pervasive_eink_hardware_driver.c ****     CY_EINK_CsHigh;
 207:eInk Library/pervasive_eink_hardware_driver.c ****     
 208:eInk Library/pervasive_eink_hardware_driver.c ****     /* Wait for 10uS before the next transmission */
 209:eInk Library/pervasive_eink_hardware_driver.c ****     CY_EINK_Wait10uS;
 210:eInk Library/pervasive_eink_hardware_driver.c ****     
 211:eInk Library/pervasive_eink_hardware_driver.c ****     /* Pull the chip select line LOW to begin communication */
 212:eInk Library/pervasive_eink_hardware_driver.c ****     CY_EINK_CsLow;
 213:eInk Library/pervasive_eink_hardware_driver.c ****     /* Send the header of data read index */
 214:eInk Library/pervasive_eink_hardware_driver.c ****     Cy_EINK_WriteSPI(PV_EINK_REG_DATA_READ);
 194              		.loc 1 214 0
 195 001c 7320     		movs	r0, #115
 196 001e FFF7FEFF 		bl	Cy_EINK_WriteSPI
 197              	.LVL23:
 215:eInk Library/pervasive_eink_hardware_driver.c ****     /* Send the command to receive a byte of data */
 216:eInk Library/pervasive_eink_hardware_driver.c ****     dataRead = Cy_EINK_ReadSPI(data);
 198              		.loc 1 216 0
 199 0022 3046     		mov	r0, r6
 200 0024 FFF7FEFF 		bl	Cy_EINK_ReadSPI
 201              	.LVL24:
 202              	.LBB72:
 203              	.LBB73:
 204              		.loc 2 753 0
 205 0028 A560     		str	r5, [r4, #8]
 206              	.LVL25:
 207              	.LBE73:
 208              	.LBE72:
 217:eInk Library/pervasive_eink_hardware_driver.c ****     /* Push the chip select line HIGH to end communication*/
 218:eInk Library/pervasive_eink_hardware_driver.c ****     CY_EINK_CsHigh;
 219:eInk Library/pervasive_eink_hardware_driver.c ****     
 220:eInk Library/pervasive_eink_hardware_driver.c ****     /* Return the received data */
 221:eInk Library/pervasive_eink_hardware_driver.c ****     return(dataRead);
 222:eInk Library/pervasive_eink_hardware_driver.c **** }
 209              		.loc 1 222 0
 210 002a F8BD     		pop	{r3, r4, r5, r6, r7, pc}
 211              	.L10:
 212              		.align	2
 213              	.L9:
 214 002c 00063240 		.word	1077020160
 215              		.cfi_endproc
 216              	.LFE605:
 217              		.size	Pv_EINK_ReadByte, .-Pv_EINK_ReadByte
 218              		.section	.text.Pv_EINK_Init,"ax",%progbits
 219              		.align	2
ARM GAS  C:\Users\rober\AppData\Local\Temp\ccBlBMtt.s 			page 22


 220              		.global	Pv_EINK_Init
 221              		.thumb
 222              		.thumb_func
 223              		.type	Pv_EINK_Init, %function
 224              	Pv_EINK_Init:
 225              	.LFB606:
 223:eInk Library/pervasive_eink_hardware_driver.c **** 
 224:eInk Library/pervasive_eink_hardware_driver.c **** /*******************************************************************************
 225:eInk Library/pervasive_eink_hardware_driver.c **** * Function Name: void  Pv_EINK_Init()
 226:eInk Library/pervasive_eink_hardware_driver.c **** ********************************************************************************
 227:eInk Library/pervasive_eink_hardware_driver.c **** *
 228:eInk Library/pervasive_eink_hardware_driver.c **** * Summary: Initialize the E-INK display hardware and associated PSoC components.
 229:eInk Library/pervasive_eink_hardware_driver.c **** *
 230:eInk Library/pervasive_eink_hardware_driver.c **** * Parameters:
 231:eInk Library/pervasive_eink_hardware_driver.c **** *  None
 232:eInk Library/pervasive_eink_hardware_driver.c **** *
 233:eInk Library/pervasive_eink_hardware_driver.c **** * Return:
 234:eInk Library/pervasive_eink_hardware_driver.c **** *  None
 235:eInk Library/pervasive_eink_hardware_driver.c **** *
 236:eInk Library/pervasive_eink_hardware_driver.c **** * Side Effects:
 237:eInk Library/pervasive_eink_hardware_driver.c **** *  None
 238:eInk Library/pervasive_eink_hardware_driver.c **** *******************************************************************************/
 239:eInk Library/pervasive_eink_hardware_driver.c **** void Pv_EINK_Init(void)
 240:eInk Library/pervasive_eink_hardware_driver.c **** {
 226              		.loc 1 240 0
 227              		.cfi_startproc
 228              		@ args = 0, pretend = 0, frame = 0
 229              		@ frame_needed = 0, uses_anonymous_args = 0
 230 0000 38B5     		push	{r3, r4, r5, lr}
 231              		.cfi_def_cfa_offset 16
 232              		.cfi_offset 3, -16
 233              		.cfi_offset 4, -12
 234              		.cfi_offset 5, -8
 235              		.cfi_offset 14, -4
 236              	.LVL26:
 237              	.LBB74:
 238              	.LBB75:
 749:Generated_Source\PSoC6\pdl\drivers/peripheral/gpio/cy_gpio.h ****     }
 239              		.loc 2 749 0
 240 0002 0425     		movs	r5, #4
 241 0004 084B     		ldr	r3, .L13
 242 0006 5D60     		str	r5, [r3, #4]
 243              	.LVL27:
 244              	.LBE75:
 245              	.LBE74:
 246              	.LBB76:
 247              	.LBB77:
 248 0008 084C     		ldr	r4, .L13+4
 249 000a 4023     		movs	r3, #64
 250 000c 6360     		str	r3, [r4, #4]
 251              	.LVL28:
 252              	.LBE77:
 253              	.LBE76:
 254              	.LBB78:
 255              	.LBB79:
 256 000e 1023     		movs	r3, #16
 257 0010 6360     		str	r3, [r4, #4]
ARM GAS  C:\Users\rober\AppData\Local\Temp\ccBlBMtt.s 			page 23


 258              	.LVL29:
 259              	.LBE79:
 260              	.LBE78:
 241:eInk Library/pervasive_eink_hardware_driver.c ****     /* Enable the level translator located between PSoC and the E-INK display */
 242:eInk Library/pervasive_eink_hardware_driver.c ****     CY_EINK_EnableIO;
 243:eInk Library/pervasive_eink_hardware_driver.c ****     /* Pull the Border pin to LOW */
 244:eInk Library/pervasive_eink_hardware_driver.c ****     CY_EINK_BorderLow;
 245:eInk Library/pervasive_eink_hardware_driver.c ****     /* Disable the load switch connected to E-INK display's Vcc */
 246:eInk Library/pervasive_eink_hardware_driver.c ****     CY_EINK_TurnOffVcc;
 247:eInk Library/pervasive_eink_hardware_driver.c ****     
 248:eInk Library/pervasive_eink_hardware_driver.c ****     /* Initialize the PSoC SPI */
 249:eInk Library/pervasive_eink_hardware_driver.c ****     Cy_EINK_InitSPI();
 261              		.loc 1 249 0
 262 0012 FFF7FEFF 		bl	Cy_EINK_InitSPI
 263              	.LVL30:
 264              	.LBB80:
 265              	.LBB81:
 749:Generated_Source\PSoC6\pdl\drivers/peripheral/gpio/cy_gpio.h ****     }
 266              		.loc 2 749 0
 267 0016 0822     		movs	r2, #8
 268 0018 054B     		ldr	r3, .L13+8
 269 001a 5A60     		str	r2, [r3, #4]
 270              	.LVL31:
 271              	.LBE81:
 272              	.LBE80:
 273              	.LBB82:
 274              	.LBB83:
 275 001c 6560     		str	r5, [r4, #4]
 276              	.LVL32:
 277              	.LBE83:
 278              	.LBE82:
 279              	.LBB84:
 280              	.LBB85:
 281 001e 2023     		movs	r3, #32
 282 0020 6360     		str	r3, [r4, #4]
 283              	.LVL33:
 284              	.LBE85:
 285              	.LBE84:
 250:eInk Library/pervasive_eink_hardware_driver.c ****     /* Pull the chip select, reset and discharge pins to LOW */
 251:eInk Library/pervasive_eink_hardware_driver.c ****     CY_EINK_CsLow;
 252:eInk Library/pervasive_eink_hardware_driver.c ****     CY_EINK_RstLow;
 253:eInk Library/pervasive_eink_hardware_driver.c ****     CY_EINK_DischargeLow;
 254:eInk Library/pervasive_eink_hardware_driver.c ****     
 255:eInk Library/pervasive_eink_hardware_driver.c ****     /* Initialize the E-INK display Timer */
 256:eInk Library/pervasive_eink_hardware_driver.c ****     Cy_EINK_TimerInit();
 286              		.loc 1 256 0
 287 0022 FFF7FEFF 		bl	Cy_EINK_TimerInit
 288              	.LVL34:
 289 0026 38BD     		pop	{r3, r4, r5, pc}
 290              	.L14:
 291              		.align	2
 292              	.L13:
 293 0028 00003240 		.word	1077018624
 294 002c 80023240 		.word	1077019264
 295 0030 00063240 		.word	1077020160
 296              		.cfi_endproc
 297              	.LFE606:
ARM GAS  C:\Users\rober\AppData\Local\Temp\ccBlBMtt.s 			page 24


 298              		.size	Pv_EINK_Init, .-Pv_EINK_Init
 299              		.section	.text.Pv_EINK_InitDriver,"ax",%progbits
 300              		.align	2
 301              		.global	Pv_EINK_InitDriver
 302              		.thumb
 303              		.thumb_func
 304              		.type	Pv_EINK_InitDriver, %function
 305              	Pv_EINK_InitDriver:
 306              	.LFB607:
 257:eInk Library/pervasive_eink_hardware_driver.c **** }
 258:eInk Library/pervasive_eink_hardware_driver.c **** 
 259:eInk Library/pervasive_eink_hardware_driver.c **** /*******************************************************************************
 260:eInk Library/pervasive_eink_hardware_driver.c **** * Function Name: Cy_EINK_Status PV_EINK_InitDriver(void)
 261:eInk Library/pervasive_eink_hardware_driver.c **** ********************************************************************************
 262:eInk Library/pervasive_eink_hardware_driver.c **** *
 263:eInk Library/pervasive_eink_hardware_driver.c **** * Summary: Initialize E-INK Driver. For detailed flow and description, please 
 264:eInk Library/pervasive_eink_hardware_driver.c **** * refer to the driver G2 document Section 4.
 265:eInk Library/pervasive_eink_hardware_driver.c **** *
 266:eInk Library/pervasive_eink_hardware_driver.c **** * Parameters:
 267:eInk Library/pervasive_eink_hardware_driver.c **** *  None
 268:eInk Library/pervasive_eink_hardware_driver.c **** *
 269:eInk Library/pervasive_eink_hardware_driver.c **** * Return:
 270:eInk Library/pervasive_eink_hardware_driver.c **** *  pv_eink_status_t: Status of the initialization
 271:eInk Library/pervasive_eink_hardware_driver.c **** *
 272:eInk Library/pervasive_eink_hardware_driver.c **** * Side Effects:
 273:eInk Library/pervasive_eink_hardware_driver.c **** *  None
 274:eInk Library/pervasive_eink_hardware_driver.c **** *******************************************************************************/
 275:eInk Library/pervasive_eink_hardware_driver.c **** pv_eink_status_t Pv_EINK_InitDriver(void)
 276:eInk Library/pervasive_eink_hardware_driver.c **** {
 307              		.loc 1 276 0
 308              		.cfi_startproc
 309              		@ args = 0, pretend = 0, frame = 0
 310              		@ frame_needed = 0, uses_anonymous_args = 0
 311 0000 10B5     		push	{r4, lr}
 312              		.cfi_def_cfa_offset 8
 313              		.cfi_offset 4, -8
 314              		.cfi_offset 14, -4
 315              	.LVL35:
 277:eInk Library/pervasive_eink_hardware_driver.c ****     /* Variable used to count the number of loops */
 278:eInk Library/pervasive_eink_hardware_driver.c ****     uint16_t    loopCounter = 0;
 279:eInk Library/pervasive_eink_hardware_driver.c ****     
 280:eInk Library/pervasive_eink_hardware_driver.c ****     /* Clear the line buffer with all zeros */
 281:eInk Library/pervasive_eink_hardware_driver.c ****     memset(&driverPacket.lineBuffer, 0, sizeof(driverPacket.lineBuffer)) ;
 316              		.loc 1 281 0
 317 0002 434C     		ldr	r4, .L28
 318 0004 6F22     		movs	r2, #111
 319 0006 0021     		movs	r1, #0
 320 0008 2046     		mov	r0, r4
 321 000a FFF7FEFF 		bl	memset
 322              	.LVL36:
 282:eInk Library/pervasive_eink_hardware_driver.c ****     
 283:eInk Library/pervasive_eink_hardware_driver.c ****     /* Initialize the even data, odd data and scan data pointers */
 284:eInk Library/pervasive_eink_hardware_driver.c ****     dataLineEven = &driverPacket.lineDataBySize.even[0];
 323              		.loc 1 284 0
 324 000e 631C     		adds	r3, r4, #1
 325 0010 2367     		str	r3, [r4, #112]
 285:eInk Library/pervasive_eink_hardware_driver.c ****     dataLineOdd  = &driverPacket.lineDataBySize.odd[0];
ARM GAS  C:\Users\rober\AppData\Local\Temp\ccBlBMtt.s 			page 25


 326              		.loc 1 285 0
 327 0012 04F14E03 		add	r3, r4, #78
 328 0016 6367     		str	r3, [r4, #116]
 286:eInk Library/pervasive_eink_hardware_driver.c ****     dataLineScan = &driverPacket.lineDataBySize.scan[0];
 329              		.loc 1 286 0
 330 0018 04F12203 		add	r3, r4, #34
 331 001c A367     		str	r3, [r4, #120]
 287:eInk Library/pervasive_eink_hardware_driver.c ****     
 288:eInk Library/pervasive_eink_hardware_driver.c ****     /* Initialize and start the E-INK Timer   */
 289:eInk Library/pervasive_eink_hardware_driver.c ****     Cy_EINK_TimerInit();
 332              		.loc 1 289 0
 333 001e FFF7FEFF 		bl	Cy_EINK_TimerInit
 334              	.LVL37:
 290:eInk Library/pervasive_eink_hardware_driver.c ****         
 291:eInk Library/pervasive_eink_hardware_driver.c ****     /* Check if E-INK driver is busy */
 292:eInk Library/pervasive_eink_hardware_driver.c ****     while (Cy_EINK_IsBusy())
 335              		.loc 1 292 0
 336 0022 03E0     		b	.L16
 337              	.L18:
 293:eInk Library/pervasive_eink_hardware_driver.c ****     {
 294:eInk Library/pervasive_eink_hardware_driver.c ****         /* If the E-INK driver is busy for more than maximum allowed time,
 295:eInk Library/pervasive_eink_hardware_driver.c ****            return an error message */
 296:eInk Library/pervasive_eink_hardware_driver.c ****         if (Cy_EINK_GetTimeTick() >= PV_EINK_MAX_PV_EINK_BUSY_TIME)
 338              		.loc 1 296 0
 339 0024 FFF7FEFF 		bl	Cy_EINK_GetTimeTick
 340              	.LVL38:
 341 0028 0328     		cmp	r0, #3
 342 002a 68D8     		bhi	.L22
 343              	.L16:
 292:eInk Library/pervasive_eink_hardware_driver.c ****     {
 344              		.loc 1 292 0
 345 002c FFF7FEFF 		bl	Cy_EINK_IsBusy
 346              	.LVL39:
 347 0030 0028     		cmp	r0, #0
 348 0032 F7D1     		bne	.L18
 297:eInk Library/pervasive_eink_hardware_driver.c ****         {
 298:eInk Library/pervasive_eink_hardware_driver.c ****             return(PV_EINK_ERROR_BUSY);
 299:eInk Library/pervasive_eink_hardware_driver.c ****         }
 300:eInk Library/pervasive_eink_hardware_driver.c ****     }
 301:eInk Library/pervasive_eink_hardware_driver.c ****     
 302:eInk Library/pervasive_eink_hardware_driver.c ****     /* Stop the E-INK Timer */
 303:eInk Library/pervasive_eink_hardware_driver.c ****     Cy_EINK_TimerStop();
 349              		.loc 1 303 0
 350 0034 FFF7FEFF 		bl	Cy_EINK_TimerStop
 351              	.LVL40:
 304:eInk Library/pervasive_eink_hardware_driver.c ****     
 305:eInk Library/pervasive_eink_hardware_driver.c ****     /* Check the driver ID */
 306:eInk Library/pervasive_eink_hardware_driver.c ****     if ((Pv_EINK_ReadByte(PV_EINK_DRIVER_ID_COMMAND_INDEX, 
 352              		.loc 1 306 0
 353 0038 0021     		movs	r1, #0
 354 003a 7220     		movs	r0, #114
 355 003c FFF7FEFF 		bl	Pv_EINK_ReadByte
 356              	.LVL41:
 357 0040 00F00F00 		and	r0, r0, #15
 358 0044 0228     		cmp	r0, #2
 359 0046 5CD1     		bne	.L23
 307:eInk Library/pervasive_eink_hardware_driver.c ****                           PV_EINK_DRIVER_ID_COMMAND_DATA)
ARM GAS  C:\Users\rober\AppData\Local\Temp\ccBlBMtt.s 			page 26


 308:eInk Library/pervasive_eink_hardware_driver.c ****                           & PV_EINK_DRIVER_ID_MASK)
 309:eInk Library/pervasive_eink_hardware_driver.c ****                           != PV_EINK_DRIVER_ID_CHECK)
 310:eInk Library/pervasive_eink_hardware_driver.c ****     {
 311:eInk Library/pervasive_eink_hardware_driver.c ****         /* Return an error message if incorrect driver ID is received */
 312:eInk Library/pervasive_eink_hardware_driver.c ****         return(PV_EINK_ERROR_ID);
 313:eInk Library/pervasive_eink_hardware_driver.c ****     }
 314:eInk Library/pervasive_eink_hardware_driver.c ****     /* Disable OE */
 315:eInk Library/pervasive_eink_hardware_driver.c ****     Pv_EINK_SendByte(PV_EINK_DISABLE_OE_COMMAND_INDEX, 
 360              		.loc 1 315 0
 361 0048 4021     		movs	r1, #64
 362 004a FFF7FEFF 		bl	Pv_EINK_SendByte
 363              	.LVL42:
 316:eInk Library/pervasive_eink_hardware_driver.c ****                      PV_EINK_DISABLE_OE_COMMAND_DATA);
 317:eInk Library/pervasive_eink_hardware_driver.c ****     
 318:eInk Library/pervasive_eink_hardware_driver.c ****     /* Check Breakage */
 319:eInk Library/pervasive_eink_hardware_driver.c ****     if ((Pv_EINK_ReadByte(PV_EINK_TEST_BREAKAGE_COMMAND_INDEX,
 364              		.loc 1 319 0
 365 004e 0021     		movs	r1, #0
 366 0050 0F20     		movs	r0, #15
 367 0052 FFF7FEFF 		bl	Pv_EINK_ReadByte
 368              	.LVL43:
 369 0056 10F0800F 		tst	r0, #128
 370 005a 54D0     		beq	.L24
 320:eInk Library/pervasive_eink_hardware_driver.c ****                           PV_EINK_TEST_BREAKAGE_COMMAND_DATA) & 
 321:eInk Library/pervasive_eink_hardware_driver.c ****                           PV_EINK_TEST_BREAKAGE_MASK)
 322:eInk Library/pervasive_eink_hardware_driver.c ****                           != PV_EINK_TEST_BREAKAGE_CHECK)
 323:eInk Library/pervasive_eink_hardware_driver.c ****     {
 324:eInk Library/pervasive_eink_hardware_driver.c ****         /* Send the error message for breakage */
 325:eInk Library/pervasive_eink_hardware_driver.c ****         return(PV_EINK_ERROR_BREAKAGE);
 326:eInk Library/pervasive_eink_hardware_driver.c ****     }
 327:eInk Library/pervasive_eink_hardware_driver.c ****     /* Power Saving Mode */
 328:eInk Library/pervasive_eink_hardware_driver.c ****     Pv_EINK_SendByte(PV_EINK_PWR_SAVING_COMMAND_INDEX, 
 371              		.loc 1 328 0
 372 005c 0221     		movs	r1, #2
 373 005e 0B20     		movs	r0, #11
 374 0060 FFF7FEFF 		bl	Pv_EINK_SendByte
 375              	.LVL44:
 329:eInk Library/pervasive_eink_hardware_driver.c ****                   PV_EINK_PWR1_SAVING_COMMAND_DATA);
 330:eInk Library/pervasive_eink_hardware_driver.c ****     
 331:eInk Library/pervasive_eink_hardware_driver.c ****     /* Channel Select */
 332:eInk Library/pervasive_eink_hardware_driver.c ****     Pv_EINK_SendData(PV_EINK_CHANNEL_SEL_COMMAND_INDEX, 
 376              		.loc 1 332 0
 377 0064 0822     		movs	r2, #8
 378 0066 2B49     		ldr	r1, .L28+4
 379 0068 0120     		movs	r0, #1
 380 006a FFF7FEFF 		bl	Pv_EINK_SendData
 381              	.LVL45:
 333:eInk Library/pervasive_eink_hardware_driver.c ****                     (uint8_t*) &channelSelect,
 334:eInk Library/pervasive_eink_hardware_driver.c ****                      PV_EINK_CHANNEL_SEL_SIZE);
 335:eInk Library/pervasive_eink_hardware_driver.c ****     
 336:eInk Library/pervasive_eink_hardware_driver.c ****     /* High Power Mode Oscillator Setting */
 337:eInk Library/pervasive_eink_hardware_driver.c ****     Pv_EINK_SendByte(PV_EINK_OSC_SETTING_COMMAND_INDEX, 
 382              		.loc 1 337 0
 383 006e D121     		movs	r1, #209
 384 0070 0720     		movs	r0, #7
 385 0072 FFF7FEFF 		bl	Pv_EINK_SendByte
 386              	.LVL46:
ARM GAS  C:\Users\rober\AppData\Local\Temp\ccBlBMtt.s 			page 27


 338:eInk Library/pervasive_eink_hardware_driver.c ****                      PV_EINK_OSC_SETTING_COMMAND_DATA);
 339:eInk Library/pervasive_eink_hardware_driver.c ****     /* Power Setting */
 340:eInk Library/pervasive_eink_hardware_driver.c ****     Pv_EINK_SendByte(PV_EINK_PWR1_SETTING_COMMAND_INDEX,
 387              		.loc 1 340 0
 388 0076 0221     		movs	r1, #2
 389 0078 0820     		movs	r0, #8
 390 007a FFF7FEFF 		bl	Pv_EINK_SendByte
 391              	.LVL47:
 341:eInk Library/pervasive_eink_hardware_driver.c ****                      PV_EINK_PWR1_SETTING_COMMAND_DATA);
 342:eInk Library/pervasive_eink_hardware_driver.c ****     /* Set Vcom level */
 343:eInk Library/pervasive_eink_hardware_driver.c ****     Pv_EINK_SendByte(PV_EINK_VCOM1_LEVEL_COMMAND_INDEX, 
 392              		.loc 1 343 0
 393 007e C221     		movs	r1, #194
 394 0080 0920     		movs	r0, #9
 395 0082 FFF7FEFF 		bl	Pv_EINK_SendByte
 396              	.LVL48:
 344:eInk Library/pervasive_eink_hardware_driver.c ****                      PV_EINK_VCOM1_LEVEL_COMMAND_DATA);
 345:eInk Library/pervasive_eink_hardware_driver.c ****     /* Power Setting */
 346:eInk Library/pervasive_eink_hardware_driver.c ****     Pv_EINK_SendByte(PV_EINK_PWR2_SETTING_COMMAND_INDEX,
 397              		.loc 1 346 0
 398 0086 0321     		movs	r1, #3
 399 0088 0420     		movs	r0, #4
 400 008a FFF7FEFF 		bl	Pv_EINK_SendByte
 401              	.LVL49:
 347:eInk Library/pervasive_eink_hardware_driver.c ****                      PV_EINK_PWR2_SETTING_COMMAND_DATA);
 348:eInk Library/pervasive_eink_hardware_driver.c ****                   
 349:eInk Library/pervasive_eink_hardware_driver.c ****     /* Driver latch on */
 350:eInk Library/pervasive_eink_hardware_driver.c ****     Pv_EINK_SendByte(PV_EINK_LATCH_OFF_COMMAND_INDEX,
 402              		.loc 1 350 0
 403 008e 0121     		movs	r1, #1
 404 0090 0320     		movs	r0, #3
 405 0092 FFF7FEFF 		bl	Pv_EINK_SendByte
 406              	.LVL50:
 351:eInk Library/pervasive_eink_hardware_driver.c ****                      PV_EINK_LATCH_ON_COMMAND_DATA);
 352:eInk Library/pervasive_eink_hardware_driver.c ****     /* Driver latch off */
 353:eInk Library/pervasive_eink_hardware_driver.c ****     Pv_EINK_SendByte(PV_EINK_LATCH_OFF_COMMAND_INDEX, 
 407              		.loc 1 353 0
 408 0096 0021     		movs	r1, #0
 409 0098 0320     		movs	r0, #3
 410 009a FFF7FEFF 		bl	Pv_EINK_SendByte
 411              	.LVL51:
 354:eInk Library/pervasive_eink_hardware_driver.c ****                      PV_EINK_LATCH_OFF_COMMAND_DATA);
 355:eInk Library/pervasive_eink_hardware_driver.c ****     CY_EINK_Delay(PV_EINK_PIN_DELAY);
 412              		.loc 1 355 0
 413 009e 0A20     		movs	r0, #10
 414 00a0 FFF7FEFF 		bl	Cy_SysLib_Delay
 415              	.LVL52:
 278:eInk Library/pervasive_eink_hardware_driver.c ****     
 416              		.loc 1 278 0
 417 00a4 0024     		movs	r4, #0
 418 00a6 00E0     		b	.L21
 419              	.LVL53:
 420              	.L25:
 356:eInk Library/pervasive_eink_hardware_driver.c ****     
 357:eInk Library/pervasive_eink_hardware_driver.c ****     /* Start the charge pump */
 358:eInk Library/pervasive_eink_hardware_driver.c ****     do
 359:eInk Library/pervasive_eink_hardware_driver.c ****     {
ARM GAS  C:\Users\rober\AppData\Local\Temp\ccBlBMtt.s 			page 28


 360:eInk Library/pervasive_eink_hardware_driver.c ****         /* Start charge pump positive voltage (VGH & VDH on) */
 361:eInk Library/pervasive_eink_hardware_driver.c ****         Pv_EINK_SendByte(PV_EINK_VGH_VDH_ON_COMMAND_INDEX,
 362:eInk Library/pervasive_eink_hardware_driver.c ****                       PV_EINK_VGH_VDH_ON_COMMAND_DATA);
 363:eInk Library/pervasive_eink_hardware_driver.c ****         CY_EINK_Delay(PV_EINK_POSITIVE_V_DELAY);
 364:eInk Library/pervasive_eink_hardware_driver.c ****         
 365:eInk Library/pervasive_eink_hardware_driver.c ****         /* Start charge pump negative voltage (VGL & VDL on) */
 366:eInk Library/pervasive_eink_hardware_driver.c ****         Pv_EINK_SendByte(PV_EINK_VGH_VDH_ON_COMMAND_INDEX,
 367:eInk Library/pervasive_eink_hardware_driver.c ****                       PV_EINK_VGL_VDL_ON_COMMAND_DATA);
 368:eInk Library/pervasive_eink_hardware_driver.c ****         CY_EINK_Delay(PV_EINK_PWR_CTRL_DELAY);
 369:eInk Library/pervasive_eink_hardware_driver.c ****         
 370:eInk Library/pervasive_eink_hardware_driver.c ****         /* Set charge pump (Vcom_Driver on) */
 371:eInk Library/pervasive_eink_hardware_driver.c ****         Pv_EINK_SendByte(PV_EINK_VCOM_DRIVE_ON_COMMAND_INDEX,
 372:eInk Library/pervasive_eink_hardware_driver.c ****                       PV_EINK_VCOM_DRIVE_ON_COMMAND_DATA);
 373:eInk Library/pervasive_eink_hardware_driver.c ****         CY_EINK_Delay(PV_EINK_PWR_CTRL_DELAY);
 374:eInk Library/pervasive_eink_hardware_driver.c ****         
 375:eInk Library/pervasive_eink_hardware_driver.c ****         /* Check DC level */
 376:eInk Library/pervasive_eink_hardware_driver.c ****         if ((Pv_EINK_ReadByte(PV_EINK_DC_LEVEL_READ_COMMAND_INDEX,
 377:eInk Library/pervasive_eink_hardware_driver.c ****                            PV_EINK_DC_LEVEL_READ_COMMAND_DATA) & 
 378:eInk Library/pervasive_eink_hardware_driver.c ****                            PV_EINK_DC_LEVEL_MASK)
 379:eInk Library/pervasive_eink_hardware_driver.c ****                            != PV_EINK_DC_LEVEL_CHECK)
 380:eInk Library/pervasive_eink_hardware_driver.c ****         {
 381:eInk Library/pervasive_eink_hardware_driver.c ****             /* Disable OLE */
 382:eInk Library/pervasive_eink_hardware_driver.c ****             Pv_EINK_SendByte(PV_EINK_DISABLE_OE_COMMAND_INDEX,
 383:eInk Library/pervasive_eink_hardware_driver.c ****                           PV_EINK_DISABLE_OE_COMMAND_DATA);
 384:eInk Library/pervasive_eink_hardware_driver.c ****             break;
 385:eInk Library/pervasive_eink_hardware_driver.c ****         }
 386:eInk Library/pervasive_eink_hardware_driver.c ****     }
 387:eInk Library/pervasive_eink_hardware_driver.c ****     /* Perform this operation for required charge pump write cycles */
 388:eInk Library/pervasive_eink_hardware_driver.c ****     while ((loopCounter++) != PV_EINK_CHARGE_PUMP_MAX_WRITE);
 421              		.loc 1 388 0
 422 00a8 1C46     		mov	r4, r3
 423              	.LVL54:
 424              	.L21:
 361:eInk Library/pervasive_eink_hardware_driver.c ****                       PV_EINK_VGH_VDH_ON_COMMAND_DATA);
 425              		.loc 1 361 0
 426 00aa 0121     		movs	r1, #1
 427 00ac 0520     		movs	r0, #5
 428 00ae FFF7FEFF 		bl	Pv_EINK_SendByte
 429              	.LVL55:
 363:eInk Library/pervasive_eink_hardware_driver.c ****         
 430              		.loc 1 363 0
 431 00b2 6420     		movs	r0, #100
 432 00b4 FFF7FEFF 		bl	Cy_SysLib_Delay
 433              	.LVL56:
 366:eInk Library/pervasive_eink_hardware_driver.c ****                       PV_EINK_VGL_VDL_ON_COMMAND_DATA);
 434              		.loc 1 366 0
 435 00b8 0321     		movs	r1, #3
 436 00ba 0520     		movs	r0, #5
 437 00bc FFF7FEFF 		bl	Pv_EINK_SendByte
 438              	.LVL57:
 368:eInk Library/pervasive_eink_hardware_driver.c ****         
 439              		.loc 1 368 0
 440 00c0 3220     		movs	r0, #50
 441 00c2 FFF7FEFF 		bl	Cy_SysLib_Delay
 442              	.LVL58:
 371:eInk Library/pervasive_eink_hardware_driver.c ****                       PV_EINK_VCOM_DRIVE_ON_COMMAND_DATA);
 443              		.loc 1 371 0
ARM GAS  C:\Users\rober\AppData\Local\Temp\ccBlBMtt.s 			page 29


 444 00c6 0F21     		movs	r1, #15
 445 00c8 0520     		movs	r0, #5
 446 00ca FFF7FEFF 		bl	Pv_EINK_SendByte
 447              	.LVL59:
 373:eInk Library/pervasive_eink_hardware_driver.c ****         
 448              		.loc 1 373 0
 449 00ce 3220     		movs	r0, #50
 450 00d0 FFF7FEFF 		bl	Cy_SysLib_Delay
 451              	.LVL60:
 376:eInk Library/pervasive_eink_hardware_driver.c ****                            PV_EINK_DC_LEVEL_READ_COMMAND_DATA) & 
 452              		.loc 1 376 0
 453 00d4 0021     		movs	r1, #0
 454 00d6 0F20     		movs	r0, #15
 455 00d8 FFF7FEFF 		bl	Pv_EINK_ReadByte
 456              	.LVL61:
 457 00dc 10F0400F 		tst	r0, #64
 458 00e0 05D0     		beq	.L19
 382:eInk Library/pervasive_eink_hardware_driver.c ****                           PV_EINK_DISABLE_OE_COMMAND_DATA);
 459              		.loc 1 382 0
 460 00e2 4021     		movs	r1, #64
 461 00e4 0220     		movs	r0, #2
 462 00e6 FFF7FEFF 		bl	Pv_EINK_SendByte
 463              	.LVL62:
 384:eInk Library/pervasive_eink_hardware_driver.c ****         }
 464              		.loc 1 384 0
 465 00ea 2346     		mov	r3, r4
 466 00ec 03E0     		b	.L20
 467              	.L19:
 468              		.loc 1 388 0
 469 00ee 631C     		adds	r3, r4, #1
 470 00f0 9BB2     		uxth	r3, r3
 471              	.LVL63:
 472 00f2 042C     		cmp	r4, #4
 473 00f4 D8D1     		bne	.L25
 474              	.LVL64:
 475              	.L20:
 389:eInk Library/pervasive_eink_hardware_driver.c ****     
 390:eInk Library/pervasive_eink_hardware_driver.c ****     /* If the operation not completed within the required write cycles, send an 
 391:eInk Library/pervasive_eink_hardware_driver.c ****        error message */
 392:eInk Library/pervasive_eink_hardware_driver.c ****     if (loopCounter >= PV_EINK_CHARGE_PUMP_MAX_WRITE)
 476              		.loc 1 392 0
 477 00f6 032B     		cmp	r3, #3
 478 00f8 07D9     		bls	.L26
 393:eInk Library/pervasive_eink_hardware_driver.c ****     {
 394:eInk Library/pervasive_eink_hardware_driver.c ****         CY_EINK_Wait10uS;
 395:eInk Library/pervasive_eink_hardware_driver.c ****         return(PV_EINK_ERROR_CHARGEPUMP);
 479              		.loc 1 395 0
 480 00fa 0520     		movs	r0, #5
 481 00fc 10BD     		pop	{r4, pc}
 482              	.LVL65:
 483              	.L22:
 298:eInk Library/pervasive_eink_hardware_driver.c ****         }
 484              		.loc 1 298 0
 485 00fe 0120     		movs	r0, #1
 486 0100 10BD     		pop	{r4, pc}
 487              	.L23:
 312:eInk Library/pervasive_eink_hardware_driver.c ****     }
ARM GAS  C:\Users\rober\AppData\Local\Temp\ccBlBMtt.s 			page 30


 488              		.loc 1 312 0
 489 0102 0220     		movs	r0, #2
 490 0104 10BD     		pop	{r4, pc}
 491              	.L24:
 325:eInk Library/pervasive_eink_hardware_driver.c ****     }
 492              		.loc 1 325 0
 493 0106 0320     		movs	r0, #3
 494 0108 10BD     		pop	{r4, pc}
 495              	.LVL66:
 496              	.L26:
 396:eInk Library/pervasive_eink_hardware_driver.c ****     }
 397:eInk Library/pervasive_eink_hardware_driver.c ****     /* If all operations completed successfully, send the corresponding status 
 398:eInk Library/pervasive_eink_hardware_driver.c ****        message */
 399:eInk Library/pervasive_eink_hardware_driver.c ****     return(PV_EINK_RES_OK);
 497              		.loc 1 399 0
 498 010a 0020     		movs	r0, #0
 400:eInk Library/pervasive_eink_hardware_driver.c **** }
 499              		.loc 1 400 0
 500 010c 10BD     		pop	{r4, pc}
 501              	.L29:
 502 010e 00BF     		.align	2
 503              	.L28:
 504 0110 00000000 		.word	.LANCHOR0
 505 0114 00000000 		.word	.LANCHOR1
 506              		.cfi_endproc
 507              	.LFE607:
 508              		.size	Pv_EINK_InitDriver, .-Pv_EINK_InitDriver
 509              		.section	.text.Pv_EINK_SetTempFactor,"ax",%progbits
 510              		.align	2
 511              		.global	Pv_EINK_SetTempFactor
 512              		.thumb
 513              		.thumb_func
 514              		.type	Pv_EINK_SetTempFactor, %function
 515              	Pv_EINK_SetTempFactor:
 516              	.LFB608:
 401:eInk Library/pervasive_eink_hardware_driver.c **** 
 402:eInk Library/pervasive_eink_hardware_driver.c **** /*******************************************************************************
 403:eInk Library/pervasive_eink_hardware_driver.c **** * Function Name: void Pv_EINK_SetTempFactor(int8_t temperature)
 404:eInk Library/pervasive_eink_hardware_driver.c **** ********************************************************************************
 405:eInk Library/pervasive_eink_hardware_driver.c **** *
 406:eInk Library/pervasive_eink_hardware_driver.c **** * Summary: Set the E-INK update times per the ambient temperature. For detailed
 407:eInk Library/pervasive_eink_hardware_driver.c **** * flow and description, please refer to the driver G2 document Section 5.4.
 408:eInk Library/pervasive_eink_hardware_driver.c **** *
 409:eInk Library/pervasive_eink_hardware_driver.c **** * Parameters:
 410:eInk Library/pervasive_eink_hardware_driver.c **** * int8_t temperature: Ambient temperature in degree Celsius
 411:eInk Library/pervasive_eink_hardware_driver.c **** *
 412:eInk Library/pervasive_eink_hardware_driver.c **** * Return:
 413:eInk Library/pervasive_eink_hardware_driver.c **** *  None
 414:eInk Library/pervasive_eink_hardware_driver.c **** *
 415:eInk Library/pervasive_eink_hardware_driver.c **** * Side Effects:
 416:eInk Library/pervasive_eink_hardware_driver.c **** *  None
 417:eInk Library/pervasive_eink_hardware_driver.c **** *******************************************************************************/
 418:eInk Library/pervasive_eink_hardware_driver.c **** void Pv_EINK_SetTempFactor(int8_t temperature)
 419:eInk Library/pervasive_eink_hardware_driver.c **** {
 517              		.loc 1 419 0
 518              		.cfi_startproc
 519              		@ args = 0, pretend = 0, frame = 0
ARM GAS  C:\Users\rober\AppData\Local\Temp\ccBlBMtt.s 			page 31


 520              		@ frame_needed = 0, uses_anonymous_args = 0
 521              		@ link register save eliminated.
 522              	.LVL67:
 420:eInk Library/pervasive_eink_hardware_driver.c ****     /* Variable used to store the update time */
 421:eInk Library/pervasive_eink_hardware_driver.c ****     uint16_t    updateTime;
 422:eInk Library/pervasive_eink_hardware_driver.c ****     /* Set the update time per the temperature table */
 423:eInk Library/pervasive_eink_hardware_driver.c ****     if (PV_EINK_TEMP_DEG_M10 >= temperature)
 523              		.loc 1 423 0
 524 0000 10F1090F 		cmn	r0, #9
 525 0004 0EDB     		blt	.L32
 424:eInk Library/pervasive_eink_hardware_driver.c ****     {
 425:eInk Library/pervasive_eink_hardware_driver.c ****         updateTime = PV_EINK_TEMP_SEL0;
 426:eInk Library/pervasive_eink_hardware_driver.c ****     }
 427:eInk Library/pervasive_eink_hardware_driver.c ****     else if (PV_EINK_TEMP_DEG_M5 >= temperature)
 526              		.loc 1 427 0
 527 0006 10F1040F 		cmn	r0, #4
 528 000a 0EDB     		blt	.L33
 428:eInk Library/pervasive_eink_hardware_driver.c ****     {
 429:eInk Library/pervasive_eink_hardware_driver.c ****         updateTime = PV_EINK_TEMP_SEL1;
 430:eInk Library/pervasive_eink_hardware_driver.c ****     }
 431:eInk Library/pervasive_eink_hardware_driver.c ****     else if (PV_EINK_TEMP_DEG_5 >= temperature)
 529              		.loc 1 431 0
 530 000c 0528     		cmp	r0, #5
 531 000e 0FDD     		ble	.L34
 432:eInk Library/pervasive_eink_hardware_driver.c ****     {
 433:eInk Library/pervasive_eink_hardware_driver.c ****         updateTime = PV_EINK_TEMP_SEL2;
 434:eInk Library/pervasive_eink_hardware_driver.c ****     }
 435:eInk Library/pervasive_eink_hardware_driver.c ****     else if (PV_EINK_TEMP_DEG_10 >= temperature)
 532              		.loc 1 435 0
 533 0010 0A28     		cmp	r0, #10
 534 0012 10DD     		ble	.L35
 436:eInk Library/pervasive_eink_hardware_driver.c ****     {
 437:eInk Library/pervasive_eink_hardware_driver.c ****         updateTime = PV_EINK_TEMP_SEL3;
 438:eInk Library/pervasive_eink_hardware_driver.c ****     }
 439:eInk Library/pervasive_eink_hardware_driver.c ****     else if (PV_EINK_TEMP_DEG_15 >= temperature)
 535              		.loc 1 439 0
 536 0014 0F28     		cmp	r0, #15
 537 0016 11DD     		ble	.L36
 440:eInk Library/pervasive_eink_hardware_driver.c ****     {
 441:eInk Library/pervasive_eink_hardware_driver.c ****         updateTime = PV_EINK_TEMP_SEL4;
 442:eInk Library/pervasive_eink_hardware_driver.c ****     }
 443:eInk Library/pervasive_eink_hardware_driver.c ****     else if (PV_EINK_TEMP_DEG_20 >= temperature)
 538              		.loc 1 443 0
 539 0018 1428     		cmp	r0, #20
 540 001a 11DD     		ble	.L37
 444:eInk Library/pervasive_eink_hardware_driver.c ****     {
 445:eInk Library/pervasive_eink_hardware_driver.c ****         updateTime = PV_EINK_TEMP_SEL5;
 446:eInk Library/pervasive_eink_hardware_driver.c ****     }
 447:eInk Library/pervasive_eink_hardware_driver.c ****     else if (PV_EINK_TEMP_DEG_40 >= temperature)
 541              		.loc 1 447 0
 542 001c 2828     		cmp	r0, #40
 543 001e 11DC     		bgt	.L38
 448:eInk Library/pervasive_eink_hardware_driver.c ****     {
 449:eInk Library/pervasive_eink_hardware_driver.c ****         updateTime = PV_EINK_TEMP_SEL6;
 544              		.loc 1 449 0
 545 0020 5A22     		movs	r2, #90
 546 0022 10E0     		b	.L31
ARM GAS  C:\Users\rober\AppData\Local\Temp\ccBlBMtt.s 			page 32


 547              	.L32:
 425:eInk Library/pervasive_eink_hardware_driver.c ****     }
 548              		.loc 1 425 0
 549 0024 4FF49662 		mov	r2, #1200
 550 0028 0DE0     		b	.L31
 551              	.L33:
 429:eInk Library/pervasive_eink_hardware_driver.c ****     }
 552              		.loc 1 429 0
 553 002a 4FF46172 		mov	r2, #900
 554 002e 0AE0     		b	.L31
 555              	.L34:
 433:eInk Library/pervasive_eink_hardware_driver.c ****     }
 556              		.loc 1 433 0
 557 0030 4FF41672 		mov	r2, #600
 558 0034 07E0     		b	.L31
 559              	.L35:
 437:eInk Library/pervasive_eink_hardware_driver.c ****     }
 560              		.loc 1 437 0
 561 0036 4FF4A572 		mov	r2, #330
 562 003a 04E0     		b	.L31
 563              	.L36:
 441:eInk Library/pervasive_eink_hardware_driver.c ****     }
 564              		.loc 1 441 0
 565 003c DC22     		movs	r2, #220
 566 003e 02E0     		b	.L31
 567              	.L37:
 445:eInk Library/pervasive_eink_hardware_driver.c ****     }
 568              		.loc 1 445 0
 569 0040 B422     		movs	r2, #180
 570 0042 00E0     		b	.L31
 571              	.L38:
 450:eInk Library/pervasive_eink_hardware_driver.c ****     }
 451:eInk Library/pervasive_eink_hardware_driver.c ****     else
 452:eInk Library/pervasive_eink_hardware_driver.c ****     {
 453:eInk Library/pervasive_eink_hardware_driver.c ****         updateTime = PV_EINK_TEMP_SEL7;
 572              		.loc 1 453 0
 573 0044 3C22     		movs	r2, #60
 574              	.L31:
 575              	.LVL68:
 454:eInk Library/pervasive_eink_hardware_driver.c ****     }
 455:eInk Library/pervasive_eink_hardware_driver.c ****     /* Scale the update times : this is a speed-contrast trade-off */
 456:eInk Library/pervasive_eink_hardware_driver.c ****     fullUpdateTime = updateTime * PV_EINK_SCALING_FULL;
 576              		.loc 1 456 0
 577 0046 034B     		ldr	r3, .L39
 578 0048 A3F87C20 		strh	r2, [r3, #124]	@ movhi
 457:eInk Library/pervasive_eink_hardware_driver.c ****     partialUpdateTime = updateTime * PV_EINK_SCALING_PARTIAL;
 579              		.loc 1 457 0
 580 004c A3F87E20 		strh	r2, [r3, #126]	@ movhi
 581 0050 7047     		bx	lr
 582              	.L40:
 583 0052 00BF     		.align	2
 584              	.L39:
 585 0054 00000000 		.word	.LANCHOR0
 586              		.cfi_endproc
 587              	.LFE608:
 588              		.size	Pv_EINK_SetTempFactor, .-Pv_EINK_SetTempFactor
 589              		.section	.text.Pv_EINK_FullStageHandler,"ax",%progbits
ARM GAS  C:\Users\rober\AppData\Local\Temp\ccBlBMtt.s 			page 33


 590              		.align	2
 591              		.global	Pv_EINK_FullStageHandler
 592              		.thumb
 593              		.thumb_func
 594              		.type	Pv_EINK_FullStageHandler, %function
 595              	Pv_EINK_FullStageHandler:
 596              	.LFB609:
 458:eInk Library/pervasive_eink_hardware_driver.c **** }
 459:eInk Library/pervasive_eink_hardware_driver.c **** 
 460:eInk Library/pervasive_eink_hardware_driver.c **** /*******************************************************************************
 461:eInk Library/pervasive_eink_hardware_driver.c **** * Function Name: void Pv_EINK_FullStageHandler(pv_eink_frame_data_t* imagePtr,
 462:eInk Library/pervasive_eink_hardware_driver.c **** *                                              pv_eink_stage_t stageNumber)
 463:eInk Library/pervasive_eink_hardware_driver.c **** ********************************************************************************
 464:eInk Library/pervasive_eink_hardware_driver.c **** *
 465:eInk Library/pervasive_eink_hardware_driver.c **** * Summary: The full update driving stages for getting Odd and Even bytes, and
 466:eInk Library/pervasive_eink_hardware_driver.c **** * then writing the data from memory array to E-INK driver.
 467:eInk Library/pervasive_eink_hardware_driver.c **** *
 468:eInk Library/pervasive_eink_hardware_driver.c **** * One dot/pixel is comprised of 2 bits that can be White(10), Black(11) or 
 469:eInk Library/pervasive_eink_hardware_driver.c **** * Nothing * (01 or 00). The image data bytes must be divided into Odd and Even 
 470:eInk Library/pervasive_eink_hardware_driver.c **** * bytes.
 471:eInk Library/pervasive_eink_hardware_driver.c **** * Line data flow is first half of data bytes -> scan bytes -> second half of data
 472:eInk Library/pervasive_eink_hardware_driver.c **** * bytes. For more details on the driving stages, please refer to the driver G2
 473:eInk Library/pervasive_eink_hardware_driver.c **** * document Section 5.
 474:eInk Library/pervasive_eink_hardware_driver.c **** *
 475:eInk Library/pervasive_eink_hardware_driver.c **** * Parameters:
 476:eInk Library/pervasive_eink_hardware_driver.c **** * pv_eink_frame_data_t* imagePtr    : The pointer to the memory that contains a
 477:eInk Library/pervasive_eink_hardware_driver.c **** *                                     frame
 478:eInk Library/pervasive_eink_hardware_driver.c **** * pv_eink_stage_t stageNumber       : The assigned stage number
 479:eInk Library/pervasive_eink_hardware_driver.c **** *
 480:eInk Library/pervasive_eink_hardware_driver.c **** * Return:
 481:eInk Library/pervasive_eink_hardware_driver.c **** *  None
 482:eInk Library/pervasive_eink_hardware_driver.c **** *
 483:eInk Library/pervasive_eink_hardware_driver.c **** * Side Effects:
 484:eInk Library/pervasive_eink_hardware_driver.c **** *  This is a blocking function. CPU will be busy during the entire operation,
 485:eInk Library/pervasive_eink_hardware_driver.c **** * which can be 1 to 2 seconds.
 486:eInk Library/pervasive_eink_hardware_driver.c **** *******************************************************************************/
 487:eInk Library/pervasive_eink_hardware_driver.c **** void Pv_EINK_FullStageHandler(pv_eink_frame_data_t* imagePtr, 
 488:eInk Library/pervasive_eink_hardware_driver.c ****                               pv_eink_stage_t stageNumber)
 489:eInk Library/pervasive_eink_hardware_driver.c **** {
 597              		.loc 1 489 0
 598              		.cfi_startproc
 599              		@ args = 0, pretend = 0, frame = 0
 600              		@ frame_needed = 0, uses_anonymous_args = 0
 601              	.LVL69:
 602 0000 2DE9F84F 		push	{r3, r4, r5, r6, r7, r8, r9, r10, fp, lr}
 603              		.cfi_def_cfa_offset 40
 604              		.cfi_offset 3, -40
 605              		.cfi_offset 4, -36
 606              		.cfi_offset 5, -32
 607              		.cfi_offset 6, -28
 608              		.cfi_offset 7, -24
 609              		.cfi_offset 8, -20
 610              		.cfi_offset 9, -16
 611              		.cfi_offset 10, -12
 612              		.cfi_offset 11, -8
 613              		.cfi_offset 14, -4
 614 0004 0646     		mov	r6, r0
ARM GAS  C:\Users\rober\AppData\Local\Temp\ccBlBMtt.s 			page 34


 615 0006 0D46     		mov	r5, r1
 616              	.LVL70:
 490:eInk Library/pervasive_eink_hardware_driver.c ****     /* Counter variable for the horizontal pixel loop */
 491:eInk Library/pervasive_eink_hardware_driver.c ****     uint16_t    x;
 492:eInk Library/pervasive_eink_hardware_driver.c ****     /* Counter variable for the vertical pixel loop */
 493:eInk Library/pervasive_eink_hardware_driver.c ****     uint16_t    y;
 494:eInk Library/pervasive_eink_hardware_driver.c ****     /* Counter variable for the horizontal byte loop */
 495:eInk Library/pervasive_eink_hardware_driver.c ****     uint16_t    k;
 496:eInk Library/pervasive_eink_hardware_driver.c ****       
 497:eInk Library/pervasive_eink_hardware_driver.c ****     /* Variable for storing the line number under scan */
 498:eInk Library/pervasive_eink_hardware_driver.c ****     int16       scanlineNumber = 0;
 499:eInk Library/pervasive_eink_hardware_driver.c ****     
 500:eInk Library/pervasive_eink_hardware_driver.c ****     /* Temporary storage for image data byte */
 501:eInk Library/pervasive_eink_hardware_driver.c ****     uint8_t     tempByte = *imagePtr;
 617              		.loc 1 501 0
 618 0008 0478     		ldrb	r4, [r0]	@ zero_extendqisi2
 619              	.LVL71:
 502:eInk Library/pervasive_eink_hardware_driver.c ****     
 503:eInk Library/pervasive_eink_hardware_driver.c ****     /* Flag to check if the current pointer is a macro of white/black frame */
 504:eInk Library/pervasive_eink_hardware_driver.c ****     bool        blackOrWhiteFrame;
 505:eInk Library/pervasive_eink_hardware_driver.c ****     
 506:eInk Library/pervasive_eink_hardware_driver.c ****     /* If the current pointer is a macro of the white frame */
 507:eInk Library/pervasive_eink_hardware_driver.c ****     if (imagePtr == PV_EINK_WHITE_FRAME_ADDRESS)
 620              		.loc 1 507 0
 621 000a 28B1     		cbz	r0, .L90
 508:eInk Library/pervasive_eink_hardware_driver.c ****     {
 509:eInk Library/pervasive_eink_hardware_driver.c ****         /* Set the white/black frame flag */
 510:eInk Library/pervasive_eink_hardware_driver.c ****         blackOrWhiteFrame = true;
 511:eInk Library/pervasive_eink_hardware_driver.c ****         /* Set the tempByte to white pixel byte */
 512:eInk Library/pervasive_eink_hardware_driver.c ****         tempByte = PV_EINK_WHITE_PIXEL_BYTE;
 513:eInk Library/pervasive_eink_hardware_driver.c ****         
 514:eInk Library/pervasive_eink_hardware_driver.c ****     }
 515:eInk Library/pervasive_eink_hardware_driver.c ****     /* If the current pointer is a macro of the black frame */
 516:eInk Library/pervasive_eink_hardware_driver.c ****     else if (imagePtr == PV_EINK_BLACK_FRAME_ADDRESS)
 622              		.loc 1 516 0
 623 000c CA4B     		ldr	r3, .L125
 624 000e 9842     		cmp	r0, r3
 625 0010 05D1     		bne	.L91
 517:eInk Library/pervasive_eink_hardware_driver.c ****     {
 518:eInk Library/pervasive_eink_hardware_driver.c ****          /* Set the white/black frame flag */
 519:eInk Library/pervasive_eink_hardware_driver.c ****         blackOrWhiteFrame = true;
 626              		.loc 1 519 0
 627 0012 0127     		movs	r7, #1
 520:eInk Library/pervasive_eink_hardware_driver.c ****         /* set the tempByte to black pixel byte */
 521:eInk Library/pervasive_eink_hardware_driver.c ****         tempByte = PV_EINK_BLACK_PIXEL_BYTE;
 628              		.loc 1 521 0
 629 0014 0024     		movs	r4, #0
 630              	.LVL72:
 631 0016 03E0     		b	.L42
 632              	.LVL73:
 633              	.L90:
 510:eInk Library/pervasive_eink_hardware_driver.c ****         /* Set the tempByte to white pixel byte */
 634              		.loc 1 510 0
 635 0018 0127     		movs	r7, #1
 512:eInk Library/pervasive_eink_hardware_driver.c ****         
 636              		.loc 1 512 0
 637 001a FF24     		movs	r4, #255
ARM GAS  C:\Users\rober\AppData\Local\Temp\ccBlBMtt.s 			page 35


 638              	.LVL74:
 639 001c 00E0     		b	.L42
 640              	.LVL75:
 641              	.L91:
 522:eInk Library/pervasive_eink_hardware_driver.c ****     }
 523:eInk Library/pervasive_eink_hardware_driver.c ****     /* If the current pointer is of an image stored in flash */
 524:eInk Library/pervasive_eink_hardware_driver.c ****     else
 525:eInk Library/pervasive_eink_hardware_driver.c ****     {
 526:eInk Library/pervasive_eink_hardware_driver.c ****         /* Clear the white/black frame flag */
 527:eInk Library/pervasive_eink_hardware_driver.c ****         blackOrWhiteFrame = false;
 642              		.loc 1 527 0
 643 001e 0027     		movs	r7, #0
 644              	.LVL76:
 645              	.L42:
 528:eInk Library/pervasive_eink_hardware_driver.c ****     }
 529:eInk Library/pervasive_eink_hardware_driver.c **** 
 530:eInk Library/pervasive_eink_hardware_driver.c ****     /* Re-initialize E-INK timer to ensure the same duration of each stage */
 531:eInk Library/pervasive_eink_hardware_driver.c ****     Cy_EINK_TimerInit();
 646              		.loc 1 531 0
 647 0020 FFF7FEFF 		bl	Cy_EINK_TimerInit
 648              	.LVL77:
 532:eInk Library/pervasive_eink_hardware_driver.c **** 
 533:eInk Library/pervasive_eink_hardware_driver.c ****     /* Vertical pixel loop */
 534:eInk Library/pervasive_eink_hardware_driver.c ****     for (y = 0; y < PV_EINK_VERTICAL_SIZE; y++)
 649              		.loc 1 534 0
 650 0024 4FF00008 		mov	r8, #0
 651 0028 D0E1     		b	.L43
 652              	.LVL78:
 653              	.L86:
 535:eInk Library/pervasive_eink_hardware_driver.c ****     {
 536:eInk Library/pervasive_eink_hardware_driver.c ****         /* Clear the line buffer with all zeros */
 537:eInk Library/pervasive_eink_hardware_driver.c ****         memset(&bulkDriverPacket[y].lineBuffer, 0, 
 654              		.loc 1 537 0
 655 002a C8EBC80A 		rsb	r10, r8, r8, lsl #3
 656 002e C8EB0A1A 		rsb	r10, r8, r10, lsl #4
 657 0032 DFF80C93 		ldr	r9, .L125+8
 658 0036 0AEB090B 		add	fp, r10, r9
 659 003a 6F22     		movs	r2, #111
 660 003c 0021     		movs	r1, #0
 661 003e 5846     		mov	r0, fp
 662 0040 FFF7FEFF 		bl	memset
 663              	.LVL79:
 538:eInk Library/pervasive_eink_hardware_driver.c ****                sizeof(bulkDriverPacket[y].lineBuffer)) ;
 539:eInk Library/pervasive_eink_hardware_driver.c **** 
 540:eInk Library/pervasive_eink_hardware_driver.c ****         /* Initialize the even data, odd data and scan data pointers */
 541:eInk Library/pervasive_eink_hardware_driver.c ****         dataLineEven = &bulkDriverPacket[y].lineDataBySize.even[0];
 664              		.loc 1 541 0
 665 0044 0BF1010E 		add	lr, fp, #1
 666 0048 BC4B     		ldr	r3, .L125+4
 667 004a C3F870E0 		str	lr, [r3, #112]
 542:eInk Library/pervasive_eink_hardware_driver.c ****         dataLineOdd  = &bulkDriverPacket[y].lineDataBySize.odd[0];
 668              		.loc 1 542 0
 669 004e 0AF14800 		add	r0, r10, #72
 670 0052 4844     		add	r0, r0, r9
 671 0054 0630     		adds	r0, r0, #6
 672 0056 5867     		str	r0, [r3, #116]
 543:eInk Library/pervasive_eink_hardware_driver.c ****         dataLineScan = &bulkDriverPacket[y].lineDataBySize.scan[0];
ARM GAS  C:\Users\rober\AppData\Local\Temp\ccBlBMtt.s 			page 36


 673              		.loc 1 543 0
 674 0058 0AF1200A 		add	r10, r10, #32
 675 005c D144     		add	r9, r9, r10
 676 005e 09F10209 		add	r9, r9, #2
 677 0062 C3F87890 		str	r9, [r3, #120]
 678              	.LVL80:
 544:eInk Library/pervasive_eink_hardware_driver.c ****         
 545:eInk Library/pervasive_eink_hardware_driver.c ****         /* Horizontal bytes initialization */
 546:eInk Library/pervasive_eink_hardware_driver.c ****         k = PV_EINK_HORIZONTAL_SIZE;
 547:eInk Library/pervasive_eink_hardware_driver.c ****         k--;
 679              		.loc 1 547 0
 680 0066 2022     		movs	r2, #32
 548:eInk Library/pervasive_eink_hardware_driver.c ****         
 549:eInk Library/pervasive_eink_hardware_driver.c ****         /* Horizontal pixel loop */
 550:eInk Library/pervasive_eink_hardware_driver.c ****         for (x = 0; x < PV_EINK_HORIZONTAL_SIZE; x++)
 681              		.loc 1 550 0
 682 0068 0023     		movs	r3, #0
 683 006a 97E1     		b	.L44
 684              	.LVL81:
 685              	.L84:
 551:eInk Library/pervasive_eink_hardware_driver.c ****         {
 552:eInk Library/pervasive_eink_hardware_driver.c ****             /* If the current pointer is of an image stored in flash */
 553:eInk Library/pervasive_eink_hardware_driver.c ****             if(!blackOrWhiteFrame)
 686              		.loc 1 553 0
 687 006c 0FB9     		cbnz	r7, .L45
 688              	.LVL82:
 554:eInk Library/pervasive_eink_hardware_driver.c ****             {
 555:eInk Library/pervasive_eink_hardware_driver.c ****                 /* Fetch successive data bytes */
 556:eInk Library/pervasive_eink_hardware_driver.c ****                 tempByte = *imagePtr++;
 689              		.loc 1 556 0
 690 006e 3478     		ldrb	r4, [r6]	@ zero_extendqisi2
 691              	.LVL83:
 692 0070 0136     		adds	r6, r6, #1
 693              	.LVL84:
 694              	.L45:
 557:eInk Library/pervasive_eink_hardware_driver.c ****             }
 558:eInk Library/pervasive_eink_hardware_driver.c ****             /* Perform one of the four stage operations */
 559:eInk Library/pervasive_eink_hardware_driver.c ****             switch (stageNumber)
 695              		.loc 1 559 0
 696 0072 032D     		cmp	r5, #3
 697 0074 00F29081 		bhi	.L46
 698 0078 DFE815F0 		tbh	[pc, r5, lsl #1]
 699              	.L48:
 700 007c 0400     		.2byte	(.L47-.L48)/2
 701 007e 6500     		.2byte	(.L49-.L48)/2
 702 0080 C600     		.2byte	(.L50-.L48)/2
 703 0082 2701     		.2byte	(.L51-.L48)/2
 704              		.p2align 1
 705              	.L47:
 560:eInk Library/pervasive_eink_hardware_driver.c ****             {
 561:eInk Library/pervasive_eink_hardware_driver.c ****             /* Stage 1: Calculate the inverted Even and Odd bytes of 
 562:eInk Library/pervasive_eink_hardware_driver.c ****                the previous image data */
 563:eInk Library/pervasive_eink_hardware_driver.c ****             case PV_EINK_STAGE1:
 564:eInk Library/pervasive_eink_hardware_driver.c ****                 dataLineOdd[x]       = ((tempByte & PV_EINK_ODD_MASK_A)  ? 
 706              		.loc 1 564 0
 707 0084 00EB030C 		add	ip, r0, r3
 708 0088 14F0400F 		tst	r4, #64
ARM GAS  C:\Users\rober\AppData\Local\Temp\ccBlBMtt.s 			page 37


 709 008c 01D0     		beq	.L92
 710 008e C021     		movs	r1, #192
 711 0090 00E0     		b	.L52
 712              	.L92:
 713 0092 8021     		movs	r1, #128
 714              	.L52:
 715              		.loc 1 564 0 is_stmt 0 discriminator 4
 716 0094 8CF80010 		strb	r1, [ip]
 565:eInk Library/pervasive_eink_hardware_driver.c ****                                         PV_EINK_BLACK3 : PV_EINK_WHITE3);
 566:eInk Library/pervasive_eink_hardware_driver.c ****                 dataLineOdd[x]      |= ((tempByte & PV_EINK_ODD_MASK_B)  ? 
 717              		.loc 1 566 0 is_stmt 1 discriminator 4
 718 0098 49B2     		sxtb	r1, r1
 719 009a 14F0100F 		tst	r4, #16
 720 009e 02D0     		beq	.L93
 721              		.loc 1 566 0 is_stmt 0
 722 00a0 4FF0300A 		mov	r10, #48
 723 00a4 01E0     		b	.L53
 724              	.L93:
 725 00a6 4FF0200A 		mov	r10, #32
 726              	.L53:
 727              		.loc 1 566 0 discriminator 4
 728 00aa 4AEA0101 		orr	r1, r10, r1
 729 00ae 8CF80010 		strb	r1, [ip]
 567:eInk Library/pervasive_eink_hardware_driver.c ****                                         PV_EINK_BLACK2 : PV_EINK_WHITE2);
 568:eInk Library/pervasive_eink_hardware_driver.c ****                 dataLineOdd[x]      |= ((tempByte & PV_EINK_ODD_MASK_C)  ? 
 730              		.loc 1 568 0 is_stmt 1 discriminator 4
 731 00b2 14F0040F 		tst	r4, #4
 732 00b6 02D0     		beq	.L94
 733              		.loc 1 568 0 is_stmt 0
 734 00b8 4FF00C0A 		mov	r10, #12
 735 00bc 01E0     		b	.L54
 736              	.L94:
 737 00be 4FF0080A 		mov	r10, #8
 738              	.L54:
 739              		.loc 1 568 0 discriminator 4
 740 00c2 4AEA0101 		orr	r1, r10, r1
 741 00c6 8CF80010 		strb	r1, [ip]
 569:eInk Library/pervasive_eink_hardware_driver.c ****                                         PV_EINK_BLACK1 : PV_EINK_WHITE1);
 570:eInk Library/pervasive_eink_hardware_driver.c ****                 dataLineOdd[x]      |= ((tempByte & PV_EINK_ODD_MASK_D)  ? 
 742              		.loc 1 570 0 is_stmt 1 discriminator 4
 743 00ca 14F0010F 		tst	r4, #1
 744 00ce 02D0     		beq	.L95
 745              		.loc 1 570 0 is_stmt 0
 746 00d0 4FF0030A 		mov	r10, #3
 747 00d4 01E0     		b	.L55
 748              	.L95:
 749 00d6 4FF0020A 		mov	r10, #2
 750              	.L55:
 751              		.loc 1 570 0 discriminator 4
 752 00da 4AEA0101 		orr	r1, r10, r1
 753 00de 8CF80010 		strb	r1, [ip]
 571:eInk Library/pervasive_eink_hardware_driver.c ****                                         PV_EINK_BLACK0 : PV_EINK_WHITE0);
 572:eInk Library/pervasive_eink_hardware_driver.c ****                 dataLineEven[k]      = ((tempByte & PV_EINK_EVEN_MASK_A) ? 
 754              		.loc 1 572 0 is_stmt 1 discriminator 4
 755 00e2 0EEB020C 		add	ip, lr, r2
 756 00e6 14F0800F 		tst	r4, #128
 757 00ea 01D0     		beq	.L96
ARM GAS  C:\Users\rober\AppData\Local\Temp\ccBlBMtt.s 			page 38


 758              		.loc 1 572 0 is_stmt 0
 759 00ec 0321     		movs	r1, #3
 760 00ee 00E0     		b	.L56
 761              	.L96:
 762 00f0 0221     		movs	r1, #2
 763              	.L56:
 764              		.loc 1 572 0 discriminator 4
 765 00f2 8CF80010 		strb	r1, [ip]
 573:eInk Library/pervasive_eink_hardware_driver.c ****                                         PV_EINK_BLACK0 : PV_EINK_WHITE0);
 574:eInk Library/pervasive_eink_hardware_driver.c ****                 dataLineEven[k]     |= ((tempByte & PV_EINK_EVEN_MASK_B) ? 
 766              		.loc 1 574 0 is_stmt 1 discriminator 4
 767 00f6 49B2     		sxtb	r1, r1
 768 00f8 14F0200F 		tst	r4, #32
 769 00fc 02D0     		beq	.L97
 770              		.loc 1 574 0 is_stmt 0
 771 00fe 4FF00C0A 		mov	r10, #12
 772 0102 01E0     		b	.L57
 773              	.L97:
 774 0104 4FF0080A 		mov	r10, #8
 775              	.L57:
 776              		.loc 1 574 0 discriminator 4
 777 0108 4AEA0101 		orr	r1, r10, r1
 778 010c 8CF80010 		strb	r1, [ip]
 575:eInk Library/pervasive_eink_hardware_driver.c ****                                         PV_EINK_BLACK1 : PV_EINK_WHITE1);
 576:eInk Library/pervasive_eink_hardware_driver.c ****                 dataLineEven[k]     |= ((tempByte & PV_EINK_EVEN_MASK_C) ? 
 779              		.loc 1 576 0 is_stmt 1 discriminator 4
 780 0110 14F0080F 		tst	r4, #8
 781 0114 02D0     		beq	.L98
 782              		.loc 1 576 0 is_stmt 0
 783 0116 4FF0300A 		mov	r10, #48
 784 011a 01E0     		b	.L58
 785              	.L98:
 786 011c 4FF0200A 		mov	r10, #32
 787              	.L58:
 788              		.loc 1 576 0 discriminator 4
 789 0120 4AEA0101 		orr	r1, r10, r1
 790 0124 8CF80010 		strb	r1, [ip]
 577:eInk Library/pervasive_eink_hardware_driver.c ****                                         PV_EINK_BLACK2 : PV_EINK_WHITE2);
 578:eInk Library/pervasive_eink_hardware_driver.c ****                 dataLineEven[k--]   |= ((tempByte & PV_EINK_EVEN_MASK_D) ? 
 791              		.loc 1 578 0 is_stmt 1 discriminator 4
 792 0128 013A     		subs	r2, r2, #1
 793              	.LVL85:
 794 012a 92B2     		uxth	r2, r2
 795              	.LVL86:
 796 012c 14F0020F 		tst	r4, #2
 797 0130 02D0     		beq	.L99
 798              		.loc 1 578 0 is_stmt 0
 799 0132 6FF03F0A 		mvn	r10, #63
 800 0136 01E0     		b	.L59
 801              	.L99:
 802 0138 6FF07F0A 		mvn	r10, #127
 803              	.L59:
 804              		.loc 1 578 0 discriminator 4
 805 013c 4AEA0101 		orr	r1, r10, r1
 806 0140 8CF80010 		strb	r1, [ip]
 579:eInk Library/pervasive_eink_hardware_driver.c ****                                         PV_EINK_BLACK3 : PV_EINK_WHITE3);
 580:eInk Library/pervasive_eink_hardware_driver.c ****                 break;
ARM GAS  C:\Users\rober\AppData\Local\Temp\ccBlBMtt.s 			page 39


 807              		.loc 1 580 0 is_stmt 1 discriminator 4
 808 0144 28E1     		b	.L46
 809              	.L49:
 581:eInk Library/pervasive_eink_hardware_driver.c ****             /* Stage 2: Calculate the Even and Odd bytes of an all-white
 582:eInk Library/pervasive_eink_hardware_driver.c ****                frame */
 583:eInk Library/pervasive_eink_hardware_driver.c ****             case PV_EINK_STAGE2:
 584:eInk Library/pervasive_eink_hardware_driver.c ****                 dataLineOdd[x]       = ((tempByte & PV_EINK_ODD_MASK_A)  ? 
 810              		.loc 1 584 0
 811 0146 00EB030C 		add	ip, r0, r3
 812 014a 14F0400F 		tst	r4, #64
 813 014e 01D0     		beq	.L100
 814 0150 8021     		movs	r1, #128
 815 0152 00E0     		b	.L60
 816              	.L100:
 817 0154 4021     		movs	r1, #64
 818              	.L60:
 819              		.loc 1 584 0 is_stmt 0 discriminator 4
 820 0156 8CF80010 		strb	r1, [ip]
 585:eInk Library/pervasive_eink_hardware_driver.c ****                                         PV_EINK_WHITE3 : PV_EINK_NOTHING3);
 586:eInk Library/pervasive_eink_hardware_driver.c ****                 dataLineOdd[x]      |= ((tempByte & PV_EINK_ODD_MASK_B)  ? 
 821              		.loc 1 586 0 is_stmt 1 discriminator 4
 822 015a 49B2     		sxtb	r1, r1
 823 015c 14F0100F 		tst	r4, #16
 824 0160 02D0     		beq	.L101
 825              		.loc 1 586 0 is_stmt 0
 826 0162 4FF0200A 		mov	r10, #32
 827 0166 01E0     		b	.L61
 828              	.L101:
 829 0168 4FF0100A 		mov	r10, #16
 830              	.L61:
 831              		.loc 1 586 0 discriminator 4
 832 016c 4AEA0101 		orr	r1, r10, r1
 833 0170 8CF80010 		strb	r1, [ip]
 587:eInk Library/pervasive_eink_hardware_driver.c ****                                         PV_EINK_WHITE2 : PV_EINK_NOTHING2);
 588:eInk Library/pervasive_eink_hardware_driver.c ****                 dataLineOdd[x]      |= ((tempByte & PV_EINK_ODD_MASK_C)  ? 
 834              		.loc 1 588 0 is_stmt 1 discriminator 4
 835 0174 14F0040F 		tst	r4, #4
 836 0178 02D0     		beq	.L102
 837              		.loc 1 588 0 is_stmt 0
 838 017a 4FF0080A 		mov	r10, #8
 839 017e 01E0     		b	.L62
 840              	.L102:
 841 0180 4FF0040A 		mov	r10, #4
 842              	.L62:
 843              		.loc 1 588 0 discriminator 4
 844 0184 4AEA0101 		orr	r1, r10, r1
 845 0188 8CF80010 		strb	r1, [ip]
 589:eInk Library/pervasive_eink_hardware_driver.c ****                                         PV_EINK_WHITE1 : PV_EINK_NOTHING1);
 590:eInk Library/pervasive_eink_hardware_driver.c ****                 dataLineOdd[x]      |= ((tempByte & PV_EINK_ODD_MASK_D)  ? 
 846              		.loc 1 590 0 is_stmt 1 discriminator 4
 847 018c 14F0010F 		tst	r4, #1
 848 0190 02D0     		beq	.L103
 849              		.loc 1 590 0 is_stmt 0
 850 0192 4FF0020A 		mov	r10, #2
 851 0196 01E0     		b	.L63
 852              	.L103:
 853 0198 4FF0010A 		mov	r10, #1
ARM GAS  C:\Users\rober\AppData\Local\Temp\ccBlBMtt.s 			page 40


 854              	.L63:
 855              		.loc 1 590 0 discriminator 4
 856 019c 4AEA0101 		orr	r1, r10, r1
 857 01a0 8CF80010 		strb	r1, [ip]
 591:eInk Library/pervasive_eink_hardware_driver.c ****                                         PV_EINK_WHITE0 : PV_EINK_NOTHING0);
 592:eInk Library/pervasive_eink_hardware_driver.c ****                 dataLineEven[k]      = ((tempByte & PV_EINK_EVEN_MASK_A) ?
 858              		.loc 1 592 0 is_stmt 1 discriminator 4
 859 01a4 0EEB020C 		add	ip, lr, r2
 860 01a8 14F0800F 		tst	r4, #128
 861 01ac 01D0     		beq	.L104
 862              		.loc 1 592 0 is_stmt 0
 863 01ae 0221     		movs	r1, #2
 864 01b0 00E0     		b	.L64
 865              	.L104:
 866 01b2 0121     		movs	r1, #1
 867              	.L64:
 868              		.loc 1 592 0 discriminator 4
 869 01b4 8CF80010 		strb	r1, [ip]
 593:eInk Library/pervasive_eink_hardware_driver.c ****                                         PV_EINK_WHITE0 : PV_EINK_NOTHING0);
 594:eInk Library/pervasive_eink_hardware_driver.c ****                 dataLineEven[k]     |= ((tempByte & PV_EINK_EVEN_MASK_B) ? 
 870              		.loc 1 594 0 is_stmt 1 discriminator 4
 871 01b8 49B2     		sxtb	r1, r1
 872 01ba 14F0200F 		tst	r4, #32
 873 01be 02D0     		beq	.L105
 874              		.loc 1 594 0 is_stmt 0
 875 01c0 4FF0080A 		mov	r10, #8
 876 01c4 01E0     		b	.L65
 877              	.L105:
 878 01c6 4FF0040A 		mov	r10, #4
 879              	.L65:
 880              		.loc 1 594 0 discriminator 4
 881 01ca 4AEA0101 		orr	r1, r10, r1
 882 01ce 8CF80010 		strb	r1, [ip]
 595:eInk Library/pervasive_eink_hardware_driver.c ****                                         PV_EINK_WHITE1 : PV_EINK_NOTHING1);
 596:eInk Library/pervasive_eink_hardware_driver.c ****                 dataLineEven[k]     |= ((tempByte & PV_EINK_EVEN_MASK_C) ? 
 883              		.loc 1 596 0 is_stmt 1 discriminator 4
 884 01d2 14F0080F 		tst	r4, #8
 885 01d6 02D0     		beq	.L106
 886              		.loc 1 596 0 is_stmt 0
 887 01d8 4FF0200A 		mov	r10, #32
 888 01dc 01E0     		b	.L66
 889              	.L106:
 890 01de 4FF0100A 		mov	r10, #16
 891              	.L66:
 892              		.loc 1 596 0 discriminator 4
 893 01e2 4AEA0101 		orr	r1, r10, r1
 894 01e6 8CF80010 		strb	r1, [ip]
 597:eInk Library/pervasive_eink_hardware_driver.c ****                                         PV_EINK_WHITE2 : PV_EINK_NOTHING2);
 598:eInk Library/pervasive_eink_hardware_driver.c ****                 dataLineEven[k--]   |= ((tempByte & PV_EINK_EVEN_MASK_D) ? 
 895              		.loc 1 598 0 is_stmt 1 discriminator 4
 896 01ea 013A     		subs	r2, r2, #1
 897              	.LVL87:
 898 01ec 92B2     		uxth	r2, r2
 899              	.LVL88:
 900 01ee 14F0020F 		tst	r4, #2
 901 01f2 02D0     		beq	.L107
 902              		.loc 1 598 0 is_stmt 0
ARM GAS  C:\Users\rober\AppData\Local\Temp\ccBlBMtt.s 			page 41


 903 01f4 6FF07F0A 		mvn	r10, #127
 904 01f8 01E0     		b	.L67
 905              	.L107:
 906 01fa 4FF0400A 		mov	r10, #64
 907              	.L67:
 908              		.loc 1 598 0 discriminator 4
 909 01fe 4AEA0101 		orr	r1, r10, r1
 910 0202 8CF80010 		strb	r1, [ip]
 599:eInk Library/pervasive_eink_hardware_driver.c ****                                         PV_EINK_WHITE3 : PV_EINK_NOTHING3);
 600:eInk Library/pervasive_eink_hardware_driver.c ****                 break;
 911              		.loc 1 600 0 is_stmt 1 discriminator 4
 912 0206 C7E0     		b	.L46
 913              	.L50:
 601:eInk Library/pervasive_eink_hardware_driver.c ****             /* Stage 3: Calculate the inverted Even and Odd bytes of the
 602:eInk Library/pervasive_eink_hardware_driver.c ****                new image data */
 603:eInk Library/pervasive_eink_hardware_driver.c ****             case PV_EINK_STAGE3:
 604:eInk Library/pervasive_eink_hardware_driver.c ****                 dataLineOdd[x]       = ((tempByte & PV_EINK_ODD_MASK_A)  ? 
 914              		.loc 1 604 0
 915 0208 00EB030C 		add	ip, r0, r3
 916 020c 14F0400F 		tst	r4, #64
 917 0210 01D0     		beq	.L108
 918 0212 C021     		movs	r1, #192
 919 0214 00E0     		b	.L68
 920              	.L108:
 921 0216 4021     		movs	r1, #64
 922              	.L68:
 923              		.loc 1 604 0 is_stmt 0 discriminator 4
 924 0218 8CF80010 		strb	r1, [ip]
 605:eInk Library/pervasive_eink_hardware_driver.c ****                                         PV_EINK_BLACK3 : PV_EINK_NOTHING3);
 606:eInk Library/pervasive_eink_hardware_driver.c ****                 dataLineOdd[x]      |= ((tempByte & PV_EINK_ODD_MASK_B)  ? 
 925              		.loc 1 606 0 is_stmt 1 discriminator 4
 926 021c 49B2     		sxtb	r1, r1
 927 021e 14F0100F 		tst	r4, #16
 928 0222 02D0     		beq	.L109
 929              		.loc 1 606 0 is_stmt 0
 930 0224 4FF0300A 		mov	r10, #48
 931 0228 01E0     		b	.L69
 932              	.L109:
 933 022a 4FF0100A 		mov	r10, #16
 934              	.L69:
 935              		.loc 1 606 0 discriminator 4
 936 022e 4AEA0101 		orr	r1, r10, r1
 937 0232 8CF80010 		strb	r1, [ip]
 607:eInk Library/pervasive_eink_hardware_driver.c ****                                         PV_EINK_BLACK2 : PV_EINK_NOTHING2);
 608:eInk Library/pervasive_eink_hardware_driver.c ****                 dataLineOdd[x]      |= ((tempByte & PV_EINK_ODD_MASK_C)  ?
 938              		.loc 1 608 0 is_stmt 1 discriminator 4
 939 0236 14F0040F 		tst	r4, #4
 940 023a 02D0     		beq	.L110
 941              		.loc 1 608 0 is_stmt 0
 942 023c 4FF00C0A 		mov	r10, #12
 943 0240 01E0     		b	.L70
 944              	.L110:
 945 0242 4FF0040A 		mov	r10, #4
 946              	.L70:
 947              		.loc 1 608 0 discriminator 4
 948 0246 4AEA0101 		orr	r1, r10, r1
 949 024a 8CF80010 		strb	r1, [ip]
ARM GAS  C:\Users\rober\AppData\Local\Temp\ccBlBMtt.s 			page 42


 609:eInk Library/pervasive_eink_hardware_driver.c ****                                         PV_EINK_BLACK1 : PV_EINK_NOTHING1);
 610:eInk Library/pervasive_eink_hardware_driver.c ****                 dataLineOdd[x]      |= ((tempByte & PV_EINK_ODD_MASK_D)  ?
 950              		.loc 1 610 0 is_stmt 1 discriminator 4
 951 024e 14F0010F 		tst	r4, #1
 952 0252 02D0     		beq	.L111
 953              		.loc 1 610 0 is_stmt 0
 954 0254 4FF0030A 		mov	r10, #3
 955 0258 01E0     		b	.L71
 956              	.L111:
 957 025a 4FF0010A 		mov	r10, #1
 958              	.L71:
 959              		.loc 1 610 0 discriminator 4
 960 025e 4AEA0101 		orr	r1, r10, r1
 961 0262 8CF80010 		strb	r1, [ip]
 611:eInk Library/pervasive_eink_hardware_driver.c ****                                         PV_EINK_BLACK0 : PV_EINK_NOTHING0);
 612:eInk Library/pervasive_eink_hardware_driver.c ****                 dataLineEven[k]      = ((tempByte & PV_EINK_EVEN_MASK_A) ?
 962              		.loc 1 612 0 is_stmt 1 discriminator 4
 963 0266 0EEB020C 		add	ip, lr, r2
 964 026a 14F0800F 		tst	r4, #128
 965 026e 01D0     		beq	.L112
 966              		.loc 1 612 0 is_stmt 0
 967 0270 0321     		movs	r1, #3
 968 0272 00E0     		b	.L72
 969              	.L112:
 970 0274 0121     		movs	r1, #1
 971              	.L72:
 972              		.loc 1 612 0 discriminator 4
 973 0276 8CF80010 		strb	r1, [ip]
 613:eInk Library/pervasive_eink_hardware_driver.c ****                                         PV_EINK_BLACK0 : PV_EINK_NOTHING0);
 614:eInk Library/pervasive_eink_hardware_driver.c ****                 dataLineEven[k]     |= ((tempByte & PV_EINK_EVEN_MASK_B) ? 
 974              		.loc 1 614 0 is_stmt 1 discriminator 4
 975 027a 49B2     		sxtb	r1, r1
 976 027c 14F0200F 		tst	r4, #32
 977 0280 02D0     		beq	.L113
 978              		.loc 1 614 0 is_stmt 0
 979 0282 4FF00C0A 		mov	r10, #12
 980 0286 01E0     		b	.L73
 981              	.L113:
 982 0288 4FF0040A 		mov	r10, #4
 983              	.L73:
 984              		.loc 1 614 0 discriminator 4
 985 028c 4AEA0101 		orr	r1, r10, r1
 986 0290 8CF80010 		strb	r1, [ip]
 615:eInk Library/pervasive_eink_hardware_driver.c ****                                         PV_EINK_BLACK1 : PV_EINK_NOTHING1);
 616:eInk Library/pervasive_eink_hardware_driver.c ****                 dataLineEven[k]     |= ((tempByte & PV_EINK_EVEN_MASK_C) ? 
 987              		.loc 1 616 0 is_stmt 1 discriminator 4
 988 0294 14F0080F 		tst	r4, #8
 989 0298 02D0     		beq	.L114
 990              		.loc 1 616 0 is_stmt 0
 991 029a 4FF0300A 		mov	r10, #48
 992 029e 01E0     		b	.L74
 993              	.L114:
 994 02a0 4FF0100A 		mov	r10, #16
 995              	.L74:
 996              		.loc 1 616 0 discriminator 4
 997 02a4 4AEA0101 		orr	r1, r10, r1
 998 02a8 8CF80010 		strb	r1, [ip]
ARM GAS  C:\Users\rober\AppData\Local\Temp\ccBlBMtt.s 			page 43


 617:eInk Library/pervasive_eink_hardware_driver.c ****                                         PV_EINK_BLACK2 : PV_EINK_NOTHING2);
 618:eInk Library/pervasive_eink_hardware_driver.c ****                 dataLineEven[k--]   |= ((tempByte & PV_EINK_EVEN_MASK_D) ? 
 999              		.loc 1 618 0 is_stmt 1 discriminator 4
 1000 02ac 013A     		subs	r2, r2, #1
 1001              	.LVL89:
 1002 02ae 92B2     		uxth	r2, r2
 1003              	.LVL90:
 1004 02b0 14F0020F 		tst	r4, #2
 1005 02b4 02D0     		beq	.L115
 1006              		.loc 1 618 0 is_stmt 0
 1007 02b6 6FF03F0A 		mvn	r10, #63
 1008 02ba 01E0     		b	.L75
 1009              	.L115:
 1010 02bc 4FF0400A 		mov	r10, #64
 1011              	.L75:
 1012              		.loc 1 618 0 discriminator 4
 1013 02c0 4AEA0101 		orr	r1, r10, r1
 1014 02c4 8CF80010 		strb	r1, [ip]
 619:eInk Library/pervasive_eink_hardware_driver.c ****                                         PV_EINK_BLACK3 : PV_EINK_NOTHING3);
 620:eInk Library/pervasive_eink_hardware_driver.c ****                 break;
 1015              		.loc 1 620 0 is_stmt 1 discriminator 4
 1016 02c8 66E0     		b	.L46
 1017              	.L51:
 621:eInk Library/pervasive_eink_hardware_driver.c ****             /* Stage 4: Calculate the Even and Odd bytes of new image 
 622:eInk Library/pervasive_eink_hardware_driver.c ****                data */
 623:eInk Library/pervasive_eink_hardware_driver.c ****             case PV_EINK_STAGE4:
 624:eInk Library/pervasive_eink_hardware_driver.c ****                 dataLineOdd[x]       = ((tempByte & PV_EINK_ODD_MASK_A)  ? 
 1018              		.loc 1 624 0
 1019 02ca 00EB030C 		add	ip, r0, r3
 1020 02ce 14F0400F 		tst	r4, #64
 1021 02d2 01D0     		beq	.L116
 1022 02d4 8021     		movs	r1, #128
 1023 02d6 00E0     		b	.L76
 1024              	.L116:
 1025 02d8 C021     		movs	r1, #192
 1026              	.L76:
 1027              		.loc 1 624 0 is_stmt 0 discriminator 4
 1028 02da 8CF80010 		strb	r1, [ip]
 625:eInk Library/pervasive_eink_hardware_driver.c ****                                         PV_EINK_WHITE3 : PV_EINK_BLACK3);
 626:eInk Library/pervasive_eink_hardware_driver.c ****                 dataLineOdd[x]      |= ((tempByte & PV_EINK_ODD_MASK_B)  ?
 1029              		.loc 1 626 0 is_stmt 1 discriminator 4
 1030 02de 49B2     		sxtb	r1, r1
 1031 02e0 14F0100F 		tst	r4, #16
 1032 02e4 02D0     		beq	.L117
 1033              		.loc 1 626 0 is_stmt 0
 1034 02e6 4FF0200A 		mov	r10, #32
 1035 02ea 01E0     		b	.L77
 1036              	.L117:
 1037 02ec 4FF0300A 		mov	r10, #48
 1038              	.L77:
 1039              		.loc 1 626 0 discriminator 4
 1040 02f0 4AEA0101 		orr	r1, r10, r1
 1041 02f4 8CF80010 		strb	r1, [ip]
 627:eInk Library/pervasive_eink_hardware_driver.c ****                                         PV_EINK_WHITE2 : PV_EINK_BLACK2);
 628:eInk Library/pervasive_eink_hardware_driver.c ****                 dataLineOdd[x]      |= ((tempByte & PV_EINK_ODD_MASK_C)  ? 
 1042              		.loc 1 628 0 is_stmt 1 discriminator 4
 1043 02f8 14F0040F 		tst	r4, #4
ARM GAS  C:\Users\rober\AppData\Local\Temp\ccBlBMtt.s 			page 44


 1044 02fc 02D0     		beq	.L118
 1045              		.loc 1 628 0 is_stmt 0
 1046 02fe 4FF0080A 		mov	r10, #8
 1047 0302 01E0     		b	.L78
 1048              	.L118:
 1049 0304 4FF00C0A 		mov	r10, #12
 1050              	.L78:
 1051              		.loc 1 628 0 discriminator 4
 1052 0308 4AEA0101 		orr	r1, r10, r1
 1053 030c 8CF80010 		strb	r1, [ip]
 629:eInk Library/pervasive_eink_hardware_driver.c ****                                         PV_EINK_WHITE1 : PV_EINK_BLACK1);
 630:eInk Library/pervasive_eink_hardware_driver.c ****                 dataLineOdd[x]      |= ((tempByte & PV_EINK_ODD_MASK_D)  ? 
 1054              		.loc 1 630 0 is_stmt 1 discriminator 4
 1055 0310 14F0010F 		tst	r4, #1
 1056 0314 02D0     		beq	.L119
 1057              		.loc 1 630 0 is_stmt 0
 1058 0316 4FF0020A 		mov	r10, #2
 1059 031a 01E0     		b	.L79
 1060              	.L119:
 1061 031c 4FF0030A 		mov	r10, #3
 1062              	.L79:
 1063              		.loc 1 630 0 discriminator 4
 1064 0320 4AEA0101 		orr	r1, r10, r1
 1065 0324 8CF80010 		strb	r1, [ip]
 631:eInk Library/pervasive_eink_hardware_driver.c ****                                         PV_EINK_WHITE0 : PV_EINK_BLACK0);
 632:eInk Library/pervasive_eink_hardware_driver.c ****                 dataLineEven[k]     = ((tempByte & PV_EINK_EVEN_MASK_A)  ? 
 1066              		.loc 1 632 0 is_stmt 1 discriminator 4
 1067 0328 0EEB020C 		add	ip, lr, r2
 1068 032c 14F0800F 		tst	r4, #128
 1069 0330 08D0     		beq	.L120
 1070              		.loc 1 632 0 is_stmt 0
 1071 0332 0221     		movs	r1, #2
 1072 0334 07E0     		b	.L80
 1073              	.L126:
 1074 0336 00BF     		.align	2
 1075              	.L125:
 1076 0338 FFFF0F10 		.word	269484031
 1077 033c 00000000 		.word	.LANCHOR0
 1078 0340 00000000 		.word	bulkDriverPacket
 1079              	.L120:
 1080 0344 0321     		movs	r1, #3
 1081              	.L80:
 1082              		.loc 1 632 0 discriminator 4
 1083 0346 8CF80010 		strb	r1, [ip]
 633:eInk Library/pervasive_eink_hardware_driver.c ****                                         PV_EINK_WHITE0 : PV_EINK_BLACK0);
 634:eInk Library/pervasive_eink_hardware_driver.c ****                 dataLineEven[k]     |= ((tempByte & PV_EINK_EVEN_MASK_B) ? 
 1084              		.loc 1 634 0 is_stmt 1 discriminator 4
 1085 034a 49B2     		sxtb	r1, r1
 1086 034c 14F0200F 		tst	r4, #32
 1087 0350 02D0     		beq	.L121
 1088              		.loc 1 634 0 is_stmt 0
 1089 0352 4FF0080A 		mov	r10, #8
 1090 0356 01E0     		b	.L81
 1091              	.L121:
 1092 0358 4FF00C0A 		mov	r10, #12
 1093              	.L81:
 1094              		.loc 1 634 0 discriminator 4
ARM GAS  C:\Users\rober\AppData\Local\Temp\ccBlBMtt.s 			page 45


 1095 035c 4AEA0101 		orr	r1, r10, r1
 1096 0360 8CF80010 		strb	r1, [ip]
 635:eInk Library/pervasive_eink_hardware_driver.c ****                                         PV_EINK_WHITE1 : PV_EINK_BLACK1);
 636:eInk Library/pervasive_eink_hardware_driver.c ****                 dataLineEven[k]     |= ((tempByte & PV_EINK_EVEN_MASK_C) ?
 1097              		.loc 1 636 0 is_stmt 1 discriminator 4
 1098 0364 14F0080F 		tst	r4, #8
 1099 0368 02D0     		beq	.L122
 1100              		.loc 1 636 0 is_stmt 0
 1101 036a 4FF0200A 		mov	r10, #32
 1102 036e 01E0     		b	.L82
 1103              	.L122:
 1104 0370 4FF0300A 		mov	r10, #48
 1105              	.L82:
 1106              		.loc 1 636 0 discriminator 4
 1107 0374 4AEA0101 		orr	r1, r10, r1
 1108 0378 8CF80010 		strb	r1, [ip]
 637:eInk Library/pervasive_eink_hardware_driver.c ****                                         PV_EINK_WHITE2 : PV_EINK_BLACK2);
 638:eInk Library/pervasive_eink_hardware_driver.c ****                 dataLineEven[k--]   |= ((tempByte & PV_EINK_EVEN_MASK_D) ? 
 1109              		.loc 1 638 0 is_stmt 1 discriminator 4
 1110 037c 013A     		subs	r2, r2, #1
 1111              	.LVL91:
 1112 037e 92B2     		uxth	r2, r2
 1113              	.LVL92:
 1114 0380 14F0020F 		tst	r4, #2
 1115 0384 02D0     		beq	.L123
 1116              		.loc 1 638 0 is_stmt 0
 1117 0386 6FF07F0A 		mvn	r10, #127
 1118 038a 01E0     		b	.L83
 1119              	.L123:
 1120 038c 6FF03F0A 		mvn	r10, #63
 1121              	.L83:
 1122              		.loc 1 638 0 discriminator 4
 1123 0390 4AEA0101 		orr	r1, r10, r1
 1124 0394 8CF80010 		strb	r1, [ip]
 1125              	.L46:
 550:eInk Library/pervasive_eink_hardware_driver.c ****         {
 1126              		.loc 1 550 0 is_stmt 1 discriminator 2
 1127 0398 0133     		adds	r3, r3, #1
 1128              	.LVL93:
 1129 039a 9BB2     		uxth	r3, r3
 1130              	.LVL94:
 1131              	.L44:
 550:eInk Library/pervasive_eink_hardware_driver.c ****         {
 1132              		.loc 1 550 0 is_stmt 0 discriminator 1
 1133 039c 202B     		cmp	r3, #32
 1134 039e 7FF665AE 		bls	.L84
 1135              	.LVL95:
 639:eInk Library/pervasive_eink_hardware_driver.c ****                                         PV_EINK_WHITE3 : PV_EINK_BLACK3);
 640:eInk Library/pervasive_eink_hardware_driver.c ****                 break;
 641:eInk Library/pervasive_eink_hardware_driver.c ****             }
 642:eInk Library/pervasive_eink_hardware_driver.c ****         }
 643:eInk Library/pervasive_eink_hardware_driver.c ****         /* Move onto the next line */
 644:eInk Library/pervasive_eink_hardware_driver.c ****         scanlineNumber = PV_EINK_VERTICAL_SIZE - y;
 645:eInk Library/pervasive_eink_hardware_driver.c ****         scanlineNumber--;
 1136              		.loc 1 645 0 is_stmt 1 discriminator 2
 1137 03a2 C8F1AF03 		rsb	r3, r8, #175
 1138              	.LVL96:
ARM GAS  C:\Users\rober\AppData\Local\Temp\ccBlBMtt.s 			page 46


 1139 03a6 1BB2     		sxth	r3, r3
 1140              	.LVL97:
 646:eInk Library/pervasive_eink_hardware_driver.c ****         
 647:eInk Library/pervasive_eink_hardware_driver.c ****         /* Shift Scan byte according to the data line */
 648:eInk Library/pervasive_eink_hardware_driver.c ****         dataLineScan[(scanlineNumber >> PV_EINK_PIXEL_SIZE)] = scanTable
 1141              		.loc 1 648 0 discriminator 2
 1142 03a8 9910     		asrs	r1, r3, #2
 649:eInk Library/pervasive_eink_hardware_driver.c ****                             [(scanlineNumber % PV_EINK_SCAN_TABLE_SIZE)];
 1143              		.loc 1 649 0 discriminator 2
 1144 03aa 1A4A     		ldr	r2, .L127
 1145              	.LVL98:
 1146 03ac 1340     		ands	r3, r3, r2
 1147              	.LVL99:
 1148 03ae 03D5     		bpl	.L85
 1149 03b0 013B     		subs	r3, r3, #1
 1150 03b2 63F00303 		orn	r3, r3, #3
 1151 03b6 0133     		adds	r3, r3, #1
 1152              	.L85:
 1153 03b8 174A     		ldr	r2, .L127+4
 1154 03ba 02FA83F3 		sxtah	r3, r2, r3
 1155 03be 1B7A     		ldrb	r3, [r3, #8]	@ zero_extendqisi2
 648:eInk Library/pervasive_eink_hardware_driver.c ****                             [(scanlineNumber % PV_EINK_SCAN_TABLE_SIZE)];
 1156              		.loc 1 648 0 discriminator 2
 1157 03c0 09F80130 		strb	r3, [r9, r1]
 534:eInk Library/pervasive_eink_hardware_driver.c ****     {
 1158              		.loc 1 534 0 discriminator 2
 1159 03c4 08F10108 		add	r8, r8, #1
 1160              	.LVL100:
 1161 03c8 1FFA88F8 		uxth	r8, r8
 1162              	.LVL101:
 1163              	.L43:
 534:eInk Library/pervasive_eink_hardware_driver.c ****     {
 1164              		.loc 1 534 0 is_stmt 0 discriminator 1
 1165 03cc B8F1AF0F 		cmp	r8, #175
 1166 03d0 7FF62BAE 		bls	.L86
 1167              	.LVL102:
 1168              	.L89:
 650:eInk Library/pervasive_eink_hardware_driver.c ****             
 651:eInk Library/pervasive_eink_hardware_driver.c ****     }
 652:eInk Library/pervasive_eink_hardware_driver.c ****             
 653:eInk Library/pervasive_eink_hardware_driver.c ****     /* Perform the update operation until the total time of frames exceed 
 654:eInk Library/pervasive_eink_hardware_driver.c ****        stage time */
 655:eInk Library/pervasive_eink_hardware_driver.c ****     do
 656:eInk Library/pervasive_eink_hardware_driver.c ****     {
 657:eInk Library/pervasive_eink_hardware_driver.c ****         /* Perform a line by line update */
 658:eInk Library/pervasive_eink_hardware_driver.c ****         for (y = 0; y < PV_EINK_VERTICAL_SIZE; y++)
 1169              		.loc 1 658 0 is_stmt 1
 1170 03d4 0024     		movs	r4, #0
 1171 03d6 0FE0     		b	.L87
 1172              	.LVL103:
 1173              	.L88:
 659:eInk Library/pervasive_eink_hardware_driver.c ****         {
 660:eInk Library/pervasive_eink_hardware_driver.c ****                 /* Send the prepared data to the E-INK display */
 661:eInk Library/pervasive_eink_hardware_driver.c ****             Pv_EINK_SendData(PV_EINK_PIXEL_DATA_COMMAND_INDEX,
 662:eInk Library/pervasive_eink_hardware_driver.c ****                           (uint8_t*) &bulkDriverPacket[y].lineBuffer,
 1174              		.loc 1 662 0 discriminator 3
 1175 03d8 C4EBC403 		rsb	r3, r4, r4, lsl #3
ARM GAS  C:\Users\rober\AppData\Local\Temp\ccBlBMtt.s 			page 47


 1176 03dc C4EB0313 		rsb	r3, r4, r3, lsl #4
 661:eInk Library/pervasive_eink_hardware_driver.c ****                           (uint8_t*) &bulkDriverPacket[y].lineBuffer,
 1177              		.loc 1 661 0 discriminator 3
 1178 03e0 6F22     		movs	r2, #111
 1179 03e2 0E49     		ldr	r1, .L127+8
 1180 03e4 1944     		add	r1, r1, r3
 1181 03e6 0A20     		movs	r0, #10
 1182 03e8 FFF7FEFF 		bl	Pv_EINK_SendData
 1183              	.LVL104:
 663:eInk Library/pervasive_eink_hardware_driver.c ****                           PV_EINK_DATA_LINE_SIZE);
 664:eInk Library/pervasive_eink_hardware_driver.c ****                           
 665:eInk Library/pervasive_eink_hardware_driver.c ****             /* Turn on Output Enable to latch the frame */
 666:eInk Library/pervasive_eink_hardware_driver.c ****             Pv_EINK_SendByte(PV_EINK_ENABLE_OE_COMMAND_INDEX,
 1184              		.loc 1 666 0 discriminator 3
 1185 03ec 0721     		movs	r1, #7
 1186 03ee 0220     		movs	r0, #2
 1187 03f0 FFF7FEFF 		bl	Pv_EINK_SendByte
 1188              	.LVL105:
 658:eInk Library/pervasive_eink_hardware_driver.c ****         {
 1189              		.loc 1 658 0 discriminator 3
 1190 03f4 0134     		adds	r4, r4, #1
 1191              	.LVL106:
 1192 03f6 A4B2     		uxth	r4, r4
 1193              	.LVL107:
 1194              	.L87:
 658:eInk Library/pervasive_eink_hardware_driver.c ****         {
 1195              		.loc 1 658 0 is_stmt 0 discriminator 1
 1196 03f8 AF2C     		cmp	r4, #175
 1197 03fa EDD9     		bls	.L88
 667:eInk Library/pervasive_eink_hardware_driver.c ****                           PV_EINK_ENABLE_OE_COMMAND_DATA);
 668:eInk Library/pervasive_eink_hardware_driver.c ****         }
 669:eInk Library/pervasive_eink_hardware_driver.c ****     
 670:eInk Library/pervasive_eink_hardware_driver.c ****     }
 671:eInk Library/pervasive_eink_hardware_driver.c ****     /* Loop until the total time of frames exceed stage time */
 672:eInk Library/pervasive_eink_hardware_driver.c ****     while (fullUpdateTime > Cy_EINK_GetTimeTick());
 1198              		.loc 1 672 0 is_stmt 1
 1199 03fc 084B     		ldr	r3, .L127+12
 1200 03fe B3F87C40 		ldrh	r4, [r3, #124]
 1201              	.LVL108:
 1202 0402 FFF7FEFF 		bl	Cy_EINK_GetTimeTick
 1203              	.LVL109:
 1204 0406 8442     		cmp	r4, r0
 1205 0408 E4D8     		bhi	.L89
 673:eInk Library/pervasive_eink_hardware_driver.c ****     
 674:eInk Library/pervasive_eink_hardware_driver.c ****     /* Stop the E-INK Timer */
 675:eInk Library/pervasive_eink_hardware_driver.c ****     Cy_EINK_TimerStop();
 1206              		.loc 1 675 0
 1207 040a FFF7FEFF 		bl	Cy_EINK_TimerStop
 1208              	.LVL110:
 1209 040e BDE8F88F 		pop	{r3, r4, r5, r6, r7, r8, r9, r10, fp, pc}
 1210              	.LVL111:
 1211              	.L128:
 1212 0412 00BF     		.align	2
 1213              	.L127:
 1214 0414 03000080 		.word	-2147483645
 1215 0418 00000000 		.word	.LANCHOR1
 1216 041c 00000000 		.word	bulkDriverPacket
ARM GAS  C:\Users\rober\AppData\Local\Temp\ccBlBMtt.s 			page 48


 1217 0420 00000000 		.word	.LANCHOR0
 1218              		.cfi_endproc
 1219              	.LFE609:
 1220              		.size	Pv_EINK_FullStageHandler, .-Pv_EINK_FullStageHandler
 1221              		.section	.text.Pv_EINK_PartialStageHandler,"ax",%progbits
 1222              		.align	2
 1223              		.global	Pv_EINK_PartialStageHandler
 1224              		.thumb
 1225              		.thumb_func
 1226              		.type	Pv_EINK_PartialStageHandler, %function
 1227              	Pv_EINK_PartialStageHandler:
 1228              	.LFB610:
 676:eInk Library/pervasive_eink_hardware_driver.c **** }
 677:eInk Library/pervasive_eink_hardware_driver.c **** 
 678:eInk Library/pervasive_eink_hardware_driver.c **** /*******************************************************************************
 679:eInk Library/pervasive_eink_hardware_driver.c **** * Function Name:  void Pv_EINK_PartialStageHandler(pv_eink_frame_data_t* 
 680:eInk Library/pervasive_eink_hardware_driver.c ****                             previousImagePtr, pv_eink_frame_data_t* newImagePtr)
 681:eInk Library/pervasive_eink_hardware_driver.c **** ********************************************************************************
 682:eInk Library/pervasive_eink_hardware_driver.c **** *
 683:eInk Library/pervasive_eink_hardware_driver.c **** * Summary: The partial update driving stage for getting Odd and Even bytes, and
 684:eInk Library/pervasive_eink_hardware_driver.c **** * then writing the data from memory array to E-INK driver.
 685:eInk Library/pervasive_eink_hardware_driver.c **** *
 686:eInk Library/pervasive_eink_hardware_driver.c **** * Partial update is similar to the last stage of full update. If the new data byte
 687:eInk Library/pervasive_eink_hardware_driver.c **** * is same as previous data byte, send a "nothing" pixel, so that E-INK pixel won't
 688:eInk Library/pervasive_eink_hardware_driver.c **** * be altered. If the new data byte is different from the previous data byte, send
 689:eInk Library/pervasive_eink_hardware_driver.c **** * the new data byte.
 690:eInk Library/pervasive_eink_hardware_driver.c **** * For more details on the driving stages, please refer to the driver G2 document
 691:eInk Library/pervasive_eink_hardware_driver.c **** * Section 5.
 692:eInk Library/pervasive_eink_hardware_driver.c **** *
 693:eInk Library/pervasive_eink_hardware_driver.c **** * Parameters:
 694:eInk Library/pervasive_eink_hardware_driver.c **** * pv_eink_frame_data_t* previousImagePtr : The pointer of memory that contains 
 695:eInk Library/pervasive_eink_hardware_driver.c **** *                                    previous frame written to the E-INK display
 696:eInk Library/pervasive_eink_hardware_driver.c **** * pv_eink_frame_data_t* newImagePtr      : The pointer of memory that contains a 
 697:eInk Library/pervasive_eink_hardware_driver.c **** *                       new frame which needs to be written to the E-INK display
 698:eInk Library/pervasive_eink_hardware_driver.c **** *
 699:eInk Library/pervasive_eink_hardware_driver.c **** * Return:
 700:eInk Library/pervasive_eink_hardware_driver.c **** *  None
 701:eInk Library/pervasive_eink_hardware_driver.c **** *
 702:eInk Library/pervasive_eink_hardware_driver.c **** * Side Effects:
 703:eInk Library/pervasive_eink_hardware_driver.c **** *  This is a blocking function. CPU will be busy during the entire operation,
 704:eInk Library/pervasive_eink_hardware_driver.c **** *  which can be 1 to 2 seconds. 
 705:eInk Library/pervasive_eink_hardware_driver.c **** *******************************************************************************/
 706:eInk Library/pervasive_eink_hardware_driver.c **** void Pv_EINK_PartialStageHandler(pv_eink_frame_data_t* previousImagePtr, 
 707:eInk Library/pervasive_eink_hardware_driver.c ****                                  pv_eink_frame_data_t* newImagePtr)
 708:eInk Library/pervasive_eink_hardware_driver.c **** {
 1229              		.loc 1 708 0
 1230              		.cfi_startproc
 1231              		@ args = 0, pretend = 0, frame = 0
 1232              		@ frame_needed = 0, uses_anonymous_args = 0
 1233              	.LVL112:
 1234 0000 2DE9F047 		push	{r4, r5, r6, r7, r8, r9, r10, lr}
 1235              		.cfi_def_cfa_offset 32
 1236              		.cfi_offset 4, -32
 1237              		.cfi_offset 5, -28
 1238              		.cfi_offset 6, -24
 1239              		.cfi_offset 7, -20
 1240              		.cfi_offset 8, -16
ARM GAS  C:\Users\rober\AppData\Local\Temp\ccBlBMtt.s 			page 49


 1241              		.cfi_offset 9, -12
 1242              		.cfi_offset 10, -8
 1243              		.cfi_offset 14, -4
 1244 0004 0646     		mov	r6, r0
 1245 0006 0D46     		mov	r5, r1
 1246              	.LVL113:
 709:eInk Library/pervasive_eink_hardware_driver.c ****     /* Counter variable for the horizontal pixel loop */
 710:eInk Library/pervasive_eink_hardware_driver.c ****     uint16_t    x;
 711:eInk Library/pervasive_eink_hardware_driver.c ****     /* Counter variable for the vertical pixel loop */
 712:eInk Library/pervasive_eink_hardware_driver.c ****     uint16_t    y;
 713:eInk Library/pervasive_eink_hardware_driver.c ****     /* Counter variable for the horizontal byte loop */
 714:eInk Library/pervasive_eink_hardware_driver.c ****     uint16_t    k;
 715:eInk Library/pervasive_eink_hardware_driver.c ****     
 716:eInk Library/pervasive_eink_hardware_driver.c ****     /* Temporary storage for image data bytes */
 717:eInk Library/pervasive_eink_hardware_driver.c ****     uint8_t     oldByte;
 718:eInk Library/pervasive_eink_hardware_driver.c ****     /* Temporary storage for image data bytes */
 719:eInk Library/pervasive_eink_hardware_driver.c ****     uint8_t     newByte;
 720:eInk Library/pervasive_eink_hardware_driver.c ****     
 721:eInk Library/pervasive_eink_hardware_driver.c ****     /* Variable for storing the line number under scan */
 722:eInk Library/pervasive_eink_hardware_driver.c ****     int16       scanlineNumber = 0;
 723:eInk Library/pervasive_eink_hardware_driver.c ****     
 724:eInk Library/pervasive_eink_hardware_driver.c ****     /* Re-initialize E-INK timer to ensure the same duration of each stage  */
 725:eInk Library/pervasive_eink_hardware_driver.c ****     Cy_EINK_TimerInit();
 1247              		.loc 1 725 0
 1248 0008 FFF7FEFF 		bl	Cy_EINK_TimerInit
 1249              	.LVL114:
 726:eInk Library/pervasive_eink_hardware_driver.c ****     
 727:eInk Library/pervasive_eink_hardware_driver.c ****     /* Vcom level adjust */
 728:eInk Library/pervasive_eink_hardware_driver.c ****     Pv_EINK_SendByte(PV_EINK_VCOM2_LEVEL_COMMAND_INDEX,
 1250              		.loc 1 728 0
 1251 000c D221     		movs	r1, #210
 1252 000e 0920     		movs	r0, #9
 1253 0010 FFF7FEFF 		bl	Pv_EINK_SendByte
 1254              	.LVL115:
 729:eInk Library/pervasive_eink_hardware_driver.c ****                      PV_EINK_VCOM2_LEVEL_COMMAND_DATA);
 730:eInk Library/pervasive_eink_hardware_driver.c ****      
 731:eInk Library/pervasive_eink_hardware_driver.c ****     /* Vertical pixel loop */
 732:eInk Library/pervasive_eink_hardware_driver.c ****     for (y = 0; y < PV_EINK_VERTICAL_SIZE; y++)
 1255              		.loc 1 732 0
 1256 0014 0024     		movs	r4, #0
 1257 0016 C6E0     		b	.L130
 1258              	.LVL116:
 1259              	.L142:
 733:eInk Library/pervasive_eink_hardware_driver.c ****     {
 734:eInk Library/pervasive_eink_hardware_driver.c ****         /* Clear the line buffer with all zeros */
 735:eInk Library/pervasive_eink_hardware_driver.c ****         memset(&bulkDriverPacket[y].lineBuffer, 0, 
 1260              		.loc 1 735 0
 1261 0018 C4EBC407 		rsb	r7, r4, r4, lsl #3
 1262 001c C4EB0717 		rsb	r7, r4, r7, lsl #4
 1263 0020 DFF80082 		ldr	r8, .L163+12
 1264 0024 07EB0809 		add	r9, r7, r8
 1265 0028 6F22     		movs	r2, #111
 1266 002a 0021     		movs	r1, #0
 1267 002c 4846     		mov	r0, r9
 1268 002e FFF7FEFF 		bl	memset
 1269              	.LVL117:
 736:eInk Library/pervasive_eink_hardware_driver.c ****                sizeof(bulkDriverPacket[y].lineBuffer)) ;
ARM GAS  C:\Users\rober\AppData\Local\Temp\ccBlBMtt.s 			page 50


 737:eInk Library/pervasive_eink_hardware_driver.c **** 
 738:eInk Library/pervasive_eink_hardware_driver.c ****         /* Initialize the even data, odd data and scan data pointers */
 739:eInk Library/pervasive_eink_hardware_driver.c ****         dataLineEven = &bulkDriverPacket[y].lineDataBySize.even[0];
 1270              		.loc 1 739 0
 1271 0032 09F1010C 		add	ip, r9, #1
 1272 0036 784B     		ldr	r3, .L163
 1273 0038 C3F870C0 		str	ip, [r3, #112]
 740:eInk Library/pervasive_eink_hardware_driver.c ****         dataLineOdd  = &bulkDriverPacket[y].lineDataBySize.odd[0];
 1274              		.loc 1 740 0
 1275 003c 07F1480E 		add	lr, r7, #72
 1276 0040 C644     		add	lr, lr, r8
 1277 0042 0EF1060E 		add	lr, lr, #6
 1278 0046 C3F874E0 		str	lr, [r3, #116]
 741:eInk Library/pervasive_eink_hardware_driver.c ****         dataLineScan = &bulkDriverPacket[y].lineDataBySize.scan[0];
 1279              		.loc 1 741 0
 1280 004a 2037     		adds	r7, r7, #32
 1281 004c B844     		add	r8, r8, r7
 1282 004e 08F10208 		add	r8, r8, #2
 1283 0052 C3F87880 		str	r8, [r3, #120]
 1284              	.LVL118:
 742:eInk Library/pervasive_eink_hardware_driver.c **** 
 743:eInk Library/pervasive_eink_hardware_driver.c ****         /* Horizontal bytes initialization */
 744:eInk Library/pervasive_eink_hardware_driver.c ****         k = PV_EINK_HORIZONTAL_SIZE;
 745:eInk Library/pervasive_eink_hardware_driver.c ****         k--;
 1285              		.loc 1 745 0
 1286 0056 2020     		movs	r0, #32
 746:eInk Library/pervasive_eink_hardware_driver.c ****         
 747:eInk Library/pervasive_eink_hardware_driver.c ****         /* Horizontal pixel loop */
 748:eInk Library/pervasive_eink_hardware_driver.c ****         for (x = 0; x < PV_EINK_HORIZONTAL_SIZE; x++)
 1287              		.loc 1 748 0
 1288 0058 0021     		movs	r1, #0
 1289 005a 8EE0     		b	.L131
 1290              	.LVL119:
 1291              	.L140:
 749:eInk Library/pervasive_eink_hardware_driver.c ****         {
 750:eInk Library/pervasive_eink_hardware_driver.c ****             /* Fetch successive data bytes */
 751:eInk Library/pervasive_eink_hardware_driver.c ****             oldByte = *previousImagePtr++;
 1292              		.loc 1 751 0
 1293 005c 771C     		adds	r7, r6, #1
 1294              	.LVL120:
 1295 005e 3278     		ldrb	r2, [r6]	@ zero_extendqisi2
 1296              	.LVL121:
 752:eInk Library/pervasive_eink_hardware_driver.c ****             newByte = *newImagePtr++;
 1297              		.loc 1 752 0
 1298 0060 6E1C     		adds	r6, r5, #1
 1299              	.LVL122:
 1300 0062 95F80090 		ldrb	r9, [r5]	@ zero_extendqisi2
 1301              	.LVL123:
 753:eInk Library/pervasive_eink_hardware_driver.c ****             
 754:eInk Library/pervasive_eink_hardware_driver.c ****             /* Calculate the Even and Odd bytes for partial update stage. Also, 
 755:eInk Library/pervasive_eink_hardware_driver.c ****                if the new data byte is same as the previous data byte, store a 
 756:eInk Library/pervasive_eink_hardware_driver.c ****                "nothing" pixel, so that the E-INK pixel won't be altered.
 757:eInk Library/pervasive_eink_hardware_driver.c ****                If the new data byte is different from the previous data byte, 
 758:eInk Library/pervasive_eink_hardware_driver.c ****                store the new data byte */
 759:eInk Library/pervasive_eink_hardware_driver.c ****             dataLineOdd[x]       = ((oldByte ^ newByte) & PV_EINK_ODD_MASK_A)
 1302              		.loc 1 759 0
 1303 0066 0EEB0105 		add	r5, lr, r1
ARM GAS  C:\Users\rober\AppData\Local\Temp\ccBlBMtt.s 			page 51


 1304 006a 82EA0902 		eor	r2, r2, r9
 1305              	.LVL124:
 1306 006e 12F0400F 		tst	r2, #64
 1307 0072 04D0     		beq	.L146
 1308              		.loc 1 759 0 is_stmt 0 discriminator 1
 1309 0074 19F0400F 		tst	r9, #64
 1310 0078 03D0     		beq	.L147
 1311              		.loc 1 759 0
 1312 007a 8023     		movs	r3, #128
 1313 007c 02E0     		b	.L132
 1314              	.L146:
 1315 007e 4023     		movs	r3, #64
 1316 0080 00E0     		b	.L132
 1317              	.L147:
 1318 0082 C023     		movs	r3, #192
 1319              	.L132:
 1320              		.loc 1 759 0 discriminator 8
 1321 0084 2B70     		strb	r3, [r5]
 1322              	.LVL125:
 760:eInk Library/pervasive_eink_hardware_driver.c ****                                     ?((newByte & PV_EINK_ODD_MASK_A)
 761:eInk Library/pervasive_eink_hardware_driver.c ****                                     ? PV_EINK_WHITE3
 762:eInk Library/pervasive_eink_hardware_driver.c ****                                     : PV_EINK_BLACK3) : PV_EINK_NOTHING3;
 763:eInk Library/pervasive_eink_hardware_driver.c ****             dataLineOdd[x]      |= ((oldByte ^ newByte) & PV_EINK_ODD_MASK_B)
 1323              		.loc 1 763 0 is_stmt 1 discriminator 8
 1324 0086 5BB2     		sxtb	r3, r3
 1325 0088 12F0100F 		tst	r2, #16
 1326 008c 05D0     		beq	.L148
 1327              		.loc 1 763 0 is_stmt 0 discriminator 1
 1328 008e 19F0100F 		tst	r9, #16
 1329 0092 05D0     		beq	.L149
 1330              		.loc 1 763 0
 1331 0094 4FF0200A 		mov	r10, #32
 1332 0098 04E0     		b	.L133
 1333              	.L148:
 1334 009a 4FF0100A 		mov	r10, #16
 1335 009e 01E0     		b	.L133
 1336              	.L149:
 1337 00a0 4FF0300A 		mov	r10, #48
 1338              	.L133:
 1339              		.loc 1 763 0 discriminator 8
 1340 00a4 4AEA0303 		orr	r3, r10, r3
 1341 00a8 2B70     		strb	r3, [r5]
 764:eInk Library/pervasive_eink_hardware_driver.c ****                                     ?((newByte & PV_EINK_ODD_MASK_B) 
 765:eInk Library/pervasive_eink_hardware_driver.c ****                                     ? PV_EINK_WHITE2 
 766:eInk Library/pervasive_eink_hardware_driver.c ****                                     : PV_EINK_BLACK2) : PV_EINK_NOTHING2;
 767:eInk Library/pervasive_eink_hardware_driver.c ****             dataLineOdd[x]      |= ((oldByte ^ newByte) & PV_EINK_ODD_MASK_C)
 1342              		.loc 1 767 0 is_stmt 1 discriminator 8
 1343 00aa 12F0040F 		tst	r2, #4
 1344 00ae 05D0     		beq	.L150
 1345              		.loc 1 767 0 is_stmt 0 discriminator 1
 1346 00b0 19F0040F 		tst	r9, #4
 1347 00b4 05D0     		beq	.L151
 1348              		.loc 1 767 0
 1349 00b6 4FF0080A 		mov	r10, #8
 1350 00ba 04E0     		b	.L134
 1351              	.L150:
 1352 00bc 4FF0040A 		mov	r10, #4
ARM GAS  C:\Users\rober\AppData\Local\Temp\ccBlBMtt.s 			page 52


 1353 00c0 01E0     		b	.L134
 1354              	.L151:
 1355 00c2 4FF00C0A 		mov	r10, #12
 1356              	.L134:
 1357              		.loc 1 767 0 discriminator 8
 1358 00c6 4AEA0303 		orr	r3, r10, r3
 1359 00ca 2B70     		strb	r3, [r5]
 768:eInk Library/pervasive_eink_hardware_driver.c ****                                     ?((newByte & PV_EINK_ODD_MASK_C) 
 769:eInk Library/pervasive_eink_hardware_driver.c ****                                     ? PV_EINK_WHITE1
 770:eInk Library/pervasive_eink_hardware_driver.c ****                                     : PV_EINK_BLACK1) : PV_EINK_NOTHING1;
 771:eInk Library/pervasive_eink_hardware_driver.c ****             dataLineOdd[x]      |= ((oldByte ^ newByte) & PV_EINK_ODD_MASK_D)
 1360              		.loc 1 771 0 is_stmt 1 discriminator 8
 1361 00cc 12F0010F 		tst	r2, #1
 1362 00d0 05D0     		beq	.L152
 1363              		.loc 1 771 0 is_stmt 0 discriminator 1
 1364 00d2 19F0010F 		tst	r9, #1
 1365 00d6 05D0     		beq	.L153
 1366              		.loc 1 771 0
 1367 00d8 4FF0020A 		mov	r10, #2
 1368 00dc 04E0     		b	.L135
 1369              	.L152:
 1370 00de 4FF0010A 		mov	r10, #1
 1371 00e2 01E0     		b	.L135
 1372              	.L153:
 1373 00e4 4FF0030A 		mov	r10, #3
 1374              	.L135:
 1375              		.loc 1 771 0 discriminator 8
 1376 00e8 4AEA0303 		orr	r3, r10, r3
 1377 00ec 2B70     		strb	r3, [r5]
 772:eInk Library/pervasive_eink_hardware_driver.c ****                                     ?((newByte & PV_EINK_ODD_MASK_D) 
 773:eInk Library/pervasive_eink_hardware_driver.c ****                                     ? PV_EINK_WHITE0 
 774:eInk Library/pervasive_eink_hardware_driver.c ****                                     : PV_EINK_BLACK0) : PV_EINK_NOTHING0;
 775:eInk Library/pervasive_eink_hardware_driver.c ****             dataLineEven[k]      = ((oldByte ^ newByte) & PV_EINK_EVEN_MASK_A)
 1378              		.loc 1 775 0 is_stmt 1 discriminator 8
 1379 00ee 0CEB0005 		add	r5, ip, r0
 1380 00f2 12F0800F 		tst	r2, #128
 1381 00f6 04D0     		beq	.L154
 1382              		.loc 1 775 0 is_stmt 0 discriminator 1
 1383 00f8 19F0800F 		tst	r9, #128
 1384 00fc 03D0     		beq	.L155
 1385              		.loc 1 775 0
 1386 00fe 0223     		movs	r3, #2
 1387 0100 02E0     		b	.L136
 1388              	.L154:
 1389 0102 0123     		movs	r3, #1
 1390 0104 00E0     		b	.L136
 1391              	.L155:
 1392 0106 0323     		movs	r3, #3
 1393              	.L136:
 1394              		.loc 1 775 0 discriminator 8
 1395 0108 2B70     		strb	r3, [r5]
 776:eInk Library/pervasive_eink_hardware_driver.c ****                                     ?((newByte & PV_EINK_EVEN_MASK_A) 
 777:eInk Library/pervasive_eink_hardware_driver.c ****                                     ? PV_EINK_WHITE0
 778:eInk Library/pervasive_eink_hardware_driver.c ****                                     : PV_EINK_BLACK0) : PV_EINK_NOTHING0;
 779:eInk Library/pervasive_eink_hardware_driver.c ****             dataLineEven[k]     |= ((oldByte ^ newByte) & PV_EINK_EVEN_MASK_B) 
 1396              		.loc 1 779 0 is_stmt 1 discriminator 8
 1397 010a 5BB2     		sxtb	r3, r3
ARM GAS  C:\Users\rober\AppData\Local\Temp\ccBlBMtt.s 			page 53


 1398 010c 12F0200F 		tst	r2, #32
 1399 0110 05D0     		beq	.L156
 1400              		.loc 1 779 0 is_stmt 0 discriminator 1
 1401 0112 19F0200F 		tst	r9, #32
 1402 0116 05D0     		beq	.L157
 1403              		.loc 1 779 0
 1404 0118 4FF0080A 		mov	r10, #8
 1405 011c 04E0     		b	.L137
 1406              	.L156:
 1407 011e 4FF0040A 		mov	r10, #4
 1408 0122 01E0     		b	.L137
 1409              	.L157:
 1410 0124 4FF00C0A 		mov	r10, #12
 1411              	.L137:
 1412              		.loc 1 779 0 discriminator 8
 1413 0128 4AEA0303 		orr	r3, r10, r3
 1414 012c 2B70     		strb	r3, [r5]
 780:eInk Library/pervasive_eink_hardware_driver.c ****                                     ?((newByte & PV_EINK_EVEN_MASK_B) 
 781:eInk Library/pervasive_eink_hardware_driver.c ****                                     ? PV_EINK_WHITE1
 782:eInk Library/pervasive_eink_hardware_driver.c ****                                     : PV_EINK_BLACK1) : PV_EINK_NOTHING1;
 783:eInk Library/pervasive_eink_hardware_driver.c ****             dataLineEven[k]     |= ((oldByte ^ newByte) & PV_EINK_EVEN_MASK_C)
 1415              		.loc 1 783 0 is_stmt 1 discriminator 8
 1416 012e 12F0080F 		tst	r2, #8
 1417 0132 05D0     		beq	.L158
 1418              		.loc 1 783 0 is_stmt 0 discriminator 1
 1419 0134 19F0080F 		tst	r9, #8
 1420 0138 05D0     		beq	.L159
 1421              		.loc 1 783 0
 1422 013a 4FF0200A 		mov	r10, #32
 1423 013e 04E0     		b	.L138
 1424              	.L158:
 1425 0140 4FF0100A 		mov	r10, #16
 1426 0144 01E0     		b	.L138
 1427              	.L159:
 1428 0146 4FF0300A 		mov	r10, #48
 1429              	.L138:
 1430              		.loc 1 783 0 discriminator 8
 1431 014a 4AEA0303 		orr	r3, r10, r3
 1432 014e 2B70     		strb	r3, [r5]
 784:eInk Library/pervasive_eink_hardware_driver.c ****                                     ?((newByte & PV_EINK_EVEN_MASK_C) 
 785:eInk Library/pervasive_eink_hardware_driver.c ****                                     ? PV_EINK_WHITE2 
 786:eInk Library/pervasive_eink_hardware_driver.c ****                                     : PV_EINK_BLACK2) : PV_EINK_NOTHING2;
 787:eInk Library/pervasive_eink_hardware_driver.c ****             dataLineEven[k--]   |= ((oldByte ^ newByte) & PV_EINK_EVEN_MASK_D)
 1433              		.loc 1 787 0 is_stmt 1 discriminator 8
 1434 0150 0138     		subs	r0, r0, #1
 1435              	.LVL126:
 1436 0152 80B2     		uxth	r0, r0
 1437              	.LVL127:
 1438 0154 12F0020F 		tst	r2, #2
 1439 0158 05D0     		beq	.L160
 1440              		.loc 1 787 0 is_stmt 0 discriminator 1
 1441 015a 19F0020F 		tst	r9, #2
 1442 015e 04D0     		beq	.L161
 1443              		.loc 1 787 0
 1444 0160 6FF07F02 		mvn	r2, #127
 1445 0164 03E0     		b	.L139
 1446              	.L160:
ARM GAS  C:\Users\rober\AppData\Local\Temp\ccBlBMtt.s 			page 54


 1447 0166 4022     		movs	r2, #64
 1448 0168 01E0     		b	.L139
 1449              	.L161:
 1450 016a 6FF03F02 		mvn	r2, #63
 1451              	.L139:
 1452              		.loc 1 787 0 discriminator 8
 1453 016e 1343     		orrs	r3, r3, r2
 1454 0170 2B70     		strb	r3, [r5]
 748:eInk Library/pervasive_eink_hardware_driver.c ****         {
 1455              		.loc 1 748 0 is_stmt 1 discriminator 8
 1456 0172 0131     		adds	r1, r1, #1
 1457              	.LVL128:
 1458 0174 89B2     		uxth	r1, r1
 1459              	.LVL129:
 752:eInk Library/pervasive_eink_hardware_driver.c ****             
 1460              		.loc 1 752 0 discriminator 8
 1461 0176 3546     		mov	r5, r6
 751:eInk Library/pervasive_eink_hardware_driver.c ****             newByte = *newImagePtr++;
 1462              		.loc 1 751 0 discriminator 8
 1463 0178 3E46     		mov	r6, r7
 1464              	.LVL130:
 1465              	.L131:
 748:eInk Library/pervasive_eink_hardware_driver.c ****         {
 1466              		.loc 1 748 0 discriminator 2
 1467 017a 2029     		cmp	r1, #32
 1468 017c 7FF66EAF 		bls	.L140
 1469              	.LVL131:
 788:eInk Library/pervasive_eink_hardware_driver.c ****                                     ?((newByte & PV_EINK_EVEN_MASK_D) 
 789:eInk Library/pervasive_eink_hardware_driver.c ****                                     ? PV_EINK_WHITE3 
 790:eInk Library/pervasive_eink_hardware_driver.c ****                                     : PV_EINK_BLACK3) : PV_EINK_NOTHING3;
 791:eInk Library/pervasive_eink_hardware_driver.c ****         }
 792:eInk Library/pervasive_eink_hardware_driver.c ****         /* Move onto the next line */
 793:eInk Library/pervasive_eink_hardware_driver.c ****         scanlineNumber = PV_EINK_VERTICAL_SIZE - y;
 794:eInk Library/pervasive_eink_hardware_driver.c ****         scanlineNumber--;
 1470              		.loc 1 794 0 discriminator 2
 1471 0180 C4F1AF03 		rsb	r3, r4, #175
 1472 0184 1BB2     		sxth	r3, r3
 1473              	.LVL132:
 795:eInk Library/pervasive_eink_hardware_driver.c ****         
 796:eInk Library/pervasive_eink_hardware_driver.c ****         /* Shift Scan byte according to the data line */
 797:eInk Library/pervasive_eink_hardware_driver.c ****         dataLineScan[(scanlineNumber >> PV_EINK_PIXEL_SIZE)] = scanTable
 1474              		.loc 1 797 0 discriminator 2
 1475 0186 9910     		asrs	r1, r3, #2
 1476              	.LVL133:
 798:eInk Library/pervasive_eink_hardware_driver.c ****                             [(scanlineNumber % PV_EINK_SCAN_TABLE_SIZE)];
 1477              		.loc 1 798 0 discriminator 2
 1478 0188 244A     		ldr	r2, .L163+4
 1479 018a 1340     		ands	r3, r3, r2
 1480              	.LVL134:
 1481 018c 03D5     		bpl	.L141
 1482 018e 013B     		subs	r3, r3, #1
 1483 0190 63F00303 		orn	r3, r3, #3
 1484 0194 0133     		adds	r3, r3, #1
 1485              	.L141:
 1486 0196 224A     		ldr	r2, .L163+8
 1487 0198 02FA83F3 		sxtah	r3, r2, r3
 1488 019c 1B7A     		ldrb	r3, [r3, #8]	@ zero_extendqisi2
ARM GAS  C:\Users\rober\AppData\Local\Temp\ccBlBMtt.s 			page 55


 797:eInk Library/pervasive_eink_hardware_driver.c ****                             [(scanlineNumber % PV_EINK_SCAN_TABLE_SIZE)];
 1489              		.loc 1 797 0 discriminator 2
 1490 019e 08F80130 		strb	r3, [r8, r1]
 732:eInk Library/pervasive_eink_hardware_driver.c ****     {
 1491              		.loc 1 732 0 discriminator 2
 1492 01a2 0134     		adds	r4, r4, #1
 1493              	.LVL135:
 1494 01a4 A4B2     		uxth	r4, r4
 1495              	.LVL136:
 1496              	.L130:
 732:eInk Library/pervasive_eink_hardware_driver.c ****     {
 1497              		.loc 1 732 0 is_stmt 0 discriminator 1
 1498 01a6 AF2C     		cmp	r4, #175
 1499 01a8 7FF636AF 		bls	.L142
 1500              	.LVL137:
 1501              	.L145:
 799:eInk Library/pervasive_eink_hardware_driver.c ****     }
 800:eInk Library/pervasive_eink_hardware_driver.c ****     
 801:eInk Library/pervasive_eink_hardware_driver.c ****     /* Perform the update operation until the total time of frames exceed stage
 802:eInk Library/pervasive_eink_hardware_driver.c ****        time */
 803:eInk Library/pervasive_eink_hardware_driver.c ****     do
 804:eInk Library/pervasive_eink_hardware_driver.c ****     {
 805:eInk Library/pervasive_eink_hardware_driver.c ****         /* Perform a line by line update */
 806:eInk Library/pervasive_eink_hardware_driver.c ****         for (y = 0; y < PV_EINK_VERTICAL_SIZE; y++)
 1502              		.loc 1 806 0 is_stmt 1
 1503 01ac 0024     		movs	r4, #0
 1504 01ae 21E0     		b	.L143
 1505              	.LVL138:
 1506              	.L144:
 807:eInk Library/pervasive_eink_hardware_driver.c ****         {
 808:eInk Library/pervasive_eink_hardware_driver.c ****             /* Send the prepared data to the E-INK display */
 809:eInk Library/pervasive_eink_hardware_driver.c ****             Pv_EINK_SendData(PV_EINK_PIXEL_DATA_COMMAND_INDEX,
 810:eInk Library/pervasive_eink_hardware_driver.c ****                             (uint8_t*) &bulkDriverPacket[y].lineBuffer,
 1507              		.loc 1 810 0 discriminator 3
 1508 01b0 C4EBC405 		rsb	r5, r4, r4, lsl #3
 1509 01b4 C4EB0515 		rsb	r5, r4, r5, lsl #4
 1510 01b8 1A4B     		ldr	r3, .L163+12
 1511 01ba 1D44     		add	r5, r5, r3
 809:eInk Library/pervasive_eink_hardware_driver.c ****                             (uint8_t*) &bulkDriverPacket[y].lineBuffer,
 1512              		.loc 1 809 0 discriminator 3
 1513 01bc 6F22     		movs	r2, #111
 1514 01be 2946     		mov	r1, r5
 1515 01c0 0A20     		movs	r0, #10
 1516 01c2 FFF7FEFF 		bl	Pv_EINK_SendData
 1517              	.LVL139:
 811:eInk Library/pervasive_eink_hardware_driver.c ****                              PV_EINK_DATA_LINE_SIZE);
 812:eInk Library/pervasive_eink_hardware_driver.c ****             /* Turn on Output Enable to latch the frame */
 813:eInk Library/pervasive_eink_hardware_driver.c ****             Pv_EINK_SendByte(PV_EINK_ENABLE_OE_COMMAND_INDEX,
 1518              		.loc 1 813 0 discriminator 3
 1519 01c6 0721     		movs	r1, #7
 1520 01c8 0220     		movs	r0, #2
 1521 01ca FFF7FEFF 		bl	Pv_EINK_SendByte
 1522              	.LVL140:
 814:eInk Library/pervasive_eink_hardware_driver.c ****                              PV_EINK_ENABLE_OE_COMMAND_DATA);
 815:eInk Library/pervasive_eink_hardware_driver.c ****             
 816:eInk Library/pervasive_eink_hardware_driver.c ****             /* Calculate the current line under scan */
 817:eInk Library/pervasive_eink_hardware_driver.c ****             scanlineNumber = PV_EINK_VERTICAL_SIZE - y;
ARM GAS  C:\Users\rober\AppData\Local\Temp\ccBlBMtt.s 			page 56


 818:eInk Library/pervasive_eink_hardware_driver.c ****             scanlineNumber--;
 1523              		.loc 1 818 0 discriminator 3
 1524 01ce C4F1AF03 		rsb	r3, r4, #175
 1525              	.LVL141:
 819:eInk Library/pervasive_eink_hardware_driver.c ****             
 820:eInk Library/pervasive_eink_hardware_driver.c ****             /* Re-initialize the scan line (extra step for partial update) */
 821:eInk Library/pervasive_eink_hardware_driver.c ****             bulkDriverPacket[y].lineDataBySize.scan[(scanlineNumber 
 822:eInk Library/pervasive_eink_hardware_driver.c ****                                                      >> PV_EINK_PIXEL_SIZE)]
 1526              		.loc 1 822 0 discriminator 3
 1527 01d2 43F38D03 		sbfx	r3, r3, #2, #14
 1528              	.LVL142:
 823:eInk Library/pervasive_eink_hardware_driver.c ****                                                      = PV_EINK_SCAN_BYTE_INIT;
 1529              		.loc 1 823 0 discriminator 3
 1530 01d6 2B44     		add	r3, r3, r5
 1531 01d8 0022     		movs	r2, #0
 1532 01da 83F82220 		strb	r2, [r3, #34]
 824:eInk Library/pervasive_eink_hardware_driver.c **** 
 825:eInk Library/pervasive_eink_hardware_driver.c ****             Pv_EINK_SendData(PV_EINK_PIXEL_DATA_COMMAND_INDEX,
 1533              		.loc 1 825 0 discriminator 3
 1534 01de 6F22     		movs	r2, #111
 1535 01e0 2946     		mov	r1, r5
 1536 01e2 0A20     		movs	r0, #10
 1537 01e4 FFF7FEFF 		bl	Pv_EINK_SendData
 1538              	.LVL143:
 826:eInk Library/pervasive_eink_hardware_driver.c ****                             (uint8_t*) &bulkDriverPacket[y].lineBuffer,
 827:eInk Library/pervasive_eink_hardware_driver.c ****                              PV_EINK_DATA_LINE_SIZE);
 828:eInk Library/pervasive_eink_hardware_driver.c ****             Pv_EINK_SendByte(PV_EINK_ENABLE_OE_COMMAND_INDEX,
 1539              		.loc 1 828 0 discriminator 3
 1540 01e8 0721     		movs	r1, #7
 1541 01ea 0220     		movs	r0, #2
 1542 01ec FFF7FEFF 		bl	Pv_EINK_SendByte
 1543              	.LVL144:
 806:eInk Library/pervasive_eink_hardware_driver.c ****         {
 1544              		.loc 1 806 0 discriminator 3
 1545 01f0 0134     		adds	r4, r4, #1
 1546              	.LVL145:
 1547 01f2 A4B2     		uxth	r4, r4
 1548              	.LVL146:
 1549              	.L143:
 806:eInk Library/pervasive_eink_hardware_driver.c ****         {
 1550              		.loc 1 806 0 is_stmt 0 discriminator 1
 1551 01f4 AF2C     		cmp	r4, #175
 1552 01f6 DBD9     		bls	.L144
 829:eInk Library/pervasive_eink_hardware_driver.c ****                              PV_EINK_ENABLE_OE_COMMAND_DATA);
 830:eInk Library/pervasive_eink_hardware_driver.c ****         }
 831:eInk Library/pervasive_eink_hardware_driver.c ****     }
 832:eInk Library/pervasive_eink_hardware_driver.c ****     /* Loop until the total time of frames exceed stage time */
 833:eInk Library/pervasive_eink_hardware_driver.c ****     while (partialUpdateTime > Cy_EINK_GetTimeTick());
 1553              		.loc 1 833 0 is_stmt 1
 1554 01f8 074B     		ldr	r3, .L163
 1555 01fa B3F87E40 		ldrh	r4, [r3, #126]
 1556              	.LVL147:
 1557 01fe FFF7FEFF 		bl	Cy_EINK_GetTimeTick
 1558              	.LVL148:
 1559 0202 8442     		cmp	r4, r0
 1560 0204 D2D8     		bhi	.L145
 834:eInk Library/pervasive_eink_hardware_driver.c ****     
ARM GAS  C:\Users\rober\AppData\Local\Temp\ccBlBMtt.s 			page 57


 835:eInk Library/pervasive_eink_hardware_driver.c ****     /* Stop system timer */
 836:eInk Library/pervasive_eink_hardware_driver.c ****     Cy_EINK_TimerStop();
 1561              		.loc 1 836 0
 1562 0206 FFF7FEFF 		bl	Cy_EINK_TimerStop
 1563              	.LVL149:
 837:eInk Library/pervasive_eink_hardware_driver.c ****     
 838:eInk Library/pervasive_eink_hardware_driver.c ****     /* Re-adjust Vcom level */
 839:eInk Library/pervasive_eink_hardware_driver.c ****     Pv_EINK_SendByte(PV_EINK_VCOM1_LEVEL_COMMAND_INDEX, 
 1564              		.loc 1 839 0
 1565 020a C221     		movs	r1, #194
 1566 020c 0920     		movs	r0, #9
 1567 020e FFF7FEFF 		bl	Pv_EINK_SendByte
 1568              	.LVL150:
 1569 0212 BDE8F087 		pop	{r4, r5, r6, r7, r8, r9, r10, pc}
 1570              	.LVL151:
 1571              	.L164:
 1572 0216 00BF     		.align	2
 1573              	.L163:
 1574 0218 00000000 		.word	.LANCHOR0
 1575 021c 03000080 		.word	-2147483645
 1576 0220 00000000 		.word	.LANCHOR1
 1577 0224 00000000 		.word	bulkDriverPacket
 1578              		.cfi_endproc
 1579              	.LFE610:
 1580              		.size	Pv_EINK_PartialStageHandler, .-Pv_EINK_PartialStageHandler
 1581              		.section	.text.Pv_EINK_NothingFrame,"ax",%progbits
 1582              		.align	2
 1583              		.global	Pv_EINK_NothingFrame
 1584              		.thumb
 1585              		.thumb_func
 1586              		.type	Pv_EINK_NothingFrame, %function
 1587              	Pv_EINK_NothingFrame:
 1588              	.LFB611:
 840:eInk Library/pervasive_eink_hardware_driver.c ****                      PV_EINK_VCOM1_LEVEL_COMMAND_DATA);
 841:eInk Library/pervasive_eink_hardware_driver.c **** }
 842:eInk Library/pervasive_eink_hardware_driver.c **** 
 843:eInk Library/pervasive_eink_hardware_driver.c **** /*******************************************************************************
 844:eInk Library/pervasive_eink_hardware_driver.c **** * Function Name:  void Pv_EINK_NothingFrame(void)
 845:eInk Library/pervasive_eink_hardware_driver.c **** ********************************************************************************
 846:eInk Library/pervasive_eink_hardware_driver.c **** *
 847:eInk Library/pervasive_eink_hardware_driver.c **** * Summary: Write a "Nothing Frame" to driver. For a "Nothing Frame",
 848:eInk Library/pervasive_eink_hardware_driver.c **** * all pixel data D(x,y) are "01".
 849:eInk Library/pervasive_eink_hardware_driver.c **** * For more details, please refer to the driver G2 document Section 6.
 850:eInk Library/pervasive_eink_hardware_driver.c **** *
 851:eInk Library/pervasive_eink_hardware_driver.c **** * Parameters:
 852:eInk Library/pervasive_eink_hardware_driver.c **** *  None
 853:eInk Library/pervasive_eink_hardware_driver.c **** *
 854:eInk Library/pervasive_eink_hardware_driver.c **** * Return:
 855:eInk Library/pervasive_eink_hardware_driver.c **** *  None
 856:eInk Library/pervasive_eink_hardware_driver.c **** *
 857:eInk Library/pervasive_eink_hardware_driver.c **** * Side Effects:
 858:eInk Library/pervasive_eink_hardware_driver.c **** *  None
 859:eInk Library/pervasive_eink_hardware_driver.c **** *******************************************************************************/
 860:eInk Library/pervasive_eink_hardware_driver.c **** void Pv_EINK_NothingFrame(void)
 861:eInk Library/pervasive_eink_hardware_driver.c **** {
 1589              		.loc 1 861 0
 1590              		.cfi_startproc
ARM GAS  C:\Users\rober\AppData\Local\Temp\ccBlBMtt.s 			page 58


 1591              		@ args = 0, pretend = 0, frame = 0
 1592              		@ frame_needed = 0, uses_anonymous_args = 0
 1593              	.LVL152:
 862:eInk Library/pervasive_eink_hardware_driver.c ****     /* Counter variable for data line bytes */
 863:eInk Library/pervasive_eink_hardware_driver.c ****     uint16_t    byteCounter;
 864:eInk Library/pervasive_eink_hardware_driver.c ****     
 865:eInk Library/pervasive_eink_hardware_driver.c ****     /* Set all Even and Odd data bytes as "Nothing" bytes */
 866:eInk Library/pervasive_eink_hardware_driver.c ****     for (byteCounter = 0; byteCounter < PV_EINK_HORIZONTAL_SIZE; byteCounter++)
 1594              		.loc 1 866 0
 1595 0000 0023     		movs	r3, #0
 1596 0002 07E0     		b	.L166
 1597              	.LVL153:
 1598              	.L167:
 867:eInk Library/pervasive_eink_hardware_driver.c ****     {
 868:eInk Library/pervasive_eink_hardware_driver.c ****         dataLineEven[byteCounter] = PV_EINK_NOTHING;
 1599              		.loc 1 868 0 discriminator 3
 1600 0004 1349     		ldr	r1, .L171
 1601 0006 086F     		ldr	r0, [r1, #112]
 1602 0008 5522     		movs	r2, #85
 1603 000a C254     		strb	r2, [r0, r3]
 869:eInk Library/pervasive_eink_hardware_driver.c ****         dataLineOdd[byteCounter] = PV_EINK_NOTHING;
 1604              		.loc 1 869 0 discriminator 3
 1605 000c 496F     		ldr	r1, [r1, #116]
 1606 000e CA54     		strb	r2, [r1, r3]
 866:eInk Library/pervasive_eink_hardware_driver.c ****     {
 1607              		.loc 1 866 0 discriminator 3
 1608 0010 0133     		adds	r3, r3, #1
 1609              	.LVL154:
 1610 0012 9BB2     		uxth	r3, r3
 1611              	.LVL155:
 1612              	.L166:
 866:eInk Library/pervasive_eink_hardware_driver.c ****     {
 1613              		.loc 1 866 0 is_stmt 0 discriminator 1
 1614 0014 202B     		cmp	r3, #32
 1615 0016 F5D9     		bls	.L167
 861:eInk Library/pervasive_eink_hardware_driver.c ****     /* Counter variable for data line bytes */
 1616              		.loc 1 861 0 is_stmt 1
 1617 0018 70B5     		push	{r4, r5, r6, lr}
 1618              		.cfi_def_cfa_offset 16
 1619              		.cfi_offset 4, -16
 1620              		.cfi_offset 5, -12
 1621              		.cfi_offset 6, -8
 1622              		.cfi_offset 14, -4
 1623 001a 0024     		movs	r4, #0
 1624 001c 16E0     		b	.L168
 1625              	.LVL156:
 1626              	.L169:
 870:eInk Library/pervasive_eink_hardware_driver.c ****     }
 871:eInk Library/pervasive_eink_hardware_driver.c ****     /* Send the same horizontal data for all vertical lines */
 872:eInk Library/pervasive_eink_hardware_driver.c ****     for (byteCounter = 0; byteCounter < PV_EINK_VERTICAL_SIZE; byteCounter++)
 873:eInk Library/pervasive_eink_hardware_driver.c ****     {
 874:eInk Library/pervasive_eink_hardware_driver.c ****         /* Scan byte shift per data line */
 875:eInk Library/pervasive_eink_hardware_driver.c ****         dataLineScan[(byteCounter >> PV_EINK_PIXEL_SIZE)] = scanTable
 1627              		.loc 1 875 0 discriminator 3
 1628 001e A608     		lsrs	r6, r4, #2
 1629 0020 0C4D     		ldr	r5, .L171
 1630 0022 AA6F     		ldr	r2, [r5, #120]
ARM GAS  C:\Users\rober\AppData\Local\Temp\ccBlBMtt.s 			page 59


 876:eInk Library/pervasive_eink_hardware_driver.c ****                             [(byteCounter % PV_EINK_SCAN_TABLE_SIZE)];
 1631              		.loc 1 876 0 discriminator 3
 1632 0024 04F00303 		and	r3, r4, #3
 1633 0028 0B49     		ldr	r1, .L171+4
 1634 002a 0B44     		add	r3, r3, r1
 1635 002c 1B7A     		ldrb	r3, [r3, #8]	@ zero_extendqisi2
 875:eInk Library/pervasive_eink_hardware_driver.c ****                             [(byteCounter % PV_EINK_SCAN_TABLE_SIZE)];
 1636              		.loc 1 875 0 discriminator 3
 1637 002e 9355     		strb	r3, [r2, r6]
 877:eInk Library/pervasive_eink_hardware_driver.c ****         
 878:eInk Library/pervasive_eink_hardware_driver.c ****         /* Send the prepared data to the E-INK display */
 879:eInk Library/pervasive_eink_hardware_driver.c ****         Pv_EINK_SendData(PV_EINK_PIXEL_DATA_COMMAND_INDEX,
 1638              		.loc 1 879 0 discriminator 3
 1639 0030 6F22     		movs	r2, #111
 1640 0032 2946     		mov	r1, r5
 1641 0034 0A20     		movs	r0, #10
 1642 0036 FFF7FEFF 		bl	Pv_EINK_SendData
 1643              	.LVL157:
 880:eInk Library/pervasive_eink_hardware_driver.c ****                         (uint8_t*) &driverPacket.lineBuffer,
 881:eInk Library/pervasive_eink_hardware_driver.c ****                          PV_EINK_DATA_LINE_SIZE);
 882:eInk Library/pervasive_eink_hardware_driver.c ****         /* Turn on Output Enable to latch the frame */
 883:eInk Library/pervasive_eink_hardware_driver.c ****         Pv_EINK_SendByte(PV_EINK_ENABLE_OE_COMMAND_INDEX, 
 1644              		.loc 1 883 0 discriminator 3
 1645 003a 0721     		movs	r1, #7
 1646 003c 0220     		movs	r0, #2
 1647 003e FFF7FEFF 		bl	Pv_EINK_SendByte
 1648              	.LVL158:
 884:eInk Library/pervasive_eink_hardware_driver.c ****                          PV_EINK_ENABLE_OE_COMMAND_DATA);
 885:eInk Library/pervasive_eink_hardware_driver.c ****         
 886:eInk Library/pervasive_eink_hardware_driver.c ****         /* Initialize the next scan byte */
 887:eInk Library/pervasive_eink_hardware_driver.c ****         dataLineScan[(byteCounter >> PV_EINK_PIXEL_SIZE)] = 0u;
 1649              		.loc 1 887 0 discriminator 3
 1650 0042 AB6F     		ldr	r3, [r5, #120]
 1651 0044 0022     		movs	r2, #0
 1652 0046 9A55     		strb	r2, [r3, r6]
 872:eInk Library/pervasive_eink_hardware_driver.c ****     {
 1653              		.loc 1 872 0 discriminator 3
 1654 0048 0134     		adds	r4, r4, #1
 1655              	.LVL159:
 1656 004a A4B2     		uxth	r4, r4
 1657              	.LVL160:
 1658              	.L168:
 872:eInk Library/pervasive_eink_hardware_driver.c ****     {
 1659              		.loc 1 872 0 is_stmt 0 discriminator 1
 1660 004c AF2C     		cmp	r4, #175
 1661 004e E6D9     		bls	.L169
 888:eInk Library/pervasive_eink_hardware_driver.c ****     }
 889:eInk Library/pervasive_eink_hardware_driver.c **** }
 1662              		.loc 1 889 0 is_stmt 1
 1663 0050 70BD     		pop	{r4, r5, r6, pc}
 1664              	.LVL161:
 1665              	.L172:
 1666 0052 00BF     		.align	2
 1667              	.L171:
 1668 0054 00000000 		.word	.LANCHOR0
 1669 0058 00000000 		.word	.LANCHOR1
 1670              		.cfi_endproc
ARM GAS  C:\Users\rober\AppData\Local\Temp\ccBlBMtt.s 			page 60


 1671              	.LFE611:
 1672              		.size	Pv_EINK_NothingFrame, .-Pv_EINK_NothingFrame
 1673              		.section	.text.Pv_EINK_DummyLine,"ax",%progbits
 1674              		.align	2
 1675              		.global	Pv_EINK_DummyLine
 1676              		.thumb
 1677              		.thumb_func
 1678              		.type	Pv_EINK_DummyLine, %function
 1679              	Pv_EINK_DummyLine:
 1680              	.LFB612:
 890:eInk Library/pervasive_eink_hardware_driver.c **** 
 891:eInk Library/pervasive_eink_hardware_driver.c **** /*******************************************************************************
 892:eInk Library/pervasive_eink_hardware_driver.c **** * Function Name:  void Pv_EINK_DummyLine(void)
 893:eInk Library/pervasive_eink_hardware_driver.c **** ********************************************************************************
 894:eInk Library/pervasive_eink_hardware_driver.c **** *
 895:eInk Library/pervasive_eink_hardware_driver.c **** * Summary: Write a "Dummy Line" to driver. For a "Dummy Line" , all pixel data
 896:eInk Library/pervasive_eink_hardware_driver.c **** * are "00". For more details, please refer to the driver G2 document Section 6.
 897:eInk Library/pervasive_eink_hardware_driver.c **** *
 898:eInk Library/pervasive_eink_hardware_driver.c **** * Parameters:
 899:eInk Library/pervasive_eink_hardware_driver.c **** *  None
 900:eInk Library/pervasive_eink_hardware_driver.c **** *
 901:eInk Library/pervasive_eink_hardware_driver.c **** * Return:
 902:eInk Library/pervasive_eink_hardware_driver.c **** *  None
 903:eInk Library/pervasive_eink_hardware_driver.c **** *
 904:eInk Library/pervasive_eink_hardware_driver.c **** * Side Effects:
 905:eInk Library/pervasive_eink_hardware_driver.c **** *  None
 906:eInk Library/pervasive_eink_hardware_driver.c **** *******************************************************************************/
 907:eInk Library/pervasive_eink_hardware_driver.c **** void Pv_EINK_DummyLine(void)
 908:eInk Library/pervasive_eink_hardware_driver.c **** {
 1681              		.loc 1 908 0
 1682              		.cfi_startproc
 1683              		@ args = 0, pretend = 0, frame = 0
 1684              		@ frame_needed = 0, uses_anonymous_args = 0
 1685 0000 08B5     		push	{r3, lr}
 1686              		.cfi_def_cfa_offset 8
 1687              		.cfi_offset 3, -8
 1688              		.cfi_offset 14, -4
 1689              	.LVL162:
 909:eInk Library/pervasive_eink_hardware_driver.c ****     /* Counter variable for data line bytes */
 910:eInk Library/pervasive_eink_hardware_driver.c ****     uint8_t byteCounter;
 911:eInk Library/pervasive_eink_hardware_driver.c ****     
 912:eInk Library/pervasive_eink_hardware_driver.c ****     /* Create a data line containing dummy bytes */
 913:eInk Library/pervasive_eink_hardware_driver.c ****     for (byteCounter = 0; byteCounter < (PV_EINK_VERTICAL_SIZE 
 1690              		.loc 1 913 0
 1691 0002 0023     		movs	r3, #0
 1692 0004 04E0     		b	.L174
 1693              	.LVL163:
 1694              	.L175:
 914:eInk Library/pervasive_eink_hardware_driver.c ****                                         / CY_EINK_BYTE_SIZE);
 915:eInk Library/pervasive_eink_hardware_driver.c ****          byteCounter++)
 916:eInk Library/pervasive_eink_hardware_driver.c ****     {
 917:eInk Library/pervasive_eink_hardware_driver.c ****         driverPacket.lineBuffer[byteCounter] = PV_EINK_DUMMY_BYTE;
 1695              		.loc 1 917 0
 1696 0006 0021     		movs	r1, #0
 1697 0008 094A     		ldr	r2, .L177
 1698 000a D154     		strb	r1, [r2, r3]
 915:eInk Library/pervasive_eink_hardware_driver.c ****     {
ARM GAS  C:\Users\rober\AppData\Local\Temp\ccBlBMtt.s 			page 61


 1699              		.loc 1 915 0
 1700 000c 0133     		adds	r3, r3, #1
 1701              	.LVL164:
 1702 000e DBB2     		uxtb	r3, r3
 1703              	.LVL165:
 1704              	.L174:
 913:eInk Library/pervasive_eink_hardware_driver.c ****                                         / CY_EINK_BYTE_SIZE);
 1705              		.loc 1 913 0 discriminator 1
 1706 0010 152B     		cmp	r3, #21
 1707 0012 F8D9     		bls	.L175
 918:eInk Library/pervasive_eink_hardware_driver.c ****     }
 919:eInk Library/pervasive_eink_hardware_driver.c ****     
 920:eInk Library/pervasive_eink_hardware_driver.c ****     /* Set charge pump voltage level to reduce voltage shift */
 921:eInk Library/pervasive_eink_hardware_driver.c ****     Pv_EINK_SendByte(PV_EINK_PWR2_SETTING_COMMAND_INDEX, 
 1708              		.loc 1 921 0
 1709 0014 0021     		movs	r1, #0
 1710 0016 0420     		movs	r0, #4
 1711 0018 FFF7FEFF 		bl	Pv_EINK_SendByte
 1712              	.LVL166:
 922:eInk Library/pervasive_eink_hardware_driver.c ****                      PV_EINK_VOLTAGE_LEVEL);
 923:eInk Library/pervasive_eink_hardware_driver.c ****     /* Send the prepared data to the E-INK display */
 924:eInk Library/pervasive_eink_hardware_driver.c ****     Pv_EINK_SendData(PV_EINK_PIXEL_DATA_COMMAND_INDEX,
 1713              		.loc 1 924 0
 1714 001c 6F22     		movs	r2, #111
 1715 001e 0449     		ldr	r1, .L177
 1716 0020 0A20     		movs	r0, #10
 1717 0022 FFF7FEFF 		bl	Pv_EINK_SendData
 1718              	.LVL167:
 925:eInk Library/pervasive_eink_hardware_driver.c ****                     (uint8_t*) &driverPacket.lineBuffer, 
 926:eInk Library/pervasive_eink_hardware_driver.c ****                      PV_EINK_DATA_LINE_SIZE);
 927:eInk Library/pervasive_eink_hardware_driver.c ****     /* Turn on Output Enable to latch the frame */
 928:eInk Library/pervasive_eink_hardware_driver.c ****     Pv_EINK_SendByte(PV_EINK_ENABLE_OE_COMMAND_INDEX, 
 1719              		.loc 1 928 0
 1720 0026 0721     		movs	r1, #7
 1721 0028 0220     		movs	r0, #2
 1722 002a FFF7FEFF 		bl	Pv_EINK_SendByte
 1723              	.LVL168:
 1724 002e 08BD     		pop	{r3, pc}
 1725              	.L178:
 1726              		.align	2
 1727              	.L177:
 1728 0030 00000000 		.word	.LANCHOR0
 1729              		.cfi_endproc
 1730              	.LFE612:
 1731              		.size	Pv_EINK_DummyLine, .-Pv_EINK_DummyLine
 1732              		.section	.text.Pv_EINK_HardwarePowerOn,"ax",%progbits
 1733              		.align	2
 1734              		.global	Pv_EINK_HardwarePowerOn
 1735              		.thumb
 1736              		.thumb_func
 1737              		.type	Pv_EINK_HardwarePowerOn, %function
 1738              	Pv_EINK_HardwarePowerOn:
 1739              	.LFB613:
 929:eInk Library/pervasive_eink_hardware_driver.c ****                      PV_EINK_ENABLE_OE_COMMAND_DATA);
 930:eInk Library/pervasive_eink_hardware_driver.c **** }
 931:eInk Library/pervasive_eink_hardware_driver.c **** 
 932:eInk Library/pervasive_eink_hardware_driver.c **** /*******************************************************************************
ARM GAS  C:\Users\rober\AppData\Local\Temp\ccBlBMtt.s 			page 62


 933:eInk Library/pervasive_eink_hardware_driver.c **** * Function Name: pv_eink_status_t Pv_EINK_HardwarePowerOn()
 934:eInk Library/pervasive_eink_hardware_driver.c **** ********************************************************************************
 935:eInk Library/pervasive_eink_hardware_driver.c **** *
 936:eInk Library/pervasive_eink_hardware_driver.c **** * Summary: Power on E-INK Driver. For detailed flow and description, please refer
 937:eInk Library/pervasive_eink_hardware_driver.c **** * to the driver G2 document Section 3.
 938:eInk Library/pervasive_eink_hardware_driver.c **** *
 939:eInk Library/pervasive_eink_hardware_driver.c **** * Parameters:
 940:eInk Library/pervasive_eink_hardware_driver.c **** *  None
 941:eInk Library/pervasive_eink_hardware_driver.c **** *
 942:eInk Library/pervasive_eink_hardware_driver.c **** * Return:
 943:eInk Library/pervasive_eink_hardware_driver.c **** *  pv_eink_status_t: Status of the power on operation
 944:eInk Library/pervasive_eink_hardware_driver.c **** *
 945:eInk Library/pervasive_eink_hardware_driver.c **** * Side Effects:
 946:eInk Library/pervasive_eink_hardware_driver.c **** *  None
 947:eInk Library/pervasive_eink_hardware_driver.c **** *******************************************************************************/
 948:eInk Library/pervasive_eink_hardware_driver.c **** pv_eink_status_t Pv_EINK_HardwarePowerOn(void)
 949:eInk Library/pervasive_eink_hardware_driver.c **** {
 1740              		.loc 1 949 0
 1741              		.cfi_startproc
 1742              		@ args = 0, pretend = 0, frame = 0
 1743              		@ frame_needed = 0, uses_anonymous_args = 0
 1744 0000 38B5     		push	{r3, r4, r5, lr}
 1745              		.cfi_def_cfa_offset 16
 1746              		.cfi_offset 3, -16
 1747              		.cfi_offset 4, -12
 1748              		.cfi_offset 5, -8
 1749              		.cfi_offset 14, -4
 1750              	.LVL169:
 1751              	.LBB86:
 1752              	.LBB87:
 1753              		.loc 2 753 0
 1754 0002 0E4C     		ldr	r4, .L181
 1755 0004 1023     		movs	r3, #16
 1756 0006 A360     		str	r3, [r4, #8]
 1757              	.LVL170:
 1758              	.LBE87:
 1759              	.LBE86:
 950:eInk Library/pervasive_eink_hardware_driver.c ****     /* Enable the load switch connected to E-INK display's Vcc, and wait till
 951:eInk Library/pervasive_eink_hardware_driver.c ****     the voltage ramps up to the level required for proper operation of E-INK */
 952:eInk Library/pervasive_eink_hardware_driver.c ****     CY_EINK_TurnOnVcc;
 953:eInk Library/pervasive_eink_hardware_driver.c ****     CY_EINK_Delay(PV_EINK_PWR_DELAY);
 1760              		.loc 1 953 0
 1761 0008 1420     		movs	r0, #20
 1762 000a FFF7FEFF 		bl	Cy_SysLib_Delay
 1763              	.LVL171:
 954:eInk Library/pervasive_eink_hardware_driver.c ****     
 955:eInk Library/pervasive_eink_hardware_driver.c ****     /* Attach PSoC's SPI hardware to E-INK driver */
 956:eInk Library/pervasive_eink_hardware_driver.c ****     Cy_EINK_AttachSPI();
 1764              		.loc 1 956 0
 1765 000e FFF7FEFF 		bl	Cy_EINK_AttachSPI
 1766              	.LVL172:
 1767              	.LBB88:
 1768              	.LBB89:
 1769              		.loc 2 753 0
 1770 0012 0822     		movs	r2, #8
 1771 0014 0A4B     		ldr	r3, .L181+4
 1772 0016 9A60     		str	r2, [r3, #8]
ARM GAS  C:\Users\rober\AppData\Local\Temp\ccBlBMtt.s 			page 63


 1773              	.LVL173:
 1774              	.LBE89:
 1775              	.LBE88:
 1776              	.LBB90:
 1777              	.LBB91:
 1778 0018 4023     		movs	r3, #64
 1779 001a A360     		str	r3, [r4, #8]
 1780              	.LVL174:
 1781              	.LBE91:
 1782              	.LBE90:
 1783              	.LBB92:
 1784              	.LBB93:
 1785 001c 0425     		movs	r5, #4
 1786 001e A560     		str	r5, [r4, #8]
 1787              	.LVL175:
 1788              	.LBE93:
 1789              	.LBE92:
 957:eInk Library/pervasive_eink_hardware_driver.c ****     /* Push the chip select, and border pins to HIGH */
 958:eInk Library/pervasive_eink_hardware_driver.c ****     CY_EINK_CsHigh;
 959:eInk Library/pervasive_eink_hardware_driver.c ****     CY_EINK_BorderHigh;
 960:eInk Library/pervasive_eink_hardware_driver.c ****     
 961:eInk Library/pervasive_eink_hardware_driver.c ****     /* Create two pulses on the reset line to properly reset the E-INK driver */
 962:eInk Library/pervasive_eink_hardware_driver.c ****     CY_EINK_RstHigh;
 963:eInk Library/pervasive_eink_hardware_driver.c ****     CY_EINK_Delay(PV_EINK_PIN_DELAY);
 1790              		.loc 1 963 0
 1791 0020 0A20     		movs	r0, #10
 1792 0022 FFF7FEFF 		bl	Cy_SysLib_Delay
 1793              	.LVL176:
 1794              	.LBB94:
 1795              	.LBB95:
 749:Generated_Source\PSoC6\pdl\drivers/peripheral/gpio/cy_gpio.h ****     }
 1796              		.loc 2 749 0
 1797 0026 6560     		str	r5, [r4, #4]
 1798              	.LVL177:
 1799              	.LBE95:
 1800              	.LBE94:
 964:eInk Library/pervasive_eink_hardware_driver.c ****     CY_EINK_RstLow;
 965:eInk Library/pervasive_eink_hardware_driver.c ****     CY_EINK_Delay(PV_EINK_PIN_DELAY);
 1801              		.loc 1 965 0
 1802 0028 0A20     		movs	r0, #10
 1803 002a FFF7FEFF 		bl	Cy_SysLib_Delay
 1804              	.LVL178:
 1805              	.LBB96:
 1806              	.LBB97:
 1807              		.loc 2 753 0
 1808 002e A560     		str	r5, [r4, #8]
 1809              	.LVL179:
 1810              	.LBE97:
 1811              	.LBE96:
 966:eInk Library/pervasive_eink_hardware_driver.c ****     CY_EINK_RstHigh;
 967:eInk Library/pervasive_eink_hardware_driver.c ****     CY_EINK_Delay(PV_EINK_PIN_DELAY);
 1812              		.loc 1 967 0
 1813 0030 0A20     		movs	r0, #10
 1814 0032 FFF7FEFF 		bl	Cy_SysLib_Delay
 1815              	.LVL180:
 968:eInk Library/pervasive_eink_hardware_driver.c ****     
 969:eInk Library/pervasive_eink_hardware_driver.c ****     /* Initialize E-INK Driver */
ARM GAS  C:\Users\rober\AppData\Local\Temp\ccBlBMtt.s 			page 64


 970:eInk Library/pervasive_eink_hardware_driver.c ****     return(Pv_EINK_InitDriver());
 1816              		.loc 1 970 0
 1817 0036 FFF7FEFF 		bl	Pv_EINK_InitDriver
 1818              	.LVL181:
 971:eInk Library/pervasive_eink_hardware_driver.c **** }
 1819              		.loc 1 971 0
 1820 003a 38BD     		pop	{r3, r4, r5, pc}
 1821              	.L182:
 1822              		.align	2
 1823              	.L181:
 1824 003c 80023240 		.word	1077019264
 1825 0040 00063240 		.word	1077020160
 1826              		.cfi_endproc
 1827              	.LFE613:
 1828              		.size	Pv_EINK_HardwarePowerOn, .-Pv_EINK_HardwarePowerOn
 1829              		.section	.text.Pv_EINK_HardwarePowerOff,"ax",%progbits
 1830              		.align	2
 1831              		.global	Pv_EINK_HardwarePowerOff
 1832              		.thumb
 1833              		.thumb_func
 1834              		.type	Pv_EINK_HardwarePowerOff, %function
 1835              	Pv_EINK_HardwarePowerOff:
 1836              	.LFB614:
 972:eInk Library/pervasive_eink_hardware_driver.c **** 
 973:eInk Library/pervasive_eink_hardware_driver.c **** /*******************************************************************************
 974:eInk Library/pervasive_eink_hardware_driver.c **** * Function Name:  pv_eink_status_t Pv_EINK_HardwarePowerOff(void)
 975:eInk Library/pervasive_eink_hardware_driver.c **** ********************************************************************************
 976:eInk Library/pervasive_eink_hardware_driver.c **** *
 977:eInk Library/pervasive_eink_hardware_driver.c **** * Summary: Safely power off the E-INK display. For detailed flow and description,
 978:eInk Library/pervasive_eink_hardware_driver.c **** * please refer to the driver G2 document Section 6.
 979:eInk Library/pervasive_eink_hardware_driver.c **** *
 980:eInk Library/pervasive_eink_hardware_driver.c **** * Parameters:
 981:eInk Library/pervasive_eink_hardware_driver.c **** *  None
 982:eInk Library/pervasive_eink_hardware_driver.c **** *
 983:eInk Library/pervasive_eink_hardware_driver.c **** * Return:
 984:eInk Library/pervasive_eink_hardware_driver.c **** *  pv_eink_status_t : Status of the power off operation
 985:eInk Library/pervasive_eink_hardware_driver.c **** *
 986:eInk Library/pervasive_eink_hardware_driver.c **** * Side Effects:
 987:eInk Library/pervasive_eink_hardware_driver.c **** *  None
 988:eInk Library/pervasive_eink_hardware_driver.c **** *******************************************************************************/
 989:eInk Library/pervasive_eink_hardware_driver.c **** pv_eink_status_t Pv_EINK_HardwarePowerOff(void)
 990:eInk Library/pervasive_eink_hardware_driver.c **** {
 1837              		.loc 1 990 0
 1838              		.cfi_startproc
 1839              		@ args = 0, pretend = 0, frame = 0
 1840              		@ frame_needed = 0, uses_anonymous_args = 0
 1841 0000 38B5     		push	{r3, r4, r5, lr}
 1842              		.cfi_def_cfa_offset 16
 1843              		.cfi_offset 3, -16
 1844              		.cfi_offset 4, -12
 1845              		.cfi_offset 5, -8
 1846              		.cfi_offset 14, -4
 991:eInk Library/pervasive_eink_hardware_driver.c ****     /* Send a "Nothing Frame", followed by a "Dummy Line" to the E-INK driver */
 992:eInk Library/pervasive_eink_hardware_driver.c ****     Pv_EINK_NothingFrame();
 1847              		.loc 1 992 0
 1848 0002 FFF7FEFF 		bl	Pv_EINK_NothingFrame
 1849              	.LVL182:
ARM GAS  C:\Users\rober\AppData\Local\Temp\ccBlBMtt.s 			page 65


 993:eInk Library/pervasive_eink_hardware_driver.c ****     Pv_EINK_DummyLine();
 1850              		.loc 1 993 0
 1851 0006 FFF7FEFF 		bl	Pv_EINK_DummyLine
 1852              	.LVL183:
 994:eInk Library/pervasive_eink_hardware_driver.c ****     
 995:eInk Library/pervasive_eink_hardware_driver.c ****     /* After E-INK updates, the border color may degrade to a gray level that is not
 996:eInk Library/pervasive_eink_hardware_driver.c ****     as white as the active area. Toggle the Border pin to avoid this phenomenon. */
 997:eInk Library/pervasive_eink_hardware_driver.c ****     CY_EINK_Delay(PV_EINK_DUMMY_LINE_DELAY);
 1853              		.loc 1 997 0
 1854 000a 1E20     		movs	r0, #30
 1855 000c FFF7FEFF 		bl	Cy_SysLib_Delay
 1856              	.LVL184:
 1857              	.LBB98:
 1858              	.LBB99:
 749:Generated_Source\PSoC6\pdl\drivers/peripheral/gpio/cy_gpio.h ****     }
 1859              		.loc 2 749 0
 1860 0010 234C     		ldr	r4, .L187
 1861 0012 4025     		movs	r5, #64
 1862 0014 6560     		str	r5, [r4, #4]
 1863              	.LVL185:
 1864              	.LBE99:
 1865              	.LBE98:
 998:eInk Library/pervasive_eink_hardware_driver.c ****     CY_EINK_BorderLow;
 999:eInk Library/pervasive_eink_hardware_driver.c ****     CY_EINK_Delay(PV_EINK_BOARDER_DELAY);
 1866              		.loc 1 999 0
 1867 0016 3220     		movs	r0, #50
 1868 0018 FFF7FEFF 		bl	Cy_SysLib_Delay
 1869              	.LVL186:
 1870              	.LBB100:
 1871              	.LBB101:
 1872              		.loc 2 753 0
 1873 001c A560     		str	r5, [r4, #8]
 1874              	.LVL187:
 1875              	.LBE101:
 1876              	.LBE100:
1000:eInk Library/pervasive_eink_hardware_driver.c ****     CY_EINK_BorderHigh;
1001:eInk Library/pervasive_eink_hardware_driver.c ****     
1002:eInk Library/pervasive_eink_hardware_driver.c ****     /* Check DC level */
1003:eInk Library/pervasive_eink_hardware_driver.c ****     if ((Pv_EINK_ReadByte(PV_EINK_DC_LEVEL_READ_COMMAND_INDEX,
 1877              		.loc 1 1003 0
 1878 001e 0021     		movs	r1, #0
 1879 0020 0F20     		movs	r0, #15
 1880 0022 FFF7FEFF 		bl	Pv_EINK_ReadByte
 1881              	.LVL188:
 1882 0026 10F0400F 		tst	r0, #64
 1883 002a 36D0     		beq	.L185
1004:eInk Library/pervasive_eink_hardware_driver.c ****                        PV_EINK_DC_LEVEL_READ_COMMAND_DATA) & PV_EINK_DC_LEVEL_MASK
1005:eInk Library/pervasive_eink_hardware_driver.c ****         ) == PV_EINK_DC_LEVEL_CHECK)
1006:eInk Library/pervasive_eink_hardware_driver.c ****     {
1007:eInk Library/pervasive_eink_hardware_driver.c ****         /* Return error message for improper DC level */
1008:eInk Library/pervasive_eink_hardware_driver.c ****         return(PV_EINK_ERROR_DC);
1009:eInk Library/pervasive_eink_hardware_driver.c ****     }
1010:eInk Library/pervasive_eink_hardware_driver.c ****     
1011:eInk Library/pervasive_eink_hardware_driver.c ****     /* Power Saving */
1012:eInk Library/pervasive_eink_hardware_driver.c ****     Pv_EINK_SendByte(PV_EINK_PWR_SAVING_COMMAND_INDEX,
 1884              		.loc 1 1012 0
 1885 002c 0021     		movs	r1, #0
ARM GAS  C:\Users\rober\AppData\Local\Temp\ccBlBMtt.s 			page 66


 1886 002e 0B20     		movs	r0, #11
 1887 0030 FFF7FEFF 		bl	Pv_EINK_SendByte
 1888              	.LVL189:
1013:eInk Library/pervasive_eink_hardware_driver.c ****                      PV_EINK_PWR2_SAVING_COMMAND_DATA);
1014:eInk Library/pervasive_eink_hardware_driver.c ****     /* Turn on Latch Reset */
1015:eInk Library/pervasive_eink_hardware_driver.c ****     Pv_EINK_SendByte(PV_EINK_LATCH_ON_COMMAND_INDEX,
 1889              		.loc 1 1015 0
 1890 0034 0121     		movs	r1, #1
 1891 0036 0320     		movs	r0, #3
 1892 0038 FFF7FEFF 		bl	Pv_EINK_SendByte
 1893              	.LVL190:
1016:eInk Library/pervasive_eink_hardware_driver.c ****                      PV_EINK_LATCH_ON_COMMAND_DATA);
1017:eInk Library/pervasive_eink_hardware_driver.c ****     /* Power off charge pump Vcom */
1018:eInk Library/pervasive_eink_hardware_driver.c ****     Pv_EINK_SendByte(PV_EINK_VGL_VDL_ON_COMMAND_INDEX,
 1894              		.loc 1 1018 0
 1895 003c 0321     		movs	r1, #3
 1896 003e 0520     		movs	r0, #5
 1897 0040 FFF7FEFF 		bl	Pv_EINK_SendByte
 1898              	.LVL191:
1019:eInk Library/pervasive_eink_hardware_driver.c ****                      PV_EINK_VGL_VDL_ON_COMMAND_DATA);
1020:eInk Library/pervasive_eink_hardware_driver.c ****     /* Power off charge pump negative voltage */
1021:eInk Library/pervasive_eink_hardware_driver.c ****     Pv_EINK_SendByte(PV_EINK_VGH_VDH_ON_COMMAND_INDEX,
 1899              		.loc 1 1021 0
 1900 0044 0121     		movs	r1, #1
 1901 0046 0520     		movs	r0, #5
 1902 0048 FFF7FEFF 		bl	Pv_EINK_SendByte
 1903              	.LVL192:
1022:eInk Library/pervasive_eink_hardware_driver.c ****                      PV_EINK_VGH_VDH_ON_COMMAND_DATA);
1023:eInk Library/pervasive_eink_hardware_driver.c ****     
1024:eInk Library/pervasive_eink_hardware_driver.c ****     CY_EINK_Delay(PV_EINK_DISCH_SPI_DELAY);
 1904              		.loc 1 1024 0
 1905 004c 3220     		movs	r0, #50
 1906 004e FFF7FEFF 		bl	Cy_SysLib_Delay
 1907              	.LVL193:
1025:eInk Library/pervasive_eink_hardware_driver.c ****     /* Discharge internal SPI */
1026:eInk Library/pervasive_eink_hardware_driver.c ****     Pv_EINK_SendByte(PV_EINK_DISCH_SPI_COMMAND_INDEX, 
 1908              		.loc 1 1026 0
 1909 0052 8021     		movs	r1, #128
 1910 0054 0420     		movs	r0, #4
 1911 0056 FFF7FEFF 		bl	Pv_EINK_SendByte
 1912              	.LVL194:
1027:eInk Library/pervasive_eink_hardware_driver.c ****                      PV_EINK_DISCH_SPI_COMMAND_DATA);
1028:eInk Library/pervasive_eink_hardware_driver.c ****     /* Turn off all charge pump */
1029:eInk Library/pervasive_eink_hardware_driver.c ****     Pv_EINK_SendByte(PV_EINK_CH_PUMP_OFF_COMMAND_INDEX, 
 1913              		.loc 1 1029 0
 1914 005a 0021     		movs	r1, #0
 1915 005c 0520     		movs	r0, #5
 1916 005e FFF7FEFF 		bl	Pv_EINK_SendByte
 1917              	.LVL195:
1030:eInk Library/pervasive_eink_hardware_driver.c ****                      PV_EINK_CH_PUMP_OFF_COMMAND_DATA);
1031:eInk Library/pervasive_eink_hardware_driver.c ****     /* Turn off OSC */
1032:eInk Library/pervasive_eink_hardware_driver.c ****     Pv_EINK_SendByte(PV_EINK_OSC_OFF_COMMAND_INDEX, 
 1918              		.loc 1 1032 0
 1919 0062 0121     		movs	r1, #1
 1920 0064 0720     		movs	r0, #7
 1921 0066 FFF7FEFF 		bl	Pv_EINK_SendByte
 1922              	.LVL196:
ARM GAS  C:\Users\rober\AppData\Local\Temp\ccBlBMtt.s 			page 67


1033:eInk Library/pervasive_eink_hardware_driver.c ****                      PV_EINK_OSC_OFF_COMMAND_DATA);
1034:eInk Library/pervasive_eink_hardware_driver.c ****     CY_EINK_Delay(PV_EINK_PWR_OFF_DELAY);
 1923              		.loc 1 1034 0
 1924 006a 1E20     		movs	r0, #30
 1925 006c FFF7FEFF 		bl	Cy_SysLib_Delay
 1926              	.LVL197:
1035:eInk Library/pervasive_eink_hardware_driver.c ****     
1036:eInk Library/pervasive_eink_hardware_driver.c ****     /* Detach SPI and disable the load switch connected to E-INK display's Vcc */
1037:eInk Library/pervasive_eink_hardware_driver.c ****     Cy_EINK_DetachSPI();
 1927              		.loc 1 1037 0
 1928 0070 FFF7FEFF 		bl	Cy_EINK_DetachSPI
 1929              	.LVL198:
 1930              	.LBB102:
 1931              	.LBB103:
 749:Generated_Source\PSoC6\pdl\drivers/peripheral/gpio/cy_gpio.h ****     }
 1932              		.loc 2 749 0
 1933 0074 1023     		movs	r3, #16
 1934 0076 6360     		str	r3, [r4, #4]
 1935              	.LVL199:
 1936              	.LBE103:
 1937              	.LBE102:
 1938              	.LBB104:
 1939              	.LBB105:
 1940 0078 6560     		str	r5, [r4, #4]
 1941              	.LVL200:
 1942              	.LBE105:
 1943              	.LBE104:
1038:eInk Library/pervasive_eink_hardware_driver.c ****     CY_EINK_TurnOffVcc;
1039:eInk Library/pervasive_eink_hardware_driver.c ****     
1040:eInk Library/pervasive_eink_hardware_driver.c ****     /* Return the pins to their default (OFF) values*/
1041:eInk Library/pervasive_eink_hardware_driver.c ****     CY_EINK_BorderLow;
1042:eInk Library/pervasive_eink_hardware_driver.c ****     CY_EINK_Delay(PV_EINK_CS_OFF_DELAY);
 1944              		.loc 1 1042 0
 1945 007a 1420     		movs	r0, #20
 1946 007c FFF7FEFF 		bl	Cy_SysLib_Delay
 1947              	.LVL201:
 1948              	.LBB106:
 1949              	.LBB107:
 749:Generated_Source\PSoC6\pdl\drivers/peripheral/gpio/cy_gpio.h ****     }
 1950              		.loc 2 749 0
 1951 0080 0822     		movs	r2, #8
 1952 0082 084B     		ldr	r3, .L187+4
 1953 0084 5A60     		str	r2, [r3, #4]
 1954              	.LVL202:
 1955              	.LBE107:
 1956              	.LBE106:
 1957              	.LBB108:
 1958              	.LBB109:
 1959 0086 0423     		movs	r3, #4
 1960 0088 6360     		str	r3, [r4, #4]
 1961              	.LVL203:
 1962              	.LBE109:
 1963              	.LBE108:
 1964              	.LBB110:
 1965              	.LBB111:
 1966              		.loc 2 753 0
 1967 008a 2025     		movs	r5, #32
ARM GAS  C:\Users\rober\AppData\Local\Temp\ccBlBMtt.s 			page 68


 1968 008c A560     		str	r5, [r4, #8]
 1969              	.LVL204:
 1970              	.LBE111:
 1971              	.LBE110:
1043:eInk Library/pervasive_eink_hardware_driver.c ****     CY_EINK_CsLow;
1044:eInk Library/pervasive_eink_hardware_driver.c ****     CY_EINK_RstLow;
1045:eInk Library/pervasive_eink_hardware_driver.c ****     CY_EINK_DischargeHigh;
1046:eInk Library/pervasive_eink_hardware_driver.c ****     CY_EINK_Delay(PV_EINK_DETACH_DELAY);
 1972              		.loc 1 1046 0
 1973 008e 1E20     		movs	r0, #30
 1974 0090 FFF7FEFF 		bl	Cy_SysLib_Delay
 1975              	.LVL205:
 1976              	.LBB112:
 1977              	.LBB113:
 749:Generated_Source\PSoC6\pdl\drivers/peripheral/gpio/cy_gpio.h ****     }
 1978              		.loc 2 749 0
 1979 0094 6560     		str	r5, [r4, #4]
 1980              	.LVL206:
 1981              	.LBE113:
 1982              	.LBE112:
1047:eInk Library/pervasive_eink_hardware_driver.c ****     CY_EINK_DischargeLow;
1048:eInk Library/pervasive_eink_hardware_driver.c ****     
1049:eInk Library/pervasive_eink_hardware_driver.c ****     /* If all operations were completed successfully, send the corresponding flag */
1050:eInk Library/pervasive_eink_hardware_driver.c ****     return(PV_EINK_RES_OK);
 1983              		.loc 1 1050 0
 1984 0096 0020     		movs	r0, #0
 1985 0098 38BD     		pop	{r3, r4, r5, pc}
 1986              	.L185:
1008:eInk Library/pervasive_eink_hardware_driver.c ****     }
 1987              		.loc 1 1008 0
 1988 009a 0420     		movs	r0, #4
1051:eInk Library/pervasive_eink_hardware_driver.c **** }
 1989              		.loc 1 1051 0
 1990 009c 38BD     		pop	{r3, r4, r5, pc}
 1991              	.L188:
 1992 009e 00BF     		.align	2
 1993              	.L187:
 1994 00a0 80023240 		.word	1077019264
 1995 00a4 00063240 		.word	1077020160
 1996              		.cfi_endproc
 1997              	.LFE614:
 1998              		.size	Pv_EINK_HardwarePowerOff, .-Pv_EINK_HardwarePowerOff
 1999              		.global	channelSelect
 2000              		.global	scanTable
 2001              		.comm	bulkDriverPacket,19536,4
 2002              		.section	.rodata
 2003              		.align	2
 2004              		.set	.LANCHOR1,. + 0
 2005              		.type	channelSelect, %object
 2006              		.size	channelSelect, 8
 2007              	channelSelect:
 2008 0000 00       		.byte	0
 2009 0001 00       		.byte	0
 2010 0002 00       		.byte	0
 2011 0003 7F       		.byte	127
 2012 0004 FF       		.byte	-1
 2013 0005 FE       		.byte	-2
ARM GAS  C:\Users\rober\AppData\Local\Temp\ccBlBMtt.s 			page 69


 2014 0006 00       		.byte	0
 2015 0007 00       		.byte	0
 2016              		.type	scanTable, %object
 2017              		.size	scanTable, 4
 2018              	scanTable:
 2019 0008 C0       		.byte	-64
 2020 0009 30       		.byte	48
 2021 000a 0C       		.byte	12
 2022 000b 03       		.byte	3
 2023              		.bss
 2024              		.align	2
 2025              		.set	.LANCHOR0,. + 0
 2026              		.type	driverPacket, %object
 2027              		.size	driverPacket, 111
 2028              	driverPacket:
 2029 0000 00000000 		.space	111
 2029      00000000 
 2029      00000000 
 2029      00000000 
 2029      00000000 
 2030 006f 00       		.space	1
 2031              		.type	dataLineEven, %object
 2032              		.size	dataLineEven, 4
 2033              	dataLineEven:
 2034 0070 00000000 		.space	4
 2035              		.type	dataLineOdd, %object
 2036              		.size	dataLineOdd, 4
 2037              	dataLineOdd:
 2038 0074 00000000 		.space	4
 2039              		.type	dataLineScan, %object
 2040              		.size	dataLineScan, 4
 2041              	dataLineScan:
 2042 0078 00000000 		.space	4
 2043              		.type	fullUpdateTime, %object
 2044              		.size	fullUpdateTime, 2
 2045              	fullUpdateTime:
 2046 007c 0000     		.space	2
 2047              		.type	partialUpdateTime, %object
 2048              		.size	partialUpdateTime, 2
 2049              	partialUpdateTime:
 2050 007e 0000     		.space	2
 2051              		.text
 2052              	.Letext0:
 2053              		.file 3 "c:\\program files (x86)\\cypress\\psoc creator\\4.4\\psoc creator\\import\\gnu\\arm\\5.4.
 2054              		.file 4 "c:\\program files (x86)\\cypress\\psoc creator\\4.4\\psoc creator\\import\\gnu\\arm\\5.4.
 2055              		.file 5 "Generated_Source\\PSoC6\\pdl\\devices/psoc6/ip/cyip_gpio.h"
 2056              		.file 6 "Generated_Source\\PSoC6\\pdl\\drivers/peripheral/syslib/cy_syslib.h"
 2057              		.file 7 "Generated_Source\\PSoC6\\pdl\\drivers/peripheral/tcpwm/cy_tcpwm_counter.h"
 2058              		.file 8 "Generated_Source\\PSoC6\\pdl\\drivers/peripheral/tcpwm/cy_tcpwm_pwm.h"
 2059              		.file 9 "Generated_Source\\PSoC6\\pdl\\drivers/peripheral/scb/cy_scb_spi.h"
 2060              		.file 10 "eInk Library\\pervasive_eink_hardware_driver.h"
 2061              		.file 11 "Generated_Source\\PSoC6\\pdl\\cmsis/include/core_cm4.h"
 2062              		.file 12 "Generated_Source\\PSoC6/CY_EINK_SPIM.h"
 2063              		.file 13 "Generated_Source\\PSoC6/CY_EINK_Timer.h"
 2064              		.file 14 "Generated_Source\\PSoC6/PWM.h"
 2065              		.file 15 "Generated_Source\\PSoC6/Timer.h"
 2066              		.file 16 "eInk Library\\cy_eink_psoc_interface.h"
ARM GAS  C:\Users\rober\AppData\Local\Temp\ccBlBMtt.s 			page 70


 2067              		.section	.debug_info,"",%progbits
 2068              	.Ldebug_info0:
 2069 0000 1F170000 		.4byte	0x171f
 2070 0004 0400     		.2byte	0x4
 2071 0006 00000000 		.4byte	.Ldebug_abbrev0
 2072 000a 04       		.byte	0x4
 2073 000b 01       		.uleb128 0x1
 2074 000c F4050000 		.4byte	.LASF179
 2075 0010 0C       		.byte	0xc
 2076 0011 88020000 		.4byte	.LASF180
 2077 0015 22000000 		.4byte	.LASF181
 2078 0019 00000000 		.4byte	.Ldebug_ranges0+0
 2079 001d 00000000 		.4byte	0
 2080 0021 00000000 		.4byte	.Ldebug_line0
 2081 0025 02       		.uleb128 0x2
 2082 0026 04       		.byte	0x4
 2083 0027 05       		.byte	0x5
 2084 0028 696E7400 		.ascii	"int\000"
 2085 002c 03       		.uleb128 0x3
 2086 002d 04       		.byte	0x4
 2087 002e 07       		.byte	0x7
 2088 002f 7B020000 		.4byte	.LASF0
 2089 0033 03       		.uleb128 0x3
 2090 0034 08       		.byte	0x8
 2091 0035 05       		.byte	0x5
 2092 0036 D1010000 		.4byte	.LASF1
 2093 003a 03       		.uleb128 0x3
 2094 003b 08       		.byte	0x8
 2095 003c 04       		.byte	0x4
 2096 003d 69080000 		.4byte	.LASF2
 2097 0041 04       		.uleb128 0x4
 2098 0042 7D010000 		.4byte	.LASF4
 2099 0046 03       		.byte	0x3
 2100 0047 1B       		.byte	0x1b
 2101 0048 4C000000 		.4byte	0x4c
 2102 004c 03       		.uleb128 0x3
 2103 004d 01       		.byte	0x1
 2104 004e 06       		.byte	0x6
 2105 004f E2000000 		.4byte	.LASF3
 2106 0053 04       		.uleb128 0x4
 2107 0054 EE000000 		.4byte	.LASF5
 2108 0058 03       		.byte	0x3
 2109 0059 1D       		.byte	0x1d
 2110 005a 5E000000 		.4byte	0x5e
 2111 005e 03       		.uleb128 0x3
 2112 005f 01       		.byte	0x1
 2113 0060 08       		.byte	0x8
 2114 0061 3D070000 		.4byte	.LASF6
 2115 0065 04       		.uleb128 0x4
 2116 0066 61030000 		.4byte	.LASF7
 2117 006a 03       		.byte	0x3
 2118 006b 29       		.byte	0x29
 2119 006c 70000000 		.4byte	0x70
 2120 0070 03       		.uleb128 0x3
 2121 0071 02       		.byte	0x2
 2122 0072 05       		.byte	0x5
 2123 0073 B6020000 		.4byte	.LASF8
ARM GAS  C:\Users\rober\AppData\Local\Temp\ccBlBMtt.s 			page 71


 2124 0077 04       		.uleb128 0x4
 2125 0078 C7080000 		.4byte	.LASF9
 2126 007c 03       		.byte	0x3
 2127 007d 2B       		.byte	0x2b
 2128 007e 82000000 		.4byte	0x82
 2129 0082 03       		.uleb128 0x3
 2130 0083 02       		.byte	0x2
 2131 0084 07       		.byte	0x7
 2132 0085 3D040000 		.4byte	.LASF10
 2133 0089 04       		.uleb128 0x4
 2134 008a ED080000 		.4byte	.LASF11
 2135 008e 03       		.byte	0x3
 2136 008f 3F       		.byte	0x3f
 2137 0090 94000000 		.4byte	0x94
 2138 0094 03       		.uleb128 0x3
 2139 0095 04       		.byte	0x4
 2140 0096 05       		.byte	0x5
 2141 0097 61020000 		.4byte	.LASF12
 2142 009b 04       		.uleb128 0x4
 2143 009c 34030000 		.4byte	.LASF13
 2144 00a0 03       		.byte	0x3
 2145 00a1 41       		.byte	0x41
 2146 00a2 A6000000 		.4byte	0xa6
 2147 00a6 03       		.uleb128 0x3
 2148 00a7 04       		.byte	0x4
 2149 00a8 07       		.byte	0x7
 2150 00a9 D6030000 		.4byte	.LASF14
 2151 00ad 03       		.uleb128 0x3
 2152 00ae 08       		.byte	0x8
 2153 00af 07       		.byte	0x7
 2154 00b0 42010000 		.4byte	.LASF15
 2155 00b4 03       		.uleb128 0x3
 2156 00b5 04       		.byte	0x4
 2157 00b6 07       		.byte	0x7
 2158 00b7 9E050000 		.4byte	.LASF16
 2159 00bb 05       		.uleb128 0x5
 2160 00bc 04       		.byte	0x4
 2161 00bd 03       		.uleb128 0x3
 2162 00be 01       		.byte	0x1
 2163 00bf 08       		.byte	0x8
 2164 00c0 75080000 		.4byte	.LASF17
 2165 00c4 04       		.uleb128 0x4
 2166 00c5 8A050000 		.4byte	.LASF18
 2167 00c9 04       		.byte	0x4
 2168 00ca 14       		.byte	0x14
 2169 00cb 41000000 		.4byte	0x41
 2170 00cf 04       		.uleb128 0x4
 2171 00d0 EF090000 		.4byte	.LASF19
 2172 00d4 04       		.byte	0x4
 2173 00d5 18       		.byte	0x18
 2174 00d6 53000000 		.4byte	0x53
 2175 00da 04       		.uleb128 0x4
 2176 00db BA010000 		.4byte	.LASF20
 2177 00df 04       		.byte	0x4
 2178 00e0 20       		.byte	0x20
 2179 00e1 65000000 		.4byte	0x65
 2180 00e5 04       		.uleb128 0x4
ARM GAS  C:\Users\rober\AppData\Local\Temp\ccBlBMtt.s 			page 72


 2181 00e6 C0020000 		.4byte	.LASF21
 2182 00ea 04       		.byte	0x4
 2183 00eb 24       		.byte	0x24
 2184 00ec 77000000 		.4byte	0x77
 2185 00f0 04       		.uleb128 0x4
 2186 00f1 35070000 		.4byte	.LASF22
 2187 00f5 04       		.byte	0x4
 2188 00f6 2C       		.byte	0x2c
 2189 00f7 89000000 		.4byte	0x89
 2190 00fb 04       		.uleb128 0x4
 2191 00fc 47080000 		.4byte	.LASF23
 2192 0100 04       		.byte	0x4
 2193 0101 30       		.byte	0x30
 2194 0102 9B000000 		.4byte	0x9b
 2195 0106 06       		.uleb128 0x6
 2196 0107 FB000000 		.4byte	0xfb
 2197 010b 07       		.uleb128 0x7
 2198 010c 06010000 		.4byte	0x106
 2199 0110 08       		.uleb128 0x8
 2200 0111 0B010000 		.4byte	0x10b
 2201 0115 20010000 		.4byte	0x120
 2202 0119 09       		.uleb128 0x9
 2203 011a B4000000 		.4byte	0xb4
 2204 011e 0F       		.byte	0xf
 2205 011f 00       		.byte	0
 2206 0120 0A       		.uleb128 0xa
 2207 0121 80       		.byte	0x80
 2208 0122 05       		.byte	0x5
 2209 0123 22       		.byte	0x22
 2210 0124 F4010000 		.4byte	0x1f4
 2211 0128 0B       		.uleb128 0xb
 2212 0129 4F555400 		.ascii	"OUT\000"
 2213 012d 05       		.byte	0x5
 2214 012e 23       		.byte	0x23
 2215 012f 06010000 		.4byte	0x106
 2216 0133 00       		.byte	0
 2217 0134 0C       		.uleb128 0xc
 2218 0135 A7060000 		.4byte	.LASF24
 2219 0139 05       		.byte	0x5
 2220 013a 24       		.byte	0x24
 2221 013b 06010000 		.4byte	0x106
 2222 013f 04       		.byte	0x4
 2223 0140 0C       		.uleb128 0xc
 2224 0141 85040000 		.4byte	.LASF25
 2225 0145 05       		.byte	0x5
 2226 0146 25       		.byte	0x25
 2227 0147 06010000 		.4byte	0x106
 2228 014b 08       		.byte	0x8
 2229 014c 0C       		.uleb128 0xc
 2230 014d C7030000 		.4byte	.LASF26
 2231 0151 05       		.byte	0x5
 2232 0152 26       		.byte	0x26
 2233 0153 06010000 		.4byte	0x106
 2234 0157 0C       		.byte	0xc
 2235 0158 0B       		.uleb128 0xb
 2236 0159 494E00   		.ascii	"IN\000"
 2237 015c 05       		.byte	0x5
ARM GAS  C:\Users\rober\AppData\Local\Temp\ccBlBMtt.s 			page 73


 2238 015d 27       		.byte	0x27
 2239 015e 0B010000 		.4byte	0x10b
 2240 0162 10       		.byte	0x10
 2241 0163 0C       		.uleb128 0xc
 2242 0164 D1050000 		.4byte	.LASF27
 2243 0168 05       		.byte	0x5
 2244 0169 28       		.byte	0x28
 2245 016a 06010000 		.4byte	0x106
 2246 016e 14       		.byte	0x14
 2247 016f 0C       		.uleb128 0xc
 2248 0170 01040000 		.4byte	.LASF28
 2249 0174 05       		.byte	0x5
 2250 0175 29       		.byte	0x29
 2251 0176 06010000 		.4byte	0x106
 2252 017a 18       		.byte	0x18
 2253 017b 0C       		.uleb128 0xc
 2254 017c 50040000 		.4byte	.LASF29
 2255 0180 05       		.byte	0x5
 2256 0181 2A       		.byte	0x2a
 2257 0182 0B010000 		.4byte	0x10b
 2258 0186 1C       		.byte	0x1c
 2259 0187 0C       		.uleb128 0xc
 2260 0188 3D050000 		.4byte	.LASF30
 2261 018c 05       		.byte	0x5
 2262 018d 2B       		.byte	0x2b
 2263 018e 06010000 		.4byte	0x106
 2264 0192 20       		.byte	0x20
 2265 0193 0C       		.uleb128 0xc
 2266 0194 34050000 		.4byte	.LASF31
 2267 0198 05       		.byte	0x5
 2268 0199 2C       		.byte	0x2c
 2269 019a 06010000 		.4byte	0x106
 2270 019e 24       		.byte	0x24
 2271 019f 0B       		.uleb128 0xb
 2272 01a0 43464700 		.ascii	"CFG\000"
 2273 01a4 05       		.byte	0x5
 2274 01a5 2D       		.byte	0x2d
 2275 01a6 06010000 		.4byte	0x106
 2276 01aa 28       		.byte	0x28
 2277 01ab 0C       		.uleb128 0xc
 2278 01ac FA030000 		.4byte	.LASF32
 2279 01b0 05       		.byte	0x5
 2280 01b1 2E       		.byte	0x2e
 2281 01b2 06010000 		.4byte	0x106
 2282 01b6 2C       		.byte	0x2c
 2283 01b7 0C       		.uleb128 0xc
 2284 01b8 350A0000 		.4byte	.LASF33
 2285 01bc 05       		.byte	0x5
 2286 01bd 2F       		.byte	0x2f
 2287 01be 06010000 		.4byte	0x106
 2288 01c2 30       		.byte	0x30
 2289 01c3 0C       		.uleb128 0xc
 2290 01c4 CB060000 		.4byte	.LASF34
 2291 01c8 05       		.byte	0x5
 2292 01c9 30       		.byte	0x30
 2293 01ca 06010000 		.4byte	0x106
 2294 01ce 34       		.byte	0x34
ARM GAS  C:\Users\rober\AppData\Local\Temp\ccBlBMtt.s 			page 74


 2295 01cf 0C       		.uleb128 0xc
 2296 01d0 D0070000 		.4byte	.LASF35
 2297 01d4 05       		.byte	0x5
 2298 01d5 31       		.byte	0x31
 2299 01d6 0B010000 		.4byte	0x10b
 2300 01da 38       		.byte	0x38
 2301 01db 0C       		.uleb128 0xc
 2302 01dc BD060000 		.4byte	.LASF36
 2303 01e0 05       		.byte	0x5
 2304 01e1 32       		.byte	0x32
 2305 01e2 06010000 		.4byte	0x106
 2306 01e6 3C       		.byte	0x3c
 2307 01e7 0C       		.uleb128 0xc
 2308 01e8 D3060000 		.4byte	.LASF37
 2309 01ec 05       		.byte	0x5
 2310 01ed 33       		.byte	0x33
 2311 01ee F9010000 		.4byte	0x1f9
 2312 01f2 40       		.byte	0x40
 2313 01f3 00       		.byte	0
 2314 01f4 06       		.uleb128 0x6
 2315 01f5 10010000 		.4byte	0x110
 2316 01f9 07       		.uleb128 0x7
 2317 01fa F4010000 		.4byte	0x1f4
 2318 01fe 04       		.uleb128 0x4
 2319 01ff B9080000 		.4byte	.LASF38
 2320 0203 05       		.byte	0x5
 2321 0204 34       		.byte	0x34
 2322 0205 20010000 		.4byte	0x120
 2323 0209 0D       		.uleb128 0xd
 2324 020a 2440     		.2byte	0x4024
 2325 020c 05       		.byte	0x5
 2326 020d 39       		.byte	0x39
 2327 020e 94020000 		.4byte	0x294
 2328 0212 0B       		.uleb128 0xb
 2329 0213 50525400 		.ascii	"PRT\000"
 2330 0217 05       		.byte	0x5
 2331 0218 3A       		.byte	0x3a
 2332 0219 94020000 		.4byte	0x294
 2333 021d 00       		.byte	0
 2334 021e 0E       		.uleb128 0xe
 2335 021f 7A080000 		.4byte	.LASF39
 2336 0223 05       		.byte	0x5
 2337 0224 3B       		.byte	0x3b
 2338 0225 0B010000 		.4byte	0x10b
 2339 0229 0040     		.2byte	0x4000
 2340 022b 0E       		.uleb128 0xe
 2341 022c 86080000 		.4byte	.LASF40
 2342 0230 05       		.byte	0x5
 2343 0231 3C       		.byte	0x3c
 2344 0232 0B010000 		.4byte	0x10b
 2345 0236 0440     		.2byte	0x4004
 2346 0238 0E       		.uleb128 0xe
 2347 0239 92080000 		.4byte	.LASF41
 2348 023d 05       		.byte	0x5
 2349 023e 3D       		.byte	0x3d
 2350 023f 0B010000 		.4byte	0x10b
 2351 0243 0840     		.2byte	0x4008
ARM GAS  C:\Users\rober\AppData\Local\Temp\ccBlBMtt.s 			page 75


 2352 0245 0E       		.uleb128 0xe
 2353 0246 9E080000 		.4byte	.LASF42
 2354 024a 05       		.byte	0x5
 2355 024b 3E       		.byte	0x3e
 2356 024c 0B010000 		.4byte	0x10b
 2357 0250 0C40     		.2byte	0x400c
 2358 0252 0E       		.uleb128 0xe
 2359 0253 63050000 		.4byte	.LASF43
 2360 0257 05       		.byte	0x5
 2361 0258 3F       		.byte	0x3f
 2362 0259 0B010000 		.4byte	0x10b
 2363 025d 1040     		.2byte	0x4010
 2364 025f 0E       		.uleb128 0xe
 2365 0260 E2070000 		.4byte	.LASF44
 2366 0264 05       		.byte	0x5
 2367 0265 40       		.byte	0x40
 2368 0266 06010000 		.4byte	0x106
 2369 026a 1440     		.2byte	0x4014
 2370 026c 0E       		.uleb128 0xe
 2371 026d 1C010000 		.4byte	.LASF45
 2372 0271 05       		.byte	0x5
 2373 0272 41       		.byte	0x41
 2374 0273 06010000 		.4byte	0x106
 2375 0277 1840     		.2byte	0x4018
 2376 0279 0E       		.uleb128 0xe
 2377 027a 04090000 		.4byte	.LASF46
 2378 027e 05       		.byte	0x5
 2379 027f 42       		.byte	0x42
 2380 0280 0B010000 		.4byte	0x10b
 2381 0284 1C40     		.2byte	0x401c
 2382 0286 0E       		.uleb128 0xe
 2383 0287 0B040000 		.4byte	.LASF47
 2384 028b 05       		.byte	0x5
 2385 028c 43       		.byte	0x43
 2386 028d 06010000 		.4byte	0x106
 2387 0291 2040     		.2byte	0x4020
 2388 0293 00       		.byte	0
 2389 0294 08       		.uleb128 0x8
 2390 0295 FE010000 		.4byte	0x1fe
 2391 0299 A4020000 		.4byte	0x2a4
 2392 029d 09       		.uleb128 0x9
 2393 029e B4000000 		.4byte	0xb4
 2394 02a2 7F       		.byte	0x7f
 2395 02a3 00       		.byte	0
 2396 02a4 04       		.uleb128 0x4
 2397 02a5 3D0A0000 		.4byte	.LASF48
 2398 02a9 05       		.byte	0x5
 2399 02aa 44       		.byte	0x44
 2400 02ab 09020000 		.4byte	0x209
 2401 02af 0F       		.uleb128 0xf
 2402 02b0 CF030000 		.4byte	.LASF49
 2403 02b4 06       		.byte	0x6
 2404 02b5 C401     		.2byte	0x1c4
 2405 02b7 BD000000 		.4byte	0xbd
 2406 02bb 03       		.uleb128 0x3
 2407 02bc 04       		.byte	0x4
 2408 02bd 04       		.byte	0x4
ARM GAS  C:\Users\rober\AppData\Local\Temp\ccBlBMtt.s 			page 76


 2409 02be B7060000 		.4byte	.LASF50
 2410 02c2 03       		.uleb128 0x3
 2411 02c3 08       		.byte	0x8
 2412 02c4 04       		.byte	0x4
 2413 02c5 A90A0000 		.4byte	.LASF51
 2414 02c9 0F       		.uleb128 0xf
 2415 02ca 2F0A0000 		.4byte	.LASF52
 2416 02ce 06       		.byte	0x6
 2417 02cf 8903     		.2byte	0x389
 2418 02d1 DA000000 		.4byte	0xda
 2419 02d5 03       		.uleb128 0x3
 2420 02d6 01       		.byte	0x1
 2421 02d7 02       		.byte	0x2
 2422 02d8 2F070000 		.4byte	.LASF53
 2423 02dc 10       		.uleb128 0x10
 2424 02dd 6E050000 		.4byte	.LASF74
 2425 02e1 4C       		.byte	0x4c
 2426 02e2 07       		.byte	0x7
 2427 02e3 2B       		.byte	0x2b
 2428 02e4 CD030000 		.4byte	0x3cd
 2429 02e8 0C       		.uleb128 0xc
 2430 02e9 15010000 		.4byte	.LASF54
 2431 02ed 07       		.byte	0x7
 2432 02ee 2D       		.byte	0x2d
 2433 02ef FB000000 		.4byte	0xfb
 2434 02f3 00       		.byte	0
 2435 02f4 0C       		.uleb128 0xc
 2436 02f5 59010000 		.4byte	.LASF55
 2437 02f9 07       		.byte	0x7
 2438 02fa 2F       		.byte	0x2f
 2439 02fb FB000000 		.4byte	0xfb
 2440 02ff 04       		.byte	0x4
 2441 0300 0C       		.uleb128 0xc
 2442 0301 00000000 		.4byte	.LASF56
 2443 0305 07       		.byte	0x7
 2444 0306 30       		.byte	0x30
 2445 0307 FB000000 		.4byte	0xfb
 2446 030b 08       		.byte	0x8
 2447 030c 0C       		.uleb128 0xc
 2448 030d F8000000 		.4byte	.LASF57
 2449 0311 07       		.byte	0x7
 2450 0312 31       		.byte	0x31
 2451 0313 FB000000 		.4byte	0xfb
 2452 0317 0C       		.byte	0xc
 2453 0318 0C       		.uleb128 0xc
 2454 0319 17080000 		.4byte	.LASF58
 2455 031d 07       		.byte	0x7
 2456 031e 33       		.byte	0x33
 2457 031f FB000000 		.4byte	0xfb
 2458 0323 10       		.byte	0x10
 2459 0324 0C       		.uleb128 0xc
 2460 0325 60080000 		.4byte	.LASF59
 2461 0329 07       		.byte	0x7
 2462 032a 34       		.byte	0x34
 2463 032b FB000000 		.4byte	0xfb
 2464 032f 14       		.byte	0x14
 2465 0330 0C       		.uleb128 0xc
ARM GAS  C:\Users\rober\AppData\Local\Temp\ccBlBMtt.s 			page 77


 2466 0331 700A0000 		.4byte	.LASF60
 2467 0335 07       		.byte	0x7
 2468 0336 35       		.byte	0x35
 2469 0337 FB000000 		.4byte	0xfb
 2470 033b 18       		.byte	0x18
 2471 033c 0C       		.uleb128 0xc
 2472 033d E8030000 		.4byte	.LASF61
 2473 0341 07       		.byte	0x7
 2474 0342 36       		.byte	0x36
 2475 0343 D5020000 		.4byte	0x2d5
 2476 0347 1C       		.byte	0x1c
 2477 0348 0C       		.uleb128 0xc
 2478 0349 14090000 		.4byte	.LASF62
 2479 034d 07       		.byte	0x7
 2480 034e 38       		.byte	0x38
 2481 034f FB000000 		.4byte	0xfb
 2482 0353 20       		.byte	0x20
 2483 0354 0C       		.uleb128 0xc
 2484 0355 0D030000 		.4byte	.LASF63
 2485 0359 07       		.byte	0x7
 2486 035a 39       		.byte	0x39
 2487 035b FB000000 		.4byte	0xfb
 2488 035f 24       		.byte	0x24
 2489 0360 0C       		.uleb128 0xc
 2490 0361 2A010000 		.4byte	.LASF64
 2491 0365 07       		.byte	0x7
 2492 0366 3B       		.byte	0x3b
 2493 0367 FB000000 		.4byte	0xfb
 2494 036b 28       		.byte	0x28
 2495 036c 0C       		.uleb128 0xc
 2496 036d 470A0000 		.4byte	.LASF65
 2497 0371 07       		.byte	0x7
 2498 0372 3C       		.byte	0x3c
 2499 0373 FB000000 		.4byte	0xfb
 2500 0377 2C       		.byte	0x2c
 2501 0378 0C       		.uleb128 0xc
 2502 0379 25090000 		.4byte	.LASF66
 2503 037d 07       		.byte	0x7
 2504 037e 3E       		.byte	0x3e
 2505 037f FB000000 		.4byte	0xfb
 2506 0383 30       		.byte	0x30
 2507 0384 0C       		.uleb128 0xc
 2508 0385 4D090000 		.4byte	.LASF67
 2509 0389 07       		.byte	0x7
 2510 038a 3F       		.byte	0x3f
 2511 038b FB000000 		.4byte	0xfb
 2512 038f 34       		.byte	0x34
 2513 0390 0C       		.uleb128 0xc
 2514 0391 29050000 		.4byte	.LASF68
 2515 0395 07       		.byte	0x7
 2516 0396 41       		.byte	0x41
 2517 0397 FB000000 		.4byte	0xfb
 2518 039b 38       		.byte	0x38
 2519 039c 0C       		.uleb128 0xc
 2520 039d 07010000 		.4byte	.LASF69
 2521 03a1 07       		.byte	0x7
 2522 03a2 42       		.byte	0x42
ARM GAS  C:\Users\rober\AppData\Local\Temp\ccBlBMtt.s 			page 78


 2523 03a3 FB000000 		.4byte	0xfb
 2524 03a7 3C       		.byte	0x3c
 2525 03a8 0C       		.uleb128 0xc
 2526 03a9 43090000 		.4byte	.LASF70
 2527 03ad 07       		.byte	0x7
 2528 03ae 44       		.byte	0x44
 2529 03af FB000000 		.4byte	0xfb
 2530 03b3 40       		.byte	0x40
 2531 03b4 0C       		.uleb128 0xc
 2532 03b5 1A050000 		.4byte	.LASF71
 2533 03b9 07       		.byte	0x7
 2534 03ba 45       		.byte	0x45
 2535 03bb FB000000 		.4byte	0xfb
 2536 03bf 44       		.byte	0x44
 2537 03c0 0C       		.uleb128 0xc
 2538 03c1 9E0A0000 		.4byte	.LASF72
 2539 03c5 07       		.byte	0x7
 2540 03c6 47       		.byte	0x47
 2541 03c7 FB000000 		.4byte	0xfb
 2542 03cb 48       		.byte	0x48
 2543 03cc 00       		.byte	0
 2544 03cd 04       		.uleb128 0x4
 2545 03ce DF010000 		.4byte	.LASF73
 2546 03d2 07       		.byte	0x7
 2547 03d3 48       		.byte	0x48
 2548 03d4 DC020000 		.4byte	0x2dc
 2549 03d8 10       		.uleb128 0x10
 2550 03d9 2F080000 		.4byte	.LASF75
 2551 03dd 64       		.byte	0x64
 2552 03de 08       		.byte	0x8
 2553 03df 2B       		.byte	0x2b
 2554 03e0 11050000 		.4byte	0x511
 2555 03e4 0C       		.uleb128 0xc
 2556 03e5 AF060000 		.4byte	.LASF76
 2557 03e9 08       		.byte	0x8
 2558 03ea 2D       		.byte	0x2d
 2559 03eb FB000000 		.4byte	0xfb
 2560 03ef 00       		.byte	0
 2561 03f0 0C       		.uleb128 0xc
 2562 03f1 59010000 		.4byte	.LASF55
 2563 03f5 08       		.byte	0x8
 2564 03f6 2F       		.byte	0x2f
 2565 03f7 FB000000 		.4byte	0xfb
 2566 03fb 04       		.byte	0x4
 2567 03fc 0C       		.uleb128 0xc
 2568 03fd C9000000 		.4byte	.LASF77
 2569 0401 08       		.byte	0x8
 2570 0402 30       		.byte	0x30
 2571 0403 FB000000 		.4byte	0xfb
 2572 0407 08       		.byte	0x8
 2573 0408 0C       		.uleb128 0xc
 2574 0409 0B050000 		.4byte	.LASF78
 2575 040d 08       		.byte	0x8
 2576 040e 31       		.byte	0x31
 2577 040f FB000000 		.4byte	0xfb
 2578 0413 0C       		.byte	0xc
 2579 0414 0C       		.uleb128 0xc
ARM GAS  C:\Users\rober\AppData\Local\Temp\ccBlBMtt.s 			page 79


 2580 0415 00000000 		.4byte	.LASF56
 2581 0419 08       		.byte	0x8
 2582 041a 32       		.byte	0x32
 2583 041b FB000000 		.4byte	0xfb
 2584 041f 10       		.byte	0x10
 2585 0420 0C       		.uleb128 0xc
 2586 0421 6B090000 		.4byte	.LASF79
 2587 0425 08       		.byte	0x8
 2588 0426 33       		.byte	0x33
 2589 0427 FB000000 		.4byte	0xfb
 2590 042b 14       		.byte	0x14
 2591 042c 0C       		.uleb128 0xc
 2592 042d B2010000 		.4byte	.LASF80
 2593 0431 08       		.byte	0x8
 2594 0432 34       		.byte	0x34
 2595 0433 FB000000 		.4byte	0xfb
 2596 0437 18       		.byte	0x18
 2597 0438 0C       		.uleb128 0xc
 2598 0439 00080000 		.4byte	.LASF81
 2599 043d 08       		.byte	0x8
 2600 043e 35       		.byte	0x35
 2601 043f D5020000 		.4byte	0x2d5
 2602 0443 1C       		.byte	0x1c
 2603 0444 0C       		.uleb128 0xc
 2604 0445 60080000 		.4byte	.LASF59
 2605 0449 08       		.byte	0x8
 2606 044a 36       		.byte	0x36
 2607 044b FB000000 		.4byte	0xfb
 2608 044f 20       		.byte	0x20
 2609 0450 0C       		.uleb128 0xc
 2610 0451 700A0000 		.4byte	.LASF60
 2611 0455 08       		.byte	0x8
 2612 0456 37       		.byte	0x37
 2613 0457 FB000000 		.4byte	0xfb
 2614 045b 24       		.byte	0x24
 2615 045c 0C       		.uleb128 0xc
 2616 045d E8030000 		.4byte	.LASF61
 2617 0461 08       		.byte	0x8
 2618 0462 38       		.byte	0x38
 2619 0463 D5020000 		.4byte	0x2d5
 2620 0467 28       		.byte	0x28
 2621 0468 0C       		.uleb128 0xc
 2622 0469 14090000 		.4byte	.LASF62
 2623 046d 08       		.byte	0x8
 2624 046e 3A       		.byte	0x3a
 2625 046f FB000000 		.4byte	0xfb
 2626 0473 2C       		.byte	0x2c
 2627 0474 0C       		.uleb128 0xc
 2628 0475 FE040000 		.4byte	.LASF82
 2629 0479 08       		.byte	0x8
 2630 047a 3B       		.byte	0x3b
 2631 047b FB000000 		.4byte	0xfb
 2632 047f 30       		.byte	0x30
 2633 0480 0C       		.uleb128 0xc
 2634 0481 E1090000 		.4byte	.LASF83
 2635 0485 08       		.byte	0x8
 2636 0486 3C       		.byte	0x3c
ARM GAS  C:\Users\rober\AppData\Local\Temp\ccBlBMtt.s 			page 80


 2637 0487 FB000000 		.4byte	0xfb
 2638 048b 34       		.byte	0x34
 2639 048c 0C       		.uleb128 0xc
 2640 048d DD060000 		.4byte	.LASF84
 2641 0491 08       		.byte	0x8
 2642 0492 3D       		.byte	0x3d
 2643 0493 FB000000 		.4byte	0xfb
 2644 0497 38       		.byte	0x38
 2645 0498 0C       		.uleb128 0xc
 2646 0499 2F040000 		.4byte	.LASF85
 2647 049d 08       		.byte	0x8
 2648 049e 3E       		.byte	0x3e
 2649 049f FB000000 		.4byte	0xfb
 2650 04a3 3C       		.byte	0x3c
 2651 04a4 0C       		.uleb128 0xc
 2652 04a5 100A0000 		.4byte	.LASF86
 2653 04a9 08       		.byte	0x8
 2654 04aa 40       		.byte	0x40
 2655 04ab FB000000 		.4byte	0xfb
 2656 04af 40       		.byte	0x40
 2657 04b0 0C       		.uleb128 0xc
 2658 04b1 470A0000 		.4byte	.LASF65
 2659 04b5 08       		.byte	0x8
 2660 04b6 41       		.byte	0x41
 2661 04b7 FB000000 		.4byte	0xfb
 2662 04bb 44       		.byte	0x44
 2663 04bc 0C       		.uleb128 0xc
 2664 04bd 25090000 		.4byte	.LASF66
 2665 04c1 08       		.byte	0x8
 2666 04c2 43       		.byte	0x43
 2667 04c3 FB000000 		.4byte	0xfb
 2668 04c7 48       		.byte	0x48
 2669 04c8 0C       		.uleb128 0xc
 2670 04c9 4D090000 		.4byte	.LASF67
 2671 04cd 08       		.byte	0x8
 2672 04ce 44       		.byte	0x44
 2673 04cf FB000000 		.4byte	0xfb
 2674 04d3 4C       		.byte	0x4c
 2675 04d4 0C       		.uleb128 0xc
 2676 04d5 29050000 		.4byte	.LASF68
 2677 04d9 08       		.byte	0x8
 2678 04da 46       		.byte	0x46
 2679 04db FB000000 		.4byte	0xfb
 2680 04df 50       		.byte	0x50
 2681 04e0 0C       		.uleb128 0xc
 2682 04e1 8D040000 		.4byte	.LASF87
 2683 04e5 08       		.byte	0x8
 2684 04e6 47       		.byte	0x47
 2685 04e7 FB000000 		.4byte	0xfb
 2686 04eb 54       		.byte	0x54
 2687 04ec 0C       		.uleb128 0xc
 2688 04ed 95000000 		.4byte	.LASF88
 2689 04f1 08       		.byte	0x8
 2690 04f2 49       		.byte	0x49
 2691 04f3 FB000000 		.4byte	0xfb
 2692 04f7 58       		.byte	0x58
 2693 04f8 0C       		.uleb128 0xc
ARM GAS  C:\Users\rober\AppData\Local\Temp\ccBlBMtt.s 			page 81


 2694 04f9 1A050000 		.4byte	.LASF71
 2695 04fd 08       		.byte	0x8
 2696 04fe 4A       		.byte	0x4a
 2697 04ff FB000000 		.4byte	0xfb
 2698 0503 5C       		.byte	0x5c
 2699 0504 0C       		.uleb128 0xc
 2700 0505 9E0A0000 		.4byte	.LASF72
 2701 0509 08       		.byte	0x8
 2702 050a 4C       		.byte	0x4c
 2703 050b FB000000 		.4byte	0xfb
 2704 050f 60       		.byte	0x60
 2705 0510 00       		.byte	0
 2706 0511 04       		.uleb128 0x4
 2707 0512 08000000 		.4byte	.LASF89
 2708 0516 08       		.byte	0x8
 2709 0517 4D       		.byte	0x4d
 2710 0518 D8030000 		.4byte	0x3d8
 2711 051c 11       		.uleb128 0x11
 2712 051d 04       		.byte	0x4
 2713 051e 22050000 		.4byte	0x522
 2714 0522 12       		.uleb128 0x12
 2715 0523 2D050000 		.4byte	0x52d
 2716 0527 13       		.uleb128 0x13
 2717 0528 FB000000 		.4byte	0xfb
 2718 052c 00       		.byte	0
 2719 052d 11       		.uleb128 0x11
 2720 052e 04       		.byte	0x4
 2721 052f CF000000 		.4byte	0xcf
 2722 0533 0F       		.uleb128 0xf
 2723 0534 43020000 		.4byte	.LASF90
 2724 0538 09       		.byte	0x9
 2725 0539 BF01     		.2byte	0x1bf
 2726 053b 1C050000 		.4byte	0x51c
 2727 053f 14       		.uleb128 0x14
 2728 0540 FD010000 		.4byte	.LASF91
 2729 0544 24       		.byte	0x24
 2730 0545 09       		.byte	0x9
 2731 0546 4102     		.2byte	0x241
 2732 0548 C2050000 		.4byte	0x5c2
 2733 054c 15       		.uleb128 0x15
 2734 054d DA090000 		.4byte	.LASF92
 2735 0551 09       		.byte	0x9
 2736 0552 4402     		.2byte	0x244
 2737 0554 06010000 		.4byte	0x106
 2738 0558 00       		.byte	0
 2739 0559 15       		.uleb128 0x15
 2740 055a 96090000 		.4byte	.LASF93
 2741 055e 09       		.byte	0x9
 2742 055f 4602     		.2byte	0x246
 2743 0561 BB000000 		.4byte	0xbb
 2744 0565 04       		.byte	0x4
 2745 0566 15       		.uleb128 0x15
 2746 0567 2A030000 		.4byte	.LASF94
 2747 056b 09       		.byte	0x9
 2748 056c 4702     		.2byte	0x247
 2749 056e FB000000 		.4byte	0xfb
 2750 0572 08       		.byte	0x8
ARM GAS  C:\Users\rober\AppData\Local\Temp\ccBlBMtt.s 			page 82


 2751 0573 15       		.uleb128 0x15
 2752 0574 6B030000 		.4byte	.LASF95
 2753 0578 09       		.byte	0x9
 2754 0579 4802     		.2byte	0x248
 2755 057b 06010000 		.4byte	0x106
 2756 057f 0C       		.byte	0xc
 2757 0580 15       		.uleb128 0x15
 2758 0581 B2040000 		.4byte	.LASF96
 2759 0585 09       		.byte	0x9
 2760 0586 4A02     		.2byte	0x24a
 2761 0588 BB000000 		.4byte	0xbb
 2762 058c 10       		.byte	0x10
 2763 058d 15       		.uleb128 0x15
 2764 058e B1030000 		.4byte	.LASF97
 2765 0592 09       		.byte	0x9
 2766 0593 4B02     		.2byte	0x24b
 2767 0595 FB000000 		.4byte	0xfb
 2768 0599 14       		.byte	0x14
 2769 059a 15       		.uleb128 0x15
 2770 059b B00A0000 		.4byte	.LASF98
 2771 059f 09       		.byte	0x9
 2772 05a0 4C02     		.2byte	0x24c
 2773 05a2 06010000 		.4byte	0x106
 2774 05a6 18       		.byte	0x18
 2775 05a7 15       		.uleb128 0x15
 2776 05a8 9B040000 		.4byte	.LASF99
 2777 05ac 09       		.byte	0x9
 2778 05ad 5202     		.2byte	0x252
 2779 05af 33050000 		.4byte	0x533
 2780 05b3 1C       		.byte	0x1c
 2781 05b4 15       		.uleb128 0x15
 2782 05b5 8E090000 		.4byte	.LASF100
 2783 05b9 09       		.byte	0x9
 2784 05ba 5502     		.2byte	0x255
 2785 05bc FB000000 		.4byte	0xfb
 2786 05c0 20       		.byte	0x20
 2787 05c1 00       		.byte	0
 2788 05c2 0F       		.uleb128 0xf
 2789 05c3 D6040000 		.4byte	.LASF101
 2790 05c7 09       		.byte	0x9
 2791 05c8 5802     		.2byte	0x258
 2792 05ca 3F050000 		.4byte	0x53f
 2793 05ce 04       		.uleb128 0x4
 2794 05cf 68010000 		.4byte	.LASF102
 2795 05d3 0A       		.byte	0xa
 2796 05d4 35       		.byte	0x35
 2797 05d5 5E000000 		.4byte	0x5e
 2798 05d9 16       		.uleb128 0x16
 2799 05da 01       		.byte	0x1
 2800 05db 5E000000 		.4byte	0x5e
 2801 05df 0A       		.byte	0xa
 2802 05e0 39       		.byte	0x39
 2803 05e1 0A060000 		.4byte	0x60a
 2804 05e5 17       		.uleb128 0x17
 2805 05e6 20070000 		.4byte	.LASF103
 2806 05ea 00       		.byte	0
 2807 05eb 17       		.uleb128 0x17
ARM GAS  C:\Users\rober\AppData\Local\Temp\ccBlBMtt.s 			page 83


 2808 05ec 72040000 		.4byte	.LASF104
 2809 05f0 01       		.byte	0x1
 2810 05f1 17       		.uleb128 0x17
 2811 05f2 F7060000 		.4byte	.LASF105
 2812 05f6 02       		.byte	0x2
 2813 05f7 17       		.uleb128 0x17
 2814 05f8 B1090000 		.4byte	.LASF106
 2815 05fc 03       		.byte	0x3
 2816 05fd 17       		.uleb128 0x17
 2817 05fe 790A0000 		.4byte	.LASF107
 2818 0602 04       		.byte	0x4
 2819 0603 17       		.uleb128 0x17
 2820 0604 B0000000 		.4byte	.LASF108
 2821 0608 05       		.byte	0x5
 2822 0609 00       		.byte	0
 2823 060a 04       		.uleb128 0x4
 2824 060b E6060000 		.4byte	.LASF109
 2825 060f 0A       		.byte	0xa
 2826 0610 40       		.byte	0x40
 2827 0611 D9050000 		.4byte	0x5d9
 2828 0615 16       		.uleb128 0x16
 2829 0616 01       		.byte	0x1
 2830 0617 5E000000 		.4byte	0x5e
 2831 061b 0A       		.byte	0xa
 2832 061c 44       		.byte	0x44
 2833 061d 3A060000 		.4byte	0x63a
 2834 0621 17       		.uleb128 0x17
 2835 0622 B8040000 		.4byte	.LASF110
 2836 0626 00       		.byte	0
 2837 0627 17       		.uleb128 0x17
 2838 0628 C7040000 		.4byte	.LASF111
 2839 062c 01       		.byte	0x1
 2840 062d 17       		.uleb128 0x17
 2841 062e C2010000 		.4byte	.LASF112
 2842 0632 02       		.byte	0x2
 2843 0633 17       		.uleb128 0x17
 2844 0634 EF040000 		.4byte	.LASF113
 2845 0638 03       		.byte	0x3
 2846 0639 00       		.byte	0
 2847 063a 04       		.uleb128 0x4
 2848 063b 53050000 		.4byte	.LASF114
 2849 063f 0A       		.byte	0xa
 2850 0640 49       		.byte	0x49
 2851 0641 15060000 		.4byte	0x615
 2852 0645 10       		.uleb128 0x10
 2853 0646 A4040000 		.4byte	.LASF115
 2854 064a 6F       		.byte	0x6f
 2855 064b 01       		.byte	0x1
 2856 064c 33       		.byte	0x33
 2857 064d 82060000 		.4byte	0x682
 2858 0651 0C       		.uleb128 0xc
 2859 0652 DB020000 		.4byte	.LASF116
 2860 0656 01       		.byte	0x1
 2861 0657 36       		.byte	0x36
 2862 0658 CF000000 		.4byte	0xcf
 2863 065c 00       		.byte	0
 2864 065d 0C       		.uleb128 0xc
ARM GAS  C:\Users\rober\AppData\Local\Temp\ccBlBMtt.s 			page 84


 2865 065e BA050000 		.4byte	.LASF117
 2866 0662 01       		.byte	0x1
 2867 0663 39       		.byte	0x39
 2868 0664 82060000 		.4byte	0x682
 2869 0668 01       		.byte	0x1
 2870 0669 0C       		.uleb128 0xc
 2871 066a 6A020000 		.4byte	.LASF118
 2872 066e 01       		.byte	0x1
 2873 066f 3C       		.byte	0x3c
 2874 0670 92060000 		.4byte	0x692
 2875 0674 22       		.byte	0x22
 2876 0675 0B       		.uleb128 0xb
 2877 0676 6F646400 		.ascii	"odd\000"
 2878 067a 01       		.byte	0x1
 2879 067b 3F       		.byte	0x3f
 2880 067c 82060000 		.4byte	0x682
 2881 0680 4E       		.byte	0x4e
 2882 0681 00       		.byte	0
 2883 0682 08       		.uleb128 0x8
 2884 0683 CF000000 		.4byte	0xcf
 2885 0687 92060000 		.4byte	0x692
 2886 068b 09       		.uleb128 0x9
 2887 068c B4000000 		.4byte	0xb4
 2888 0690 20       		.byte	0x20
 2889 0691 00       		.byte	0
 2890 0692 08       		.uleb128 0x8
 2891 0693 CF000000 		.4byte	0xcf
 2892 0697 A2060000 		.4byte	0x6a2
 2893 069b 09       		.uleb128 0x9
 2894 069c B4000000 		.4byte	0xb4
 2895 06a0 2B       		.byte	0x2b
 2896 06a1 00       		.byte	0
 2897 06a2 18       		.uleb128 0x18
 2898 06a3 6F       		.byte	0x6f
 2899 06a4 01       		.byte	0x1
 2900 06a5 43       		.byte	0x43
 2901 06a6 C1060000 		.4byte	0x6c1
 2902 06aa 19       		.uleb128 0x19
 2903 06ab A7070000 		.4byte	.LASF119
 2904 06af 01       		.byte	0x1
 2905 06b0 46       		.byte	0x46
 2906 06b1 45060000 		.4byte	0x645
 2907 06b5 19       		.uleb128 0x19
 2908 06b6 37010000 		.4byte	.LASF120
 2909 06ba 01       		.byte	0x1
 2910 06bb 49       		.byte	0x49
 2911 06bc C1060000 		.4byte	0x6c1
 2912 06c0 00       		.byte	0
 2913 06c1 08       		.uleb128 0x8
 2914 06c2 CF000000 		.4byte	0xcf
 2915 06c6 D1060000 		.4byte	0x6d1
 2916 06ca 09       		.uleb128 0x9
 2917 06cb B4000000 		.4byte	0xb4
 2918 06cf 6E       		.byte	0x6e
 2919 06d0 00       		.byte	0
 2920 06d1 04       		.uleb128 0x4
 2921 06d2 6A070000 		.4byte	.LASF121
ARM GAS  C:\Users\rober\AppData\Local\Temp\ccBlBMtt.s 			page 85


 2922 06d6 01       		.byte	0x1
 2923 06d7 4C       		.byte	0x4c
 2924 06d8 A2060000 		.4byte	0x6a2
 2925 06dc 1A       		.uleb128 0x1a
 2926 06dd 35020000 		.4byte	.LASF182
 2927 06e1 02       		.byte	0x2
 2928 06e2 E502     		.2byte	0x2e5
 2929 06e4 03       		.byte	0x3
 2930 06e5 0E070000 		.4byte	0x70e
 2931 06e9 1B       		.uleb128 0x1b
 2932 06ea 4E050000 		.4byte	.LASF122
 2933 06ee 02       		.byte	0x2
 2934 06ef E502     		.2byte	0x2e5
 2935 06f1 0E070000 		.4byte	0x70e
 2936 06f5 1B       		.uleb128 0x1b
 2937 06f6 28080000 		.4byte	.LASF123
 2938 06fa 02       		.byte	0x2
 2939 06fb E502     		.2byte	0x2e5
 2940 06fd FB000000 		.4byte	0xfb
 2941 0701 1B       		.uleb128 0x1b
 2942 0702 11080000 		.4byte	.LASF124
 2943 0706 02       		.byte	0x2
 2944 0707 E502     		.2byte	0x2e5
 2945 0709 FB000000 		.4byte	0xfb
 2946 070d 00       		.byte	0
 2947 070e 11       		.uleb128 0x11
 2948 070f 04       		.byte	0x4
 2949 0710 FE010000 		.4byte	0x1fe
 2950 0714 1C       		.uleb128 0x1c
 2951 0715 14020000 		.4byte	.LASF128
 2952 0719 01       		.byte	0x1
 2953 071a 79       		.byte	0x79
 2954 071b 00000000 		.4byte	.LFB603
 2955 071f 38000000 		.4byte	.LFE603-.LFB603
 2956 0723 01       		.uleb128 0x1
 2957 0724 9C       		.byte	0x9c
 2958 0725 65080000 		.4byte	0x865
 2959 0729 1D       		.uleb128 0x1d
 2960 072a 46050000 		.4byte	.LASF125
 2961 072e 01       		.byte	0x1
 2962 072f 79       		.byte	0x79
 2963 0730 CF000000 		.4byte	0xcf
 2964 0734 00000000 		.4byte	.LLST0
 2965 0738 1D       		.uleb128 0x1d
 2966 0739 2A040000 		.4byte	.LASF126
 2967 073d 01       		.byte	0x1
 2968 073e 79       		.byte	0x79
 2969 073f 2D050000 		.4byte	0x52d
 2970 0743 21000000 		.4byte	.LLST1
 2971 0747 1D       		.uleb128 0x1d
 2972 0748 02030000 		.4byte	.LASF127
 2973 074c 01       		.byte	0x1
 2974 074d 79       		.byte	0x79
 2975 074e E5000000 		.4byte	0xe5
 2976 0752 4D000000 		.4byte	.LLST2
 2977 0756 1E       		.uleb128 0x1e
 2978 0757 DC060000 		.4byte	0x6dc
ARM GAS  C:\Users\rober\AppData\Local\Temp\ccBlBMtt.s 			page 86


 2979 075b 0A000000 		.4byte	.LBB58
 2980 075f 06000000 		.4byte	.LBE58-.LBB58
 2981 0763 01       		.byte	0x1
 2982 0764 7C       		.byte	0x7c
 2983 0765 85070000 		.4byte	0x785
 2984 0769 1F       		.uleb128 0x1f
 2985 076a 01070000 		.4byte	0x701
 2986 076e 6E000000 		.4byte	.LLST3
 2987 0772 1F       		.uleb128 0x1f
 2988 0773 F5060000 		.4byte	0x6f5
 2989 0777 82000000 		.4byte	.LLST4
 2990 077b 1F       		.uleb128 0x1f
 2991 077c E9060000 		.4byte	0x6e9
 2992 0780 96000000 		.4byte	.LLST5
 2993 0784 00       		.byte	0
 2994 0785 1E       		.uleb128 0x1e
 2995 0786 DC060000 		.4byte	0x6dc
 2996 078a 1C000000 		.4byte	.LBB60
 2997 078e 02000000 		.4byte	.LBE60-.LBB60
 2998 0792 01       		.byte	0x1
 2999 0793 82       		.byte	0x82
 3000 0794 B4070000 		.4byte	0x7b4
 3001 0798 1F       		.uleb128 0x1f
 3002 0799 01070000 		.4byte	0x701
 3003 079d AE000000 		.4byte	.LLST6
 3004 07a1 1F       		.uleb128 0x1f
 3005 07a2 F5060000 		.4byte	0x6f5
 3006 07a6 C2000000 		.4byte	.LLST7
 3007 07aa 1F       		.uleb128 0x1f
 3008 07ab E9060000 		.4byte	0x6e9
 3009 07af D6000000 		.4byte	.LLST8
 3010 07b3 00       		.byte	0
 3011 07b4 1E       		.uleb128 0x1e
 3012 07b5 DC060000 		.4byte	0x6dc
 3013 07b9 1E000000 		.4byte	.LBB62
 3014 07bd 02000000 		.4byte	.LBE62-.LBB62
 3015 07c1 01       		.byte	0x1
 3016 07c2 88       		.byte	0x88
 3017 07c3 E3070000 		.4byte	0x7e3
 3018 07c7 1F       		.uleb128 0x1f
 3019 07c8 01070000 		.4byte	0x701
 3020 07cc EE000000 		.4byte	.LLST9
 3021 07d0 1F       		.uleb128 0x1f
 3022 07d1 F5060000 		.4byte	0x6f5
 3023 07d5 02010000 		.4byte	.LLST10
 3024 07d9 1F       		.uleb128 0x1f
 3025 07da E9060000 		.4byte	0x6e9
 3026 07de 16010000 		.4byte	.LLST11
 3027 07e2 00       		.byte	0
 3028 07e3 1E       		.uleb128 0x1e
 3029 07e4 DC060000 		.4byte	0x6dc
 3030 07e8 2E000000 		.4byte	.LBB64
 3031 07ec 0A000000 		.4byte	.LBE64-.LBB64
 3032 07f0 01       		.byte	0x1
 3033 07f1 98       		.byte	0x98
 3034 07f2 12080000 		.4byte	0x812
 3035 07f6 1F       		.uleb128 0x1f
ARM GAS  C:\Users\rober\AppData\Local\Temp\ccBlBMtt.s 			page 87


 3036 07f7 01070000 		.4byte	0x701
 3037 07fb 2E010000 		.4byte	.LLST12
 3038 07ff 1F       		.uleb128 0x1f
 3039 0800 F5060000 		.4byte	0x6f5
 3040 0804 42010000 		.4byte	.LLST13
 3041 0808 1F       		.uleb128 0x1f
 3042 0809 E9060000 		.4byte	0x6e9
 3043 080d 56010000 		.4byte	.LLST14
 3044 0811 00       		.byte	0
 3045 0812 20       		.uleb128 0x20
 3046 0813 16000000 		.4byte	.LVL4
 3047 0817 9F160000 		.4byte	0x169f
 3048 081b 26080000 		.4byte	0x826
 3049 081f 21       		.uleb128 0x21
 3050 0820 01       		.uleb128 0x1
 3051 0821 50       		.byte	0x50
 3052 0822 02       		.uleb128 0x2
 3053 0823 08       		.byte	0x8
 3054 0824 70       		.byte	0x70
 3055 0825 00       		.byte	0
 3056 0826 20       		.uleb128 0x20
 3057 0827 1C000000 		.4byte	.LVL5
 3058 082b 9F160000 		.4byte	0x169f
 3059 082f 3A080000 		.4byte	0x83a
 3060 0833 21       		.uleb128 0x21
 3061 0834 01       		.uleb128 0x1
 3062 0835 50       		.byte	0x50
 3063 0836 02       		.uleb128 0x2
 3064 0837 78       		.byte	0x78
 3065 0838 00       		.sleb128 0
 3066 0839 00       		.byte	0
 3067 083a 20       		.uleb128 0x20
 3068 083b 26000000 		.4byte	.LVL8
 3069 083f 9F160000 		.4byte	0x169f
 3070 0843 4E080000 		.4byte	0x84e
 3071 0847 21       		.uleb128 0x21
 3072 0848 01       		.uleb128 0x1
 3073 0849 50       		.byte	0x50
 3074 084a 02       		.uleb128 0x2
 3075 084b 08       		.byte	0x8
 3076 084c 72       		.byte	0x72
 3077 084d 00       		.byte	0
 3078 084e 22       		.uleb128 0x22
 3079 084f 2E000000 		.4byte	.LVL9
 3080 0853 AA160000 		.4byte	0x16aa
 3081 0857 21       		.uleb128 0x21
 3082 0858 01       		.uleb128 0x1
 3083 0859 50       		.byte	0x50
 3084 085a 02       		.uleb128 0x2
 3085 085b 76       		.byte	0x76
 3086 085c 00       		.sleb128 0
 3087 085d 21       		.uleb128 0x21
 3088 085e 01       		.uleb128 0x1
 3089 085f 51       		.byte	0x51
 3090 0860 02       		.uleb128 0x2
 3091 0861 77       		.byte	0x77
 3092 0862 00       		.sleb128 0
ARM GAS  C:\Users\rober\AppData\Local\Temp\ccBlBMtt.s 			page 88


 3093 0863 00       		.byte	0
 3094 0864 00       		.byte	0
 3095 0865 1C       		.uleb128 0x1c
 3096 0866 9F000000 		.4byte	.LASF129
 3097 086a 01       		.byte	0x1
 3098 086b AB       		.byte	0xab
 3099 086c 00000000 		.4byte	.LFB604
 3100 0870 18000000 		.4byte	.LFE604-.LFB604
 3101 0874 01       		.uleb128 0x1
 3102 0875 9C       		.byte	0x9c
 3103 0876 AE080000 		.4byte	0x8ae
 3104 087a 1D       		.uleb128 0x1d
 3105 087b 46050000 		.4byte	.LASF125
 3106 087f 01       		.byte	0x1
 3107 0880 AB       		.byte	0xab
 3108 0881 CF000000 		.4byte	0xcf
 3109 0885 6E010000 		.4byte	.LLST15
 3110 0889 1D       		.uleb128 0x1d
 3111 088a 2A040000 		.4byte	.LASF126
 3112 088e 01       		.byte	0x1
 3113 088f AB       		.byte	0xab
 3114 0890 CF000000 		.4byte	0xcf
 3115 0894 8F010000 		.4byte	.LLST16
 3116 0898 22       		.uleb128 0x22
 3117 0899 12000000 		.4byte	.LVL14
 3118 089d 14070000 		.4byte	0x714
 3119 08a1 21       		.uleb128 0x21
 3120 08a2 01       		.uleb128 0x1
 3121 08a3 51       		.byte	0x51
 3122 08a4 02       		.uleb128 0x2
 3123 08a5 91       		.byte	0x91
 3124 08a6 77       		.sleb128 -9
 3125 08a7 21       		.uleb128 0x21
 3126 08a8 01       		.uleb128 0x1
 3127 08a9 52       		.byte	0x52
 3128 08aa 01       		.uleb128 0x1
 3129 08ab 31       		.byte	0x31
 3130 08ac 00       		.byte	0
 3131 08ad 00       		.byte	0
 3132 08ae 23       		.uleb128 0x23
 3133 08af F1020000 		.4byte	.LASF131
 3134 08b3 01       		.byte	0x1
 3135 08b4 C2       		.byte	0xc2
 3136 08b5 CF000000 		.4byte	0xcf
 3137 08b9 00000000 		.4byte	.LFB605
 3138 08bd 30000000 		.4byte	.LFE605-.LFB605
 3139 08c1 01       		.uleb128 0x1
 3140 08c2 9C       		.byte	0x9c
 3141 08c3 FB090000 		.4byte	0x9fb
 3142 08c7 1D       		.uleb128 0x1d
 3143 08c8 46050000 		.4byte	.LASF125
 3144 08cc 01       		.byte	0x1
 3145 08cd C2       		.byte	0xc2
 3146 08ce CF000000 		.4byte	0xcf
 3147 08d2 BA010000 		.4byte	.LLST17
 3148 08d6 1D       		.uleb128 0x1d
 3149 08d7 2A040000 		.4byte	.LASF126
ARM GAS  C:\Users\rober\AppData\Local\Temp\ccBlBMtt.s 			page 89


 3150 08db 01       		.byte	0x1
 3151 08dc C2       		.byte	0xc2
 3152 08dd CF000000 		.4byte	0xcf
 3153 08e1 DB010000 		.4byte	.LLST18
 3154 08e5 24       		.uleb128 0x24
 3155 08e6 73090000 		.4byte	.LASF133
 3156 08ea 01       		.byte	0x1
 3157 08eb C5       		.byte	0xc5
 3158 08ec CF000000 		.4byte	0xcf
 3159 08f0 01       		.uleb128 0x1
 3160 08f1 50       		.byte	0x50
 3161 08f2 1E       		.uleb128 0x1e
 3162 08f3 DC060000 		.4byte	0x6dc
 3163 08f7 06000000 		.4byte	.LBB66
 3164 08fb 06000000 		.4byte	.LBE66-.LBB66
 3165 08ff 01       		.byte	0x1
 3166 0900 C8       		.byte	0xc8
 3167 0901 21090000 		.4byte	0x921
 3168 0905 1F       		.uleb128 0x1f
 3169 0906 01070000 		.4byte	0x701
 3170 090a FC010000 		.4byte	.LLST19
 3171 090e 1F       		.uleb128 0x1f
 3172 090f F5060000 		.4byte	0x6f5
 3173 0913 10020000 		.4byte	.LLST20
 3174 0917 1F       		.uleb128 0x1f
 3175 0918 E9060000 		.4byte	0x6e9
 3176 091c 24020000 		.4byte	.LLST21
 3177 0920 00       		.byte	0
 3178 0921 1E       		.uleb128 0x1e
 3179 0922 DC060000 		.4byte	0x6dc
 3180 0926 18000000 		.4byte	.LBB68
 3181 092a 02000000 		.4byte	.LBE68-.LBB68
 3182 092e 01       		.byte	0x1
 3183 092f CE       		.byte	0xce
 3184 0930 50090000 		.4byte	0x950
 3185 0934 1F       		.uleb128 0x1f
 3186 0935 01070000 		.4byte	0x701
 3187 0939 3C020000 		.4byte	.LLST22
 3188 093d 1F       		.uleb128 0x1f
 3189 093e F5060000 		.4byte	0x6f5
 3190 0942 50020000 		.4byte	.LLST23
 3191 0946 1F       		.uleb128 0x1f
 3192 0947 E9060000 		.4byte	0x6e9
 3193 094b 64020000 		.4byte	.LLST24
 3194 094f 00       		.byte	0
 3195 0950 1E       		.uleb128 0x1e
 3196 0951 DC060000 		.4byte	0x6dc
 3197 0955 1A000000 		.4byte	.LBB70
 3198 0959 02000000 		.4byte	.LBE70-.LBB70
 3199 095d 01       		.byte	0x1
 3200 095e D4       		.byte	0xd4
 3201 095f 7F090000 		.4byte	0x97f
 3202 0963 1F       		.uleb128 0x1f
 3203 0964 01070000 		.4byte	0x701
 3204 0968 7C020000 		.4byte	.LLST25
 3205 096c 1F       		.uleb128 0x1f
 3206 096d F5060000 		.4byte	0x6f5
ARM GAS  C:\Users\rober\AppData\Local\Temp\ccBlBMtt.s 			page 90


 3207 0971 90020000 		.4byte	.LLST26
 3208 0975 1F       		.uleb128 0x1f
 3209 0976 E9060000 		.4byte	0x6e9
 3210 097a A4020000 		.4byte	.LLST27
 3211 097e 00       		.byte	0
 3212 097f 1E       		.uleb128 0x1e
 3213 0980 DC060000 		.4byte	0x6dc
 3214 0984 28000000 		.4byte	.LBB72
 3215 0988 02000000 		.4byte	.LBE72-.LBB72
 3216 098c 01       		.byte	0x1
 3217 098d DA       		.byte	0xda
 3218 098e AE090000 		.4byte	0x9ae
 3219 0992 1F       		.uleb128 0x1f
 3220 0993 01070000 		.4byte	0x701
 3221 0997 BC020000 		.4byte	.LLST28
 3222 099b 1F       		.uleb128 0x1f
 3223 099c F5060000 		.4byte	0x6f5
 3224 09a0 D0020000 		.4byte	.LLST29
 3225 09a4 1F       		.uleb128 0x1f
 3226 09a5 E9060000 		.4byte	0x6e9
 3227 09a9 E4020000 		.4byte	.LLST30
 3228 09ad 00       		.byte	0
 3229 09ae 20       		.uleb128 0x20
 3230 09af 12000000 		.4byte	.LVL19
 3231 09b3 9F160000 		.4byte	0x169f
 3232 09b7 C2090000 		.4byte	0x9c2
 3233 09bb 21       		.uleb128 0x21
 3234 09bc 01       		.uleb128 0x1
 3235 09bd 50       		.byte	0x50
 3236 09be 02       		.uleb128 0x2
 3237 09bf 08       		.byte	0x8
 3238 09c0 70       		.byte	0x70
 3239 09c1 00       		.byte	0
 3240 09c2 20       		.uleb128 0x20
 3241 09c3 18000000 		.4byte	.LVL20
 3242 09c7 9F160000 		.4byte	0x169f
 3243 09cb D6090000 		.4byte	0x9d6
 3244 09cf 21       		.uleb128 0x21
 3245 09d0 01       		.uleb128 0x1
 3246 09d1 50       		.byte	0x50
 3247 09d2 02       		.uleb128 0x2
 3248 09d3 77       		.byte	0x77
 3249 09d4 00       		.sleb128 0
 3250 09d5 00       		.byte	0
 3251 09d6 20       		.uleb128 0x20
 3252 09d7 22000000 		.4byte	.LVL23
 3253 09db 9F160000 		.4byte	0x169f
 3254 09df EA090000 		.4byte	0x9ea
 3255 09e3 21       		.uleb128 0x21
 3256 09e4 01       		.uleb128 0x1
 3257 09e5 50       		.byte	0x50
 3258 09e6 02       		.uleb128 0x2
 3259 09e7 08       		.byte	0x8
 3260 09e8 73       		.byte	0x73
 3261 09e9 00       		.byte	0
 3262 09ea 22       		.uleb128 0x22
 3263 09eb 28000000 		.4byte	.LVL24
ARM GAS  C:\Users\rober\AppData\Local\Temp\ccBlBMtt.s 			page 91


 3264 09ef B5160000 		.4byte	0x16b5
 3265 09f3 21       		.uleb128 0x21
 3266 09f4 01       		.uleb128 0x1
 3267 09f5 50       		.byte	0x50
 3268 09f6 02       		.uleb128 0x2
 3269 09f7 76       		.byte	0x76
 3270 09f8 00       		.sleb128 0
 3271 09f9 00       		.byte	0
 3272 09fa 00       		.byte	0
 3273 09fb 1C       		.uleb128 0x1c
 3274 09fc D6050000 		.4byte	.LASF130
 3275 0a00 01       		.byte	0x1
 3276 0a01 EF       		.byte	0xef
 3277 0a02 00000000 		.4byte	.LFB606
 3278 0a06 34000000 		.4byte	.LFE606-.LFB606
 3279 0a0a 01       		.uleb128 0x1
 3280 0a0b 9C       		.byte	0x9c
 3281 0a0c 3D0B0000 		.4byte	0xb3d
 3282 0a10 1E       		.uleb128 0x1e
 3283 0a11 DC060000 		.4byte	0x6dc
 3284 0a15 02000000 		.4byte	.LBB74
 3285 0a19 06000000 		.4byte	.LBE74-.LBB74
 3286 0a1d 01       		.byte	0x1
 3287 0a1e F2       		.byte	0xf2
 3288 0a1f 3F0A0000 		.4byte	0xa3f
 3289 0a23 1F       		.uleb128 0x1f
 3290 0a24 01070000 		.4byte	0x701
 3291 0a28 FC020000 		.4byte	.LLST31
 3292 0a2c 1F       		.uleb128 0x1f
 3293 0a2d F5060000 		.4byte	0x6f5
 3294 0a31 10030000 		.4byte	.LLST32
 3295 0a35 1F       		.uleb128 0x1f
 3296 0a36 E9060000 		.4byte	0x6e9
 3297 0a3a 24030000 		.4byte	.LLST33
 3298 0a3e 00       		.byte	0
 3299 0a3f 1E       		.uleb128 0x1e
 3300 0a40 DC060000 		.4byte	0x6dc
 3301 0a44 08000000 		.4byte	.LBB76
 3302 0a48 06000000 		.4byte	.LBE76-.LBB76
 3303 0a4c 01       		.byte	0x1
 3304 0a4d F4       		.byte	0xf4
 3305 0a4e 6E0A0000 		.4byte	0xa6e
 3306 0a52 1F       		.uleb128 0x1f
 3307 0a53 01070000 		.4byte	0x701
 3308 0a57 3C030000 		.4byte	.LLST34
 3309 0a5b 1F       		.uleb128 0x1f
 3310 0a5c F5060000 		.4byte	0x6f5
 3311 0a60 50030000 		.4byte	.LLST35
 3312 0a64 1F       		.uleb128 0x1f
 3313 0a65 E9060000 		.4byte	0x6e9
 3314 0a69 64030000 		.4byte	.LLST36
 3315 0a6d 00       		.byte	0
 3316 0a6e 1E       		.uleb128 0x1e
 3317 0a6f DC060000 		.4byte	0x6dc
 3318 0a73 0E000000 		.4byte	.LBB78
 3319 0a77 04000000 		.4byte	.LBE78-.LBB78
 3320 0a7b 01       		.byte	0x1
ARM GAS  C:\Users\rober\AppData\Local\Temp\ccBlBMtt.s 			page 92


 3321 0a7c F6       		.byte	0xf6
 3322 0a7d 9D0A0000 		.4byte	0xa9d
 3323 0a81 1F       		.uleb128 0x1f
 3324 0a82 01070000 		.4byte	0x701
 3325 0a86 7C030000 		.4byte	.LLST37
 3326 0a8a 1F       		.uleb128 0x1f
 3327 0a8b F5060000 		.4byte	0x6f5
 3328 0a8f 90030000 		.4byte	.LLST38
 3329 0a93 1F       		.uleb128 0x1f
 3330 0a94 E9060000 		.4byte	0x6e9
 3331 0a98 A4030000 		.4byte	.LLST39
 3332 0a9c 00       		.byte	0
 3333 0a9d 1E       		.uleb128 0x1e
 3334 0a9e DC060000 		.4byte	0x6dc
 3335 0aa2 16000000 		.4byte	.LBB80
 3336 0aa6 06000000 		.4byte	.LBE80-.LBB80
 3337 0aaa 01       		.byte	0x1
 3338 0aab FB       		.byte	0xfb
 3339 0aac CC0A0000 		.4byte	0xacc
 3340 0ab0 1F       		.uleb128 0x1f
 3341 0ab1 01070000 		.4byte	0x701
 3342 0ab5 BC030000 		.4byte	.LLST40
 3343 0ab9 1F       		.uleb128 0x1f
 3344 0aba F5060000 		.4byte	0x6f5
 3345 0abe D0030000 		.4byte	.LLST41
 3346 0ac2 1F       		.uleb128 0x1f
 3347 0ac3 E9060000 		.4byte	0x6e9
 3348 0ac7 E4030000 		.4byte	.LLST42
 3349 0acb 00       		.byte	0
 3350 0acc 1E       		.uleb128 0x1e
 3351 0acd DC060000 		.4byte	0x6dc
 3352 0ad1 1C000000 		.4byte	.LBB82
 3353 0ad5 02000000 		.4byte	.LBE82-.LBB82
 3354 0ad9 01       		.byte	0x1
 3355 0ada FC       		.byte	0xfc
 3356 0adb FB0A0000 		.4byte	0xafb
 3357 0adf 1F       		.uleb128 0x1f
 3358 0ae0 01070000 		.4byte	0x701
 3359 0ae4 FC030000 		.4byte	.LLST43
 3360 0ae8 1F       		.uleb128 0x1f
 3361 0ae9 F5060000 		.4byte	0x6f5
 3362 0aed 10040000 		.4byte	.LLST44
 3363 0af1 1F       		.uleb128 0x1f
 3364 0af2 E9060000 		.4byte	0x6e9
 3365 0af6 24040000 		.4byte	.LLST45
 3366 0afa 00       		.byte	0
 3367 0afb 1E       		.uleb128 0x1e
 3368 0afc DC060000 		.4byte	0x6dc
 3369 0b00 1E000000 		.4byte	.LBB84
 3370 0b04 04000000 		.4byte	.LBE84-.LBB84
 3371 0b08 01       		.byte	0x1
 3372 0b09 FD       		.byte	0xfd
 3373 0b0a 2A0B0000 		.4byte	0xb2a
 3374 0b0e 1F       		.uleb128 0x1f
 3375 0b0f 01070000 		.4byte	0x701
 3376 0b13 3C040000 		.4byte	.LLST46
 3377 0b17 1F       		.uleb128 0x1f
ARM GAS  C:\Users\rober\AppData\Local\Temp\ccBlBMtt.s 			page 93


 3378 0b18 F5060000 		.4byte	0x6f5
 3379 0b1c 50040000 		.4byte	.LLST47
 3380 0b20 1F       		.uleb128 0x1f
 3381 0b21 E9060000 		.4byte	0x6e9
 3382 0b25 64040000 		.4byte	.LLST48
 3383 0b29 00       		.byte	0
 3384 0b2a 25       		.uleb128 0x25
 3385 0b2b 16000000 		.4byte	.LVL30
 3386 0b2f C0160000 		.4byte	0x16c0
 3387 0b33 25       		.uleb128 0x25
 3388 0b34 26000000 		.4byte	.LVL34
 3389 0b38 CB160000 		.4byte	0x16cb
 3390 0b3c 00       		.byte	0
 3391 0b3d 26       		.uleb128 0x26
 3392 0b3e A7050000 		.4byte	.LASF132
 3393 0b42 01       		.byte	0x1
 3394 0b43 1301     		.2byte	0x113
 3395 0b45 0A060000 		.4byte	0x60a
 3396 0b49 00000000 		.4byte	.LFB607
 3397 0b4d 18010000 		.4byte	.LFE607-.LFB607
 3398 0b51 01       		.uleb128 0x1
 3399 0b52 9C       		.byte	0x9c
 3400 0b53 7F0D0000 		.4byte	0xd7f
 3401 0b57 27       		.uleb128 0x27
 3402 0b58 D6000000 		.4byte	.LASF134
 3403 0b5c 01       		.byte	0x1
 3404 0b5d 1601     		.2byte	0x116
 3405 0b5f E5000000 		.4byte	0xe5
 3406 0b63 7C040000 		.4byte	.LLST49
 3407 0b67 20       		.uleb128 0x20
 3408 0b68 0E000000 		.4byte	.LVL36
 3409 0b6c D6160000 		.4byte	0x16d6
 3410 0b70 860B0000 		.4byte	0xb86
 3411 0b74 21       		.uleb128 0x21
 3412 0b75 01       		.uleb128 0x1
 3413 0b76 50       		.byte	0x50
 3414 0b77 02       		.uleb128 0x2
 3415 0b78 74       		.byte	0x74
 3416 0b79 00       		.sleb128 0
 3417 0b7a 21       		.uleb128 0x21
 3418 0b7b 01       		.uleb128 0x1
 3419 0b7c 51       		.byte	0x51
 3420 0b7d 01       		.uleb128 0x1
 3421 0b7e 30       		.byte	0x30
 3422 0b7f 21       		.uleb128 0x21
 3423 0b80 01       		.uleb128 0x1
 3424 0b81 52       		.byte	0x52
 3425 0b82 02       		.uleb128 0x2
 3426 0b83 08       		.byte	0x8
 3427 0b84 6F       		.byte	0x6f
 3428 0b85 00       		.byte	0
 3429 0b86 25       		.uleb128 0x25
 3430 0b87 22000000 		.4byte	.LVL37
 3431 0b8b CB160000 		.4byte	0x16cb
 3432 0b8f 25       		.uleb128 0x25
 3433 0b90 28000000 		.4byte	.LVL38
 3434 0b94 DF160000 		.4byte	0x16df
ARM GAS  C:\Users\rober\AppData\Local\Temp\ccBlBMtt.s 			page 94


 3435 0b98 25       		.uleb128 0x25
 3436 0b99 30000000 		.4byte	.LVL39
 3437 0b9d EA160000 		.4byte	0x16ea
 3438 0ba1 25       		.uleb128 0x25
 3439 0ba2 38000000 		.4byte	.LVL40
 3440 0ba6 F5160000 		.4byte	0x16f5
 3441 0baa 20       		.uleb128 0x20
 3442 0bab 40000000 		.4byte	.LVL41
 3443 0baf AE080000 		.4byte	0x8ae
 3444 0bb3 C30B0000 		.4byte	0xbc3
 3445 0bb7 21       		.uleb128 0x21
 3446 0bb8 01       		.uleb128 0x1
 3447 0bb9 50       		.byte	0x50
 3448 0bba 02       		.uleb128 0x2
 3449 0bbb 08       		.byte	0x8
 3450 0bbc 72       		.byte	0x72
 3451 0bbd 21       		.uleb128 0x21
 3452 0bbe 01       		.uleb128 0x1
 3453 0bbf 51       		.byte	0x51
 3454 0bc0 01       		.uleb128 0x1
 3455 0bc1 30       		.byte	0x30
 3456 0bc2 00       		.byte	0
 3457 0bc3 20       		.uleb128 0x20
 3458 0bc4 4E000000 		.4byte	.LVL42
 3459 0bc8 65080000 		.4byte	0x865
 3460 0bcc D70B0000 		.4byte	0xbd7
 3461 0bd0 21       		.uleb128 0x21
 3462 0bd1 01       		.uleb128 0x1
 3463 0bd2 51       		.byte	0x51
 3464 0bd3 02       		.uleb128 0x2
 3465 0bd4 08       		.byte	0x8
 3466 0bd5 40       		.byte	0x40
 3467 0bd6 00       		.byte	0
 3468 0bd7 20       		.uleb128 0x20
 3469 0bd8 56000000 		.4byte	.LVL43
 3470 0bdc AE080000 		.4byte	0x8ae
 3471 0be0 EF0B0000 		.4byte	0xbef
 3472 0be4 21       		.uleb128 0x21
 3473 0be5 01       		.uleb128 0x1
 3474 0be6 50       		.byte	0x50
 3475 0be7 01       		.uleb128 0x1
 3476 0be8 3F       		.byte	0x3f
 3477 0be9 21       		.uleb128 0x21
 3478 0bea 01       		.uleb128 0x1
 3479 0beb 51       		.byte	0x51
 3480 0bec 01       		.uleb128 0x1
 3481 0bed 30       		.byte	0x30
 3482 0bee 00       		.byte	0
 3483 0bef 20       		.uleb128 0x20
 3484 0bf0 64000000 		.4byte	.LVL44
 3485 0bf4 65080000 		.4byte	0x865
 3486 0bf8 070C0000 		.4byte	0xc07
 3487 0bfc 21       		.uleb128 0x21
 3488 0bfd 01       		.uleb128 0x1
 3489 0bfe 50       		.byte	0x50
 3490 0bff 01       		.uleb128 0x1
 3491 0c00 3B       		.byte	0x3b
ARM GAS  C:\Users\rober\AppData\Local\Temp\ccBlBMtt.s 			page 95


 3492 0c01 21       		.uleb128 0x21
 3493 0c02 01       		.uleb128 0x1
 3494 0c03 51       		.byte	0x51
 3495 0c04 01       		.uleb128 0x1
 3496 0c05 32       		.byte	0x32
 3497 0c06 00       		.byte	0
 3498 0c07 20       		.uleb128 0x20
 3499 0c08 6E000000 		.4byte	.LVL45
 3500 0c0c 14070000 		.4byte	0x714
 3501 0c10 280C0000 		.4byte	0xc28
 3502 0c14 21       		.uleb128 0x21
 3503 0c15 01       		.uleb128 0x1
 3504 0c16 50       		.byte	0x50
 3505 0c17 01       		.uleb128 0x1
 3506 0c18 31       		.byte	0x31
 3507 0c19 21       		.uleb128 0x21
 3508 0c1a 01       		.uleb128 0x1
 3509 0c1b 51       		.byte	0x51
 3510 0c1c 05       		.uleb128 0x5
 3511 0c1d 03       		.byte	0x3
 3512 0c1e 00000000 		.4byte	.LANCHOR1
 3513 0c22 21       		.uleb128 0x21
 3514 0c23 01       		.uleb128 0x1
 3515 0c24 52       		.byte	0x52
 3516 0c25 01       		.uleb128 0x1
 3517 0c26 38       		.byte	0x38
 3518 0c27 00       		.byte	0
 3519 0c28 20       		.uleb128 0x20
 3520 0c29 76000000 		.4byte	.LVL46
 3521 0c2d 65080000 		.4byte	0x865
 3522 0c31 410C0000 		.4byte	0xc41
 3523 0c35 21       		.uleb128 0x21
 3524 0c36 01       		.uleb128 0x1
 3525 0c37 50       		.byte	0x50
 3526 0c38 01       		.uleb128 0x1
 3527 0c39 37       		.byte	0x37
 3528 0c3a 21       		.uleb128 0x21
 3529 0c3b 01       		.uleb128 0x1
 3530 0c3c 51       		.byte	0x51
 3531 0c3d 02       		.uleb128 0x2
 3532 0c3e 09       		.byte	0x9
 3533 0c3f D1       		.byte	0xd1
 3534 0c40 00       		.byte	0
 3535 0c41 20       		.uleb128 0x20
 3536 0c42 7E000000 		.4byte	.LVL47
 3537 0c46 65080000 		.4byte	0x865
 3538 0c4a 590C0000 		.4byte	0xc59
 3539 0c4e 21       		.uleb128 0x21
 3540 0c4f 01       		.uleb128 0x1
 3541 0c50 50       		.byte	0x50
 3542 0c51 01       		.uleb128 0x1
 3543 0c52 38       		.byte	0x38
 3544 0c53 21       		.uleb128 0x21
 3545 0c54 01       		.uleb128 0x1
 3546 0c55 51       		.byte	0x51
 3547 0c56 01       		.uleb128 0x1
 3548 0c57 32       		.byte	0x32
ARM GAS  C:\Users\rober\AppData\Local\Temp\ccBlBMtt.s 			page 96


 3549 0c58 00       		.byte	0
 3550 0c59 20       		.uleb128 0x20
 3551 0c5a 86000000 		.4byte	.LVL48
 3552 0c5e 65080000 		.4byte	0x865
 3553 0c62 720C0000 		.4byte	0xc72
 3554 0c66 21       		.uleb128 0x21
 3555 0c67 01       		.uleb128 0x1
 3556 0c68 50       		.byte	0x50
 3557 0c69 01       		.uleb128 0x1
 3558 0c6a 39       		.byte	0x39
 3559 0c6b 21       		.uleb128 0x21
 3560 0c6c 01       		.uleb128 0x1
 3561 0c6d 51       		.byte	0x51
 3562 0c6e 02       		.uleb128 0x2
 3563 0c6f 09       		.byte	0x9
 3564 0c70 C2       		.byte	0xc2
 3565 0c71 00       		.byte	0
 3566 0c72 20       		.uleb128 0x20
 3567 0c73 8E000000 		.4byte	.LVL49
 3568 0c77 65080000 		.4byte	0x865
 3569 0c7b 8A0C0000 		.4byte	0xc8a
 3570 0c7f 21       		.uleb128 0x21
 3571 0c80 01       		.uleb128 0x1
 3572 0c81 50       		.byte	0x50
 3573 0c82 01       		.uleb128 0x1
 3574 0c83 34       		.byte	0x34
 3575 0c84 21       		.uleb128 0x21
 3576 0c85 01       		.uleb128 0x1
 3577 0c86 51       		.byte	0x51
 3578 0c87 01       		.uleb128 0x1
 3579 0c88 33       		.byte	0x33
 3580 0c89 00       		.byte	0
 3581 0c8a 20       		.uleb128 0x20
 3582 0c8b 96000000 		.4byte	.LVL50
 3583 0c8f 65080000 		.4byte	0x865
 3584 0c93 A20C0000 		.4byte	0xca2
 3585 0c97 21       		.uleb128 0x21
 3586 0c98 01       		.uleb128 0x1
 3587 0c99 50       		.byte	0x50
 3588 0c9a 01       		.uleb128 0x1
 3589 0c9b 33       		.byte	0x33
 3590 0c9c 21       		.uleb128 0x21
 3591 0c9d 01       		.uleb128 0x1
 3592 0c9e 51       		.byte	0x51
 3593 0c9f 01       		.uleb128 0x1
 3594 0ca0 31       		.byte	0x31
 3595 0ca1 00       		.byte	0
 3596 0ca2 20       		.uleb128 0x20
 3597 0ca3 9E000000 		.4byte	.LVL51
 3598 0ca7 65080000 		.4byte	0x865
 3599 0cab BA0C0000 		.4byte	0xcba
 3600 0caf 21       		.uleb128 0x21
 3601 0cb0 01       		.uleb128 0x1
 3602 0cb1 50       		.byte	0x50
 3603 0cb2 01       		.uleb128 0x1
 3604 0cb3 33       		.byte	0x33
 3605 0cb4 21       		.uleb128 0x21
ARM GAS  C:\Users\rober\AppData\Local\Temp\ccBlBMtt.s 			page 97


 3606 0cb5 01       		.uleb128 0x1
 3607 0cb6 51       		.byte	0x51
 3608 0cb7 01       		.uleb128 0x1
 3609 0cb8 30       		.byte	0x30
 3610 0cb9 00       		.byte	0
 3611 0cba 20       		.uleb128 0x20
 3612 0cbb A4000000 		.4byte	.LVL52
 3613 0cbf 00170000 		.4byte	0x1700
 3614 0cc3 CD0C0000 		.4byte	0xccd
 3615 0cc7 21       		.uleb128 0x21
 3616 0cc8 01       		.uleb128 0x1
 3617 0cc9 50       		.byte	0x50
 3618 0cca 01       		.uleb128 0x1
 3619 0ccb 3A       		.byte	0x3a
 3620 0ccc 00       		.byte	0
 3621 0ccd 20       		.uleb128 0x20
 3622 0cce B2000000 		.4byte	.LVL55
 3623 0cd2 65080000 		.4byte	0x865
 3624 0cd6 E50C0000 		.4byte	0xce5
 3625 0cda 21       		.uleb128 0x21
 3626 0cdb 01       		.uleb128 0x1
 3627 0cdc 50       		.byte	0x50
 3628 0cdd 01       		.uleb128 0x1
 3629 0cde 35       		.byte	0x35
 3630 0cdf 21       		.uleb128 0x21
 3631 0ce0 01       		.uleb128 0x1
 3632 0ce1 51       		.byte	0x51
 3633 0ce2 01       		.uleb128 0x1
 3634 0ce3 31       		.byte	0x31
 3635 0ce4 00       		.byte	0
 3636 0ce5 20       		.uleb128 0x20
 3637 0ce6 B8000000 		.4byte	.LVL56
 3638 0cea 00170000 		.4byte	0x1700
 3639 0cee F90C0000 		.4byte	0xcf9
 3640 0cf2 21       		.uleb128 0x21
 3641 0cf3 01       		.uleb128 0x1
 3642 0cf4 50       		.byte	0x50
 3643 0cf5 02       		.uleb128 0x2
 3644 0cf6 08       		.byte	0x8
 3645 0cf7 64       		.byte	0x64
 3646 0cf8 00       		.byte	0
 3647 0cf9 20       		.uleb128 0x20
 3648 0cfa C0000000 		.4byte	.LVL57
 3649 0cfe 65080000 		.4byte	0x865
 3650 0d02 110D0000 		.4byte	0xd11
 3651 0d06 21       		.uleb128 0x21
 3652 0d07 01       		.uleb128 0x1
 3653 0d08 50       		.byte	0x50
 3654 0d09 01       		.uleb128 0x1
 3655 0d0a 35       		.byte	0x35
 3656 0d0b 21       		.uleb128 0x21
 3657 0d0c 01       		.uleb128 0x1
 3658 0d0d 51       		.byte	0x51
 3659 0d0e 01       		.uleb128 0x1
 3660 0d0f 33       		.byte	0x33
 3661 0d10 00       		.byte	0
 3662 0d11 20       		.uleb128 0x20
ARM GAS  C:\Users\rober\AppData\Local\Temp\ccBlBMtt.s 			page 98


 3663 0d12 C6000000 		.4byte	.LVL58
 3664 0d16 00170000 		.4byte	0x1700
 3665 0d1a 250D0000 		.4byte	0xd25
 3666 0d1e 21       		.uleb128 0x21
 3667 0d1f 01       		.uleb128 0x1
 3668 0d20 50       		.byte	0x50
 3669 0d21 02       		.uleb128 0x2
 3670 0d22 08       		.byte	0x8
 3671 0d23 32       		.byte	0x32
 3672 0d24 00       		.byte	0
 3673 0d25 20       		.uleb128 0x20
 3674 0d26 CE000000 		.4byte	.LVL59
 3675 0d2a 65080000 		.4byte	0x865
 3676 0d2e 3D0D0000 		.4byte	0xd3d
 3677 0d32 21       		.uleb128 0x21
 3678 0d33 01       		.uleb128 0x1
 3679 0d34 50       		.byte	0x50
 3680 0d35 01       		.uleb128 0x1
 3681 0d36 35       		.byte	0x35
 3682 0d37 21       		.uleb128 0x21
 3683 0d38 01       		.uleb128 0x1
 3684 0d39 51       		.byte	0x51
 3685 0d3a 01       		.uleb128 0x1
 3686 0d3b 3F       		.byte	0x3f
 3687 0d3c 00       		.byte	0
 3688 0d3d 20       		.uleb128 0x20
 3689 0d3e D4000000 		.4byte	.LVL60
 3690 0d42 00170000 		.4byte	0x1700
 3691 0d46 510D0000 		.4byte	0xd51
 3692 0d4a 21       		.uleb128 0x21
 3693 0d4b 01       		.uleb128 0x1
 3694 0d4c 50       		.byte	0x50
 3695 0d4d 02       		.uleb128 0x2
 3696 0d4e 08       		.byte	0x8
 3697 0d4f 32       		.byte	0x32
 3698 0d50 00       		.byte	0
 3699 0d51 20       		.uleb128 0x20
 3700 0d52 DC000000 		.4byte	.LVL61
 3701 0d56 AE080000 		.4byte	0x8ae
 3702 0d5a 690D0000 		.4byte	0xd69
 3703 0d5e 21       		.uleb128 0x21
 3704 0d5f 01       		.uleb128 0x1
 3705 0d60 50       		.byte	0x50
 3706 0d61 01       		.uleb128 0x1
 3707 0d62 3F       		.byte	0x3f
 3708 0d63 21       		.uleb128 0x21
 3709 0d64 01       		.uleb128 0x1
 3710 0d65 51       		.byte	0x51
 3711 0d66 01       		.uleb128 0x1
 3712 0d67 30       		.byte	0x30
 3713 0d68 00       		.byte	0
 3714 0d69 22       		.uleb128 0x22
 3715 0d6a EA000000 		.4byte	.LVL62
 3716 0d6e 65080000 		.4byte	0x865
 3717 0d72 21       		.uleb128 0x21
 3718 0d73 01       		.uleb128 0x1
 3719 0d74 50       		.byte	0x50
ARM GAS  C:\Users\rober\AppData\Local\Temp\ccBlBMtt.s 			page 99


 3720 0d75 01       		.uleb128 0x1
 3721 0d76 32       		.byte	0x32
 3722 0d77 21       		.uleb128 0x21
 3723 0d78 01       		.uleb128 0x1
 3724 0d79 51       		.byte	0x51
 3725 0d7a 02       		.uleb128 0x2
 3726 0d7b 08       		.byte	0x8
 3727 0d7c 40       		.byte	0x40
 3728 0d7d 00       		.byte	0
 3729 0d7e 00       		.byte	0
 3730 0d7f 28       		.uleb128 0x28
 3731 0d80 5C040000 		.4byte	.LASF135
 3732 0d84 01       		.byte	0x1
 3733 0d85 A201     		.2byte	0x1a2
 3734 0d87 00000000 		.4byte	.LFB608
 3735 0d8b 58000000 		.4byte	.LFE608-.LFB608
 3736 0d8f 01       		.uleb128 0x1
 3737 0d90 9C       		.byte	0x9c
 3738 0d91 B20D0000 		.4byte	0xdb2
 3739 0d95 29       		.uleb128 0x29
 3740 0d96 E5020000 		.4byte	.LASF136
 3741 0d9a 01       		.byte	0x1
 3742 0d9b A201     		.2byte	0x1a2
 3743 0d9d C4000000 		.4byte	0xc4
 3744 0da1 01       		.uleb128 0x1
 3745 0da2 50       		.byte	0x50
 3746 0da3 2A       		.uleb128 0x2a
 3747 0da4 C8090000 		.4byte	.LASF137
 3748 0da8 01       		.byte	0x1
 3749 0da9 A501     		.2byte	0x1a5
 3750 0dab E5000000 		.4byte	0xe5
 3751 0daf 01       		.uleb128 0x1
 3752 0db0 52       		.byte	0x52
 3753 0db1 00       		.byte	0
 3754 0db2 28       		.uleb128 0x28
 3755 0db3 F7090000 		.4byte	.LASF138
 3756 0db7 01       		.byte	0x1
 3757 0db8 E701     		.2byte	0x1e7
 3758 0dba 00000000 		.4byte	.LFB609
 3759 0dbe 24040000 		.4byte	.LFE609-.LFB609
 3760 0dc2 01       		.uleb128 0x1
 3761 0dc3 9C       		.byte	0x9c
 3762 0dc4 C40E0000 		.4byte	0xec4
 3763 0dc8 2B       		.uleb128 0x2b
 3764 0dc9 D9070000 		.4byte	.LASF139
 3765 0dcd 01       		.byte	0x1
 3766 0dce E701     		.2byte	0x1e7
 3767 0dd0 C40E0000 		.4byte	0xec4
 3768 0dd4 C8040000 		.4byte	.LLST50
 3769 0dd8 2B       		.uleb128 0x2b
 3770 0dd9 1E030000 		.4byte	.LASF140
 3771 0ddd 01       		.byte	0x1
 3772 0dde E801     		.2byte	0x1e8
 3773 0de0 3A060000 		.4byte	0x63a
 3774 0de4 FE040000 		.4byte	.LLST51
 3775 0de8 2C       		.uleb128 0x2c
 3776 0de9 7800     		.ascii	"x\000"
ARM GAS  C:\Users\rober\AppData\Local\Temp\ccBlBMtt.s 			page 100


 3777 0deb 01       		.byte	0x1
 3778 0dec EB01     		.2byte	0x1eb
 3779 0dee E5000000 		.4byte	0xe5
 3780 0df2 1F050000 		.4byte	.LLST52
 3781 0df6 2C       		.uleb128 0x2c
 3782 0df7 7900     		.ascii	"y\000"
 3783 0df9 01       		.byte	0x1
 3784 0dfa ED01     		.2byte	0x1ed
 3785 0dfc E5000000 		.4byte	0xe5
 3786 0e00 49050000 		.4byte	.LLST53
 3787 0e04 2C       		.uleb128 0x2c
 3788 0e05 6B00     		.ascii	"k\000"
 3789 0e07 01       		.byte	0x1
 3790 0e08 EF01     		.2byte	0x1ef
 3791 0e0a E5000000 		.4byte	0xe5
 3792 0e0e 95050000 		.4byte	.LLST54
 3793 0e12 27       		.uleb128 0x27
 3794 0e13 5C090000 		.4byte	.LASF141
 3795 0e17 01       		.byte	0x1
 3796 0e18 F201     		.2byte	0x1f2
 3797 0e1a C9020000 		.4byte	0x2c9
 3798 0e1e E1050000 		.4byte	.LLST55
 3799 0e22 27       		.uleb128 0x27
 3800 0e23 58030000 		.4byte	.LASF142
 3801 0e27 01       		.byte	0x1
 3802 0e28 F501     		.2byte	0x1f5
 3803 0e2a CF000000 		.4byte	0xcf
 3804 0e2e 30060000 		.4byte	.LLST56
 3805 0e32 27       		.uleb128 0x27
 3806 0e33 B6070000 		.4byte	.LASF143
 3807 0e37 01       		.byte	0x1
 3808 0e38 F801     		.2byte	0x1f8
 3809 0e3a D5020000 		.4byte	0x2d5
 3810 0e3e 71060000 		.4byte	.LLST57
 3811 0e42 25       		.uleb128 0x25
 3812 0e43 24000000 		.4byte	.LVL77
 3813 0e47 CB160000 		.4byte	0x16cb
 3814 0e4b 20       		.uleb128 0x20
 3815 0e4c 44000000 		.4byte	.LVL79
 3816 0e50 D6160000 		.4byte	0x16d6
 3817 0e54 6A0E0000 		.4byte	0xe6a
 3818 0e58 21       		.uleb128 0x21
 3819 0e59 01       		.uleb128 0x1
 3820 0e5a 50       		.byte	0x50
 3821 0e5b 02       		.uleb128 0x2
 3822 0e5c 7B       		.byte	0x7b
 3823 0e5d 00       		.sleb128 0
 3824 0e5e 21       		.uleb128 0x21
 3825 0e5f 01       		.uleb128 0x1
 3826 0e60 51       		.byte	0x51
 3827 0e61 01       		.uleb128 0x1
 3828 0e62 30       		.byte	0x30
 3829 0e63 21       		.uleb128 0x21
 3830 0e64 01       		.uleb128 0x1
 3831 0e65 52       		.byte	0x52
 3832 0e66 02       		.uleb128 0x2
 3833 0e67 08       		.byte	0x8
ARM GAS  C:\Users\rober\AppData\Local\Temp\ccBlBMtt.s 			page 101


 3834 0e68 6F       		.byte	0x6f
 3835 0e69 00       		.byte	0
 3836 0e6a 20       		.uleb128 0x20
 3837 0e6b EC030000 		.4byte	.LVL104
 3838 0e6f 14070000 		.4byte	0x714
 3839 0e73 990E0000 		.4byte	0xe99
 3840 0e77 21       		.uleb128 0x21
 3841 0e78 01       		.uleb128 0x1
 3842 0e79 50       		.byte	0x50
 3843 0e7a 01       		.uleb128 0x1
 3844 0e7b 3A       		.byte	0x3a
 3845 0e7c 21       		.uleb128 0x21
 3846 0e7d 01       		.uleb128 0x1
 3847 0e7e 51       		.byte	0x51
 3848 0e7f 12       		.uleb128 0x12
 3849 0e80 74       		.byte	0x74
 3850 0e81 00       		.sleb128 0
 3851 0e82 33       		.byte	0x33
 3852 0e83 24       		.byte	0x24
 3853 0e84 74       		.byte	0x74
 3854 0e85 00       		.sleb128 0
 3855 0e86 1C       		.byte	0x1c
 3856 0e87 34       		.byte	0x34
 3857 0e88 24       		.byte	0x24
 3858 0e89 74       		.byte	0x74
 3859 0e8a 00       		.sleb128 0
 3860 0e8b 1C       		.byte	0x1c
 3861 0e8c 03       		.byte	0x3
 3862 0e8d 00000000 		.4byte	bulkDriverPacket
 3863 0e91 22       		.byte	0x22
 3864 0e92 21       		.uleb128 0x21
 3865 0e93 01       		.uleb128 0x1
 3866 0e94 52       		.byte	0x52
 3867 0e95 02       		.uleb128 0x2
 3868 0e96 08       		.byte	0x8
 3869 0e97 6F       		.byte	0x6f
 3870 0e98 00       		.byte	0
 3871 0e99 20       		.uleb128 0x20
 3872 0e9a F4030000 		.4byte	.LVL105
 3873 0e9e 65080000 		.4byte	0x865
 3874 0ea2 B10E0000 		.4byte	0xeb1
 3875 0ea6 21       		.uleb128 0x21
 3876 0ea7 01       		.uleb128 0x1
 3877 0ea8 50       		.byte	0x50
 3878 0ea9 01       		.uleb128 0x1
 3879 0eaa 32       		.byte	0x32
 3880 0eab 21       		.uleb128 0x21
 3881 0eac 01       		.uleb128 0x1
 3882 0ead 51       		.byte	0x51
 3883 0eae 01       		.uleb128 0x1
 3884 0eaf 37       		.byte	0x37
 3885 0eb0 00       		.byte	0
 3886 0eb1 25       		.uleb128 0x25
 3887 0eb2 06040000 		.4byte	.LVL109
 3888 0eb6 DF160000 		.4byte	0x16df
 3889 0eba 25       		.uleb128 0x25
 3890 0ebb 0E040000 		.4byte	.LVL110
ARM GAS  C:\Users\rober\AppData\Local\Temp\ccBlBMtt.s 			page 102


 3891 0ebf F5160000 		.4byte	0x16f5
 3892 0ec3 00       		.byte	0
 3893 0ec4 11       		.uleb128 0x11
 3894 0ec5 04       		.byte	0x4
 3895 0ec6 CE050000 		.4byte	0x5ce
 3896 0eca 28       		.uleb128 0x28
 3897 0ecb 8B070000 		.4byte	.LASF144
 3898 0ecf 01       		.byte	0x1
 3899 0ed0 C202     		.2byte	0x2c2
 3900 0ed2 00000000 		.4byte	.LFB610
 3901 0ed6 28020000 		.4byte	.LFE610-.LFB610
 3902 0eda 01       		.uleb128 0x1
 3903 0edb 9C       		.byte	0x9c
 3904 0edc 31100000 		.4byte	0x1031
 3905 0ee0 2B       		.uleb128 0x2b
 3906 0ee1 E3050000 		.4byte	.LASF145
 3907 0ee5 01       		.byte	0x1
 3908 0ee6 C202     		.2byte	0x2c2
 3909 0ee8 C40E0000 		.4byte	0xec4
 3910 0eec 84060000 		.4byte	.LLST58
 3911 0ef0 2B       		.uleb128 0x2b
 3912 0ef1 7F070000 		.4byte	.LASF146
 3913 0ef5 01       		.byte	0x1
 3914 0ef6 C302     		.2byte	0x2c3
 3915 0ef8 C40E0000 		.4byte	0xec4
 3916 0efc B8060000 		.4byte	.LLST59
 3917 0f00 2C       		.uleb128 0x2c
 3918 0f01 7800     		.ascii	"x\000"
 3919 0f03 01       		.byte	0x1
 3920 0f04 C602     		.2byte	0x2c6
 3921 0f06 E5000000 		.4byte	0xe5
 3922 0f0a EC060000 		.4byte	.LLST60
 3923 0f0e 2C       		.uleb128 0x2c
 3924 0f0f 7900     		.ascii	"y\000"
 3925 0f11 01       		.byte	0x1
 3926 0f12 C802     		.2byte	0x2c8
 3927 0f14 E5000000 		.4byte	0xe5
 3928 0f18 16070000 		.4byte	.LLST61
 3929 0f1c 2C       		.uleb128 0x2c
 3930 0f1d 6B00     		.ascii	"k\000"
 3931 0f1f 01       		.byte	0x1
 3932 0f20 CA02     		.2byte	0x2ca
 3933 0f22 E5000000 		.4byte	0xe5
 3934 0f26 62070000 		.4byte	.LLST62
 3935 0f2a 27       		.uleb128 0x27
 3936 0f2b C8070000 		.4byte	.LASF147
 3937 0f2f 01       		.byte	0x1
 3938 0f30 CD02     		.2byte	0x2cd
 3939 0f32 CF000000 		.4byte	0xcf
 3940 0f36 8D070000 		.4byte	.LLST63
 3941 0f3a 27       		.uleb128 0x27
 3942 0f3b 4B070000 		.4byte	.LASF148
 3943 0f3f 01       		.byte	0x1
 3944 0f40 CF02     		.2byte	0x2cf
 3945 0f42 CF000000 		.4byte	0xcf
 3946 0f46 AC070000 		.4byte	.LLST64
 3947 0f4a 27       		.uleb128 0x27
ARM GAS  C:\Users\rober\AppData\Local\Temp\ccBlBMtt.s 			page 103


 3948 0f4b 5C090000 		.4byte	.LASF141
 3949 0f4f 01       		.byte	0x1
 3950 0f50 D202     		.2byte	0x2d2
 3951 0f52 C9020000 		.4byte	0x2c9
 3952 0f56 BF070000 		.4byte	.LLST65
 3953 0f5a 25       		.uleb128 0x25
 3954 0f5b 0C000000 		.4byte	.LVL114
 3955 0f5f CB160000 		.4byte	0x16cb
 3956 0f63 20       		.uleb128 0x20
 3957 0f64 14000000 		.4byte	.LVL115
 3958 0f68 65080000 		.4byte	0x865
 3959 0f6c 7C0F0000 		.4byte	0xf7c
 3960 0f70 21       		.uleb128 0x21
 3961 0f71 01       		.uleb128 0x1
 3962 0f72 50       		.byte	0x50
 3963 0f73 01       		.uleb128 0x1
 3964 0f74 39       		.byte	0x39
 3965 0f75 21       		.uleb128 0x21
 3966 0f76 01       		.uleb128 0x1
 3967 0f77 51       		.byte	0x51
 3968 0f78 02       		.uleb128 0x2
 3969 0f79 09       		.byte	0x9
 3970 0f7a D2       		.byte	0xd2
 3971 0f7b 00       		.byte	0
 3972 0f7c 20       		.uleb128 0x20
 3973 0f7d 32000000 		.4byte	.LVL117
 3974 0f81 D6160000 		.4byte	0x16d6
 3975 0f85 9B0F0000 		.4byte	0xf9b
 3976 0f89 21       		.uleb128 0x21
 3977 0f8a 01       		.uleb128 0x1
 3978 0f8b 50       		.byte	0x50
 3979 0f8c 02       		.uleb128 0x2
 3980 0f8d 79       		.byte	0x79
 3981 0f8e 00       		.sleb128 0
 3982 0f8f 21       		.uleb128 0x21
 3983 0f90 01       		.uleb128 0x1
 3984 0f91 51       		.byte	0x51
 3985 0f92 01       		.uleb128 0x1
 3986 0f93 30       		.byte	0x30
 3987 0f94 21       		.uleb128 0x21
 3988 0f95 01       		.uleb128 0x1
 3989 0f96 52       		.byte	0x52
 3990 0f97 02       		.uleb128 0x2
 3991 0f98 08       		.byte	0x8
 3992 0f99 6F       		.byte	0x6f
 3993 0f9a 00       		.byte	0
 3994 0f9b 20       		.uleb128 0x20
 3995 0f9c C6010000 		.4byte	.LVL139
 3996 0fa0 14070000 		.4byte	0x714
 3997 0fa4 BA0F0000 		.4byte	0xfba
 3998 0fa8 21       		.uleb128 0x21
 3999 0fa9 01       		.uleb128 0x1
 4000 0faa 50       		.byte	0x50
 4001 0fab 01       		.uleb128 0x1
 4002 0fac 3A       		.byte	0x3a
 4003 0fad 21       		.uleb128 0x21
 4004 0fae 01       		.uleb128 0x1
ARM GAS  C:\Users\rober\AppData\Local\Temp\ccBlBMtt.s 			page 104


 4005 0faf 51       		.byte	0x51
 4006 0fb0 02       		.uleb128 0x2
 4007 0fb1 75       		.byte	0x75
 4008 0fb2 00       		.sleb128 0
 4009 0fb3 21       		.uleb128 0x21
 4010 0fb4 01       		.uleb128 0x1
 4011 0fb5 52       		.byte	0x52
 4012 0fb6 02       		.uleb128 0x2
 4013 0fb7 08       		.byte	0x8
 4014 0fb8 6F       		.byte	0x6f
 4015 0fb9 00       		.byte	0
 4016 0fba 20       		.uleb128 0x20
 4017 0fbb CE010000 		.4byte	.LVL140
 4018 0fbf 65080000 		.4byte	0x865
 4019 0fc3 D20F0000 		.4byte	0xfd2
 4020 0fc7 21       		.uleb128 0x21
 4021 0fc8 01       		.uleb128 0x1
 4022 0fc9 50       		.byte	0x50
 4023 0fca 01       		.uleb128 0x1
 4024 0fcb 32       		.byte	0x32
 4025 0fcc 21       		.uleb128 0x21
 4026 0fcd 01       		.uleb128 0x1
 4027 0fce 51       		.byte	0x51
 4028 0fcf 01       		.uleb128 0x1
 4029 0fd0 37       		.byte	0x37
 4030 0fd1 00       		.byte	0
 4031 0fd2 20       		.uleb128 0x20
 4032 0fd3 E8010000 		.4byte	.LVL143
 4033 0fd7 14070000 		.4byte	0x714
 4034 0fdb F10F0000 		.4byte	0xff1
 4035 0fdf 21       		.uleb128 0x21
 4036 0fe0 01       		.uleb128 0x1
 4037 0fe1 50       		.byte	0x50
 4038 0fe2 01       		.uleb128 0x1
 4039 0fe3 3A       		.byte	0x3a
 4040 0fe4 21       		.uleb128 0x21
 4041 0fe5 01       		.uleb128 0x1
 4042 0fe6 51       		.byte	0x51
 4043 0fe7 02       		.uleb128 0x2
 4044 0fe8 75       		.byte	0x75
 4045 0fe9 00       		.sleb128 0
 4046 0fea 21       		.uleb128 0x21
 4047 0feb 01       		.uleb128 0x1
 4048 0fec 52       		.byte	0x52
 4049 0fed 02       		.uleb128 0x2
 4050 0fee 08       		.byte	0x8
 4051 0fef 6F       		.byte	0x6f
 4052 0ff0 00       		.byte	0
 4053 0ff1 20       		.uleb128 0x20
 4054 0ff2 F0010000 		.4byte	.LVL144
 4055 0ff6 65080000 		.4byte	0x865
 4056 0ffa 09100000 		.4byte	0x1009
 4057 0ffe 21       		.uleb128 0x21
 4058 0fff 01       		.uleb128 0x1
 4059 1000 50       		.byte	0x50
 4060 1001 01       		.uleb128 0x1
 4061 1002 32       		.byte	0x32
ARM GAS  C:\Users\rober\AppData\Local\Temp\ccBlBMtt.s 			page 105


 4062 1003 21       		.uleb128 0x21
 4063 1004 01       		.uleb128 0x1
 4064 1005 51       		.byte	0x51
 4065 1006 01       		.uleb128 0x1
 4066 1007 37       		.byte	0x37
 4067 1008 00       		.byte	0
 4068 1009 25       		.uleb128 0x25
 4069 100a 02020000 		.4byte	.LVL148
 4070 100e DF160000 		.4byte	0x16df
 4071 1012 25       		.uleb128 0x25
 4072 1013 0A020000 		.4byte	.LVL149
 4073 1017 F5160000 		.4byte	0x16f5
 4074 101b 22       		.uleb128 0x22
 4075 101c 12020000 		.4byte	.LVL150
 4076 1020 65080000 		.4byte	0x865
 4077 1024 21       		.uleb128 0x21
 4078 1025 01       		.uleb128 0x1
 4079 1026 50       		.byte	0x50
 4080 1027 01       		.uleb128 0x1
 4081 1028 39       		.byte	0x39
 4082 1029 21       		.uleb128 0x21
 4083 102a 01       		.uleb128 0x1
 4084 102b 51       		.byte	0x51
 4085 102c 02       		.uleb128 0x2
 4086 102d 09       		.byte	0x9
 4087 102e C2       		.byte	0xc2
 4088 102f 00       		.byte	0
 4089 1030 00       		.byte	0
 4090 1031 28       		.uleb128 0x28
 4091 1032 EB070000 		.4byte	.LASF149
 4092 1036 01       		.byte	0x1
 4093 1037 5C03     		.2byte	0x35c
 4094 1039 00000000 		.4byte	.LFB611
 4095 103d 5C000000 		.4byte	.LFE611-.LFB611
 4096 1041 01       		.uleb128 0x1
 4097 1042 9C       		.byte	0x9c
 4098 1043 8B100000 		.4byte	0x108b
 4099 1047 27       		.uleb128 0x27
 4100 1048 BB030000 		.4byte	.LASF150
 4101 104c 01       		.byte	0x1
 4102 104d 5F03     		.2byte	0x35f
 4103 104f E5000000 		.4byte	0xe5
 4104 1053 49080000 		.4byte	.LLST66
 4105 1057 20       		.uleb128 0x20
 4106 1058 3A000000 		.4byte	.LVL157
 4107 105c 14070000 		.4byte	0x714
 4108 1060 76100000 		.4byte	0x1076
 4109 1064 21       		.uleb128 0x21
 4110 1065 01       		.uleb128 0x1
 4111 1066 50       		.byte	0x50
 4112 1067 01       		.uleb128 0x1
 4113 1068 3A       		.byte	0x3a
 4114 1069 21       		.uleb128 0x21
 4115 106a 01       		.uleb128 0x1
 4116 106b 51       		.byte	0x51
 4117 106c 02       		.uleb128 0x2
 4118 106d 75       		.byte	0x75
ARM GAS  C:\Users\rober\AppData\Local\Temp\ccBlBMtt.s 			page 106


 4119 106e 00       		.sleb128 0
 4120 106f 21       		.uleb128 0x21
 4121 1070 01       		.uleb128 0x1
 4122 1071 52       		.byte	0x52
 4123 1072 02       		.uleb128 0x2
 4124 1073 08       		.byte	0x8
 4125 1074 6F       		.byte	0x6f
 4126 1075 00       		.byte	0
 4127 1076 22       		.uleb128 0x22
 4128 1077 42000000 		.4byte	.LVL158
 4129 107b 65080000 		.4byte	0x865
 4130 107f 21       		.uleb128 0x21
 4131 1080 01       		.uleb128 0x1
 4132 1081 50       		.byte	0x50
 4133 1082 01       		.uleb128 0x1
 4134 1083 32       		.byte	0x32
 4135 1084 21       		.uleb128 0x21
 4136 1085 01       		.uleb128 0x1
 4137 1086 51       		.byte	0x51
 4138 1087 01       		.uleb128 0x1
 4139 1088 37       		.byte	0x37
 4140 1089 00       		.byte	0
 4141 108a 00       		.byte	0
 4142 108b 28       		.uleb128 0x28
 4143 108c 93010000 		.4byte	.LASF151
 4144 1090 01       		.byte	0x1
 4145 1091 8B03     		.2byte	0x38b
 4146 1093 00000000 		.4byte	.LFB612
 4147 1097 34000000 		.4byte	.LFE612-.LFB612
 4148 109b 01       		.uleb128 0x1
 4149 109c 9C       		.byte	0x9c
 4150 109d 00110000 		.4byte	0x1100
 4151 10a1 27       		.uleb128 0x27
 4152 10a2 BB030000 		.4byte	.LASF150
 4153 10a6 01       		.byte	0x1
 4154 10a7 8E03     		.2byte	0x38e
 4155 10a9 CF000000 		.4byte	0xcf
 4156 10ad 89080000 		.4byte	.LLST67
 4157 10b1 20       		.uleb128 0x20
 4158 10b2 1C000000 		.4byte	.LVL166
 4159 10b6 65080000 		.4byte	0x865
 4160 10ba C9100000 		.4byte	0x10c9
 4161 10be 21       		.uleb128 0x21
 4162 10bf 01       		.uleb128 0x1
 4163 10c0 50       		.byte	0x50
 4164 10c1 01       		.uleb128 0x1
 4165 10c2 34       		.byte	0x34
 4166 10c3 21       		.uleb128 0x21
 4167 10c4 01       		.uleb128 0x1
 4168 10c5 51       		.byte	0x51
 4169 10c6 01       		.uleb128 0x1
 4170 10c7 30       		.byte	0x30
 4171 10c8 00       		.byte	0
 4172 10c9 20       		.uleb128 0x20
 4173 10ca 26000000 		.4byte	.LVL167
 4174 10ce 14070000 		.4byte	0x714
 4175 10d2 EB100000 		.4byte	0x10eb
ARM GAS  C:\Users\rober\AppData\Local\Temp\ccBlBMtt.s 			page 107


 4176 10d6 21       		.uleb128 0x21
 4177 10d7 01       		.uleb128 0x1
 4178 10d8 50       		.byte	0x50
 4179 10d9 01       		.uleb128 0x1
 4180 10da 3A       		.byte	0x3a
 4181 10db 21       		.uleb128 0x21
 4182 10dc 01       		.uleb128 0x1
 4183 10dd 51       		.byte	0x51
 4184 10de 05       		.uleb128 0x5
 4185 10df 03       		.byte	0x3
 4186 10e0 00000000 		.4byte	.LANCHOR0
 4187 10e4 21       		.uleb128 0x21
 4188 10e5 01       		.uleb128 0x1
 4189 10e6 52       		.byte	0x52
 4190 10e7 02       		.uleb128 0x2
 4191 10e8 08       		.byte	0x8
 4192 10e9 6F       		.byte	0x6f
 4193 10ea 00       		.byte	0
 4194 10eb 22       		.uleb128 0x22
 4195 10ec 2E000000 		.4byte	.LVL168
 4196 10f0 65080000 		.4byte	0x865
 4197 10f4 21       		.uleb128 0x21
 4198 10f5 01       		.uleb128 0x1
 4199 10f6 50       		.byte	0x50
 4200 10f7 01       		.uleb128 0x1
 4201 10f8 32       		.byte	0x32
 4202 10f9 21       		.uleb128 0x21
 4203 10fa 01       		.uleb128 0x1
 4204 10fb 51       		.byte	0x51
 4205 10fc 01       		.uleb128 0x1
 4206 10fd 37       		.byte	0x37
 4207 10fe 00       		.byte	0
 4208 10ff 00       		.byte	0
 4209 1100 26       		.uleb128 0x26
 4210 1101 08070000 		.4byte	.LASF152
 4211 1105 01       		.byte	0x1
 4212 1106 B403     		.2byte	0x3b4
 4213 1108 0A060000 		.4byte	0x60a
 4214 110c 00000000 		.4byte	.LFB613
 4215 1110 44000000 		.4byte	.LFE613-.LFB613
 4216 1114 01       		.uleb128 0x1
 4217 1115 9C       		.byte	0x9c
 4218 1116 99120000 		.4byte	0x1299
 4219 111a 2D       		.uleb128 0x2d
 4220 111b DC060000 		.4byte	0x6dc
 4221 111f 02000000 		.4byte	.LBB86
 4222 1123 06000000 		.4byte	.LBE86-.LBB86
 4223 1127 01       		.byte	0x1
 4224 1128 B803     		.2byte	0x3b8
 4225 112a 4A110000 		.4byte	0x114a
 4226 112e 1F       		.uleb128 0x1f
 4227 112f 01070000 		.4byte	0x701
 4228 1133 B3080000 		.4byte	.LLST68
 4229 1137 1F       		.uleb128 0x1f
 4230 1138 F5060000 		.4byte	0x6f5
 4231 113c C7080000 		.4byte	.LLST69
 4232 1140 1F       		.uleb128 0x1f
ARM GAS  C:\Users\rober\AppData\Local\Temp\ccBlBMtt.s 			page 108


 4233 1141 E9060000 		.4byte	0x6e9
 4234 1145 DB080000 		.4byte	.LLST70
 4235 1149 00       		.byte	0
 4236 114a 2D       		.uleb128 0x2d
 4237 114b DC060000 		.4byte	0x6dc
 4238 114f 12000000 		.4byte	.LBB88
 4239 1153 06000000 		.4byte	.LBE88-.LBB88
 4240 1157 01       		.byte	0x1
 4241 1158 BE03     		.2byte	0x3be
 4242 115a 7A110000 		.4byte	0x117a
 4243 115e 1F       		.uleb128 0x1f
 4244 115f 01070000 		.4byte	0x701
 4245 1163 F3080000 		.4byte	.LLST71
 4246 1167 1F       		.uleb128 0x1f
 4247 1168 F5060000 		.4byte	0x6f5
 4248 116c 07090000 		.4byte	.LLST72
 4249 1170 1F       		.uleb128 0x1f
 4250 1171 E9060000 		.4byte	0x6e9
 4251 1175 1B090000 		.4byte	.LLST73
 4252 1179 00       		.byte	0
 4253 117a 2D       		.uleb128 0x2d
 4254 117b DC060000 		.4byte	0x6dc
 4255 117f 18000000 		.4byte	.LBB90
 4256 1183 04000000 		.4byte	.LBE90-.LBB90
 4257 1187 01       		.byte	0x1
 4258 1188 BF03     		.2byte	0x3bf
 4259 118a AA110000 		.4byte	0x11aa
 4260 118e 1F       		.uleb128 0x1f
 4261 118f 01070000 		.4byte	0x701
 4262 1193 33090000 		.4byte	.LLST74
 4263 1197 1F       		.uleb128 0x1f
 4264 1198 F5060000 		.4byte	0x6f5
 4265 119c 47090000 		.4byte	.LLST75
 4266 11a0 1F       		.uleb128 0x1f
 4267 11a1 E9060000 		.4byte	0x6e9
 4268 11a5 5B090000 		.4byte	.LLST76
 4269 11a9 00       		.byte	0
 4270 11aa 2D       		.uleb128 0x2d
 4271 11ab DC060000 		.4byte	0x6dc
 4272 11af 1C000000 		.4byte	.LBB92
 4273 11b3 04000000 		.4byte	.LBE92-.LBB92
 4274 11b7 01       		.byte	0x1
 4275 11b8 C203     		.2byte	0x3c2
 4276 11ba DA110000 		.4byte	0x11da
 4277 11be 1F       		.uleb128 0x1f
 4278 11bf 01070000 		.4byte	0x701
 4279 11c3 73090000 		.4byte	.LLST77
 4280 11c7 1F       		.uleb128 0x1f
 4281 11c8 F5060000 		.4byte	0x6f5
 4282 11cc 87090000 		.4byte	.LLST78
 4283 11d0 1F       		.uleb128 0x1f
 4284 11d1 E9060000 		.4byte	0x6e9
 4285 11d5 9B090000 		.4byte	.LLST79
 4286 11d9 00       		.byte	0
 4287 11da 2D       		.uleb128 0x2d
 4288 11db DC060000 		.4byte	0x6dc
 4289 11df 26000000 		.4byte	.LBB94
ARM GAS  C:\Users\rober\AppData\Local\Temp\ccBlBMtt.s 			page 109


 4290 11e3 02000000 		.4byte	.LBE94-.LBB94
 4291 11e7 01       		.byte	0x1
 4292 11e8 C403     		.2byte	0x3c4
 4293 11ea 0A120000 		.4byte	0x120a
 4294 11ee 1F       		.uleb128 0x1f
 4295 11ef 01070000 		.4byte	0x701
 4296 11f3 B3090000 		.4byte	.LLST80
 4297 11f7 1F       		.uleb128 0x1f
 4298 11f8 F5060000 		.4byte	0x6f5
 4299 11fc C7090000 		.4byte	.LLST81
 4300 1200 1F       		.uleb128 0x1f
 4301 1201 E9060000 		.4byte	0x6e9
 4302 1205 DB090000 		.4byte	.LLST82
 4303 1209 00       		.byte	0
 4304 120a 2D       		.uleb128 0x2d
 4305 120b DC060000 		.4byte	0x6dc
 4306 120f 2E000000 		.4byte	.LBB96
 4307 1213 02000000 		.4byte	.LBE96-.LBB96
 4308 1217 01       		.byte	0x1
 4309 1218 C603     		.2byte	0x3c6
 4310 121a 3A120000 		.4byte	0x123a
 4311 121e 1F       		.uleb128 0x1f
 4312 121f 01070000 		.4byte	0x701
 4313 1223 F3090000 		.4byte	.LLST83
 4314 1227 1F       		.uleb128 0x1f
 4315 1228 F5060000 		.4byte	0x6f5
 4316 122c 070A0000 		.4byte	.LLST84
 4317 1230 1F       		.uleb128 0x1f
 4318 1231 E9060000 		.4byte	0x6e9
 4319 1235 1B0A0000 		.4byte	.LLST85
 4320 1239 00       		.byte	0
 4321 123a 20       		.uleb128 0x20
 4322 123b 0E000000 		.4byte	.LVL171
 4323 123f 00170000 		.4byte	0x1700
 4324 1243 4D120000 		.4byte	0x124d
 4325 1247 21       		.uleb128 0x21
 4326 1248 01       		.uleb128 0x1
 4327 1249 50       		.byte	0x50
 4328 124a 01       		.uleb128 0x1
 4329 124b 44       		.byte	0x44
 4330 124c 00       		.byte	0
 4331 124d 25       		.uleb128 0x25
 4332 124e 12000000 		.4byte	.LVL172
 4333 1252 0C170000 		.4byte	0x170c
 4334 1256 20       		.uleb128 0x20
 4335 1257 26000000 		.4byte	.LVL176
 4336 125b 00170000 		.4byte	0x1700
 4337 125f 69120000 		.4byte	0x1269
 4338 1263 21       		.uleb128 0x21
 4339 1264 01       		.uleb128 0x1
 4340 1265 50       		.byte	0x50
 4341 1266 01       		.uleb128 0x1
 4342 1267 3A       		.byte	0x3a
 4343 1268 00       		.byte	0
 4344 1269 20       		.uleb128 0x20
 4345 126a 2E000000 		.4byte	.LVL178
 4346 126e 00170000 		.4byte	0x1700
ARM GAS  C:\Users\rober\AppData\Local\Temp\ccBlBMtt.s 			page 110


 4347 1272 7C120000 		.4byte	0x127c
 4348 1276 21       		.uleb128 0x21
 4349 1277 01       		.uleb128 0x1
 4350 1278 50       		.byte	0x50
 4351 1279 01       		.uleb128 0x1
 4352 127a 3A       		.byte	0x3a
 4353 127b 00       		.byte	0
 4354 127c 20       		.uleb128 0x20
 4355 127d 36000000 		.4byte	.LVL180
 4356 1281 00170000 		.4byte	0x1700
 4357 1285 8F120000 		.4byte	0x128f
 4358 1289 21       		.uleb128 0x21
 4359 128a 01       		.uleb128 0x1
 4360 128b 50       		.byte	0x50
 4361 128c 01       		.uleb128 0x1
 4362 128d 3A       		.byte	0x3a
 4363 128e 00       		.byte	0
 4364 128f 25       		.uleb128 0x25
 4365 1290 3A000000 		.4byte	.LVL181
 4366 1294 3D0B0000 		.4byte	0xb3d
 4367 1298 00       		.byte	0
 4368 1299 26       		.uleb128 0x26
 4369 129a 570A0000 		.4byte	.LASF153
 4370 129e 01       		.byte	0x1
 4371 129f DD03     		.2byte	0x3dd
 4372 12a1 0A060000 		.4byte	0x60a
 4373 12a5 00000000 		.4byte	.LFB614
 4374 12a9 A8000000 		.4byte	.LFE614-.LFB614
 4375 12ad 01       		.uleb128 0x1
 4376 12ae 9C       		.byte	0x9c
 4377 12af 80150000 		.4byte	0x1580
 4378 12b3 2D       		.uleb128 0x2d
 4379 12b4 DC060000 		.4byte	0x6dc
 4380 12b8 10000000 		.4byte	.LBB98
 4381 12bc 06000000 		.4byte	.LBE98-.LBB98
 4382 12c0 01       		.byte	0x1
 4383 12c1 E603     		.2byte	0x3e6
 4384 12c3 E3120000 		.4byte	0x12e3
 4385 12c7 1F       		.uleb128 0x1f
 4386 12c8 01070000 		.4byte	0x701
 4387 12cc 330A0000 		.4byte	.LLST86
 4388 12d0 1F       		.uleb128 0x1f
 4389 12d1 F5060000 		.4byte	0x6f5
 4390 12d5 470A0000 		.4byte	.LLST87
 4391 12d9 1F       		.uleb128 0x1f
 4392 12da E9060000 		.4byte	0x6e9
 4393 12de 5B0A0000 		.4byte	.LLST88
 4394 12e2 00       		.byte	0
 4395 12e3 2D       		.uleb128 0x2d
 4396 12e4 DC060000 		.4byte	0x6dc
 4397 12e8 1C000000 		.4byte	.LBB100
 4398 12ec 02000000 		.4byte	.LBE100-.LBB100
 4399 12f0 01       		.byte	0x1
 4400 12f1 E803     		.2byte	0x3e8
 4401 12f3 13130000 		.4byte	0x1313
 4402 12f7 1F       		.uleb128 0x1f
 4403 12f8 01070000 		.4byte	0x701
ARM GAS  C:\Users\rober\AppData\Local\Temp\ccBlBMtt.s 			page 111


 4404 12fc 730A0000 		.4byte	.LLST89
 4405 1300 1F       		.uleb128 0x1f
 4406 1301 F5060000 		.4byte	0x6f5
 4407 1305 870A0000 		.4byte	.LLST90
 4408 1309 1F       		.uleb128 0x1f
 4409 130a E9060000 		.4byte	0x6e9
 4410 130e 9B0A0000 		.4byte	.LLST91
 4411 1312 00       		.byte	0
 4412 1313 2D       		.uleb128 0x2d
 4413 1314 DC060000 		.4byte	0x6dc
 4414 1318 74000000 		.4byte	.LBB102
 4415 131c 04000000 		.4byte	.LBE102-.LBB102
 4416 1320 01       		.byte	0x1
 4417 1321 0E04     		.2byte	0x40e
 4418 1323 43130000 		.4byte	0x1343
 4419 1327 1F       		.uleb128 0x1f
 4420 1328 01070000 		.4byte	0x701
 4421 132c B30A0000 		.4byte	.LLST92
 4422 1330 1F       		.uleb128 0x1f
 4423 1331 F5060000 		.4byte	0x6f5
 4424 1335 C70A0000 		.4byte	.LLST93
 4425 1339 1F       		.uleb128 0x1f
 4426 133a E9060000 		.4byte	0x6e9
 4427 133e DB0A0000 		.4byte	.LLST94
 4428 1342 00       		.byte	0
 4429 1343 2D       		.uleb128 0x2d
 4430 1344 DC060000 		.4byte	0x6dc
 4431 1348 78000000 		.4byte	.LBB104
 4432 134c 02000000 		.4byte	.LBE104-.LBB104
 4433 1350 01       		.byte	0x1
 4434 1351 1104     		.2byte	0x411
 4435 1353 73130000 		.4byte	0x1373
 4436 1357 1F       		.uleb128 0x1f
 4437 1358 01070000 		.4byte	0x701
 4438 135c F30A0000 		.4byte	.LLST95
 4439 1360 1F       		.uleb128 0x1f
 4440 1361 F5060000 		.4byte	0x6f5
 4441 1365 070B0000 		.4byte	.LLST96
 4442 1369 1F       		.uleb128 0x1f
 4443 136a E9060000 		.4byte	0x6e9
 4444 136e 1B0B0000 		.4byte	.LLST97
 4445 1372 00       		.byte	0
 4446 1373 2D       		.uleb128 0x2d
 4447 1374 DC060000 		.4byte	0x6dc
 4448 1378 80000000 		.4byte	.LBB106
 4449 137c 06000000 		.4byte	.LBE106-.LBB106
 4450 1380 01       		.byte	0x1
 4451 1381 1304     		.2byte	0x413
 4452 1383 A3130000 		.4byte	0x13a3
 4453 1387 1F       		.uleb128 0x1f
 4454 1388 01070000 		.4byte	0x701
 4455 138c 330B0000 		.4byte	.LLST98
 4456 1390 1F       		.uleb128 0x1f
 4457 1391 F5060000 		.4byte	0x6f5
 4458 1395 470B0000 		.4byte	.LLST99
 4459 1399 1F       		.uleb128 0x1f
 4460 139a E9060000 		.4byte	0x6e9
ARM GAS  C:\Users\rober\AppData\Local\Temp\ccBlBMtt.s 			page 112


 4461 139e 5B0B0000 		.4byte	.LLST100
 4462 13a2 00       		.byte	0
 4463 13a3 2D       		.uleb128 0x2d
 4464 13a4 DC060000 		.4byte	0x6dc
 4465 13a8 86000000 		.4byte	.LBB108
 4466 13ac 04000000 		.4byte	.LBE108-.LBB108
 4467 13b0 01       		.byte	0x1
 4468 13b1 1404     		.2byte	0x414
 4469 13b3 D3130000 		.4byte	0x13d3
 4470 13b7 1F       		.uleb128 0x1f
 4471 13b8 01070000 		.4byte	0x701
 4472 13bc 730B0000 		.4byte	.LLST101
 4473 13c0 1F       		.uleb128 0x1f
 4474 13c1 F5060000 		.4byte	0x6f5
 4475 13c5 870B0000 		.4byte	.LLST102
 4476 13c9 1F       		.uleb128 0x1f
 4477 13ca E9060000 		.4byte	0x6e9
 4478 13ce 9B0B0000 		.4byte	.LLST103
 4479 13d2 00       		.byte	0
 4480 13d3 2D       		.uleb128 0x2d
 4481 13d4 DC060000 		.4byte	0x6dc
 4482 13d8 8A000000 		.4byte	.LBB110
 4483 13dc 04000000 		.4byte	.LBE110-.LBB110
 4484 13e0 01       		.byte	0x1
 4485 13e1 1504     		.2byte	0x415
 4486 13e3 03140000 		.4byte	0x1403
 4487 13e7 1F       		.uleb128 0x1f
 4488 13e8 01070000 		.4byte	0x701
 4489 13ec B30B0000 		.4byte	.LLST104
 4490 13f0 1F       		.uleb128 0x1f
 4491 13f1 F5060000 		.4byte	0x6f5
 4492 13f5 C70B0000 		.4byte	.LLST105
 4493 13f9 1F       		.uleb128 0x1f
 4494 13fa E9060000 		.4byte	0x6e9
 4495 13fe DB0B0000 		.4byte	.LLST106
 4496 1402 00       		.byte	0
 4497 1403 2D       		.uleb128 0x2d
 4498 1404 DC060000 		.4byte	0x6dc
 4499 1408 94000000 		.4byte	.LBB112
 4500 140c 02000000 		.4byte	.LBE112-.LBB112
 4501 1410 01       		.byte	0x1
 4502 1411 1704     		.2byte	0x417
 4503 1413 33140000 		.4byte	0x1433
 4504 1417 1F       		.uleb128 0x1f
 4505 1418 01070000 		.4byte	0x701
 4506 141c F30B0000 		.4byte	.LLST107
 4507 1420 1F       		.uleb128 0x1f
 4508 1421 F5060000 		.4byte	0x6f5
 4509 1425 070C0000 		.4byte	.LLST108
 4510 1429 1F       		.uleb128 0x1f
 4511 142a E9060000 		.4byte	0x6e9
 4512 142e 1B0C0000 		.4byte	.LLST109
 4513 1432 00       		.byte	0
 4514 1433 25       		.uleb128 0x25
 4515 1434 06000000 		.4byte	.LVL182
 4516 1438 31100000 		.4byte	0x1031
 4517 143c 25       		.uleb128 0x25
ARM GAS  C:\Users\rober\AppData\Local\Temp\ccBlBMtt.s 			page 113


 4518 143d 0A000000 		.4byte	.LVL183
 4519 1441 8B100000 		.4byte	0x108b
 4520 1445 20       		.uleb128 0x20
 4521 1446 10000000 		.4byte	.LVL184
 4522 144a 00170000 		.4byte	0x1700
 4523 144e 58140000 		.4byte	0x1458
 4524 1452 21       		.uleb128 0x21
 4525 1453 01       		.uleb128 0x1
 4526 1454 50       		.byte	0x50
 4527 1455 01       		.uleb128 0x1
 4528 1456 4E       		.byte	0x4e
 4529 1457 00       		.byte	0
 4530 1458 20       		.uleb128 0x20
 4531 1459 1C000000 		.4byte	.LVL186
 4532 145d 00170000 		.4byte	0x1700
 4533 1461 6C140000 		.4byte	0x146c
 4534 1465 21       		.uleb128 0x21
 4535 1466 01       		.uleb128 0x1
 4536 1467 50       		.byte	0x50
 4537 1468 02       		.uleb128 0x2
 4538 1469 08       		.byte	0x8
 4539 146a 32       		.byte	0x32
 4540 146b 00       		.byte	0
 4541 146c 20       		.uleb128 0x20
 4542 146d 26000000 		.4byte	.LVL188
 4543 1471 AE080000 		.4byte	0x8ae
 4544 1475 84140000 		.4byte	0x1484
 4545 1479 21       		.uleb128 0x21
 4546 147a 01       		.uleb128 0x1
 4547 147b 50       		.byte	0x50
 4548 147c 01       		.uleb128 0x1
 4549 147d 3F       		.byte	0x3f
 4550 147e 21       		.uleb128 0x21
 4551 147f 01       		.uleb128 0x1
 4552 1480 51       		.byte	0x51
 4553 1481 01       		.uleb128 0x1
 4554 1482 30       		.byte	0x30
 4555 1483 00       		.byte	0
 4556 1484 20       		.uleb128 0x20
 4557 1485 34000000 		.4byte	.LVL189
 4558 1489 65080000 		.4byte	0x865
 4559 148d 9C140000 		.4byte	0x149c
 4560 1491 21       		.uleb128 0x21
 4561 1492 01       		.uleb128 0x1
 4562 1493 50       		.byte	0x50
 4563 1494 01       		.uleb128 0x1
 4564 1495 3B       		.byte	0x3b
 4565 1496 21       		.uleb128 0x21
 4566 1497 01       		.uleb128 0x1
 4567 1498 51       		.byte	0x51
 4568 1499 01       		.uleb128 0x1
 4569 149a 30       		.byte	0x30
 4570 149b 00       		.byte	0
 4571 149c 20       		.uleb128 0x20
 4572 149d 3C000000 		.4byte	.LVL190
 4573 14a1 65080000 		.4byte	0x865
 4574 14a5 B4140000 		.4byte	0x14b4
ARM GAS  C:\Users\rober\AppData\Local\Temp\ccBlBMtt.s 			page 114


 4575 14a9 21       		.uleb128 0x21
 4576 14aa 01       		.uleb128 0x1
 4577 14ab 50       		.byte	0x50
 4578 14ac 01       		.uleb128 0x1
 4579 14ad 33       		.byte	0x33
 4580 14ae 21       		.uleb128 0x21
 4581 14af 01       		.uleb128 0x1
 4582 14b0 51       		.byte	0x51
 4583 14b1 01       		.uleb128 0x1
 4584 14b2 31       		.byte	0x31
 4585 14b3 00       		.byte	0
 4586 14b4 20       		.uleb128 0x20
 4587 14b5 44000000 		.4byte	.LVL191
 4588 14b9 65080000 		.4byte	0x865
 4589 14bd CC140000 		.4byte	0x14cc
 4590 14c1 21       		.uleb128 0x21
 4591 14c2 01       		.uleb128 0x1
 4592 14c3 50       		.byte	0x50
 4593 14c4 01       		.uleb128 0x1
 4594 14c5 35       		.byte	0x35
 4595 14c6 21       		.uleb128 0x21
 4596 14c7 01       		.uleb128 0x1
 4597 14c8 51       		.byte	0x51
 4598 14c9 01       		.uleb128 0x1
 4599 14ca 33       		.byte	0x33
 4600 14cb 00       		.byte	0
 4601 14cc 20       		.uleb128 0x20
 4602 14cd 4C000000 		.4byte	.LVL192
 4603 14d1 65080000 		.4byte	0x865
 4604 14d5 E4140000 		.4byte	0x14e4
 4605 14d9 21       		.uleb128 0x21
 4606 14da 01       		.uleb128 0x1
 4607 14db 50       		.byte	0x50
 4608 14dc 01       		.uleb128 0x1
 4609 14dd 35       		.byte	0x35
 4610 14de 21       		.uleb128 0x21
 4611 14df 01       		.uleb128 0x1
 4612 14e0 51       		.byte	0x51
 4613 14e1 01       		.uleb128 0x1
 4614 14e2 31       		.byte	0x31
 4615 14e3 00       		.byte	0
 4616 14e4 20       		.uleb128 0x20
 4617 14e5 52000000 		.4byte	.LVL193
 4618 14e9 00170000 		.4byte	0x1700
 4619 14ed F8140000 		.4byte	0x14f8
 4620 14f1 21       		.uleb128 0x21
 4621 14f2 01       		.uleb128 0x1
 4622 14f3 50       		.byte	0x50
 4623 14f4 02       		.uleb128 0x2
 4624 14f5 08       		.byte	0x8
 4625 14f6 32       		.byte	0x32
 4626 14f7 00       		.byte	0
 4627 14f8 20       		.uleb128 0x20
 4628 14f9 5A000000 		.4byte	.LVL194
 4629 14fd 65080000 		.4byte	0x865
 4630 1501 11150000 		.4byte	0x1511
 4631 1505 21       		.uleb128 0x21
ARM GAS  C:\Users\rober\AppData\Local\Temp\ccBlBMtt.s 			page 115


 4632 1506 01       		.uleb128 0x1
 4633 1507 50       		.byte	0x50
 4634 1508 01       		.uleb128 0x1
 4635 1509 34       		.byte	0x34
 4636 150a 21       		.uleb128 0x21
 4637 150b 01       		.uleb128 0x1
 4638 150c 51       		.byte	0x51
 4639 150d 02       		.uleb128 0x2
 4640 150e 09       		.byte	0x9
 4641 150f 80       		.byte	0x80
 4642 1510 00       		.byte	0
 4643 1511 20       		.uleb128 0x20
 4644 1512 62000000 		.4byte	.LVL195
 4645 1516 65080000 		.4byte	0x865
 4646 151a 29150000 		.4byte	0x1529
 4647 151e 21       		.uleb128 0x21
 4648 151f 01       		.uleb128 0x1
 4649 1520 50       		.byte	0x50
 4650 1521 01       		.uleb128 0x1
 4651 1522 35       		.byte	0x35
 4652 1523 21       		.uleb128 0x21
 4653 1524 01       		.uleb128 0x1
 4654 1525 51       		.byte	0x51
 4655 1526 01       		.uleb128 0x1
 4656 1527 30       		.byte	0x30
 4657 1528 00       		.byte	0
 4658 1529 20       		.uleb128 0x20
 4659 152a 6A000000 		.4byte	.LVL196
 4660 152e 65080000 		.4byte	0x865
 4661 1532 41150000 		.4byte	0x1541
 4662 1536 21       		.uleb128 0x21
 4663 1537 01       		.uleb128 0x1
 4664 1538 50       		.byte	0x50
 4665 1539 01       		.uleb128 0x1
 4666 153a 37       		.byte	0x37
 4667 153b 21       		.uleb128 0x21
 4668 153c 01       		.uleb128 0x1
 4669 153d 51       		.byte	0x51
 4670 153e 01       		.uleb128 0x1
 4671 153f 31       		.byte	0x31
 4672 1540 00       		.byte	0
 4673 1541 20       		.uleb128 0x20
 4674 1542 70000000 		.4byte	.LVL197
 4675 1546 00170000 		.4byte	0x1700
 4676 154a 54150000 		.4byte	0x1554
 4677 154e 21       		.uleb128 0x21
 4678 154f 01       		.uleb128 0x1
 4679 1550 50       		.byte	0x50
 4680 1551 01       		.uleb128 0x1
 4681 1552 4E       		.byte	0x4e
 4682 1553 00       		.byte	0
 4683 1554 25       		.uleb128 0x25
 4684 1555 74000000 		.4byte	.LVL198
 4685 1559 17170000 		.4byte	0x1717
 4686 155d 20       		.uleb128 0x20
 4687 155e 80000000 		.4byte	.LVL201
 4688 1562 00170000 		.4byte	0x1700
ARM GAS  C:\Users\rober\AppData\Local\Temp\ccBlBMtt.s 			page 116


 4689 1566 70150000 		.4byte	0x1570
 4690 156a 21       		.uleb128 0x21
 4691 156b 01       		.uleb128 0x1
 4692 156c 50       		.byte	0x50
 4693 156d 01       		.uleb128 0x1
 4694 156e 44       		.byte	0x44
 4695 156f 00       		.byte	0
 4696 1570 22       		.uleb128 0x22
 4697 1571 94000000 		.4byte	.LVL205
 4698 1575 00170000 		.4byte	0x1700
 4699 1579 21       		.uleb128 0x21
 4700 157a 01       		.uleb128 0x1
 4701 157b 50       		.byte	0x50
 4702 157c 01       		.uleb128 0x1
 4703 157d 4E       		.byte	0x4e
 4704 157e 00       		.byte	0
 4705 157f 00       		.byte	0
 4706 1580 24       		.uleb128 0x24
 4707 1581 F7080000 		.4byte	.LASF154
 4708 1585 01       		.byte	0x1
 4709 1586 54       		.byte	0x54
 4710 1587 D1060000 		.4byte	0x6d1
 4711 158b 05       		.uleb128 0x5
 4712 158c 03       		.byte	0x3
 4713 158d 00000000 		.4byte	driverPacket
 4714 1591 24       		.uleb128 0x24
 4715 1592 49030000 		.4byte	.LASF155
 4716 1596 01       		.byte	0x1
 4717 1597 5F       		.byte	0x5f
 4718 1598 E5000000 		.4byte	0xe5
 4719 159c 05       		.uleb128 0x5
 4720 159d 03       		.byte	0x3
 4721 159e 7C000000 		.4byte	fullUpdateTime
 4722 15a2 24       		.uleb128 0x24
 4723 15a3 18040000 		.4byte	.LASF156
 4724 15a7 01       		.byte	0x1
 4725 15a8 60       		.byte	0x60
 4726 15a9 E5000000 		.4byte	0xe5
 4727 15ad 05       		.uleb128 0x5
 4728 15ae 03       		.byte	0x3
 4729 15af 7E000000 		.4byte	partialUpdateTime
 4730 15b3 24       		.uleb128 0x24
 4731 15b4 91050000 		.4byte	.LASF157
 4732 15b8 01       		.byte	0x1
 4733 15b9 63       		.byte	0x63
 4734 15ba 2D050000 		.4byte	0x52d
 4735 15be 05       		.uleb128 0x5
 4736 15bf 03       		.byte	0x3
 4737 15c0 70000000 		.4byte	dataLineEven
 4738 15c4 24       		.uleb128 0x24
 4739 15c5 6F020000 		.4byte	.LASF158
 4740 15c9 01       		.byte	0x1
 4741 15ca 64       		.byte	0x64
 4742 15cb 2D050000 		.4byte	0x52d
 4743 15cf 05       		.uleb128 0x5
 4744 15d0 03       		.byte	0x3
 4745 15d1 74000000 		.4byte	dataLineOdd
ARM GAS  C:\Users\rober\AppData\Local\Temp\ccBlBMtt.s 			page 117


 4746 15d5 24       		.uleb128 0x24
 4747 15d6 74030000 		.4byte	.LASF159
 4748 15da 01       		.byte	0x1
 4749 15db 65       		.byte	0x65
 4750 15dc 2D050000 		.4byte	0x52d
 4751 15e0 05       		.uleb128 0x5
 4752 15e1 03       		.byte	0x3
 4753 15e2 78000000 		.4byte	dataLineScan
 4754 15e6 2E       		.uleb128 0x2e
 4755 15e7 86010000 		.4byte	.LASF160
 4756 15eb 0B       		.byte	0xb
 4757 15ec EA07     		.2byte	0x7ea
 4758 15ee F2150000 		.4byte	0x15f2
 4759 15f2 06       		.uleb128 0x6
 4760 15f3 F0000000 		.4byte	0xf0
 4761 15f7 2F       		.uleb128 0x2f
 4762 15f8 9C090000 		.4byte	.LASF161
 4763 15fc 0C       		.byte	0xc
 4764 15fd 5E       		.byte	0x5e
 4765 15fe C2050000 		.4byte	0x5c2
 4766 1602 2F       		.uleb128 0x2f
 4767 1603 1A0A0000 		.4byte	.LASF162
 4768 1607 0D       		.byte	0xd
 4769 1608 1F       		.byte	0x1f
 4770 1609 0D160000 		.4byte	0x160d
 4771 160d 07       		.uleb128 0x7
 4772 160e CD030000 		.4byte	0x3cd
 4773 1612 2F       		.uleb128 0x2f
 4774 1613 D2080000 		.4byte	.LASF163
 4775 1617 0E       		.byte	0xe
 4776 1618 1F       		.byte	0x1f
 4777 1619 1D160000 		.4byte	0x161d
 4778 161d 07       		.uleb128 0x7
 4779 161e 11050000 		.4byte	0x511
 4780 1622 2F       		.uleb128 0x2f
 4781 1623 A5010000 		.4byte	.LASF164
 4782 1627 0F       		.byte	0xf
 4783 1628 1F       		.byte	0x1f
 4784 1629 0D160000 		.4byte	0x160d
 4785 162d 08       		.uleb128 0x8
 4786 162e D1060000 		.4byte	0x6d1
 4787 1632 3D160000 		.4byte	0x163d
 4788 1636 09       		.uleb128 0x9
 4789 1637 B4000000 		.4byte	0xb4
 4790 163b AF       		.byte	0xaf
 4791 163c 00       		.byte	0
 4792 163d 30       		.uleb128 0x30
 4793 163e A0030000 		.4byte	.LASF165
 4794 1642 01       		.byte	0x1
 4795 1643 50       		.byte	0x50
 4796 1644 2D160000 		.4byte	0x162d
 4797 1648 05       		.uleb128 0x5
 4798 1649 03       		.byte	0x3
 4799 164a 00000000 		.4byte	bulkDriverPacket
 4800 164e 08       		.uleb128 0x8
 4801 164f 5E160000 		.4byte	0x165e
 4802 1653 5E160000 		.4byte	0x165e
ARM GAS  C:\Users\rober\AppData\Local\Temp\ccBlBMtt.s 			page 118


 4803 1657 09       		.uleb128 0x9
 4804 1658 B4000000 		.4byte	0xb4
 4805 165c 03       		.byte	0x3
 4806 165d 00       		.byte	0
 4807 165e 07       		.uleb128 0x7
 4808 165f CF000000 		.4byte	0xcf
 4809 1663 30       		.uleb128 0x30
 4810 1664 3F030000 		.4byte	.LASF166
 4811 1668 01       		.byte	0x1
 4812 1669 57       		.byte	0x57
 4813 166a 74160000 		.4byte	0x1674
 4814 166e 05       		.uleb128 0x5
 4815 166f 03       		.byte	0x3
 4816 1670 00000000 		.4byte	scanTable
 4817 1674 07       		.uleb128 0x7
 4818 1675 4E160000 		.4byte	0x164e
 4819 1679 08       		.uleb128 0x8
 4820 167a 5E160000 		.4byte	0x165e
 4821 167e 89160000 		.4byte	0x1689
 4822 1682 09       		.uleb128 0x9
 4823 1683 B4000000 		.4byte	0xb4
 4824 1687 07       		.byte	0x7
 4825 1688 00       		.byte	0
 4826 1689 30       		.uleb128 0x30
 4827 168a 92030000 		.4byte	.LASF167
 4828 168e 01       		.byte	0x1
 4829 168f 5B       		.byte	0x5b
 4830 1690 9A160000 		.4byte	0x169a
 4831 1694 05       		.uleb128 0x5
 4832 1695 03       		.byte	0x3
 4833 1696 00000000 		.4byte	channelSelect
 4834 169a 07       		.uleb128 0x7
 4835 169b 79160000 		.4byte	0x1679
 4836 169f 31       		.uleb128 0x31
 4837 16a0 81030000 		.4byte	.LASF168
 4838 16a4 81030000 		.4byte	.LASF168
 4839 16a8 10       		.byte	0x10
 4840 16a9 85       		.byte	0x85
 4841 16aa 31       		.uleb128 0x31
 4842 16ab 53070000 		.4byte	.LASF169
 4843 16af 53070000 		.4byte	.LASF169
 4844 16b3 0A       		.byte	0xa
 4845 16b4 58       		.byte	0x58
 4846 16b5 31       		.uleb128 0x31
 4847 16b6 25020000 		.4byte	.LASF170
 4848 16ba 25020000 		.4byte	.LASF170
 4849 16be 10       		.byte	0x10
 4850 16bf 86       		.byte	0x86
 4851 16c0 31       		.uleb128 0x31
 4852 16c1 DD080000 		.4byte	.LASF171
 4853 16c5 DD080000 		.4byte	.LASF171
 4854 16c9 10       		.byte	0x10
 4855 16ca 82       		.byte	0x82
 4856 16cb 31       		.uleb128 0x31
 4857 16cc C9020000 		.4byte	.LASF172
 4858 16d0 C9020000 		.4byte	.LASF172
 4859 16d4 10       		.byte	0x10
ARM GAS  C:\Users\rober\AppData\Local\Temp\ccBlBMtt.s 			page 119


 4860 16d5 7D       		.byte	0x7d
 4861 16d6 32       		.uleb128 0x32
 4862 16d7 D3090000 		.4byte	.LASF183
 4863 16db D3090000 		.4byte	.LASF183
 4864 16df 31       		.uleb128 0x31
 4865 16e0 8A0A0000 		.4byte	.LASF173
 4866 16e4 8A0A0000 		.4byte	.LASF173
 4867 16e8 10       		.byte	0x10
 4868 16e9 7F       		.byte	0x7f
 4869 16ea 31       		.uleb128 0x31
 4870 16eb AA080000 		.4byte	.LASF174
 4871 16ef AA080000 		.4byte	.LASF174
 4872 16f3 10       		.byte	0x10
 4873 16f4 88       		.byte	0x88
 4874 16f5 31       		.uleb128 0x31
 4875 16f6 31090000 		.4byte	.LASF175
 4876 16fa 31090000 		.4byte	.LASF175
 4877 16fe 10       		.byte	0x10
 4878 16ff 7E       		.byte	0x7e
 4879 1700 33       		.uleb128 0x33
 4880 1701 50080000 		.4byte	.LASF176
 4881 1705 50080000 		.4byte	.LASF176
 4882 1709 06       		.byte	0x6
 4883 170a 2103     		.2byte	0x321
 4884 170c 31       		.uleb128 0x31
 4885 170d 7C090000 		.4byte	.LASF177
 4886 1711 7C090000 		.4byte	.LASF177
 4887 1715 10       		.byte	0x10
 4888 1716 83       		.byte	0x83
 4889 1717 31       		.uleb128 0x31
 4890 1718 BF050000 		.4byte	.LASF178
 4891 171c BF050000 		.4byte	.LASF178
 4892 1720 10       		.byte	0x10
 4893 1721 84       		.byte	0x84
 4894 1722 00       		.byte	0
 4895              		.section	.debug_abbrev,"",%progbits
 4896              	.Ldebug_abbrev0:
 4897 0000 01       		.uleb128 0x1
 4898 0001 11       		.uleb128 0x11
 4899 0002 01       		.byte	0x1
 4900 0003 25       		.uleb128 0x25
 4901 0004 0E       		.uleb128 0xe
 4902 0005 13       		.uleb128 0x13
 4903 0006 0B       		.uleb128 0xb
 4904 0007 03       		.uleb128 0x3
 4905 0008 0E       		.uleb128 0xe
 4906 0009 1B       		.uleb128 0x1b
 4907 000a 0E       		.uleb128 0xe
 4908 000b 55       		.uleb128 0x55
 4909 000c 17       		.uleb128 0x17
 4910 000d 11       		.uleb128 0x11
 4911 000e 01       		.uleb128 0x1
 4912 000f 10       		.uleb128 0x10
 4913 0010 17       		.uleb128 0x17
 4914 0011 00       		.byte	0
 4915 0012 00       		.byte	0
 4916 0013 02       		.uleb128 0x2
ARM GAS  C:\Users\rober\AppData\Local\Temp\ccBlBMtt.s 			page 120


 4917 0014 24       		.uleb128 0x24
 4918 0015 00       		.byte	0
 4919 0016 0B       		.uleb128 0xb
 4920 0017 0B       		.uleb128 0xb
 4921 0018 3E       		.uleb128 0x3e
 4922 0019 0B       		.uleb128 0xb
 4923 001a 03       		.uleb128 0x3
 4924 001b 08       		.uleb128 0x8
 4925 001c 00       		.byte	0
 4926 001d 00       		.byte	0
 4927 001e 03       		.uleb128 0x3
 4928 001f 24       		.uleb128 0x24
 4929 0020 00       		.byte	0
 4930 0021 0B       		.uleb128 0xb
 4931 0022 0B       		.uleb128 0xb
 4932 0023 3E       		.uleb128 0x3e
 4933 0024 0B       		.uleb128 0xb
 4934 0025 03       		.uleb128 0x3
 4935 0026 0E       		.uleb128 0xe
 4936 0027 00       		.byte	0
 4937 0028 00       		.byte	0
 4938 0029 04       		.uleb128 0x4
 4939 002a 16       		.uleb128 0x16
 4940 002b 00       		.byte	0
 4941 002c 03       		.uleb128 0x3
 4942 002d 0E       		.uleb128 0xe
 4943 002e 3A       		.uleb128 0x3a
 4944 002f 0B       		.uleb128 0xb
 4945 0030 3B       		.uleb128 0x3b
 4946 0031 0B       		.uleb128 0xb
 4947 0032 49       		.uleb128 0x49
 4948 0033 13       		.uleb128 0x13
 4949 0034 00       		.byte	0
 4950 0035 00       		.byte	0
 4951 0036 05       		.uleb128 0x5
 4952 0037 0F       		.uleb128 0xf
 4953 0038 00       		.byte	0
 4954 0039 0B       		.uleb128 0xb
 4955 003a 0B       		.uleb128 0xb
 4956 003b 00       		.byte	0
 4957 003c 00       		.byte	0
 4958 003d 06       		.uleb128 0x6
 4959 003e 35       		.uleb128 0x35
 4960 003f 00       		.byte	0
 4961 0040 49       		.uleb128 0x49
 4962 0041 13       		.uleb128 0x13
 4963 0042 00       		.byte	0
 4964 0043 00       		.byte	0
 4965 0044 07       		.uleb128 0x7
 4966 0045 26       		.uleb128 0x26
 4967 0046 00       		.byte	0
 4968 0047 49       		.uleb128 0x49
 4969 0048 13       		.uleb128 0x13
 4970 0049 00       		.byte	0
 4971 004a 00       		.byte	0
 4972 004b 08       		.uleb128 0x8
 4973 004c 01       		.uleb128 0x1
ARM GAS  C:\Users\rober\AppData\Local\Temp\ccBlBMtt.s 			page 121


 4974 004d 01       		.byte	0x1
 4975 004e 49       		.uleb128 0x49
 4976 004f 13       		.uleb128 0x13
 4977 0050 01       		.uleb128 0x1
 4978 0051 13       		.uleb128 0x13
 4979 0052 00       		.byte	0
 4980 0053 00       		.byte	0
 4981 0054 09       		.uleb128 0x9
 4982 0055 21       		.uleb128 0x21
 4983 0056 00       		.byte	0
 4984 0057 49       		.uleb128 0x49
 4985 0058 13       		.uleb128 0x13
 4986 0059 2F       		.uleb128 0x2f
 4987 005a 0B       		.uleb128 0xb
 4988 005b 00       		.byte	0
 4989 005c 00       		.byte	0
 4990 005d 0A       		.uleb128 0xa
 4991 005e 13       		.uleb128 0x13
 4992 005f 01       		.byte	0x1
 4993 0060 0B       		.uleb128 0xb
 4994 0061 0B       		.uleb128 0xb
 4995 0062 3A       		.uleb128 0x3a
 4996 0063 0B       		.uleb128 0xb
 4997 0064 3B       		.uleb128 0x3b
 4998 0065 0B       		.uleb128 0xb
 4999 0066 01       		.uleb128 0x1
 5000 0067 13       		.uleb128 0x13
 5001 0068 00       		.byte	0
 5002 0069 00       		.byte	0
 5003 006a 0B       		.uleb128 0xb
 5004 006b 0D       		.uleb128 0xd
 5005 006c 00       		.byte	0
 5006 006d 03       		.uleb128 0x3
 5007 006e 08       		.uleb128 0x8
 5008 006f 3A       		.uleb128 0x3a
 5009 0070 0B       		.uleb128 0xb
 5010 0071 3B       		.uleb128 0x3b
 5011 0072 0B       		.uleb128 0xb
 5012 0073 49       		.uleb128 0x49
 5013 0074 13       		.uleb128 0x13
 5014 0075 38       		.uleb128 0x38
 5015 0076 0B       		.uleb128 0xb
 5016 0077 00       		.byte	0
 5017 0078 00       		.byte	0
 5018 0079 0C       		.uleb128 0xc
 5019 007a 0D       		.uleb128 0xd
 5020 007b 00       		.byte	0
 5021 007c 03       		.uleb128 0x3
 5022 007d 0E       		.uleb128 0xe
 5023 007e 3A       		.uleb128 0x3a
 5024 007f 0B       		.uleb128 0xb
 5025 0080 3B       		.uleb128 0x3b
 5026 0081 0B       		.uleb128 0xb
 5027 0082 49       		.uleb128 0x49
 5028 0083 13       		.uleb128 0x13
 5029 0084 38       		.uleb128 0x38
 5030 0085 0B       		.uleb128 0xb
ARM GAS  C:\Users\rober\AppData\Local\Temp\ccBlBMtt.s 			page 122


 5031 0086 00       		.byte	0
 5032 0087 00       		.byte	0
 5033 0088 0D       		.uleb128 0xd
 5034 0089 13       		.uleb128 0x13
 5035 008a 01       		.byte	0x1
 5036 008b 0B       		.uleb128 0xb
 5037 008c 05       		.uleb128 0x5
 5038 008d 3A       		.uleb128 0x3a
 5039 008e 0B       		.uleb128 0xb
 5040 008f 3B       		.uleb128 0x3b
 5041 0090 0B       		.uleb128 0xb
 5042 0091 01       		.uleb128 0x1
 5043 0092 13       		.uleb128 0x13
 5044 0093 00       		.byte	0
 5045 0094 00       		.byte	0
 5046 0095 0E       		.uleb128 0xe
 5047 0096 0D       		.uleb128 0xd
 5048 0097 00       		.byte	0
 5049 0098 03       		.uleb128 0x3
 5050 0099 0E       		.uleb128 0xe
 5051 009a 3A       		.uleb128 0x3a
 5052 009b 0B       		.uleb128 0xb
 5053 009c 3B       		.uleb128 0x3b
 5054 009d 0B       		.uleb128 0xb
 5055 009e 49       		.uleb128 0x49
 5056 009f 13       		.uleb128 0x13
 5057 00a0 38       		.uleb128 0x38
 5058 00a1 05       		.uleb128 0x5
 5059 00a2 00       		.byte	0
 5060 00a3 00       		.byte	0
 5061 00a4 0F       		.uleb128 0xf
 5062 00a5 16       		.uleb128 0x16
 5063 00a6 00       		.byte	0
 5064 00a7 03       		.uleb128 0x3
 5065 00a8 0E       		.uleb128 0xe
 5066 00a9 3A       		.uleb128 0x3a
 5067 00aa 0B       		.uleb128 0xb
 5068 00ab 3B       		.uleb128 0x3b
 5069 00ac 05       		.uleb128 0x5
 5070 00ad 49       		.uleb128 0x49
 5071 00ae 13       		.uleb128 0x13
 5072 00af 00       		.byte	0
 5073 00b0 00       		.byte	0
 5074 00b1 10       		.uleb128 0x10
 5075 00b2 13       		.uleb128 0x13
 5076 00b3 01       		.byte	0x1
 5077 00b4 03       		.uleb128 0x3
 5078 00b5 0E       		.uleb128 0xe
 5079 00b6 0B       		.uleb128 0xb
 5080 00b7 0B       		.uleb128 0xb
 5081 00b8 3A       		.uleb128 0x3a
 5082 00b9 0B       		.uleb128 0xb
 5083 00ba 3B       		.uleb128 0x3b
 5084 00bb 0B       		.uleb128 0xb
 5085 00bc 01       		.uleb128 0x1
 5086 00bd 13       		.uleb128 0x13
 5087 00be 00       		.byte	0
ARM GAS  C:\Users\rober\AppData\Local\Temp\ccBlBMtt.s 			page 123


 5088 00bf 00       		.byte	0
 5089 00c0 11       		.uleb128 0x11
 5090 00c1 0F       		.uleb128 0xf
 5091 00c2 00       		.byte	0
 5092 00c3 0B       		.uleb128 0xb
 5093 00c4 0B       		.uleb128 0xb
 5094 00c5 49       		.uleb128 0x49
 5095 00c6 13       		.uleb128 0x13
 5096 00c7 00       		.byte	0
 5097 00c8 00       		.byte	0
 5098 00c9 12       		.uleb128 0x12
 5099 00ca 15       		.uleb128 0x15
 5100 00cb 01       		.byte	0x1
 5101 00cc 27       		.uleb128 0x27
 5102 00cd 19       		.uleb128 0x19
 5103 00ce 01       		.uleb128 0x1
 5104 00cf 13       		.uleb128 0x13
 5105 00d0 00       		.byte	0
 5106 00d1 00       		.byte	0
 5107 00d2 13       		.uleb128 0x13
 5108 00d3 05       		.uleb128 0x5
 5109 00d4 00       		.byte	0
 5110 00d5 49       		.uleb128 0x49
 5111 00d6 13       		.uleb128 0x13
 5112 00d7 00       		.byte	0
 5113 00d8 00       		.byte	0
 5114 00d9 14       		.uleb128 0x14
 5115 00da 13       		.uleb128 0x13
 5116 00db 01       		.byte	0x1
 5117 00dc 03       		.uleb128 0x3
 5118 00dd 0E       		.uleb128 0xe
 5119 00de 0B       		.uleb128 0xb
 5120 00df 0B       		.uleb128 0xb
 5121 00e0 3A       		.uleb128 0x3a
 5122 00e1 0B       		.uleb128 0xb
 5123 00e2 3B       		.uleb128 0x3b
 5124 00e3 05       		.uleb128 0x5
 5125 00e4 01       		.uleb128 0x1
 5126 00e5 13       		.uleb128 0x13
 5127 00e6 00       		.byte	0
 5128 00e7 00       		.byte	0
 5129 00e8 15       		.uleb128 0x15
 5130 00e9 0D       		.uleb128 0xd
 5131 00ea 00       		.byte	0
 5132 00eb 03       		.uleb128 0x3
 5133 00ec 0E       		.uleb128 0xe
 5134 00ed 3A       		.uleb128 0x3a
 5135 00ee 0B       		.uleb128 0xb
 5136 00ef 3B       		.uleb128 0x3b
 5137 00f0 05       		.uleb128 0x5
 5138 00f1 49       		.uleb128 0x49
 5139 00f2 13       		.uleb128 0x13
 5140 00f3 38       		.uleb128 0x38
 5141 00f4 0B       		.uleb128 0xb
 5142 00f5 00       		.byte	0
 5143 00f6 00       		.byte	0
 5144 00f7 16       		.uleb128 0x16
ARM GAS  C:\Users\rober\AppData\Local\Temp\ccBlBMtt.s 			page 124


 5145 00f8 04       		.uleb128 0x4
 5146 00f9 01       		.byte	0x1
 5147 00fa 0B       		.uleb128 0xb
 5148 00fb 0B       		.uleb128 0xb
 5149 00fc 49       		.uleb128 0x49
 5150 00fd 13       		.uleb128 0x13
 5151 00fe 3A       		.uleb128 0x3a
 5152 00ff 0B       		.uleb128 0xb
 5153 0100 3B       		.uleb128 0x3b
 5154 0101 0B       		.uleb128 0xb
 5155 0102 01       		.uleb128 0x1
 5156 0103 13       		.uleb128 0x13
 5157 0104 00       		.byte	0
 5158 0105 00       		.byte	0
 5159 0106 17       		.uleb128 0x17
 5160 0107 28       		.uleb128 0x28
 5161 0108 00       		.byte	0
 5162 0109 03       		.uleb128 0x3
 5163 010a 0E       		.uleb128 0xe
 5164 010b 1C       		.uleb128 0x1c
 5165 010c 0B       		.uleb128 0xb
 5166 010d 00       		.byte	0
 5167 010e 00       		.byte	0
 5168 010f 18       		.uleb128 0x18
 5169 0110 17       		.uleb128 0x17
 5170 0111 01       		.byte	0x1
 5171 0112 0B       		.uleb128 0xb
 5172 0113 0B       		.uleb128 0xb
 5173 0114 3A       		.uleb128 0x3a
 5174 0115 0B       		.uleb128 0xb
 5175 0116 3B       		.uleb128 0x3b
 5176 0117 0B       		.uleb128 0xb
 5177 0118 01       		.uleb128 0x1
 5178 0119 13       		.uleb128 0x13
 5179 011a 00       		.byte	0
 5180 011b 00       		.byte	0
 5181 011c 19       		.uleb128 0x19
 5182 011d 0D       		.uleb128 0xd
 5183 011e 00       		.byte	0
 5184 011f 03       		.uleb128 0x3
 5185 0120 0E       		.uleb128 0xe
 5186 0121 3A       		.uleb128 0x3a
 5187 0122 0B       		.uleb128 0xb
 5188 0123 3B       		.uleb128 0x3b
 5189 0124 0B       		.uleb128 0xb
 5190 0125 49       		.uleb128 0x49
 5191 0126 13       		.uleb128 0x13
 5192 0127 00       		.byte	0
 5193 0128 00       		.byte	0
 5194 0129 1A       		.uleb128 0x1a
 5195 012a 2E       		.uleb128 0x2e
 5196 012b 01       		.byte	0x1
 5197 012c 03       		.uleb128 0x3
 5198 012d 0E       		.uleb128 0xe
 5199 012e 3A       		.uleb128 0x3a
 5200 012f 0B       		.uleb128 0xb
 5201 0130 3B       		.uleb128 0x3b
ARM GAS  C:\Users\rober\AppData\Local\Temp\ccBlBMtt.s 			page 125


 5202 0131 05       		.uleb128 0x5
 5203 0132 27       		.uleb128 0x27
 5204 0133 19       		.uleb128 0x19
 5205 0134 20       		.uleb128 0x20
 5206 0135 0B       		.uleb128 0xb
 5207 0136 01       		.uleb128 0x1
 5208 0137 13       		.uleb128 0x13
 5209 0138 00       		.byte	0
 5210 0139 00       		.byte	0
 5211 013a 1B       		.uleb128 0x1b
 5212 013b 05       		.uleb128 0x5
 5213 013c 00       		.byte	0
 5214 013d 03       		.uleb128 0x3
 5215 013e 0E       		.uleb128 0xe
 5216 013f 3A       		.uleb128 0x3a
 5217 0140 0B       		.uleb128 0xb
 5218 0141 3B       		.uleb128 0x3b
 5219 0142 05       		.uleb128 0x5
 5220 0143 49       		.uleb128 0x49
 5221 0144 13       		.uleb128 0x13
 5222 0145 00       		.byte	0
 5223 0146 00       		.byte	0
 5224 0147 1C       		.uleb128 0x1c
 5225 0148 2E       		.uleb128 0x2e
 5226 0149 01       		.byte	0x1
 5227 014a 3F       		.uleb128 0x3f
 5228 014b 19       		.uleb128 0x19
 5229 014c 03       		.uleb128 0x3
 5230 014d 0E       		.uleb128 0xe
 5231 014e 3A       		.uleb128 0x3a
 5232 014f 0B       		.uleb128 0xb
 5233 0150 3B       		.uleb128 0x3b
 5234 0151 0B       		.uleb128 0xb
 5235 0152 27       		.uleb128 0x27
 5236 0153 19       		.uleb128 0x19
 5237 0154 11       		.uleb128 0x11
 5238 0155 01       		.uleb128 0x1
 5239 0156 12       		.uleb128 0x12
 5240 0157 06       		.uleb128 0x6
 5241 0158 40       		.uleb128 0x40
 5242 0159 18       		.uleb128 0x18
 5243 015a 9742     		.uleb128 0x2117
 5244 015c 19       		.uleb128 0x19
 5245 015d 01       		.uleb128 0x1
 5246 015e 13       		.uleb128 0x13
 5247 015f 00       		.byte	0
 5248 0160 00       		.byte	0
 5249 0161 1D       		.uleb128 0x1d
 5250 0162 05       		.uleb128 0x5
 5251 0163 00       		.byte	0
 5252 0164 03       		.uleb128 0x3
 5253 0165 0E       		.uleb128 0xe
 5254 0166 3A       		.uleb128 0x3a
 5255 0167 0B       		.uleb128 0xb
 5256 0168 3B       		.uleb128 0x3b
 5257 0169 0B       		.uleb128 0xb
 5258 016a 49       		.uleb128 0x49
ARM GAS  C:\Users\rober\AppData\Local\Temp\ccBlBMtt.s 			page 126


 5259 016b 13       		.uleb128 0x13
 5260 016c 02       		.uleb128 0x2
 5261 016d 17       		.uleb128 0x17
 5262 016e 00       		.byte	0
 5263 016f 00       		.byte	0
 5264 0170 1E       		.uleb128 0x1e
 5265 0171 1D       		.uleb128 0x1d
 5266 0172 01       		.byte	0x1
 5267 0173 31       		.uleb128 0x31
 5268 0174 13       		.uleb128 0x13
 5269 0175 11       		.uleb128 0x11
 5270 0176 01       		.uleb128 0x1
 5271 0177 12       		.uleb128 0x12
 5272 0178 06       		.uleb128 0x6
 5273 0179 58       		.uleb128 0x58
 5274 017a 0B       		.uleb128 0xb
 5275 017b 59       		.uleb128 0x59
 5276 017c 0B       		.uleb128 0xb
 5277 017d 01       		.uleb128 0x1
 5278 017e 13       		.uleb128 0x13
 5279 017f 00       		.byte	0
 5280 0180 00       		.byte	0
 5281 0181 1F       		.uleb128 0x1f
 5282 0182 05       		.uleb128 0x5
 5283 0183 00       		.byte	0
 5284 0184 31       		.uleb128 0x31
 5285 0185 13       		.uleb128 0x13
 5286 0186 02       		.uleb128 0x2
 5287 0187 17       		.uleb128 0x17
 5288 0188 00       		.byte	0
 5289 0189 00       		.byte	0
 5290 018a 20       		.uleb128 0x20
 5291 018b 898201   		.uleb128 0x4109
 5292 018e 01       		.byte	0x1
 5293 018f 11       		.uleb128 0x11
 5294 0190 01       		.uleb128 0x1
 5295 0191 31       		.uleb128 0x31
 5296 0192 13       		.uleb128 0x13
 5297 0193 01       		.uleb128 0x1
 5298 0194 13       		.uleb128 0x13
 5299 0195 00       		.byte	0
 5300 0196 00       		.byte	0
 5301 0197 21       		.uleb128 0x21
 5302 0198 8A8201   		.uleb128 0x410a
 5303 019b 00       		.byte	0
 5304 019c 02       		.uleb128 0x2
 5305 019d 18       		.uleb128 0x18
 5306 019e 9142     		.uleb128 0x2111
 5307 01a0 18       		.uleb128 0x18
 5308 01a1 00       		.byte	0
 5309 01a2 00       		.byte	0
 5310 01a3 22       		.uleb128 0x22
 5311 01a4 898201   		.uleb128 0x4109
 5312 01a7 01       		.byte	0x1
 5313 01a8 11       		.uleb128 0x11
 5314 01a9 01       		.uleb128 0x1
 5315 01aa 31       		.uleb128 0x31
ARM GAS  C:\Users\rober\AppData\Local\Temp\ccBlBMtt.s 			page 127


 5316 01ab 13       		.uleb128 0x13
 5317 01ac 00       		.byte	0
 5318 01ad 00       		.byte	0
 5319 01ae 23       		.uleb128 0x23
 5320 01af 2E       		.uleb128 0x2e
 5321 01b0 01       		.byte	0x1
 5322 01b1 3F       		.uleb128 0x3f
 5323 01b2 19       		.uleb128 0x19
 5324 01b3 03       		.uleb128 0x3
 5325 01b4 0E       		.uleb128 0xe
 5326 01b5 3A       		.uleb128 0x3a
 5327 01b6 0B       		.uleb128 0xb
 5328 01b7 3B       		.uleb128 0x3b
 5329 01b8 0B       		.uleb128 0xb
 5330 01b9 27       		.uleb128 0x27
 5331 01ba 19       		.uleb128 0x19
 5332 01bb 49       		.uleb128 0x49
 5333 01bc 13       		.uleb128 0x13
 5334 01bd 11       		.uleb128 0x11
 5335 01be 01       		.uleb128 0x1
 5336 01bf 12       		.uleb128 0x12
 5337 01c0 06       		.uleb128 0x6
 5338 01c1 40       		.uleb128 0x40
 5339 01c2 18       		.uleb128 0x18
 5340 01c3 9742     		.uleb128 0x2117
 5341 01c5 19       		.uleb128 0x19
 5342 01c6 01       		.uleb128 0x1
 5343 01c7 13       		.uleb128 0x13
 5344 01c8 00       		.byte	0
 5345 01c9 00       		.byte	0
 5346 01ca 24       		.uleb128 0x24
 5347 01cb 34       		.uleb128 0x34
 5348 01cc 00       		.byte	0
 5349 01cd 03       		.uleb128 0x3
 5350 01ce 0E       		.uleb128 0xe
 5351 01cf 3A       		.uleb128 0x3a
 5352 01d0 0B       		.uleb128 0xb
 5353 01d1 3B       		.uleb128 0x3b
 5354 01d2 0B       		.uleb128 0xb
 5355 01d3 49       		.uleb128 0x49
 5356 01d4 13       		.uleb128 0x13
 5357 01d5 02       		.uleb128 0x2
 5358 01d6 18       		.uleb128 0x18
 5359 01d7 00       		.byte	0
 5360 01d8 00       		.byte	0
 5361 01d9 25       		.uleb128 0x25
 5362 01da 898201   		.uleb128 0x4109
 5363 01dd 00       		.byte	0
 5364 01de 11       		.uleb128 0x11
 5365 01df 01       		.uleb128 0x1
 5366 01e0 31       		.uleb128 0x31
 5367 01e1 13       		.uleb128 0x13
 5368 01e2 00       		.byte	0
 5369 01e3 00       		.byte	0
 5370 01e4 26       		.uleb128 0x26
 5371 01e5 2E       		.uleb128 0x2e
 5372 01e6 01       		.byte	0x1
ARM GAS  C:\Users\rober\AppData\Local\Temp\ccBlBMtt.s 			page 128


 5373 01e7 3F       		.uleb128 0x3f
 5374 01e8 19       		.uleb128 0x19
 5375 01e9 03       		.uleb128 0x3
 5376 01ea 0E       		.uleb128 0xe
 5377 01eb 3A       		.uleb128 0x3a
 5378 01ec 0B       		.uleb128 0xb
 5379 01ed 3B       		.uleb128 0x3b
 5380 01ee 05       		.uleb128 0x5
 5381 01ef 27       		.uleb128 0x27
 5382 01f0 19       		.uleb128 0x19
 5383 01f1 49       		.uleb128 0x49
 5384 01f2 13       		.uleb128 0x13
 5385 01f3 11       		.uleb128 0x11
 5386 01f4 01       		.uleb128 0x1
 5387 01f5 12       		.uleb128 0x12
 5388 01f6 06       		.uleb128 0x6
 5389 01f7 40       		.uleb128 0x40
 5390 01f8 18       		.uleb128 0x18
 5391 01f9 9742     		.uleb128 0x2117
 5392 01fb 19       		.uleb128 0x19
 5393 01fc 01       		.uleb128 0x1
 5394 01fd 13       		.uleb128 0x13
 5395 01fe 00       		.byte	0
 5396 01ff 00       		.byte	0
 5397 0200 27       		.uleb128 0x27
 5398 0201 34       		.uleb128 0x34
 5399 0202 00       		.byte	0
 5400 0203 03       		.uleb128 0x3
 5401 0204 0E       		.uleb128 0xe
 5402 0205 3A       		.uleb128 0x3a
 5403 0206 0B       		.uleb128 0xb
 5404 0207 3B       		.uleb128 0x3b
 5405 0208 05       		.uleb128 0x5
 5406 0209 49       		.uleb128 0x49
 5407 020a 13       		.uleb128 0x13
 5408 020b 02       		.uleb128 0x2
 5409 020c 17       		.uleb128 0x17
 5410 020d 00       		.byte	0
 5411 020e 00       		.byte	0
 5412 020f 28       		.uleb128 0x28
 5413 0210 2E       		.uleb128 0x2e
 5414 0211 01       		.byte	0x1
 5415 0212 3F       		.uleb128 0x3f
 5416 0213 19       		.uleb128 0x19
 5417 0214 03       		.uleb128 0x3
 5418 0215 0E       		.uleb128 0xe
 5419 0216 3A       		.uleb128 0x3a
 5420 0217 0B       		.uleb128 0xb
 5421 0218 3B       		.uleb128 0x3b
 5422 0219 05       		.uleb128 0x5
 5423 021a 27       		.uleb128 0x27
 5424 021b 19       		.uleb128 0x19
 5425 021c 11       		.uleb128 0x11
 5426 021d 01       		.uleb128 0x1
 5427 021e 12       		.uleb128 0x12
 5428 021f 06       		.uleb128 0x6
 5429 0220 40       		.uleb128 0x40
ARM GAS  C:\Users\rober\AppData\Local\Temp\ccBlBMtt.s 			page 129


 5430 0221 18       		.uleb128 0x18
 5431 0222 9742     		.uleb128 0x2117
 5432 0224 19       		.uleb128 0x19
 5433 0225 01       		.uleb128 0x1
 5434 0226 13       		.uleb128 0x13
 5435 0227 00       		.byte	0
 5436 0228 00       		.byte	0
 5437 0229 29       		.uleb128 0x29
 5438 022a 05       		.uleb128 0x5
 5439 022b 00       		.byte	0
 5440 022c 03       		.uleb128 0x3
 5441 022d 0E       		.uleb128 0xe
 5442 022e 3A       		.uleb128 0x3a
 5443 022f 0B       		.uleb128 0xb
 5444 0230 3B       		.uleb128 0x3b
 5445 0231 05       		.uleb128 0x5
 5446 0232 49       		.uleb128 0x49
 5447 0233 13       		.uleb128 0x13
 5448 0234 02       		.uleb128 0x2
 5449 0235 18       		.uleb128 0x18
 5450 0236 00       		.byte	0
 5451 0237 00       		.byte	0
 5452 0238 2A       		.uleb128 0x2a
 5453 0239 34       		.uleb128 0x34
 5454 023a 00       		.byte	0
 5455 023b 03       		.uleb128 0x3
 5456 023c 0E       		.uleb128 0xe
 5457 023d 3A       		.uleb128 0x3a
 5458 023e 0B       		.uleb128 0xb
 5459 023f 3B       		.uleb128 0x3b
 5460 0240 05       		.uleb128 0x5
 5461 0241 49       		.uleb128 0x49
 5462 0242 13       		.uleb128 0x13
 5463 0243 02       		.uleb128 0x2
 5464 0244 18       		.uleb128 0x18
 5465 0245 00       		.byte	0
 5466 0246 00       		.byte	0
 5467 0247 2B       		.uleb128 0x2b
 5468 0248 05       		.uleb128 0x5
 5469 0249 00       		.byte	0
 5470 024a 03       		.uleb128 0x3
 5471 024b 0E       		.uleb128 0xe
 5472 024c 3A       		.uleb128 0x3a
 5473 024d 0B       		.uleb128 0xb
 5474 024e 3B       		.uleb128 0x3b
 5475 024f 05       		.uleb128 0x5
 5476 0250 49       		.uleb128 0x49
 5477 0251 13       		.uleb128 0x13
 5478 0252 02       		.uleb128 0x2
 5479 0253 17       		.uleb128 0x17
 5480 0254 00       		.byte	0
 5481 0255 00       		.byte	0
 5482 0256 2C       		.uleb128 0x2c
 5483 0257 34       		.uleb128 0x34
 5484 0258 00       		.byte	0
 5485 0259 03       		.uleb128 0x3
 5486 025a 08       		.uleb128 0x8
ARM GAS  C:\Users\rober\AppData\Local\Temp\ccBlBMtt.s 			page 130


 5487 025b 3A       		.uleb128 0x3a
 5488 025c 0B       		.uleb128 0xb
 5489 025d 3B       		.uleb128 0x3b
 5490 025e 05       		.uleb128 0x5
 5491 025f 49       		.uleb128 0x49
 5492 0260 13       		.uleb128 0x13
 5493 0261 02       		.uleb128 0x2
 5494 0262 17       		.uleb128 0x17
 5495 0263 00       		.byte	0
 5496 0264 00       		.byte	0
 5497 0265 2D       		.uleb128 0x2d
 5498 0266 1D       		.uleb128 0x1d
 5499 0267 01       		.byte	0x1
 5500 0268 31       		.uleb128 0x31
 5501 0269 13       		.uleb128 0x13
 5502 026a 11       		.uleb128 0x11
 5503 026b 01       		.uleb128 0x1
 5504 026c 12       		.uleb128 0x12
 5505 026d 06       		.uleb128 0x6
 5506 026e 58       		.uleb128 0x58
 5507 026f 0B       		.uleb128 0xb
 5508 0270 59       		.uleb128 0x59
 5509 0271 05       		.uleb128 0x5
 5510 0272 01       		.uleb128 0x1
 5511 0273 13       		.uleb128 0x13
 5512 0274 00       		.byte	0
 5513 0275 00       		.byte	0
 5514 0276 2E       		.uleb128 0x2e
 5515 0277 34       		.uleb128 0x34
 5516 0278 00       		.byte	0
 5517 0279 03       		.uleb128 0x3
 5518 027a 0E       		.uleb128 0xe
 5519 027b 3A       		.uleb128 0x3a
 5520 027c 0B       		.uleb128 0xb
 5521 027d 3B       		.uleb128 0x3b
 5522 027e 05       		.uleb128 0x5
 5523 027f 49       		.uleb128 0x49
 5524 0280 13       		.uleb128 0x13
 5525 0281 3F       		.uleb128 0x3f
 5526 0282 19       		.uleb128 0x19
 5527 0283 3C       		.uleb128 0x3c
 5528 0284 19       		.uleb128 0x19
 5529 0285 00       		.byte	0
 5530 0286 00       		.byte	0
 5531 0287 2F       		.uleb128 0x2f
 5532 0288 34       		.uleb128 0x34
 5533 0289 00       		.byte	0
 5534 028a 03       		.uleb128 0x3
 5535 028b 0E       		.uleb128 0xe
 5536 028c 3A       		.uleb128 0x3a
 5537 028d 0B       		.uleb128 0xb
 5538 028e 3B       		.uleb128 0x3b
 5539 028f 0B       		.uleb128 0xb
 5540 0290 49       		.uleb128 0x49
 5541 0291 13       		.uleb128 0x13
 5542 0292 3F       		.uleb128 0x3f
 5543 0293 19       		.uleb128 0x19
ARM GAS  C:\Users\rober\AppData\Local\Temp\ccBlBMtt.s 			page 131


 5544 0294 3C       		.uleb128 0x3c
 5545 0295 19       		.uleb128 0x19
 5546 0296 00       		.byte	0
 5547 0297 00       		.byte	0
 5548 0298 30       		.uleb128 0x30
 5549 0299 34       		.uleb128 0x34
 5550 029a 00       		.byte	0
 5551 029b 03       		.uleb128 0x3
 5552 029c 0E       		.uleb128 0xe
 5553 029d 3A       		.uleb128 0x3a
 5554 029e 0B       		.uleb128 0xb
 5555 029f 3B       		.uleb128 0x3b
 5556 02a0 0B       		.uleb128 0xb
 5557 02a1 49       		.uleb128 0x49
 5558 02a2 13       		.uleb128 0x13
 5559 02a3 3F       		.uleb128 0x3f
 5560 02a4 19       		.uleb128 0x19
 5561 02a5 02       		.uleb128 0x2
 5562 02a6 18       		.uleb128 0x18
 5563 02a7 00       		.byte	0
 5564 02a8 00       		.byte	0
 5565 02a9 31       		.uleb128 0x31
 5566 02aa 2E       		.uleb128 0x2e
 5567 02ab 00       		.byte	0
 5568 02ac 3F       		.uleb128 0x3f
 5569 02ad 19       		.uleb128 0x19
 5570 02ae 3C       		.uleb128 0x3c
 5571 02af 19       		.uleb128 0x19
 5572 02b0 6E       		.uleb128 0x6e
 5573 02b1 0E       		.uleb128 0xe
 5574 02b2 03       		.uleb128 0x3
 5575 02b3 0E       		.uleb128 0xe
 5576 02b4 3A       		.uleb128 0x3a
 5577 02b5 0B       		.uleb128 0xb
 5578 02b6 3B       		.uleb128 0x3b
 5579 02b7 0B       		.uleb128 0xb
 5580 02b8 00       		.byte	0
 5581 02b9 00       		.byte	0
 5582 02ba 32       		.uleb128 0x32
 5583 02bb 2E       		.uleb128 0x2e
 5584 02bc 00       		.byte	0
 5585 02bd 3F       		.uleb128 0x3f
 5586 02be 19       		.uleb128 0x19
 5587 02bf 3C       		.uleb128 0x3c
 5588 02c0 19       		.uleb128 0x19
 5589 02c1 6E       		.uleb128 0x6e
 5590 02c2 0E       		.uleb128 0xe
 5591 02c3 03       		.uleb128 0x3
 5592 02c4 0E       		.uleb128 0xe
 5593 02c5 00       		.byte	0
 5594 02c6 00       		.byte	0
 5595 02c7 33       		.uleb128 0x33
 5596 02c8 2E       		.uleb128 0x2e
 5597 02c9 00       		.byte	0
 5598 02ca 3F       		.uleb128 0x3f
 5599 02cb 19       		.uleb128 0x19
 5600 02cc 3C       		.uleb128 0x3c
ARM GAS  C:\Users\rober\AppData\Local\Temp\ccBlBMtt.s 			page 132


 5601 02cd 19       		.uleb128 0x19
 5602 02ce 6E       		.uleb128 0x6e
 5603 02cf 0E       		.uleb128 0xe
 5604 02d0 03       		.uleb128 0x3
 5605 02d1 0E       		.uleb128 0xe
 5606 02d2 3A       		.uleb128 0x3a
 5607 02d3 0B       		.uleb128 0xb
 5608 02d4 3B       		.uleb128 0x3b
 5609 02d5 05       		.uleb128 0x5
 5610 02d6 00       		.byte	0
 5611 02d7 00       		.byte	0
 5612 02d8 00       		.byte	0
 5613              		.section	.debug_loc,"",%progbits
 5614              	.Ldebug_loc0:
 5615              	.LLST0:
 5616 0000 00000000 		.4byte	.LVL0
 5617 0004 12000000 		.4byte	.LVL3
 5618 0008 0100     		.2byte	0x1
 5619 000a 50       		.byte	0x50
 5620 000b 12000000 		.4byte	.LVL3
 5621 000f 38000000 		.4byte	.LFE603
 5622 0013 0400     		.2byte	0x4
 5623 0015 F3       		.byte	0xf3
 5624 0016 01       		.uleb128 0x1
 5625 0017 50       		.byte	0x50
 5626 0018 9F       		.byte	0x9f
 5627 0019 00000000 		.4byte	0
 5628 001d 00000000 		.4byte	0
 5629              	.LLST1:
 5630 0021 00000000 		.4byte	.LVL0
 5631 0025 15000000 		.4byte	.LVL4-1
 5632 0029 0100     		.2byte	0x1
 5633 002b 51       		.byte	0x51
 5634 002c 15000000 		.4byte	.LVL4-1
 5635 0030 34000000 		.4byte	.LVL11
 5636 0034 0100     		.2byte	0x1
 5637 0036 56       		.byte	0x56
 5638 0037 34000000 		.4byte	.LVL11
 5639 003b 38000000 		.4byte	.LFE603
 5640 003f 0400     		.2byte	0x4
 5641 0041 F3       		.byte	0xf3
 5642 0042 01       		.uleb128 0x1
 5643 0043 51       		.byte	0x51
 5644 0044 9F       		.byte	0x9f
 5645 0045 00000000 		.4byte	0
 5646 0049 00000000 		.4byte	0
 5647              	.LLST2:
 5648 004d 00000000 		.4byte	.LVL0
 5649 0051 15000000 		.4byte	.LVL4-1
 5650 0055 0100     		.2byte	0x1
 5651 0057 52       		.byte	0x52
 5652 0058 15000000 		.4byte	.LVL4-1
 5653 005c 38000000 		.4byte	.LFE603
 5654 0060 0400     		.2byte	0x4
 5655 0062 F3       		.byte	0xf3
 5656 0063 01       		.uleb128 0x1
 5657 0064 52       		.byte	0x52
ARM GAS  C:\Users\rober\AppData\Local\Temp\ccBlBMtt.s 			page 133


 5658 0065 9F       		.byte	0x9f
 5659 0066 00000000 		.4byte	0
 5660 006a 00000000 		.4byte	0
 5661              	.LLST3:
 5662 006e 0A000000 		.4byte	.LVL1
 5663 0072 10000000 		.4byte	.LVL2
 5664 0076 0200     		.2byte	0x2
 5665 0078 30       		.byte	0x30
 5666 0079 9F       		.byte	0x9f
 5667 007a 00000000 		.4byte	0
 5668 007e 00000000 		.4byte	0
 5669              	.LLST4:
 5670 0082 0A000000 		.4byte	.LVL1
 5671 0086 10000000 		.4byte	.LVL2
 5672 008a 0200     		.2byte	0x2
 5673 008c 33       		.byte	0x33
 5674 008d 9F       		.byte	0x9f
 5675 008e 00000000 		.4byte	0
 5676 0092 00000000 		.4byte	0
 5677              	.LLST5:
 5678 0096 0A000000 		.4byte	.LVL1
 5679 009a 10000000 		.4byte	.LVL2
 5680 009e 0600     		.2byte	0x6
 5681 00a0 0C       		.byte	0xc
 5682 00a1 00063240 		.4byte	0x40320600
 5683 00a5 9F       		.byte	0x9f
 5684 00a6 00000000 		.4byte	0
 5685 00aa 00000000 		.4byte	0
 5686              	.LLST6:
 5687 00ae 1C000000 		.4byte	.LVL5
 5688 00b2 1E000000 		.4byte	.LVL6
 5689 00b6 0200     		.2byte	0x2
 5690 00b8 31       		.byte	0x31
 5691 00b9 9F       		.byte	0x9f
 5692 00ba 00000000 		.4byte	0
 5693 00be 00000000 		.4byte	0
 5694              	.LLST7:
 5695 00c2 1C000000 		.4byte	.LVL5
 5696 00c6 1E000000 		.4byte	.LVL6
 5697 00ca 0200     		.2byte	0x2
 5698 00cc 33       		.byte	0x33
 5699 00cd 9F       		.byte	0x9f
 5700 00ce 00000000 		.4byte	0
 5701 00d2 00000000 		.4byte	0
 5702              	.LLST8:
 5703 00d6 1C000000 		.4byte	.LVL5
 5704 00da 1E000000 		.4byte	.LVL6
 5705 00de 0600     		.2byte	0x6
 5706 00e0 0C       		.byte	0xc
 5707 00e1 00063240 		.4byte	0x40320600
 5708 00e5 9F       		.byte	0x9f
 5709 00e6 00000000 		.4byte	0
 5710 00ea 00000000 		.4byte	0
 5711              	.LLST9:
 5712 00ee 1E000000 		.4byte	.LVL6
 5713 00f2 20000000 		.4byte	.LVL7
 5714 00f6 0200     		.2byte	0x2
ARM GAS  C:\Users\rober\AppData\Local\Temp\ccBlBMtt.s 			page 134


 5715 00f8 30       		.byte	0x30
 5716 00f9 9F       		.byte	0x9f
 5717 00fa 00000000 		.4byte	0
 5718 00fe 00000000 		.4byte	0
 5719              	.LLST10:
 5720 0102 1E000000 		.4byte	.LVL6
 5721 0106 20000000 		.4byte	.LVL7
 5722 010a 0200     		.2byte	0x2
 5723 010c 33       		.byte	0x33
 5724 010d 9F       		.byte	0x9f
 5725 010e 00000000 		.4byte	0
 5726 0112 00000000 		.4byte	0
 5727              	.LLST11:
 5728 0116 1E000000 		.4byte	.LVL6
 5729 011a 20000000 		.4byte	.LVL7
 5730 011e 0600     		.2byte	0x6
 5731 0120 0C       		.byte	0xc
 5732 0121 00063240 		.4byte	0x40320600
 5733 0125 9F       		.byte	0x9f
 5734 0126 00000000 		.4byte	0
 5735 012a 00000000 		.4byte	0
 5736              	.LLST12:
 5737 012e 2E000000 		.4byte	.LVL9
 5738 0132 30000000 		.4byte	.LVL10
 5739 0136 0200     		.2byte	0x2
 5740 0138 31       		.byte	0x31
 5741 0139 9F       		.byte	0x9f
 5742 013a 00000000 		.4byte	0
 5743 013e 00000000 		.4byte	0
 5744              	.LLST13:
 5745 0142 2E000000 		.4byte	.LVL9
 5746 0146 30000000 		.4byte	.LVL10
 5747 014a 0200     		.2byte	0x2
 5748 014c 33       		.byte	0x33
 5749 014d 9F       		.byte	0x9f
 5750 014e 00000000 		.4byte	0
 5751 0152 00000000 		.4byte	0
 5752              	.LLST14:
 5753 0156 2E000000 		.4byte	.LVL9
 5754 015a 30000000 		.4byte	.LVL10
 5755 015e 0600     		.2byte	0x6
 5756 0160 0C       		.byte	0xc
 5757 0161 00063240 		.4byte	0x40320600
 5758 0165 9F       		.byte	0x9f
 5759 0166 00000000 		.4byte	0
 5760 016a 00000000 		.4byte	0
 5761              	.LLST15:
 5762 016e 00000000 		.4byte	.LVL12
 5763 0172 11000000 		.4byte	.LVL14-1
 5764 0176 0100     		.2byte	0x1
 5765 0178 50       		.byte	0x50
 5766 0179 11000000 		.4byte	.LVL14-1
 5767 017d 18000000 		.4byte	.LFE604
 5768 0181 0400     		.2byte	0x4
 5769 0183 F3       		.byte	0xf3
 5770 0184 01       		.uleb128 0x1
 5771 0185 50       		.byte	0x50
ARM GAS  C:\Users\rober\AppData\Local\Temp\ccBlBMtt.s 			page 135


 5772 0186 9F       		.byte	0x9f
 5773 0187 00000000 		.4byte	0
 5774 018b 00000000 		.4byte	0
 5775              	.LLST16:
 5776 018f 00000000 		.4byte	.LVL12
 5777 0193 0E000000 		.4byte	.LVL13
 5778 0197 0100     		.2byte	0x1
 5779 0199 51       		.byte	0x51
 5780 019a 0E000000 		.4byte	.LVL13
 5781 019e 11000000 		.4byte	.LVL14-1
 5782 01a2 0200     		.2byte	0x2
 5783 01a4 71       		.byte	0x71
 5784 01a5 00       		.sleb128 0
 5785 01a6 11000000 		.4byte	.LVL14-1
 5786 01aa 18000000 		.4byte	.LFE604
 5787 01ae 0200     		.2byte	0x2
 5788 01b0 91       		.byte	0x91
 5789 01b1 77       		.sleb128 -9
 5790 01b2 00000000 		.4byte	0
 5791 01b6 00000000 		.4byte	0
 5792              	.LLST17:
 5793 01ba 00000000 		.4byte	.LVL15
 5794 01be 0E000000 		.4byte	.LVL18
 5795 01c2 0100     		.2byte	0x1
 5796 01c4 50       		.byte	0x50
 5797 01c5 0E000000 		.4byte	.LVL18
 5798 01c9 30000000 		.4byte	.LFE605
 5799 01cd 0400     		.2byte	0x4
 5800 01cf F3       		.byte	0xf3
 5801 01d0 01       		.uleb128 0x1
 5802 01d1 50       		.byte	0x50
 5803 01d2 9F       		.byte	0x9f
 5804 01d3 00000000 		.4byte	0
 5805 01d7 00000000 		.4byte	0
 5806              	.LLST18:
 5807 01db 00000000 		.4byte	.LVL15
 5808 01df 11000000 		.4byte	.LVL19-1
 5809 01e3 0100     		.2byte	0x1
 5810 01e5 51       		.byte	0x51
 5811 01e6 11000000 		.4byte	.LVL19-1
 5812 01ea 30000000 		.4byte	.LFE605
 5813 01ee 0400     		.2byte	0x4
 5814 01f0 F3       		.byte	0xf3
 5815 01f1 01       		.uleb128 0x1
 5816 01f2 51       		.byte	0x51
 5817 01f3 9F       		.byte	0x9f
 5818 01f4 00000000 		.4byte	0
 5819 01f8 00000000 		.4byte	0
 5820              	.LLST19:
 5821 01fc 06000000 		.4byte	.LVL16
 5822 0200 0C000000 		.4byte	.LVL17
 5823 0204 0200     		.2byte	0x2
 5824 0206 30       		.byte	0x30
 5825 0207 9F       		.byte	0x9f
 5826 0208 00000000 		.4byte	0
 5827 020c 00000000 		.4byte	0
 5828              	.LLST20:
ARM GAS  C:\Users\rober\AppData\Local\Temp\ccBlBMtt.s 			page 136


 5829 0210 06000000 		.4byte	.LVL16
 5830 0214 0C000000 		.4byte	.LVL17
 5831 0218 0200     		.2byte	0x2
 5832 021a 33       		.byte	0x33
 5833 021b 9F       		.byte	0x9f
 5834 021c 00000000 		.4byte	0
 5835 0220 00000000 		.4byte	0
 5836              	.LLST21:
 5837 0224 06000000 		.4byte	.LVL16
 5838 0228 0C000000 		.4byte	.LVL17
 5839 022c 0600     		.2byte	0x6
 5840 022e 0C       		.byte	0xc
 5841 022f 00063240 		.4byte	0x40320600
 5842 0233 9F       		.byte	0x9f
 5843 0234 00000000 		.4byte	0
 5844 0238 00000000 		.4byte	0
 5845              	.LLST22:
 5846 023c 18000000 		.4byte	.LVL20
 5847 0240 1A000000 		.4byte	.LVL21
 5848 0244 0200     		.2byte	0x2
 5849 0246 31       		.byte	0x31
 5850 0247 9F       		.byte	0x9f
 5851 0248 00000000 		.4byte	0
 5852 024c 00000000 		.4byte	0
 5853              	.LLST23:
 5854 0250 18000000 		.4byte	.LVL20
 5855 0254 1A000000 		.4byte	.LVL21
 5856 0258 0200     		.2byte	0x2
 5857 025a 33       		.byte	0x33
 5858 025b 9F       		.byte	0x9f
 5859 025c 00000000 		.4byte	0
 5860 0260 00000000 		.4byte	0
 5861              	.LLST24:
 5862 0264 18000000 		.4byte	.LVL20
 5863 0268 1A000000 		.4byte	.LVL21
 5864 026c 0600     		.2byte	0x6
 5865 026e 0C       		.byte	0xc
 5866 026f 00063240 		.4byte	0x40320600
 5867 0273 9F       		.byte	0x9f
 5868 0274 00000000 		.4byte	0
 5869 0278 00000000 		.4byte	0
 5870              	.LLST25:
 5871 027c 1A000000 		.4byte	.LVL21
 5872 0280 1C000000 		.4byte	.LVL22
 5873 0284 0200     		.2byte	0x2
 5874 0286 30       		.byte	0x30
 5875 0287 9F       		.byte	0x9f
 5876 0288 00000000 		.4byte	0
 5877 028c 00000000 		.4byte	0
 5878              	.LLST26:
 5879 0290 1A000000 		.4byte	.LVL21
 5880 0294 1C000000 		.4byte	.LVL22
 5881 0298 0200     		.2byte	0x2
 5882 029a 33       		.byte	0x33
 5883 029b 9F       		.byte	0x9f
 5884 029c 00000000 		.4byte	0
 5885 02a0 00000000 		.4byte	0
ARM GAS  C:\Users\rober\AppData\Local\Temp\ccBlBMtt.s 			page 137


 5886              	.LLST27:
 5887 02a4 1A000000 		.4byte	.LVL21
 5888 02a8 1C000000 		.4byte	.LVL22
 5889 02ac 0600     		.2byte	0x6
 5890 02ae 0C       		.byte	0xc
 5891 02af 00063240 		.4byte	0x40320600
 5892 02b3 9F       		.byte	0x9f
 5893 02b4 00000000 		.4byte	0
 5894 02b8 00000000 		.4byte	0
 5895              	.LLST28:
 5896 02bc 28000000 		.4byte	.LVL24
 5897 02c0 2A000000 		.4byte	.LVL25
 5898 02c4 0200     		.2byte	0x2
 5899 02c6 31       		.byte	0x31
 5900 02c7 9F       		.byte	0x9f
 5901 02c8 00000000 		.4byte	0
 5902 02cc 00000000 		.4byte	0
 5903              	.LLST29:
 5904 02d0 28000000 		.4byte	.LVL24
 5905 02d4 2A000000 		.4byte	.LVL25
 5906 02d8 0200     		.2byte	0x2
 5907 02da 33       		.byte	0x33
 5908 02db 9F       		.byte	0x9f
 5909 02dc 00000000 		.4byte	0
 5910 02e0 00000000 		.4byte	0
 5911              	.LLST30:
 5912 02e4 28000000 		.4byte	.LVL24
 5913 02e8 2A000000 		.4byte	.LVL25
 5914 02ec 0600     		.2byte	0x6
 5915 02ee 0C       		.byte	0xc
 5916 02ef 00063240 		.4byte	0x40320600
 5917 02f3 9F       		.byte	0x9f
 5918 02f4 00000000 		.4byte	0
 5919 02f8 00000000 		.4byte	0
 5920              	.LLST31:
 5921 02fc 02000000 		.4byte	.LVL26
 5922 0300 08000000 		.4byte	.LVL27
 5923 0304 0200     		.2byte	0x2
 5924 0306 30       		.byte	0x30
 5925 0307 9F       		.byte	0x9f
 5926 0308 00000000 		.4byte	0
 5927 030c 00000000 		.4byte	0
 5928              	.LLST32:
 5929 0310 02000000 		.4byte	.LVL26
 5930 0314 08000000 		.4byte	.LVL27
 5931 0318 0200     		.2byte	0x2
 5932 031a 32       		.byte	0x32
 5933 031b 9F       		.byte	0x9f
 5934 031c 00000000 		.4byte	0
 5935 0320 00000000 		.4byte	0
 5936              	.LLST33:
 5937 0324 02000000 		.4byte	.LVL26
 5938 0328 08000000 		.4byte	.LVL27
 5939 032c 0600     		.2byte	0x6
 5940 032e 0C       		.byte	0xc
 5941 032f 00003240 		.4byte	0x40320000
 5942 0333 9F       		.byte	0x9f
ARM GAS  C:\Users\rober\AppData\Local\Temp\ccBlBMtt.s 			page 138


 5943 0334 00000000 		.4byte	0
 5944 0338 00000000 		.4byte	0
 5945              	.LLST34:
 5946 033c 08000000 		.4byte	.LVL27
 5947 0340 0E000000 		.4byte	.LVL28
 5948 0344 0200     		.2byte	0x2
 5949 0346 30       		.byte	0x30
 5950 0347 9F       		.byte	0x9f
 5951 0348 00000000 		.4byte	0
 5952 034c 00000000 		.4byte	0
 5953              	.LLST35:
 5954 0350 08000000 		.4byte	.LVL27
 5955 0354 0E000000 		.4byte	.LVL28
 5956 0358 0200     		.2byte	0x2
 5957 035a 36       		.byte	0x36
 5958 035b 9F       		.byte	0x9f
 5959 035c 00000000 		.4byte	0
 5960 0360 00000000 		.4byte	0
 5961              	.LLST36:
 5962 0364 08000000 		.4byte	.LVL27
 5963 0368 0E000000 		.4byte	.LVL28
 5964 036c 0600     		.2byte	0x6
 5965 036e 0C       		.byte	0xc
 5966 036f 80023240 		.4byte	0x40320280
 5967 0373 9F       		.byte	0x9f
 5968 0374 00000000 		.4byte	0
 5969 0378 00000000 		.4byte	0
 5970              	.LLST37:
 5971 037c 0E000000 		.4byte	.LVL28
 5972 0380 12000000 		.4byte	.LVL29
 5973 0384 0200     		.2byte	0x2
 5974 0386 30       		.byte	0x30
 5975 0387 9F       		.byte	0x9f
 5976 0388 00000000 		.4byte	0
 5977 038c 00000000 		.4byte	0
 5978              	.LLST38:
 5979 0390 0E000000 		.4byte	.LVL28
 5980 0394 12000000 		.4byte	.LVL29
 5981 0398 0200     		.2byte	0x2
 5982 039a 34       		.byte	0x34
 5983 039b 9F       		.byte	0x9f
 5984 039c 00000000 		.4byte	0
 5985 03a0 00000000 		.4byte	0
 5986              	.LLST39:
 5987 03a4 0E000000 		.4byte	.LVL28
 5988 03a8 12000000 		.4byte	.LVL29
 5989 03ac 0600     		.2byte	0x6
 5990 03ae 0C       		.byte	0xc
 5991 03af 80023240 		.4byte	0x40320280
 5992 03b3 9F       		.byte	0x9f
 5993 03b4 00000000 		.4byte	0
 5994 03b8 00000000 		.4byte	0
 5995              	.LLST40:
 5996 03bc 16000000 		.4byte	.LVL30
 5997 03c0 1C000000 		.4byte	.LVL31
 5998 03c4 0200     		.2byte	0x2
 5999 03c6 30       		.byte	0x30
ARM GAS  C:\Users\rober\AppData\Local\Temp\ccBlBMtt.s 			page 139


 6000 03c7 9F       		.byte	0x9f
 6001 03c8 00000000 		.4byte	0
 6002 03cc 00000000 		.4byte	0
 6003              	.LLST41:
 6004 03d0 16000000 		.4byte	.LVL30
 6005 03d4 1C000000 		.4byte	.LVL31
 6006 03d8 0200     		.2byte	0x2
 6007 03da 33       		.byte	0x33
 6008 03db 9F       		.byte	0x9f
 6009 03dc 00000000 		.4byte	0
 6010 03e0 00000000 		.4byte	0
 6011              	.LLST42:
 6012 03e4 16000000 		.4byte	.LVL30
 6013 03e8 1C000000 		.4byte	.LVL31
 6014 03ec 0600     		.2byte	0x6
 6015 03ee 0C       		.byte	0xc
 6016 03ef 00063240 		.4byte	0x40320600
 6017 03f3 9F       		.byte	0x9f
 6018 03f4 00000000 		.4byte	0
 6019 03f8 00000000 		.4byte	0
 6020              	.LLST43:
 6021 03fc 1C000000 		.4byte	.LVL31
 6022 0400 1E000000 		.4byte	.LVL32
 6023 0404 0200     		.2byte	0x2
 6024 0406 30       		.byte	0x30
 6025 0407 9F       		.byte	0x9f
 6026 0408 00000000 		.4byte	0
 6027 040c 00000000 		.4byte	0
 6028              	.LLST44:
 6029 0410 1C000000 		.4byte	.LVL31
 6030 0414 1E000000 		.4byte	.LVL32
 6031 0418 0200     		.2byte	0x2
 6032 041a 32       		.byte	0x32
 6033 041b 9F       		.byte	0x9f
 6034 041c 00000000 		.4byte	0
 6035 0420 00000000 		.4byte	0
 6036              	.LLST45:
 6037 0424 1C000000 		.4byte	.LVL31
 6038 0428 1E000000 		.4byte	.LVL32
 6039 042c 0600     		.2byte	0x6
 6040 042e 0C       		.byte	0xc
 6041 042f 80023240 		.4byte	0x40320280
 6042 0433 9F       		.byte	0x9f
 6043 0434 00000000 		.4byte	0
 6044 0438 00000000 		.4byte	0
 6045              	.LLST46:
 6046 043c 1E000000 		.4byte	.LVL32
 6047 0440 22000000 		.4byte	.LVL33
 6048 0444 0200     		.2byte	0x2
 6049 0446 30       		.byte	0x30
 6050 0447 9F       		.byte	0x9f
 6051 0448 00000000 		.4byte	0
 6052 044c 00000000 		.4byte	0
 6053              	.LLST47:
 6054 0450 1E000000 		.4byte	.LVL32
 6055 0454 22000000 		.4byte	.LVL33
 6056 0458 0200     		.2byte	0x2
ARM GAS  C:\Users\rober\AppData\Local\Temp\ccBlBMtt.s 			page 140


 6057 045a 35       		.byte	0x35
 6058 045b 9F       		.byte	0x9f
 6059 045c 00000000 		.4byte	0
 6060 0460 00000000 		.4byte	0
 6061              	.LLST48:
 6062 0464 1E000000 		.4byte	.LVL32
 6063 0468 22000000 		.4byte	.LVL33
 6064 046c 0600     		.2byte	0x6
 6065 046e 0C       		.byte	0xc
 6066 046f 80023240 		.4byte	0x40320280
 6067 0473 9F       		.byte	0x9f
 6068 0474 00000000 		.4byte	0
 6069 0478 00000000 		.4byte	0
 6070              	.LLST49:
 6071 047c 02000000 		.4byte	.LVL35
 6072 0480 A8000000 		.4byte	.LVL53
 6073 0484 0200     		.2byte	0x2
 6074 0486 30       		.byte	0x30
 6075 0487 9F       		.byte	0x9f
 6076 0488 A8000000 		.4byte	.LVL53
 6077 048c AA000000 		.4byte	.LVL54
 6078 0490 0100     		.2byte	0x1
 6079 0492 53       		.byte	0x53
 6080 0493 AA000000 		.4byte	.LVL54
 6081 0497 F2000000 		.4byte	.LVL63
 6082 049b 0100     		.2byte	0x1
 6083 049d 54       		.byte	0x54
 6084 049e F2000000 		.4byte	.LVL63
 6085 04a2 FE000000 		.4byte	.LVL65
 6086 04a6 0100     		.2byte	0x1
 6087 04a8 53       		.byte	0x53
 6088 04a9 FE000000 		.4byte	.LVL65
 6089 04ad 0A010000 		.4byte	.LVL66
 6090 04b1 0200     		.2byte	0x2
 6091 04b3 30       		.byte	0x30
 6092 04b4 9F       		.byte	0x9f
 6093 04b5 0A010000 		.4byte	.LVL66
 6094 04b9 18010000 		.4byte	.LFE607
 6095 04bd 0100     		.2byte	0x1
 6096 04bf 53       		.byte	0x53
 6097 04c0 00000000 		.4byte	0
 6098 04c4 00000000 		.4byte	0
 6099              	.LLST50:
 6100 04c8 00000000 		.4byte	.LVL69
 6101 04cc 23000000 		.4byte	.LVL77-1
 6102 04d0 0100     		.2byte	0x1
 6103 04d2 50       		.byte	0x50
 6104 04d3 23000000 		.4byte	.LVL77-1
 6105 04d7 6E000000 		.4byte	.LVL82
 6106 04db 0100     		.2byte	0x1
 6107 04dd 56       		.byte	0x56
 6108 04de 6E000000 		.4byte	.LVL82
 6109 04e2 72000000 		.4byte	.LVL84
 6110 04e6 0300     		.2byte	0x3
 6111 04e8 76       		.byte	0x76
 6112 04e9 01       		.sleb128 1
 6113 04ea 9F       		.byte	0x9f
ARM GAS  C:\Users\rober\AppData\Local\Temp\ccBlBMtt.s 			page 141


 6114 04eb 72000000 		.4byte	.LVL84
 6115 04ef 12040000 		.4byte	.LVL111
 6116 04f3 0100     		.2byte	0x1
 6117 04f5 56       		.byte	0x56
 6118 04f6 00000000 		.4byte	0
 6119 04fa 00000000 		.4byte	0
 6120              	.LLST51:
 6121 04fe 00000000 		.4byte	.LVL69
 6122 0502 23000000 		.4byte	.LVL77-1
 6123 0506 0100     		.2byte	0x1
 6124 0508 51       		.byte	0x51
 6125 0509 23000000 		.4byte	.LVL77-1
 6126 050d 24040000 		.4byte	.LFE609
 6127 0511 0400     		.2byte	0x4
 6128 0513 F3       		.byte	0xf3
 6129 0514 01       		.uleb128 0x1
 6130 0515 51       		.byte	0x51
 6131 0516 9F       		.byte	0x9f
 6132 0517 00000000 		.4byte	0
 6133 051b 00000000 		.4byte	0
 6134              	.LLST52:
 6135 051f 66000000 		.4byte	.LVL80
 6136 0523 6C000000 		.4byte	.LVL81
 6137 0527 0200     		.2byte	0x2
 6138 0529 30       		.byte	0x30
 6139 052a 9F       		.byte	0x9f
 6140 052b 6C000000 		.4byte	.LVL81
 6141 052f 9A030000 		.4byte	.LVL93
 6142 0533 0100     		.2byte	0x1
 6143 0535 53       		.byte	0x53
 6144 0536 9C030000 		.4byte	.LVL94
 6145 053a A6030000 		.4byte	.LVL96
 6146 053e 0100     		.2byte	0x1
 6147 0540 53       		.byte	0x53
 6148 0541 00000000 		.4byte	0
 6149 0545 00000000 		.4byte	0
 6150              	.LLST53:
 6151 0549 24000000 		.4byte	.LVL77
 6152 054d 2A000000 		.4byte	.LVL78
 6153 0551 0200     		.2byte	0x2
 6154 0553 30       		.byte	0x30
 6155 0554 9F       		.byte	0x9f
 6156 0555 2A000000 		.4byte	.LVL78
 6157 0559 C8030000 		.4byte	.LVL100
 6158 055d 0100     		.2byte	0x1
 6159 055f 58       		.byte	0x58
 6160 0560 CC030000 		.4byte	.LVL101
 6161 0564 D4030000 		.4byte	.LVL102
 6162 0568 0100     		.2byte	0x1
 6163 056a 58       		.byte	0x58
 6164 056b D4030000 		.4byte	.LVL102
 6165 056f D8030000 		.4byte	.LVL103
 6166 0573 0200     		.2byte	0x2
 6167 0575 30       		.byte	0x30
 6168 0576 9F       		.byte	0x9f
 6169 0577 D8030000 		.4byte	.LVL103
 6170 057b F6030000 		.4byte	.LVL106
ARM GAS  C:\Users\rober\AppData\Local\Temp\ccBlBMtt.s 			page 142


 6171 057f 0100     		.2byte	0x1
 6172 0581 54       		.byte	0x54
 6173 0582 F8030000 		.4byte	.LVL107
 6174 0586 02040000 		.4byte	.LVL108
 6175 058a 0100     		.2byte	0x1
 6176 058c 54       		.byte	0x54
 6177 058d 00000000 		.4byte	0
 6178 0591 00000000 		.4byte	0
 6179              	.LLST54:
 6180 0595 66000000 		.4byte	.LVL80
 6181 0599 6C000000 		.4byte	.LVL81
 6182 059d 0300     		.2byte	0x3
 6183 059f 08       		.byte	0x8
 6184 05a0 20       		.byte	0x20
 6185 05a1 9F       		.byte	0x9f
 6186 05a2 6C000000 		.4byte	.LVL81
 6187 05a6 2A010000 		.4byte	.LVL85
 6188 05aa 0100     		.2byte	0x1
 6189 05ac 52       		.byte	0x52
 6190 05ad 2C010000 		.4byte	.LVL86
 6191 05b1 EC010000 		.4byte	.LVL87
 6192 05b5 0100     		.2byte	0x1
 6193 05b7 52       		.byte	0x52
 6194 05b8 EE010000 		.4byte	.LVL88
 6195 05bc AE020000 		.4byte	.LVL89
 6196 05c0 0100     		.2byte	0x1
 6197 05c2 52       		.byte	0x52
 6198 05c3 B0020000 		.4byte	.LVL90
 6199 05c7 7E030000 		.4byte	.LVL91
 6200 05cb 0100     		.2byte	0x1
 6201 05cd 52       		.byte	0x52
 6202 05ce 80030000 		.4byte	.LVL92
 6203 05d2 AC030000 		.4byte	.LVL98
 6204 05d6 0100     		.2byte	0x1
 6205 05d8 52       		.byte	0x52
 6206 05d9 00000000 		.4byte	0
 6207 05dd 00000000 		.4byte	0
 6208              	.LLST55:
 6209 05e1 08000000 		.4byte	.LVL70
 6210 05e5 2A000000 		.4byte	.LVL78
 6211 05e9 0200     		.2byte	0x2
 6212 05eb 30       		.byte	0x30
 6213 05ec 9F       		.byte	0x9f
 6214 05ed A2030000 		.4byte	.LVL95
 6215 05f1 A8030000 		.4byte	.LVL97
 6216 05f5 0600     		.2byte	0x6
 6217 05f7 08       		.byte	0x8
 6218 05f8 B0       		.byte	0xb0
 6219 05f9 78       		.byte	0x78
 6220 05fa 00       		.sleb128 0
 6221 05fb 1C       		.byte	0x1c
 6222 05fc 9F       		.byte	0x9f
 6223 05fd A8030000 		.4byte	.LVL97
 6224 0601 AE030000 		.4byte	.LVL99
 6225 0605 0100     		.2byte	0x1
 6226 0607 53       		.byte	0x53
 6227 0608 AE030000 		.4byte	.LVL99
ARM GAS  C:\Users\rober\AppData\Local\Temp\ccBlBMtt.s 			page 143


 6228 060c C8030000 		.4byte	.LVL100
 6229 0610 0600     		.2byte	0x6
 6230 0612 08       		.byte	0x8
 6231 0613 AF       		.byte	0xaf
 6232 0614 78       		.byte	0x78
 6233 0615 00       		.sleb128 0
 6234 0616 1C       		.byte	0x1c
 6235 0617 9F       		.byte	0x9f
 6236 0618 C8030000 		.4byte	.LVL100
 6237 061c CC030000 		.4byte	.LVL101
 6238 0620 0600     		.2byte	0x6
 6239 0622 08       		.byte	0x8
 6240 0623 B0       		.byte	0xb0
 6241 0624 78       		.byte	0x78
 6242 0625 00       		.sleb128 0
 6243 0626 1C       		.byte	0x1c
 6244 0627 9F       		.byte	0x9f
 6245 0628 00000000 		.4byte	0
 6246 062c 00000000 		.4byte	0
 6247              	.LLST56:
 6248 0630 0A000000 		.4byte	.LVL71
 6249 0634 16000000 		.4byte	.LVL72
 6250 0638 0100     		.2byte	0x1
 6251 063a 54       		.byte	0x54
 6252 063b 16000000 		.4byte	.LVL72
 6253 063f 18000000 		.4byte	.LVL73
 6254 0643 0200     		.2byte	0x2
 6255 0645 70       		.byte	0x70
 6256 0646 00       		.sleb128 0
 6257 0647 18000000 		.4byte	.LVL73
 6258 064b 1C000000 		.4byte	.LVL74
 6259 064f 0100     		.2byte	0x1
 6260 0651 54       		.byte	0x54
 6261 0652 1C000000 		.4byte	.LVL74
 6262 0656 1E000000 		.4byte	.LVL75
 6263 065a 0200     		.2byte	0x2
 6264 065c 70       		.byte	0x70
 6265 065d 00       		.sleb128 0
 6266 065e 1E000000 		.4byte	.LVL75
 6267 0662 D4030000 		.4byte	.LVL102
 6268 0666 0100     		.2byte	0x1
 6269 0668 54       		.byte	0x54
 6270 0669 00000000 		.4byte	0
 6271 066d 00000000 		.4byte	0
 6272              	.LLST57:
 6273 0671 20000000 		.4byte	.LVL76
 6274 0675 12040000 		.4byte	.LVL111
 6275 0679 0100     		.2byte	0x1
 6276 067b 57       		.byte	0x57
 6277 067c 00000000 		.4byte	0
 6278 0680 00000000 		.4byte	0
 6279              	.LLST58:
 6280 0684 00000000 		.4byte	.LVL112
 6281 0688 0B000000 		.4byte	.LVL114-1
 6282 068c 0100     		.2byte	0x1
 6283 068e 50       		.byte	0x50
 6284 068f 0B000000 		.4byte	.LVL114-1
ARM GAS  C:\Users\rober\AppData\Local\Temp\ccBlBMtt.s 			page 144


 6285 0693 5E000000 		.4byte	.LVL120
 6286 0697 0100     		.2byte	0x1
 6287 0699 56       		.byte	0x56
 6288 069a 5E000000 		.4byte	.LVL120
 6289 069e 7A010000 		.4byte	.LVL130
 6290 06a2 0100     		.2byte	0x1
 6291 06a4 57       		.byte	0x57
 6292 06a5 7A010000 		.4byte	.LVL130
 6293 06a9 16020000 		.4byte	.LVL151
 6294 06ad 0100     		.2byte	0x1
 6295 06af 56       		.byte	0x56
 6296 06b0 00000000 		.4byte	0
 6297 06b4 00000000 		.4byte	0
 6298              	.LLST59:
 6299 06b8 00000000 		.4byte	.LVL112
 6300 06bc 0B000000 		.4byte	.LVL114-1
 6301 06c0 0100     		.2byte	0x1
 6302 06c2 51       		.byte	0x51
 6303 06c3 0B000000 		.4byte	.LVL114-1
 6304 06c7 62000000 		.4byte	.LVL122
 6305 06cb 0100     		.2byte	0x1
 6306 06cd 55       		.byte	0x55
 6307 06ce 62000000 		.4byte	.LVL122
 6308 06d2 7A010000 		.4byte	.LVL130
 6309 06d6 0100     		.2byte	0x1
 6310 06d8 56       		.byte	0x56
 6311 06d9 7A010000 		.4byte	.LVL130
 6312 06dd AC010000 		.4byte	.LVL137
 6313 06e1 0100     		.2byte	0x1
 6314 06e3 55       		.byte	0x55
 6315 06e4 00000000 		.4byte	0
 6316 06e8 00000000 		.4byte	0
 6317              	.LLST60:
 6318 06ec 56000000 		.4byte	.LVL118
 6319 06f0 5C000000 		.4byte	.LVL119
 6320 06f4 0200     		.2byte	0x2
 6321 06f6 30       		.byte	0x30
 6322 06f7 9F       		.byte	0x9f
 6323 06f8 5C000000 		.4byte	.LVL119
 6324 06fc 74010000 		.4byte	.LVL128
 6325 0700 0100     		.2byte	0x1
 6326 0702 51       		.byte	0x51
 6327 0703 76010000 		.4byte	.LVL129
 6328 0707 88010000 		.4byte	.LVL133
 6329 070b 0100     		.2byte	0x1
 6330 070d 51       		.byte	0x51
 6331 070e 00000000 		.4byte	0
 6332 0712 00000000 		.4byte	0
 6333              	.LLST61:
 6334 0716 14000000 		.4byte	.LVL115
 6335 071a 18000000 		.4byte	.LVL116
 6336 071e 0200     		.2byte	0x2
 6337 0720 30       		.byte	0x30
 6338 0721 9F       		.byte	0x9f
 6339 0722 18000000 		.4byte	.LVL116
 6340 0726 A4010000 		.4byte	.LVL135
 6341 072a 0100     		.2byte	0x1
ARM GAS  C:\Users\rober\AppData\Local\Temp\ccBlBMtt.s 			page 145


 6342 072c 54       		.byte	0x54
 6343 072d A6010000 		.4byte	.LVL136
 6344 0731 AC010000 		.4byte	.LVL137
 6345 0735 0100     		.2byte	0x1
 6346 0737 54       		.byte	0x54
 6347 0738 AC010000 		.4byte	.LVL137
 6348 073c B0010000 		.4byte	.LVL138
 6349 0740 0200     		.2byte	0x2
 6350 0742 30       		.byte	0x30
 6351 0743 9F       		.byte	0x9f
 6352 0744 B0010000 		.4byte	.LVL138
 6353 0748 F2010000 		.4byte	.LVL145
 6354 074c 0100     		.2byte	0x1
 6355 074e 54       		.byte	0x54
 6356 074f F4010000 		.4byte	.LVL146
 6357 0753 FE010000 		.4byte	.LVL147
 6358 0757 0100     		.2byte	0x1
 6359 0759 54       		.byte	0x54
 6360 075a 00000000 		.4byte	0
 6361 075e 00000000 		.4byte	0
 6362              	.LLST62:
 6363 0762 56000000 		.4byte	.LVL118
 6364 0766 5C000000 		.4byte	.LVL119
 6365 076a 0300     		.2byte	0x3
 6366 076c 08       		.byte	0x8
 6367 076d 20       		.byte	0x20
 6368 076e 9F       		.byte	0x9f
 6369 076f 5C000000 		.4byte	.LVL119
 6370 0773 52010000 		.4byte	.LVL126
 6371 0777 0100     		.2byte	0x1
 6372 0779 50       		.byte	0x50
 6373 077a 54010000 		.4byte	.LVL127
 6374 077e A6010000 		.4byte	.LVL136
 6375 0782 0100     		.2byte	0x1
 6376 0784 50       		.byte	0x50
 6377 0785 00000000 		.4byte	0
 6378 0789 00000000 		.4byte	0
 6379              	.LLST63:
 6380 078d 60000000 		.4byte	.LVL121
 6381 0791 6E000000 		.4byte	.LVL124
 6382 0795 0100     		.2byte	0x1
 6383 0797 52       		.byte	0x52
 6384 0798 6E000000 		.4byte	.LVL124
 6385 079c 86000000 		.4byte	.LVL125
 6386 07a0 0200     		.2byte	0x2
 6387 07a2 77       		.byte	0x77
 6388 07a3 7F       		.sleb128 -1
 6389 07a4 00000000 		.4byte	0
 6390 07a8 00000000 		.4byte	0
 6391              	.LLST64:
 6392 07ac 66000000 		.4byte	.LVL123
 6393 07b0 7A010000 		.4byte	.LVL130
 6394 07b4 0100     		.2byte	0x1
 6395 07b6 59       		.byte	0x59
 6396 07b7 00000000 		.4byte	0
 6397 07bb 00000000 		.4byte	0
 6398              	.LLST65:
ARM GAS  C:\Users\rober\AppData\Local\Temp\ccBlBMtt.s 			page 146


 6399 07bf 08000000 		.4byte	.LVL113
 6400 07c3 18000000 		.4byte	.LVL116
 6401 07c7 0200     		.2byte	0x2
 6402 07c9 30       		.byte	0x30
 6403 07ca 9F       		.byte	0x9f
 6404 07cb 80010000 		.4byte	.LVL131
 6405 07cf 86010000 		.4byte	.LVL132
 6406 07d3 0600     		.2byte	0x6
 6407 07d5 08       		.byte	0x8
 6408 07d6 B0       		.byte	0xb0
 6409 07d7 74       		.byte	0x74
 6410 07d8 00       		.sleb128 0
 6411 07d9 1C       		.byte	0x1c
 6412 07da 9F       		.byte	0x9f
 6413 07db 86010000 		.4byte	.LVL132
 6414 07df 8C010000 		.4byte	.LVL134
 6415 07e3 0100     		.2byte	0x1
 6416 07e5 53       		.byte	0x53
 6417 07e6 8C010000 		.4byte	.LVL134
 6418 07ea A4010000 		.4byte	.LVL135
 6419 07ee 0600     		.2byte	0x6
 6420 07f0 08       		.byte	0x8
 6421 07f1 AF       		.byte	0xaf
 6422 07f2 74       		.byte	0x74
 6423 07f3 00       		.sleb128 0
 6424 07f4 1C       		.byte	0x1c
 6425 07f5 9F       		.byte	0x9f
 6426 07f6 A4010000 		.4byte	.LVL135
 6427 07fa A6010000 		.4byte	.LVL136
 6428 07fe 0600     		.2byte	0x6
 6429 0800 08       		.byte	0x8
 6430 0801 B0       		.byte	0xb0
 6431 0802 74       		.byte	0x74
 6432 0803 00       		.sleb128 0
 6433 0804 1C       		.byte	0x1c
 6434 0805 9F       		.byte	0x9f
 6435 0806 CE010000 		.4byte	.LVL140
 6436 080a D2010000 		.4byte	.LVL141
 6437 080e 0600     		.2byte	0x6
 6438 0810 08       		.byte	0x8
 6439 0811 B0       		.byte	0xb0
 6440 0812 74       		.byte	0x74
 6441 0813 00       		.sleb128 0
 6442 0814 1C       		.byte	0x1c
 6443 0815 9F       		.byte	0x9f
 6444 0816 D2010000 		.4byte	.LVL141
 6445 081a D6010000 		.4byte	.LVL142
 6446 081e 0100     		.2byte	0x1
 6447 0820 53       		.byte	0x53
 6448 0821 D6010000 		.4byte	.LVL142
 6449 0825 F2010000 		.4byte	.LVL145
 6450 0829 0600     		.2byte	0x6
 6451 082b 08       		.byte	0x8
 6452 082c AF       		.byte	0xaf
 6453 082d 74       		.byte	0x74
 6454 082e 00       		.sleb128 0
 6455 082f 1C       		.byte	0x1c
ARM GAS  C:\Users\rober\AppData\Local\Temp\ccBlBMtt.s 			page 147


 6456 0830 9F       		.byte	0x9f
 6457 0831 F2010000 		.4byte	.LVL145
 6458 0835 F4010000 		.4byte	.LVL146
 6459 0839 0600     		.2byte	0x6
 6460 083b 08       		.byte	0x8
 6461 083c B0       		.byte	0xb0
 6462 083d 74       		.byte	0x74
 6463 083e 00       		.sleb128 0
 6464 083f 1C       		.byte	0x1c
 6465 0840 9F       		.byte	0x9f
 6466 0841 00000000 		.4byte	0
 6467 0845 00000000 		.4byte	0
 6468              	.LLST66:
 6469 0849 00000000 		.4byte	.LVL152
 6470 084d 04000000 		.4byte	.LVL153
 6471 0851 0200     		.2byte	0x2
 6472 0853 30       		.byte	0x30
 6473 0854 9F       		.byte	0x9f
 6474 0855 04000000 		.4byte	.LVL153
 6475 0859 12000000 		.4byte	.LVL154
 6476 085d 0100     		.2byte	0x1
 6477 085f 53       		.byte	0x53
 6478 0860 14000000 		.4byte	.LVL155
 6479 0864 1E000000 		.4byte	.LVL156
 6480 0868 0100     		.2byte	0x1
 6481 086a 53       		.byte	0x53
 6482 086b 1E000000 		.4byte	.LVL156
 6483 086f 4A000000 		.4byte	.LVL159
 6484 0873 0100     		.2byte	0x1
 6485 0875 54       		.byte	0x54
 6486 0876 4C000000 		.4byte	.LVL160
 6487 087a 52000000 		.4byte	.LVL161
 6488 087e 0100     		.2byte	0x1
 6489 0880 54       		.byte	0x54
 6490 0881 00000000 		.4byte	0
 6491 0885 00000000 		.4byte	0
 6492              	.LLST67:
 6493 0889 02000000 		.4byte	.LVL162
 6494 088d 06000000 		.4byte	.LVL163
 6495 0891 0200     		.2byte	0x2
 6496 0893 30       		.byte	0x30
 6497 0894 9F       		.byte	0x9f
 6498 0895 06000000 		.4byte	.LVL163
 6499 0899 0E000000 		.4byte	.LVL164
 6500 089d 0100     		.2byte	0x1
 6501 089f 53       		.byte	0x53
 6502 08a0 10000000 		.4byte	.LVL165
 6503 08a4 1B000000 		.4byte	.LVL166-1
 6504 08a8 0100     		.2byte	0x1
 6505 08aa 53       		.byte	0x53
 6506 08ab 00000000 		.4byte	0
 6507 08af 00000000 		.4byte	0
 6508              	.LLST68:
 6509 08b3 02000000 		.4byte	.LVL169
 6510 08b7 08000000 		.4byte	.LVL170
 6511 08bb 0200     		.2byte	0x2
 6512 08bd 31       		.byte	0x31
ARM GAS  C:\Users\rober\AppData\Local\Temp\ccBlBMtt.s 			page 148


 6513 08be 9F       		.byte	0x9f
 6514 08bf 00000000 		.4byte	0
 6515 08c3 00000000 		.4byte	0
 6516              	.LLST69:
 6517 08c7 02000000 		.4byte	.LVL169
 6518 08cb 08000000 		.4byte	.LVL170
 6519 08cf 0200     		.2byte	0x2
 6520 08d1 34       		.byte	0x34
 6521 08d2 9F       		.byte	0x9f
 6522 08d3 00000000 		.4byte	0
 6523 08d7 00000000 		.4byte	0
 6524              	.LLST70:
 6525 08db 02000000 		.4byte	.LVL169
 6526 08df 08000000 		.4byte	.LVL170
 6527 08e3 0600     		.2byte	0x6
 6528 08e5 0C       		.byte	0xc
 6529 08e6 80023240 		.4byte	0x40320280
 6530 08ea 9F       		.byte	0x9f
 6531 08eb 00000000 		.4byte	0
 6532 08ef 00000000 		.4byte	0
 6533              	.LLST71:
 6534 08f3 12000000 		.4byte	.LVL172
 6535 08f7 18000000 		.4byte	.LVL173
 6536 08fb 0200     		.2byte	0x2
 6537 08fd 31       		.byte	0x31
 6538 08fe 9F       		.byte	0x9f
 6539 08ff 00000000 		.4byte	0
 6540 0903 00000000 		.4byte	0
 6541              	.LLST72:
 6542 0907 12000000 		.4byte	.LVL172
 6543 090b 18000000 		.4byte	.LVL173
 6544 090f 0200     		.2byte	0x2
 6545 0911 33       		.byte	0x33
 6546 0912 9F       		.byte	0x9f
 6547 0913 00000000 		.4byte	0
 6548 0917 00000000 		.4byte	0
 6549              	.LLST73:
 6550 091b 12000000 		.4byte	.LVL172
 6551 091f 18000000 		.4byte	.LVL173
 6552 0923 0600     		.2byte	0x6
 6553 0925 0C       		.byte	0xc
 6554 0926 00063240 		.4byte	0x40320600
 6555 092a 9F       		.byte	0x9f
 6556 092b 00000000 		.4byte	0
 6557 092f 00000000 		.4byte	0
 6558              	.LLST74:
 6559 0933 18000000 		.4byte	.LVL173
 6560 0937 1C000000 		.4byte	.LVL174
 6561 093b 0200     		.2byte	0x2
 6562 093d 31       		.byte	0x31
 6563 093e 9F       		.byte	0x9f
 6564 093f 00000000 		.4byte	0
 6565 0943 00000000 		.4byte	0
 6566              	.LLST75:
 6567 0947 18000000 		.4byte	.LVL173
 6568 094b 1C000000 		.4byte	.LVL174
 6569 094f 0200     		.2byte	0x2
ARM GAS  C:\Users\rober\AppData\Local\Temp\ccBlBMtt.s 			page 149


 6570 0951 36       		.byte	0x36
 6571 0952 9F       		.byte	0x9f
 6572 0953 00000000 		.4byte	0
 6573 0957 00000000 		.4byte	0
 6574              	.LLST76:
 6575 095b 18000000 		.4byte	.LVL173
 6576 095f 1C000000 		.4byte	.LVL174
 6577 0963 0600     		.2byte	0x6
 6578 0965 0C       		.byte	0xc
 6579 0966 80023240 		.4byte	0x40320280
 6580 096a 9F       		.byte	0x9f
 6581 096b 00000000 		.4byte	0
 6582 096f 00000000 		.4byte	0
 6583              	.LLST77:
 6584 0973 1C000000 		.4byte	.LVL174
 6585 0977 20000000 		.4byte	.LVL175
 6586 097b 0200     		.2byte	0x2
 6587 097d 31       		.byte	0x31
 6588 097e 9F       		.byte	0x9f
 6589 097f 00000000 		.4byte	0
 6590 0983 00000000 		.4byte	0
 6591              	.LLST78:
 6592 0987 1C000000 		.4byte	.LVL174
 6593 098b 20000000 		.4byte	.LVL175
 6594 098f 0200     		.2byte	0x2
 6595 0991 32       		.byte	0x32
 6596 0992 9F       		.byte	0x9f
 6597 0993 00000000 		.4byte	0
 6598 0997 00000000 		.4byte	0
 6599              	.LLST79:
 6600 099b 1C000000 		.4byte	.LVL174
 6601 099f 20000000 		.4byte	.LVL175
 6602 09a3 0600     		.2byte	0x6
 6603 09a5 0C       		.byte	0xc
 6604 09a6 80023240 		.4byte	0x40320280
 6605 09aa 9F       		.byte	0x9f
 6606 09ab 00000000 		.4byte	0
 6607 09af 00000000 		.4byte	0
 6608              	.LLST80:
 6609 09b3 26000000 		.4byte	.LVL176
 6610 09b7 28000000 		.4byte	.LVL177
 6611 09bb 0200     		.2byte	0x2
 6612 09bd 30       		.byte	0x30
 6613 09be 9F       		.byte	0x9f
 6614 09bf 00000000 		.4byte	0
 6615 09c3 00000000 		.4byte	0
 6616              	.LLST81:
 6617 09c7 26000000 		.4byte	.LVL176
 6618 09cb 28000000 		.4byte	.LVL177
 6619 09cf 0200     		.2byte	0x2
 6620 09d1 32       		.byte	0x32
 6621 09d2 9F       		.byte	0x9f
 6622 09d3 00000000 		.4byte	0
 6623 09d7 00000000 		.4byte	0
 6624              	.LLST82:
 6625 09db 26000000 		.4byte	.LVL176
 6626 09df 28000000 		.4byte	.LVL177
ARM GAS  C:\Users\rober\AppData\Local\Temp\ccBlBMtt.s 			page 150


 6627 09e3 0600     		.2byte	0x6
 6628 09e5 0C       		.byte	0xc
 6629 09e6 80023240 		.4byte	0x40320280
 6630 09ea 9F       		.byte	0x9f
 6631 09eb 00000000 		.4byte	0
 6632 09ef 00000000 		.4byte	0
 6633              	.LLST83:
 6634 09f3 2E000000 		.4byte	.LVL178
 6635 09f7 30000000 		.4byte	.LVL179
 6636 09fb 0200     		.2byte	0x2
 6637 09fd 31       		.byte	0x31
 6638 09fe 9F       		.byte	0x9f
 6639 09ff 00000000 		.4byte	0
 6640 0a03 00000000 		.4byte	0
 6641              	.LLST84:
 6642 0a07 2E000000 		.4byte	.LVL178
 6643 0a0b 30000000 		.4byte	.LVL179
 6644 0a0f 0200     		.2byte	0x2
 6645 0a11 32       		.byte	0x32
 6646 0a12 9F       		.byte	0x9f
 6647 0a13 00000000 		.4byte	0
 6648 0a17 00000000 		.4byte	0
 6649              	.LLST85:
 6650 0a1b 2E000000 		.4byte	.LVL178
 6651 0a1f 30000000 		.4byte	.LVL179
 6652 0a23 0600     		.2byte	0x6
 6653 0a25 0C       		.byte	0xc
 6654 0a26 80023240 		.4byte	0x40320280
 6655 0a2a 9F       		.byte	0x9f
 6656 0a2b 00000000 		.4byte	0
 6657 0a2f 00000000 		.4byte	0
 6658              	.LLST86:
 6659 0a33 10000000 		.4byte	.LVL184
 6660 0a37 16000000 		.4byte	.LVL185
 6661 0a3b 0200     		.2byte	0x2
 6662 0a3d 30       		.byte	0x30
 6663 0a3e 9F       		.byte	0x9f
 6664 0a3f 00000000 		.4byte	0
 6665 0a43 00000000 		.4byte	0
 6666              	.LLST87:
 6667 0a47 10000000 		.4byte	.LVL184
 6668 0a4b 16000000 		.4byte	.LVL185
 6669 0a4f 0200     		.2byte	0x2
 6670 0a51 36       		.byte	0x36
 6671 0a52 9F       		.byte	0x9f
 6672 0a53 00000000 		.4byte	0
 6673 0a57 00000000 		.4byte	0
 6674              	.LLST88:
 6675 0a5b 10000000 		.4byte	.LVL184
 6676 0a5f 16000000 		.4byte	.LVL185
 6677 0a63 0600     		.2byte	0x6
 6678 0a65 0C       		.byte	0xc
 6679 0a66 80023240 		.4byte	0x40320280
 6680 0a6a 9F       		.byte	0x9f
 6681 0a6b 00000000 		.4byte	0
 6682 0a6f 00000000 		.4byte	0
 6683              	.LLST89:
ARM GAS  C:\Users\rober\AppData\Local\Temp\ccBlBMtt.s 			page 151


 6684 0a73 1C000000 		.4byte	.LVL186
 6685 0a77 1E000000 		.4byte	.LVL187
 6686 0a7b 0200     		.2byte	0x2
 6687 0a7d 31       		.byte	0x31
 6688 0a7e 9F       		.byte	0x9f
 6689 0a7f 00000000 		.4byte	0
 6690 0a83 00000000 		.4byte	0
 6691              	.LLST90:
 6692 0a87 1C000000 		.4byte	.LVL186
 6693 0a8b 1E000000 		.4byte	.LVL187
 6694 0a8f 0200     		.2byte	0x2
 6695 0a91 36       		.byte	0x36
 6696 0a92 9F       		.byte	0x9f
 6697 0a93 00000000 		.4byte	0
 6698 0a97 00000000 		.4byte	0
 6699              	.LLST91:
 6700 0a9b 1C000000 		.4byte	.LVL186
 6701 0a9f 1E000000 		.4byte	.LVL187
 6702 0aa3 0600     		.2byte	0x6
 6703 0aa5 0C       		.byte	0xc
 6704 0aa6 80023240 		.4byte	0x40320280
 6705 0aaa 9F       		.byte	0x9f
 6706 0aab 00000000 		.4byte	0
 6707 0aaf 00000000 		.4byte	0
 6708              	.LLST92:
 6709 0ab3 74000000 		.4byte	.LVL198
 6710 0ab7 78000000 		.4byte	.LVL199
 6711 0abb 0200     		.2byte	0x2
 6712 0abd 30       		.byte	0x30
 6713 0abe 9F       		.byte	0x9f
 6714 0abf 00000000 		.4byte	0
 6715 0ac3 00000000 		.4byte	0
 6716              	.LLST93:
 6717 0ac7 74000000 		.4byte	.LVL198
 6718 0acb 78000000 		.4byte	.LVL199
 6719 0acf 0200     		.2byte	0x2
 6720 0ad1 34       		.byte	0x34
 6721 0ad2 9F       		.byte	0x9f
 6722 0ad3 00000000 		.4byte	0
 6723 0ad7 00000000 		.4byte	0
 6724              	.LLST94:
 6725 0adb 74000000 		.4byte	.LVL198
 6726 0adf 78000000 		.4byte	.LVL199
 6727 0ae3 0600     		.2byte	0x6
 6728 0ae5 0C       		.byte	0xc
 6729 0ae6 80023240 		.4byte	0x40320280
 6730 0aea 9F       		.byte	0x9f
 6731 0aeb 00000000 		.4byte	0
 6732 0aef 00000000 		.4byte	0
 6733              	.LLST95:
 6734 0af3 78000000 		.4byte	.LVL199
 6735 0af7 7A000000 		.4byte	.LVL200
 6736 0afb 0200     		.2byte	0x2
 6737 0afd 30       		.byte	0x30
 6738 0afe 9F       		.byte	0x9f
 6739 0aff 00000000 		.4byte	0
 6740 0b03 00000000 		.4byte	0
ARM GAS  C:\Users\rober\AppData\Local\Temp\ccBlBMtt.s 			page 152


 6741              	.LLST96:
 6742 0b07 78000000 		.4byte	.LVL199
 6743 0b0b 7A000000 		.4byte	.LVL200
 6744 0b0f 0200     		.2byte	0x2
 6745 0b11 36       		.byte	0x36
 6746 0b12 9F       		.byte	0x9f
 6747 0b13 00000000 		.4byte	0
 6748 0b17 00000000 		.4byte	0
 6749              	.LLST97:
 6750 0b1b 78000000 		.4byte	.LVL199
 6751 0b1f 7A000000 		.4byte	.LVL200
 6752 0b23 0600     		.2byte	0x6
 6753 0b25 0C       		.byte	0xc
 6754 0b26 80023240 		.4byte	0x40320280
 6755 0b2a 9F       		.byte	0x9f
 6756 0b2b 00000000 		.4byte	0
 6757 0b2f 00000000 		.4byte	0
 6758              	.LLST98:
 6759 0b33 80000000 		.4byte	.LVL201
 6760 0b37 86000000 		.4byte	.LVL202
 6761 0b3b 0200     		.2byte	0x2
 6762 0b3d 30       		.byte	0x30
 6763 0b3e 9F       		.byte	0x9f
 6764 0b3f 00000000 		.4byte	0
 6765 0b43 00000000 		.4byte	0
 6766              	.LLST99:
 6767 0b47 80000000 		.4byte	.LVL201
 6768 0b4b 86000000 		.4byte	.LVL202
 6769 0b4f 0200     		.2byte	0x2
 6770 0b51 33       		.byte	0x33
 6771 0b52 9F       		.byte	0x9f
 6772 0b53 00000000 		.4byte	0
 6773 0b57 00000000 		.4byte	0
 6774              	.LLST100:
 6775 0b5b 80000000 		.4byte	.LVL201
 6776 0b5f 86000000 		.4byte	.LVL202
 6777 0b63 0600     		.2byte	0x6
 6778 0b65 0C       		.byte	0xc
 6779 0b66 00063240 		.4byte	0x40320600
 6780 0b6a 9F       		.byte	0x9f
 6781 0b6b 00000000 		.4byte	0
 6782 0b6f 00000000 		.4byte	0
 6783              	.LLST101:
 6784 0b73 86000000 		.4byte	.LVL202
 6785 0b77 8A000000 		.4byte	.LVL203
 6786 0b7b 0200     		.2byte	0x2
 6787 0b7d 30       		.byte	0x30
 6788 0b7e 9F       		.byte	0x9f
 6789 0b7f 00000000 		.4byte	0
 6790 0b83 00000000 		.4byte	0
 6791              	.LLST102:
 6792 0b87 86000000 		.4byte	.LVL202
 6793 0b8b 8A000000 		.4byte	.LVL203
 6794 0b8f 0200     		.2byte	0x2
 6795 0b91 32       		.byte	0x32
 6796 0b92 9F       		.byte	0x9f
 6797 0b93 00000000 		.4byte	0
ARM GAS  C:\Users\rober\AppData\Local\Temp\ccBlBMtt.s 			page 153


 6798 0b97 00000000 		.4byte	0
 6799              	.LLST103:
 6800 0b9b 86000000 		.4byte	.LVL202
 6801 0b9f 8A000000 		.4byte	.LVL203
 6802 0ba3 0600     		.2byte	0x6
 6803 0ba5 0C       		.byte	0xc
 6804 0ba6 80023240 		.4byte	0x40320280
 6805 0baa 9F       		.byte	0x9f
 6806 0bab 00000000 		.4byte	0
 6807 0baf 00000000 		.4byte	0
 6808              	.LLST104:
 6809 0bb3 8A000000 		.4byte	.LVL203
 6810 0bb7 8E000000 		.4byte	.LVL204
 6811 0bbb 0200     		.2byte	0x2
 6812 0bbd 31       		.byte	0x31
 6813 0bbe 9F       		.byte	0x9f
 6814 0bbf 00000000 		.4byte	0
 6815 0bc3 00000000 		.4byte	0
 6816              	.LLST105:
 6817 0bc7 8A000000 		.4byte	.LVL203
 6818 0bcb 8E000000 		.4byte	.LVL204
 6819 0bcf 0200     		.2byte	0x2
 6820 0bd1 35       		.byte	0x35
 6821 0bd2 9F       		.byte	0x9f
 6822 0bd3 00000000 		.4byte	0
 6823 0bd7 00000000 		.4byte	0
 6824              	.LLST106:
 6825 0bdb 8A000000 		.4byte	.LVL203
 6826 0bdf 8E000000 		.4byte	.LVL204
 6827 0be3 0600     		.2byte	0x6
 6828 0be5 0C       		.byte	0xc
 6829 0be6 80023240 		.4byte	0x40320280
 6830 0bea 9F       		.byte	0x9f
 6831 0beb 00000000 		.4byte	0
 6832 0bef 00000000 		.4byte	0
 6833              	.LLST107:
 6834 0bf3 94000000 		.4byte	.LVL205
 6835 0bf7 96000000 		.4byte	.LVL206
 6836 0bfb 0200     		.2byte	0x2
 6837 0bfd 30       		.byte	0x30
 6838 0bfe 9F       		.byte	0x9f
 6839 0bff 00000000 		.4byte	0
 6840 0c03 00000000 		.4byte	0
 6841              	.LLST108:
 6842 0c07 94000000 		.4byte	.LVL205
 6843 0c0b 96000000 		.4byte	.LVL206
 6844 0c0f 0200     		.2byte	0x2
 6845 0c11 35       		.byte	0x35
 6846 0c12 9F       		.byte	0x9f
 6847 0c13 00000000 		.4byte	0
 6848 0c17 00000000 		.4byte	0
 6849              	.LLST109:
 6850 0c1b 94000000 		.4byte	.LVL205
 6851 0c1f 96000000 		.4byte	.LVL206
 6852 0c23 0600     		.2byte	0x6
 6853 0c25 0C       		.byte	0xc
 6854 0c26 80023240 		.4byte	0x40320280
ARM GAS  C:\Users\rober\AppData\Local\Temp\ccBlBMtt.s 			page 154


 6855 0c2a 9F       		.byte	0x9f
 6856 0c2b 00000000 		.4byte	0
 6857 0c2f 00000000 		.4byte	0
 6858              		.section	.debug_aranges,"",%progbits
 6859 0000 74000000 		.4byte	0x74
 6860 0004 0200     		.2byte	0x2
 6861 0006 00000000 		.4byte	.Ldebug_info0
 6862 000a 04       		.byte	0x4
 6863 000b 00       		.byte	0
 6864 000c 0000     		.2byte	0
 6865 000e 0000     		.2byte	0
 6866 0010 00000000 		.4byte	.LFB603
 6867 0014 38000000 		.4byte	.LFE603-.LFB603
 6868 0018 00000000 		.4byte	.LFB604
 6869 001c 18000000 		.4byte	.LFE604-.LFB604
 6870 0020 00000000 		.4byte	.LFB605
 6871 0024 30000000 		.4byte	.LFE605-.LFB605
 6872 0028 00000000 		.4byte	.LFB606
 6873 002c 34000000 		.4byte	.LFE606-.LFB606
 6874 0030 00000000 		.4byte	.LFB607
 6875 0034 18010000 		.4byte	.LFE607-.LFB607
 6876 0038 00000000 		.4byte	.LFB608
 6877 003c 58000000 		.4byte	.LFE608-.LFB608
 6878 0040 00000000 		.4byte	.LFB609
 6879 0044 24040000 		.4byte	.LFE609-.LFB609
 6880 0048 00000000 		.4byte	.LFB610
 6881 004c 28020000 		.4byte	.LFE610-.LFB610
 6882 0050 00000000 		.4byte	.LFB611
 6883 0054 5C000000 		.4byte	.LFE611-.LFB611
 6884 0058 00000000 		.4byte	.LFB612
 6885 005c 34000000 		.4byte	.LFE612-.LFB612
 6886 0060 00000000 		.4byte	.LFB613
 6887 0064 44000000 		.4byte	.LFE613-.LFB613
 6888 0068 00000000 		.4byte	.LFB614
 6889 006c A8000000 		.4byte	.LFE614-.LFB614
 6890 0070 00000000 		.4byte	0
 6891 0074 00000000 		.4byte	0
 6892              		.section	.debug_ranges,"",%progbits
 6893              	.Ldebug_ranges0:
 6894 0000 00000000 		.4byte	.LFB603
 6895 0004 38000000 		.4byte	.LFE603
 6896 0008 00000000 		.4byte	.LFB604
 6897 000c 18000000 		.4byte	.LFE604
 6898 0010 00000000 		.4byte	.LFB605
 6899 0014 30000000 		.4byte	.LFE605
 6900 0018 00000000 		.4byte	.LFB606
 6901 001c 34000000 		.4byte	.LFE606
 6902 0020 00000000 		.4byte	.LFB607
 6903 0024 18010000 		.4byte	.LFE607
 6904 0028 00000000 		.4byte	.LFB608
 6905 002c 58000000 		.4byte	.LFE608
 6906 0030 00000000 		.4byte	.LFB609
 6907 0034 24040000 		.4byte	.LFE609
 6908 0038 00000000 		.4byte	.LFB610
 6909 003c 28020000 		.4byte	.LFE610
 6910 0040 00000000 		.4byte	.LFB611
 6911 0044 5C000000 		.4byte	.LFE611
ARM GAS  C:\Users\rober\AppData\Local\Temp\ccBlBMtt.s 			page 155


 6912 0048 00000000 		.4byte	.LFB612
 6913 004c 34000000 		.4byte	.LFE612
 6914 0050 00000000 		.4byte	.LFB613
 6915 0054 44000000 		.4byte	.LFE613
 6916 0058 00000000 		.4byte	.LFB614
 6917 005c A8000000 		.4byte	.LFE614
 6918 0060 00000000 		.4byte	0
 6919 0064 00000000 		.4byte	0
 6920              		.section	.debug_line,"",%progbits
 6921              	.Ldebug_line0:
 6922 0000 DC080000 		.section	.debug_str,"MS",%progbits,1
 6922      02006503 
 6922      00000201 
 6922      FB0E0D00 
 6922      01010101 
 6923              	.LASF56:
 6924 0000 72756E4D 		.ascii	"runMode\000"
 6924      6F646500 
 6925              	.LASF89:
 6926 0008 63795F73 		.ascii	"cy_stc_tcpwm_pwm_config_t\000"
 6926      74635F74 
 6926      6370776D 
 6926      5F70776D 
 6926      5F636F6E 
 6927              	.LASF181:
 6928 0022 433A5C55 		.ascii	"C:\\Users\\rober\\Desktop\\SMIW_projekt\\projekt_sm"
 6928      73657273 
 6928      5C726F62 
 6928      65725C44 
 6928      65736B74 
 6929 0050 69775C43 		.ascii	"iw\\CE223727_EmWin_EInk_Display01\\CE223727_EmWin_E"
 6929      45323233 
 6929      3732375F 
 6929      456D5769 
 6929      6E5F4549 
 6930 0081 496E6B5F 		.ascii	"Ink_Display01.cydsn\000"
 6930      44697370 
 6930      6C617930 
 6930      312E6379 
 6930      64736E00 
 6931              	.LASF88:
 6932 0095 6B696C6C 		.ascii	"killInput\000"
 6932      496E7075 
 6932      7400
 6933              	.LASF129:
 6934 009f 50765F45 		.ascii	"Pv_EINK_SendByte\000"
 6934      494E4B5F 
 6934      53656E64 
 6934      42797465 
 6934      00
 6935              	.LASF108:
 6936 00b0 50565F45 		.ascii	"PV_EINK_ERROR_CHARGEPUMP\000"
 6936      494E4B5F 
 6936      4552524F 
 6936      525F4348 
 6936      41524745 
 6937              	.LASF77:
ARM GAS  C:\Users\rober\AppData\Local\Temp\ccBlBMtt.s 			page 156


 6938 00c9 70776D41 		.ascii	"pwmAlignment\000"
 6938      6C69676E 
 6938      6D656E74 
 6938      00
 6939              	.LASF134:
 6940 00d6 6C6F6F70 		.ascii	"loopCounter\000"
 6940      436F756E 
 6940      74657200 
 6941              	.LASF3:
 6942 00e2 7369676E 		.ascii	"signed char\000"
 6942      65642063 
 6942      68617200 
 6943              	.LASF5:
 6944 00ee 5F5F7569 		.ascii	"__uint8_t\000"
 6944      6E74385F 
 6944      7400
 6945              	.LASF57:
 6946 00f8 636F756E 		.ascii	"countDirection\000"
 6946      74446972 
 6946      65637469 
 6946      6F6E00
 6947              	.LASF69:
 6948 0107 73746F70 		.ascii	"stopInputMode\000"
 6948      496E7075 
 6948      744D6F64 
 6948      6500
 6949              	.LASF54:
 6950 0115 70657269 		.ascii	"period\000"
 6950      6F6400
 6951              	.LASF45:
 6952 011c 5644445F 		.ascii	"VDD_INTR_MASK\000"
 6952      494E5452 
 6952      5F4D4153 
 6952      4B00
 6953              	.LASF64:
 6954 012a 63617074 		.ascii	"captureInput\000"
 6954      75726549 
 6954      6E707574 
 6954      00
 6955              	.LASF120:
 6956 0137 6C696E65 		.ascii	"lineBuffer\000"
 6956      42756666 
 6956      657200
 6957              	.LASF15:
 6958 0142 6C6F6E67 		.ascii	"long long unsigned int\000"
 6958      206C6F6E 
 6958      6720756E 
 6958      7369676E 
 6958      65642069 
 6959              	.LASF55:
 6960 0159 636C6F63 		.ascii	"clockPrescaler\000"
 6960      6B507265 
 6960      7363616C 
 6960      657200
 6961              	.LASF102:
 6962 0168 70765F65 		.ascii	"pv_eink_frame_data_t\000"
 6962      696E6B5F 
ARM GAS  C:\Users\rober\AppData\Local\Temp\ccBlBMtt.s 			page 157


 6962      6672616D 
 6962      655F6461 
 6962      74615F74 
 6963              	.LASF4:
 6964 017d 5F5F696E 		.ascii	"__int8_t\000"
 6964      74385F74 
 6964      00
 6965              	.LASF160:
 6966 0186 49544D5F 		.ascii	"ITM_RxBuffer\000"
 6966      52784275 
 6966      66666572 
 6966      00
 6967              	.LASF151:
 6968 0193 50765F45 		.ascii	"Pv_EINK_DummyLine\000"
 6968      494E4B5F 
 6968      44756D6D 
 6968      794C696E 
 6968      6500
 6969              	.LASF164:
 6970 01a5 54696D65 		.ascii	"Timer_config\000"
 6970      725F636F 
 6970      6E666967 
 6970      00
 6971              	.LASF80:
 6972 01b2 70657269 		.ascii	"period1\000"
 6972      6F643100 
 6973              	.LASF20:
 6974 01ba 696E7431 		.ascii	"int16_t\000"
 6974      365F7400 
 6975              	.LASF112:
 6976 01c2 50565F45 		.ascii	"PV_EINK_STAGE3\000"
 6976      494E4B5F 
 6976      53544147 
 6976      453300
 6977              	.LASF1:
 6978 01d1 6C6F6E67 		.ascii	"long long int\000"
 6978      206C6F6E 
 6978      6720696E 
 6978      7400
 6979              	.LASF73:
 6980 01df 63795F73 		.ascii	"cy_stc_tcpwm_counter_config_t\000"
 6980      74635F74 
 6980      6370776D 
 6980      5F636F75 
 6980      6E746572 
 6981              	.LASF91:
 6982 01fd 63795F73 		.ascii	"cy_stc_scb_spi_context\000"
 6982      74635F73 
 6982      63625F73 
 6982      70695F63 
 6982      6F6E7465 
 6983              	.LASF128:
 6984 0214 50765F45 		.ascii	"Pv_EINK_SendData\000"
 6984      494E4B5F 
 6984      53656E64 
 6984      44617461 
 6984      00
ARM GAS  C:\Users\rober\AppData\Local\Temp\ccBlBMtt.s 			page 158


 6985              	.LASF170:
 6986 0225 43795F45 		.ascii	"Cy_EINK_ReadSPI\000"
 6986      494E4B5F 
 6986      52656164 
 6986      53504900 
 6987              	.LASF182:
 6988 0235 43795F47 		.ascii	"Cy_GPIO_Write\000"
 6988      50494F5F 
 6988      57726974 
 6988      6500
 6989              	.LASF90:
 6990 0243 63795F63 		.ascii	"cy_cb_scb_spi_handle_events_t\000"
 6990      625F7363 
 6990      625F7370 
 6990      695F6861 
 6990      6E646C65 
 6991              	.LASF12:
 6992 0261 6C6F6E67 		.ascii	"long int\000"
 6992      20696E74 
 6992      00
 6993              	.LASF118:
 6994 026a 7363616E 		.ascii	"scan\000"
 6994      00
 6995              	.LASF158:
 6996 026f 64617461 		.ascii	"dataLineOdd\000"
 6996      4C696E65 
 6996      4F646400 
 6997              	.LASF0:
 6998 027b 756E7369 		.ascii	"unsigned int\000"
 6998      676E6564 
 6998      20696E74 
 6998      00
 6999              	.LASF180:
 7000 0288 65496E6B 		.ascii	"eInk Library\\pervasive_eink_hardware_driver.c\000"
 7000      204C6962 
 7000      72617279 
 7000      5C706572 
 7000      76617369 
 7001              	.LASF8:
 7002 02b6 73686F72 		.ascii	"short int\000"
 7002      7420696E 
 7002      7400
 7003              	.LASF21:
 7004 02c0 75696E74 		.ascii	"uint16_t\000"
 7004      31365F74 
 7004      00
 7005              	.LASF172:
 7006 02c9 43795F45 		.ascii	"Cy_EINK_TimerInit\000"
 7006      494E4B5F 
 7006      54696D65 
 7006      72496E69 
 7006      7400
 7007              	.LASF116:
 7008 02db 64756D6D 		.ascii	"dummyData\000"
 7008      79446174 
 7008      6100
 7009              	.LASF136:
ARM GAS  C:\Users\rober\AppData\Local\Temp\ccBlBMtt.s 			page 159


 7010 02e5 74656D70 		.ascii	"temperature\000"
 7010      65726174 
 7010      75726500 
 7011              	.LASF131:
 7012 02f1 50765F45 		.ascii	"Pv_EINK_ReadByte\000"
 7012      494E4B5F 
 7012      52656164 
 7012      42797465 
 7012      00
 7013              	.LASF127:
 7014 0302 64617461 		.ascii	"dataLength\000"
 7014      4C656E67 
 7014      746800
 7015              	.LASF63:
 7016 030d 63617074 		.ascii	"captureInputMode\000"
 7016      75726549 
 7016      6E707574 
 7016      4D6F6465 
 7016      00
 7017              	.LASF140:
 7018 031e 73746167 		.ascii	"stageNumber\000"
 7018      654E756D 
 7018      62657200 
 7019              	.LASF94:
 7020 032a 72784275 		.ascii	"rxBufSize\000"
 7020      6653697A 
 7020      6500
 7021              	.LASF13:
 7022 0334 5F5F7569 		.ascii	"__uint32_t\000"
 7022      6E743332 
 7022      5F7400
 7023              	.LASF166:
 7024 033f 7363616E 		.ascii	"scanTable\000"
 7024      5461626C 
 7024      6500
 7025              	.LASF155:
 7026 0349 66756C6C 		.ascii	"fullUpdateTime\000"
 7026      55706461 
 7026      74655469 
 7026      6D6500
 7027              	.LASF142:
 7028 0358 74656D70 		.ascii	"tempByte\000"
 7028      42797465 
 7028      00
 7029              	.LASF7:
 7030 0361 5F5F696E 		.ascii	"__int16_t\000"
 7030      7431365F 
 7030      7400
 7031              	.LASF95:
 7032 036b 72784275 		.ascii	"rxBufIdx\000"
 7032      66496478 
 7032      00
 7033              	.LASF159:
 7034 0374 64617461 		.ascii	"dataLineScan\000"
 7034      4C696E65 
 7034      5363616E 
 7034      00
ARM GAS  C:\Users\rober\AppData\Local\Temp\ccBlBMtt.s 			page 160


 7035              	.LASF168:
 7036 0381 43795F45 		.ascii	"Cy_EINK_WriteSPI\000"
 7036      494E4B5F 
 7036      57726974 
 7036      65535049 
 7036      00
 7037              	.LASF167:
 7038 0392 6368616E 		.ascii	"channelSelect\000"
 7038      6E656C53 
 7038      656C6563 
 7038      7400
 7039              	.LASF165:
 7040 03a0 62756C6B 		.ascii	"bulkDriverPacket\000"
 7040      44726976 
 7040      65725061 
 7040      636B6574 
 7040      00
 7041              	.LASF97:
 7042 03b1 74784275 		.ascii	"txBufSize\000"
 7042      6653697A 
 7042      6500
 7043              	.LASF150:
 7044 03bb 62797465 		.ascii	"byteCounter\000"
 7044      436F756E 
 7044      74657200 
 7045              	.LASF26:
 7046 03c7 4F55545F 		.ascii	"OUT_INV\000"
 7046      494E5600 
 7047              	.LASF49:
 7048 03cf 63686172 		.ascii	"char_t\000"
 7048      5F7400
 7049              	.LASF14:
 7050 03d6 6C6F6E67 		.ascii	"long unsigned int\000"
 7050      20756E73 
 7050      69676E65 
 7050      6420696E 
 7050      7400
 7051              	.LASF61:
 7052 03e8 656E6162 		.ascii	"enableCompareSwap\000"
 7052      6C65436F 
 7052      6D706172 
 7052      65537761 
 7052      7000
 7053              	.LASF32:
 7054 03fa 4346475F 		.ascii	"CFG_IN\000"
 7054      494E00
 7055              	.LASF28:
 7056 0401 494E5452 		.ascii	"INTR_MASK\000"
 7056      5F4D4153 
 7056      4B00
 7057              	.LASF47:
 7058 040b 5644445F 		.ascii	"VDD_INTR_SET\000"
 7058      494E5452 
 7058      5F534554 
 7058      00
 7059              	.LASF156:
 7060 0418 70617274 		.ascii	"partialUpdateTime\000"
ARM GAS  C:\Users\rober\AppData\Local\Temp\ccBlBMtt.s 			page 161


 7060      69616C55 
 7060      70646174 
 7060      6554696D 
 7060      6500
 7061              	.LASF126:
 7062 042a 64617461 		.ascii	"data\000"
 7062      00
 7063              	.LASF85:
 7064 042f 73776170 		.ascii	"swapInputMode\000"
 7064      496E7075 
 7064      744D6F64 
 7064      6500
 7065              	.LASF10:
 7066 043d 73686F72 		.ascii	"short unsigned int\000"
 7066      7420756E 
 7066      7369676E 
 7066      65642069 
 7066      6E7400
 7067              	.LASF29:
 7068 0450 494E5452 		.ascii	"INTR_MASKED\000"
 7068      5F4D4153 
 7068      4B454400 
 7069              	.LASF135:
 7070 045c 50765F45 		.ascii	"Pv_EINK_SetTempFactor\000"
 7070      494E4B5F 
 7070      53657454 
 7070      656D7046 
 7070      6163746F 
 7071              	.LASF104:
 7072 0472 50565F45 		.ascii	"PV_EINK_ERROR_BUSY\000"
 7072      494E4B5F 
 7072      4552524F 
 7072      525F4255 
 7072      535900
 7073              	.LASF25:
 7074 0485 4F55545F 		.ascii	"OUT_SET\000"
 7074      53455400 
 7075              	.LASF87:
 7076 048d 6B696C6C 		.ascii	"killInputMode\000"
 7076      496E7075 
 7076      744D6F64 
 7076      6500
 7077              	.LASF99:
 7078 049b 63624576 		.ascii	"cbEvents\000"
 7078      656E7473 
 7078      00
 7079              	.LASF115:
 7080 04a4 65696E6B 		.ascii	"eink_lineData\000"
 7080      5F6C696E 
 7080      65446174 
 7080      6100
 7081              	.LASF96:
 7082 04b2 74784275 		.ascii	"txBuf\000"
 7082      6600
 7083              	.LASF110:
 7084 04b8 50565F45 		.ascii	"PV_EINK_STAGE1\000"
 7084      494E4B5F 
ARM GAS  C:\Users\rober\AppData\Local\Temp\ccBlBMtt.s 			page 162


 7084      53544147 
 7084      453100
 7085              	.LASF111:
 7086 04c7 50565F45 		.ascii	"PV_EINK_STAGE2\000"
 7086      494E4B5F 
 7086      53544147 
 7086      453200
 7087              	.LASF101:
 7088 04d6 63795F73 		.ascii	"cy_stc_scb_spi_context_t\000"
 7088      74635F73 
 7088      63625F73 
 7088      70695F63 
 7088      6F6E7465 
 7089              	.LASF113:
 7090 04ef 50565F45 		.ascii	"PV_EINK_STAGE4\000"
 7090      494E4B5F 
 7090      53544147 
 7090      453400
 7091              	.LASF82:
 7092 04fe 696E7665 		.ascii	"invertPWMOut\000"
 7092      72745057 
 7092      4D4F7574 
 7092      00
 7093              	.LASF78:
 7094 050b 64656164 		.ascii	"deadTimeClocks\000"
 7094      54696D65 
 7094      436C6F63 
 7094      6B7300
 7095              	.LASF71:
 7096 051a 636F756E 		.ascii	"countInputMode\000"
 7096      74496E70 
 7096      75744D6F 
 7096      646500
 7097              	.LASF68:
 7098 0529 73746172 		.ascii	"startInput\000"
 7098      74496E70 
 7098      757400
 7099              	.LASF31:
 7100 0534 494E5452 		.ascii	"INTR_CFG\000"
 7100      5F434647 
 7100      00
 7101              	.LASF30:
 7102 053d 494E5452 		.ascii	"INTR_SET\000"
 7102      5F534554 
 7102      00
 7103              	.LASF125:
 7104 0546 72656741 		.ascii	"regAddr\000"
 7104      64647200 
 7105              	.LASF122:
 7106 054e 62617365 		.ascii	"base\000"
 7106      00
 7107              	.LASF114:
 7108 0553 70765F65 		.ascii	"pv_eink_stage_t\000"
 7108      696E6B5F 
 7108      73746167 
 7108      655F7400 
 7109              	.LASF43:
ARM GAS  C:\Users\rober\AppData\Local\Temp\ccBlBMtt.s 			page 163


 7110 0563 5644445F 		.ascii	"VDD_ACTIVE\000"
 7110      41435449 
 7110      564500
 7111              	.LASF74:
 7112 056e 63795F73 		.ascii	"cy_stc_tcpwm_counter_config\000"
 7112      74635F74 
 7112      6370776D 
 7112      5F636F75 
 7112      6E746572 
 7113              	.LASF18:
 7114 058a 696E7438 		.ascii	"int8_t\000"
 7114      5F7400
 7115              	.LASF157:
 7116 0591 64617461 		.ascii	"dataLineEven\000"
 7116      4C696E65 
 7116      4576656E 
 7116      00
 7117              	.LASF16:
 7118 059e 73697A65 		.ascii	"sizetype\000"
 7118      74797065 
 7118      00
 7119              	.LASF132:
 7120 05a7 50765F45 		.ascii	"Pv_EINK_InitDriver\000"
 7120      494E4B5F 
 7120      496E6974 
 7120      44726976 
 7120      657200
 7121              	.LASF117:
 7122 05ba 6576656E 		.ascii	"even\000"
 7122      00
 7123              	.LASF178:
 7124 05bf 43795F45 		.ascii	"Cy_EINK_DetachSPI\000"
 7124      494E4B5F 
 7124      44657461 
 7124      63685350 
 7124      4900
 7125              	.LASF27:
 7126 05d1 494E5452 		.ascii	"INTR\000"
 7126      00
 7127              	.LASF130:
 7128 05d6 50765F45 		.ascii	"Pv_EINK_Init\000"
 7128      494E4B5F 
 7128      496E6974 
 7128      00
 7129              	.LASF145:
 7130 05e3 70726576 		.ascii	"previousImagePtr\000"
 7130      696F7573 
 7130      496D6167 
 7130      65507472 
 7130      00
 7131              	.LASF179:
 7132 05f4 474E5520 		.ascii	"GNU C11 5.4.1 20160609 (release) [ARM/embedded-5-br"
 7132      43313120 
 7132      352E342E 
 7132      31203230 
 7132      31363036 
 7133 0627 616E6368 		.ascii	"anch revision 237715] -mcpu=cortex-m4 -mfloat-abi=s"
ARM GAS  C:\Users\rober\AppData\Local\Temp\ccBlBMtt.s 			page 164


 7133      20726576 
 7133      6973696F 
 7133      6E203233 
 7133      37373135 
 7134 065a 6F667466 		.ascii	"oftfp -mfpu=fpv4-sp-d16 -mthumb -g -Og -ffunction-s"
 7134      70202D6D 
 7134      6670753D 
 7134      66707634 
 7134      2D73702D 
 7135 068d 65637469 		.ascii	"ections -ffat-lto-objects\000"
 7135      6F6E7320 
 7135      2D666661 
 7135      742D6C74 
 7135      6F2D6F62 
 7136              	.LASF24:
 7137 06a7 4F55545F 		.ascii	"OUT_CLR\000"
 7137      434C5200 
 7138              	.LASF76:
 7139 06af 70776D4D 		.ascii	"pwmMode\000"
 7139      6F646500 
 7140              	.LASF50:
 7141 06b7 666C6F61 		.ascii	"float\000"
 7141      7400
 7142              	.LASF36:
 7143 06bd 4346475F 		.ascii	"CFG_IN_GPIO5V\000"
 7143      494E5F47 
 7143      50494F35 
 7143      5600
 7144              	.LASF34:
 7145 06cb 4346475F 		.ascii	"CFG_SIO\000"
 7145      53494F00 
 7146              	.LASF37:
 7147 06d3 52455345 		.ascii	"RESERVED1\000"
 7147      52564544 
 7147      3100
 7148              	.LASF84:
 7149 06dd 6B696C6C 		.ascii	"killMode\000"
 7149      4D6F6465 
 7149      00
 7150              	.LASF109:
 7151 06e6 70765F65 		.ascii	"pv_eink_status_t\000"
 7151      696E6B5F 
 7151      73746174 
 7151      75735F74 
 7151      00
 7152              	.LASF105:
 7153 06f7 50565F45 		.ascii	"PV_EINK_ERROR_ID\000"
 7153      494E4B5F 
 7153      4552524F 
 7153      525F4944 
 7153      00
 7154              	.LASF152:
 7155 0708 50765F45 		.ascii	"Pv_EINK_HardwarePowerOn\000"
 7155      494E4B5F 
 7155      48617264 
 7155      77617265 
 7155      506F7765 
ARM GAS  C:\Users\rober\AppData\Local\Temp\ccBlBMtt.s 			page 165


 7156              	.LASF103:
 7157 0720 50565F45 		.ascii	"PV_EINK_RES_OK\000"
 7157      494E4B5F 
 7157      5245535F 
 7157      4F4B00
 7158              	.LASF53:
 7159 072f 5F426F6F 		.ascii	"_Bool\000"
 7159      6C00
 7160              	.LASF22:
 7161 0735 696E7433 		.ascii	"int32_t\000"
 7161      325F7400 
 7162              	.LASF6:
 7163 073d 756E7369 		.ascii	"unsigned char\000"
 7163      676E6564 
 7163      20636861 
 7163      7200
 7164              	.LASF148:
 7165 074b 6E657742 		.ascii	"newByte\000"
 7165      79746500 
 7166              	.LASF169:
 7167 0753 43795F45 		.ascii	"Cy_EINK_WriteSPIBuffer\000"
 7167      494E4B5F 
 7167      57726974 
 7167      65535049 
 7167      42756666 
 7168              	.LASF121:
 7169 076a 64726976 		.ascii	"driver_data_packet_t\000"
 7169      65725F64 
 7169      6174615F 
 7169      7061636B 
 7169      65745F74 
 7170              	.LASF146:
 7171 077f 6E657749 		.ascii	"newImagePtr\000"
 7171      6D616765 
 7171      50747200 
 7172              	.LASF144:
 7173 078b 50765F45 		.ascii	"Pv_EINK_PartialStageHandler\000"
 7173      494E4B5F 
 7173      50617274 
 7173      69616C53 
 7173      74616765 
 7174              	.LASF119:
 7175 07a7 6C696E65 		.ascii	"lineDataBySize\000"
 7175      44617461 
 7175      42795369 
 7175      7A6500
 7176              	.LASF143:
 7177 07b6 626C6163 		.ascii	"blackOrWhiteFrame\000"
 7177      6B4F7257 
 7177      68697465 
 7177      4672616D 
 7177      6500
 7178              	.LASF147:
 7179 07c8 6F6C6442 		.ascii	"oldByte\000"
 7179      79746500 
 7180              	.LASF35:
 7181 07d0 52455345 		.ascii	"RESERVED\000"
ARM GAS  C:\Users\rober\AppData\Local\Temp\ccBlBMtt.s 			page 166


 7181      52564544 
 7181      00
 7182              	.LASF139:
 7183 07d9 696D6167 		.ascii	"imagePtr\000"
 7183      65507472 
 7183      00
 7184              	.LASF44:
 7185 07e2 5644445F 		.ascii	"VDD_INTR\000"
 7185      494E5452 
 7185      00
 7186              	.LASF149:
 7187 07eb 50765F45 		.ascii	"Pv_EINK_NothingFrame\000"
 7187      494E4B5F 
 7187      4E6F7468 
 7187      696E6746 
 7187      72616D65 
 7188              	.LASF81:
 7189 0800 656E6162 		.ascii	"enablePeriodSwap\000"
 7189      6C655065 
 7189      72696F64 
 7189      53776170 
 7189      00
 7190              	.LASF124:
 7191 0811 76616C75 		.ascii	"value\000"
 7191      6500
 7192              	.LASF58:
 7193 0817 636F6D70 		.ascii	"compareOrCapture\000"
 7193      6172654F 
 7193      72436170 
 7193      74757265 
 7193      00
 7194              	.LASF123:
 7195 0828 70696E4E 		.ascii	"pinNum\000"
 7195      756D00
 7196              	.LASF75:
 7197 082f 63795F73 		.ascii	"cy_stc_tcpwm_pwm_config\000"
 7197      74635F74 
 7197      6370776D 
 7197      5F70776D 
 7197      5F636F6E 
 7198              	.LASF23:
 7199 0847 75696E74 		.ascii	"uint32_t\000"
 7199      33325F74 
 7199      00
 7200              	.LASF176:
 7201 0850 43795F53 		.ascii	"Cy_SysLib_Delay\000"
 7201      79734C69 
 7201      625F4465 
 7201      6C617900 
 7202              	.LASF59:
 7203 0860 636F6D70 		.ascii	"compare0\000"
 7203      61726530 
 7203      00
 7204              	.LASF2:
 7205 0869 6C6F6E67 		.ascii	"long double\000"
 7205      20646F75 
 7205      626C6500 
ARM GAS  C:\Users\rober\AppData\Local\Temp\ccBlBMtt.s 			page 167


 7206              	.LASF17:
 7207 0875 63686172 		.ascii	"char\000"
 7207      00
 7208              	.LASF39:
 7209 087a 494E5452 		.ascii	"INTR_CAUSE0\000"
 7209      5F434155 
 7209      53453000 
 7210              	.LASF40:
 7211 0886 494E5452 		.ascii	"INTR_CAUSE1\000"
 7211      5F434155 
 7211      53453100 
 7212              	.LASF41:
 7213 0892 494E5452 		.ascii	"INTR_CAUSE2\000"
 7213      5F434155 
 7213      53453200 
 7214              	.LASF42:
 7215 089e 494E5452 		.ascii	"INTR_CAUSE3\000"
 7215      5F434155 
 7215      53453300 
 7216              	.LASF174:
 7217 08aa 43795F45 		.ascii	"Cy_EINK_IsBusy\000"
 7217      494E4B5F 
 7217      49734275 
 7217      737900
 7218              	.LASF38:
 7219 08b9 4750494F 		.ascii	"GPIO_PRT_Type\000"
 7219      5F505254 
 7219      5F547970 
 7219      6500
 7220              	.LASF9:
 7221 08c7 5F5F7569 		.ascii	"__uint16_t\000"
 7221      6E743136 
 7221      5F7400
 7222              	.LASF163:
 7223 08d2 50574D5F 		.ascii	"PWM_config\000"
 7223      636F6E66 
 7223      696700
 7224              	.LASF171:
 7225 08dd 43795F45 		.ascii	"Cy_EINK_InitSPI\000"
 7225      494E4B5F 
 7225      496E6974 
 7225      53504900 
 7226              	.LASF11:
 7227 08ed 5F5F696E 		.ascii	"__int32_t\000"
 7227      7433325F 
 7227      7400
 7228              	.LASF154:
 7229 08f7 64726976 		.ascii	"driverPacket\000"
 7229      65725061 
 7229      636B6574 
 7229      00
 7230              	.LASF46:
 7231 0904 5644445F 		.ascii	"VDD_INTR_MASKED\000"
 7231      494E5452 
 7231      5F4D4153 
 7231      4B454400 
 7232              	.LASF62:
ARM GAS  C:\Users\rober\AppData\Local\Temp\ccBlBMtt.s 			page 168


 7233 0914 696E7465 		.ascii	"interruptSources\000"
 7233      72727570 
 7233      74536F75 
 7233      72636573 
 7233      00
 7234              	.LASF66:
 7235 0925 72656C6F 		.ascii	"reloadInput\000"
 7235      6164496E 
 7235      70757400 
 7236              	.LASF175:
 7237 0931 43795F45 		.ascii	"Cy_EINK_TimerStop\000"
 7237      494E4B5F 
 7237      54696D65 
 7237      7253746F 
 7237      7000
 7238              	.LASF70:
 7239 0943 73746F70 		.ascii	"stopInput\000"
 7239      496E7075 
 7239      7400
 7240              	.LASF67:
 7241 094d 73746172 		.ascii	"startInputMode\000"
 7241      74496E70 
 7241      75744D6F 
 7241      646500
 7242              	.LASF141:
 7243 095c 7363616E 		.ascii	"scanlineNumber\000"
 7243      6C696E65 
 7243      4E756D62 
 7243      657200
 7244              	.LASF79:
 7245 096b 70657269 		.ascii	"period0\000"
 7245      6F643000 
 7246              	.LASF133:
 7247 0973 64617461 		.ascii	"dataRead\000"
 7247      52656164 
 7247      00
 7248              	.LASF177:
 7249 097c 43795F45 		.ascii	"Cy_EINK_AttachSPI\000"
 7249      494E4B5F 
 7249      41747461 
 7249      63685350 
 7249      4900
 7250              	.LASF100:
 7251 098e 696E6974 		.ascii	"initKey\000"
 7251      4B657900 
 7252              	.LASF93:
 7253 0996 72784275 		.ascii	"rxBuf\000"
 7253      6600
 7254              	.LASF161:
 7255 099c 43595F45 		.ascii	"CY_EINK_SPIM_context\000"
 7255      494E4B5F 
 7255      5350494D 
 7255      5F636F6E 
 7255      74657874 
 7256              	.LASF106:
 7257 09b1 50565F45 		.ascii	"PV_EINK_ERROR_BREAKAGE\000"
 7257      494E4B5F 
ARM GAS  C:\Users\rober\AppData\Local\Temp\ccBlBMtt.s 			page 169


 7257      4552524F 
 7257      525F4252 
 7257      45414B41 
 7258              	.LASF137:
 7259 09c8 75706461 		.ascii	"updateTime\000"
 7259      74655469 
 7259      6D6500
 7260              	.LASF183:
 7261 09d3 6D656D73 		.ascii	"memset\000"
 7261      657400
 7262              	.LASF92:
 7263 09da 73746174 		.ascii	"status\000"
 7263      757300
 7264              	.LASF83:
 7265 09e1 696E7665 		.ascii	"invertPWMOutN\000"
 7265      72745057 
 7265      4D4F7574 
 7265      4E00
 7266              	.LASF19:
 7267 09ef 75696E74 		.ascii	"uint8_t\000"
 7267      385F7400 
 7268              	.LASF138:
 7269 09f7 50765F45 		.ascii	"Pv_EINK_FullStageHandler\000"
 7269      494E4B5F 
 7269      46756C6C 
 7269      53746167 
 7269      6548616E 
 7270              	.LASF86:
 7271 0a10 73776170 		.ascii	"swapInput\000"
 7271      496E7075 
 7271      7400
 7272              	.LASF162:
 7273 0a1a 43595F45 		.ascii	"CY_EINK_Timer_config\000"
 7273      494E4B5F 
 7273      54696D65 
 7273      725F636F 
 7273      6E666967 
 7274              	.LASF52:
 7275 0a2f 696E7431 		.ascii	"int16\000"
 7275      3600
 7276              	.LASF33:
 7277 0a35 4346475F 		.ascii	"CFG_OUT\000"
 7277      4F555400 
 7278              	.LASF48:
 7279 0a3d 4750494F 		.ascii	"GPIO_Type\000"
 7279      5F547970 
 7279      6500
 7280              	.LASF65:
 7281 0a47 72656C6F 		.ascii	"reloadInputMode\000"
 7281      6164496E 
 7281      7075744D 
 7281      6F646500 
 7282              	.LASF153:
 7283 0a57 50765F45 		.ascii	"Pv_EINK_HardwarePowerOff\000"
 7283      494E4B5F 
 7283      48617264 
 7283      77617265 
ARM GAS  C:\Users\rober\AppData\Local\Temp\ccBlBMtt.s 			page 170


 7283      506F7765 
 7284              	.LASF60:
 7285 0a70 636F6D70 		.ascii	"compare1\000"
 7285      61726531 
 7285      00
 7286              	.LASF107:
 7287 0a79 50565F45 		.ascii	"PV_EINK_ERROR_DC\000"
 7287      494E4B5F 
 7287      4552524F 
 7287      525F4443 
 7287      00
 7288              	.LASF173:
 7289 0a8a 43795F45 		.ascii	"Cy_EINK_GetTimeTick\000"
 7289      494E4B5F 
 7289      47657454 
 7289      696D6554 
 7289      69636B00 
 7290              	.LASF72:
 7291 0a9e 636F756E 		.ascii	"countInput\000"
 7291      74496E70 
 7291      757400
 7292              	.LASF51:
 7293 0aa9 646F7562 		.ascii	"double\000"
 7293      6C6500
 7294              	.LASF98:
 7295 0ab0 74784275 		.ascii	"txBufIdx\000"
 7295      66496478 
 7295      00
 7296              		.ident	"GCC: (GNU Tools for ARM Embedded Processors) 5.4.1 20160609 (release) [ARM/embedded-5-bran
