ARM GAS  C:\Users\rober\AppData\Local\Temp\ccAa3myu.s 			page 1


   1              		.syntax unified
   2              		.cpu cortex-m4
   3              		.eabi_attribute 27, 1
   4              		.fpu fpv4-sp-d16
   5              		.eabi_attribute 20, 1
   6              		.eabi_attribute 21, 1
   7              		.eabi_attribute 23, 3
   8              		.eabi_attribute 24, 1
   9              		.eabi_attribute 25, 1
  10              		.eabi_attribute 26, 1
  11              		.eabi_attribute 30, 6
  12              		.eabi_attribute 34, 1
  13              		.eabi_attribute 18, 4
  14              		.thumb
  15              		.syntax unified
  16              		.file	"pervasive_eink_hardware_driver.c"
  17              		.text
  18              	.Ltext0:
  19              		.cfi_sections	.debug_frame
  20              		.section	.rodata
  21              		.align	2
  22              	.LC0:
  23 0000 47656E65 		.ascii	"Generated_Source\\PSoC6\\pdl\\drivers/peripheral/gp"
  23      72617465 
  23      645F536F 
  23      75726365 
  23      5C50536F 
  24 0030 696F2F63 		.ascii	"io/cy_gpio.h\000"
  24      795F6770 
  24      696F2E68 
  24      00
  25              		.section	.text.Cy_GPIO_Write,"ax",%progbits
  26              		.align	2
  27              		.thumb
  28              		.thumb_func
  29              		.type	Cy_GPIO_Write, %function
  30              	Cy_GPIO_Write:
  31              	.LFB405:
  32              		.file 1 "Generated_Source\\PSoC6\\pdl\\drivers/peripheral/gpio/cy_gpio.h"
   1:Generated_Source\PSoC6\pdl\drivers/peripheral/gpio/cy_gpio.h **** /***************************************************************************//**
   2:Generated_Source\PSoC6\pdl\drivers/peripheral/gpio/cy_gpio.h **** * \file cy_gpio.h
   3:Generated_Source\PSoC6\pdl\drivers/peripheral/gpio/cy_gpio.h **** * \version 1.10.1
   4:Generated_Source\PSoC6\pdl\drivers/peripheral/gpio/cy_gpio.h **** *
   5:Generated_Source\PSoC6\pdl\drivers/peripheral/gpio/cy_gpio.h **** * \brief
   6:Generated_Source\PSoC6\pdl\drivers/peripheral/gpio/cy_gpio.h **** * Provides an API declaration of the GPIO driver
   7:Generated_Source\PSoC6\pdl\drivers/peripheral/gpio/cy_gpio.h **** *
   8:Generated_Source\PSoC6\pdl\drivers/peripheral/gpio/cy_gpio.h **** ********************************************************************************
   9:Generated_Source\PSoC6\pdl\drivers/peripheral/gpio/cy_gpio.h **** * \copyright
  10:Generated_Source\PSoC6\pdl\drivers/peripheral/gpio/cy_gpio.h **** * Copyright 2016-2018, Cypress Semiconductor Corporation. All rights reserved.
  11:Generated_Source\PSoC6\pdl\drivers/peripheral/gpio/cy_gpio.h **** * You may use this file only in accordance with the license, terms, conditions,
  12:Generated_Source\PSoC6\pdl\drivers/peripheral/gpio/cy_gpio.h **** * disclaimers, and limitations in the end user license agreement accompanying
  13:Generated_Source\PSoC6\pdl\drivers/peripheral/gpio/cy_gpio.h **** * the software package with which this file was provided.
  14:Generated_Source\PSoC6\pdl\drivers/peripheral/gpio/cy_gpio.h **** *******************************************************************************/
  15:Generated_Source\PSoC6\pdl\drivers/peripheral/gpio/cy_gpio.h **** 
  16:Generated_Source\PSoC6\pdl\drivers/peripheral/gpio/cy_gpio.h **** /**
  17:Generated_Source\PSoC6\pdl\drivers/peripheral/gpio/cy_gpio.h **** * \defgroup group_gpio General Purpose Input Output (GPIO)
  18:Generated_Source\PSoC6\pdl\drivers/peripheral/gpio/cy_gpio.h **** * \{
ARM GAS  C:\Users\rober\AppData\Local\Temp\ccAa3myu.s 			page 2


  19:Generated_Source\PSoC6\pdl\drivers/peripheral/gpio/cy_gpio.h **** * The GPIO driver provides an API to configure and access device Input/Output pins.
  20:Generated_Source\PSoC6\pdl\drivers/peripheral/gpio/cy_gpio.h **** * IO pins include all general purpose types such as GPIO, SIO, HSIO, AUXIO, and
  21:Generated_Source\PSoC6\pdl\drivers/peripheral/gpio/cy_gpio.h **** * their variants.
  22:Generated_Source\PSoC6\pdl\drivers/peripheral/gpio/cy_gpio.h **** *
  23:Generated_Source\PSoC6\pdl\drivers/peripheral/gpio/cy_gpio.h **** * Initialization can be performed either at the port level or by configuring the
  24:Generated_Source\PSoC6\pdl\drivers/peripheral/gpio/cy_gpio.h **** * individual pins. For efficient use of code space, port
  25:Generated_Source\PSoC6\pdl\drivers/peripheral/gpio/cy_gpio.h **** * configuration should be used in the field. Refer to the product device header files 
  26:Generated_Source\PSoC6\pdl\drivers/peripheral/gpio/cy_gpio.h **** * for the list of supported ports and pins.
  27:Generated_Source\PSoC6\pdl\drivers/peripheral/gpio/cy_gpio.h **** * 
  28:Generated_Source\PSoC6\pdl\drivers/peripheral/gpio/cy_gpio.h **** * - Single pin configuration is performed by using \ref Cy_GPIO_Pin_FastInit 
  29:Generated_Source\PSoC6\pdl\drivers/peripheral/gpio/cy_gpio.h **** *   (provide specific values) or \ref Cy_GPIO_Pin_Init (provide a filled
  30:Generated_Source\PSoC6\pdl\drivers/peripheral/gpio/cy_gpio.h **** *   cy_stc_gpio_pin_config_t structure).
  31:Generated_Source\PSoC6\pdl\drivers/peripheral/gpio/cy_gpio.h **** * - An entire port can be configured using \ref Cy_GPIO_Port_Init. Provide a filled 
  32:Generated_Source\PSoC6\pdl\drivers/peripheral/gpio/cy_gpio.h **** *   cy_stc_gpio_prt_config_t structure. The values in the structure are 
  33:Generated_Source\PSoC6\pdl\drivers/peripheral/gpio/cy_gpio.h **** *   bitfields representing the desired value for each pin in the port.
  34:Generated_Source\PSoC6\pdl\drivers/peripheral/gpio/cy_gpio.h **** * - Pin configuration and management is based on the port address and pin number.
  35:Generated_Source\PSoC6\pdl\drivers/peripheral/gpio/cy_gpio.h **** *   \ref Cy_GPIO_PortToAddr function can optionally be used to calculate the port
  36:Generated_Source\PSoC6\pdl\drivers/peripheral/gpio/cy_gpio.h **** *   address from the port number at run-time.
  37:Generated_Source\PSoC6\pdl\drivers/peripheral/gpio/cy_gpio.h **** *
  38:Generated_Source\PSoC6\pdl\drivers/peripheral/gpio/cy_gpio.h **** * Once the pin/port initialization is complete, each pin can be accessed by 
  39:Generated_Source\PSoC6\pdl\drivers/peripheral/gpio/cy_gpio.h **** * specifying the port (GPIO_PRT_Type) and the pin (0-7) in the provided API 
  40:Generated_Source\PSoC6\pdl\drivers/peripheral/gpio/cy_gpio.h **** * functions.
  41:Generated_Source\PSoC6\pdl\drivers/peripheral/gpio/cy_gpio.h **** *
  42:Generated_Source\PSoC6\pdl\drivers/peripheral/gpio/cy_gpio.h **** * \section group_gpio_configuration Configuration Considerations
  43:Generated_Source\PSoC6\pdl\drivers/peripheral/gpio/cy_gpio.h **** *
  44:Generated_Source\PSoC6\pdl\drivers/peripheral/gpio/cy_gpio.h **** * 1. Pin multiplexing is controlled through the High-Speed IO Matrix (HSIOM) selection.
  45:Generated_Source\PSoC6\pdl\drivers/peripheral/gpio/cy_gpio.h **** *    This allows the pin to connect to signal sources/sinks throughout the device,
  46:Generated_Source\PSoC6\pdl\drivers/peripheral/gpio/cy_gpio.h **** *    as defined by the pin HSIOM selection options (en_hsiom_sel_t).
  47:Generated_Source\PSoC6\pdl\drivers/peripheral/gpio/cy_gpio.h **** * 2. All pins are initialized to High-Z drive mode with HSIOM connected to CPU (SW
  48:Generated_Source\PSoC6\pdl\drivers/peripheral/gpio/cy_gpio.h **** *    control digital pin only) at Power-On-Reset(POR).
  49:Generated_Source\PSoC6\pdl\drivers/peripheral/gpio/cy_gpio.h **** * 3. Some API functions perform read-modify-write operations on shared port
  50:Generated_Source\PSoC6\pdl\drivers/peripheral/gpio/cy_gpio.h **** *    registers. These functions are not thread safe and care must be taken when
  51:Generated_Source\PSoC6\pdl\drivers/peripheral/gpio/cy_gpio.h **** *    called by the application.
  52:Generated_Source\PSoC6\pdl\drivers/peripheral/gpio/cy_gpio.h **** *
  53:Generated_Source\PSoC6\pdl\drivers/peripheral/gpio/cy_gpio.h **** * Multiple pins on a port can be updated using direct port register writes with an
  54:Generated_Source\PSoC6\pdl\drivers/peripheral/gpio/cy_gpio.h **** * appropriate port mask. An example is shown below, highlighting the different ways of 
  55:Generated_Source\PSoC6\pdl\drivers/peripheral/gpio/cy_gpio.h **** * configuring Port 1 pins using,
  56:Generated_Source\PSoC6\pdl\drivers/peripheral/gpio/cy_gpio.h **** * 
  57:Generated_Source\PSoC6\pdl\drivers/peripheral/gpio/cy_gpio.h **** * - Port output data register
  58:Generated_Source\PSoC6\pdl\drivers/peripheral/gpio/cy_gpio.h **** * - Port output data set register
  59:Generated_Source\PSoC6\pdl\drivers/peripheral/gpio/cy_gpio.h **** * - Port output data clear register
  60:Generated_Source\PSoC6\pdl\drivers/peripheral/gpio/cy_gpio.h **** *
  61:Generated_Source\PSoC6\pdl\drivers/peripheral/gpio/cy_gpio.h **** * \snippet gpio/gpio_v1_10_sut_01.cydsn/main_cm4.c Cy_GPIO_Snippet
  62:Generated_Source\PSoC6\pdl\drivers/peripheral/gpio/cy_gpio.h **** *
  63:Generated_Source\PSoC6\pdl\drivers/peripheral/gpio/cy_gpio.h **** * \section group_gpio_more_information More Information
  64:Generated_Source\PSoC6\pdl\drivers/peripheral/gpio/cy_gpio.h **** *
  65:Generated_Source\PSoC6\pdl\drivers/peripheral/gpio/cy_gpio.h **** * Refer to the technical reference manual (TRM) and the device datasheet.
  66:Generated_Source\PSoC6\pdl\drivers/peripheral/gpio/cy_gpio.h **** *
  67:Generated_Source\PSoC6\pdl\drivers/peripheral/gpio/cy_gpio.h **** * \section group_gpio_MISRA MISRA-C Compliance]
  68:Generated_Source\PSoC6\pdl\drivers/peripheral/gpio/cy_gpio.h **** * <table class="doxtable">
  69:Generated_Source\PSoC6\pdl\drivers/peripheral/gpio/cy_gpio.h **** *   <tr>
  70:Generated_Source\PSoC6\pdl\drivers/peripheral/gpio/cy_gpio.h **** *     <th>MISRA Rule</th>
  71:Generated_Source\PSoC6\pdl\drivers/peripheral/gpio/cy_gpio.h **** *     <th>Rule Class (Required/Advisory)</th>
  72:Generated_Source\PSoC6\pdl\drivers/peripheral/gpio/cy_gpio.h **** *     <th>Rule Description</th>
  73:Generated_Source\PSoC6\pdl\drivers/peripheral/gpio/cy_gpio.h **** *     <th>Description of Deviation(s)</th>
  74:Generated_Source\PSoC6\pdl\drivers/peripheral/gpio/cy_gpio.h **** *   </tr>
  75:Generated_Source\PSoC6\pdl\drivers/peripheral/gpio/cy_gpio.h **** *   <tr>
ARM GAS  C:\Users\rober\AppData\Local\Temp\ccAa3myu.s 			page 3


  76:Generated_Source\PSoC6\pdl\drivers/peripheral/gpio/cy_gpio.h **** *     <td>16.7</td>
  77:Generated_Source\PSoC6\pdl\drivers/peripheral/gpio/cy_gpio.h **** *     <td>A</td>
  78:Generated_Source\PSoC6\pdl\drivers/peripheral/gpio/cy_gpio.h **** *     <td>A pointer parameter in a function prototype should be declared as pointer 
  79:Generated_Source\PSoC6\pdl\drivers/peripheral/gpio/cy_gpio.h **** *         to const if the pointer is not used to modify the addressed object.</td>
  80:Generated_Source\PSoC6\pdl\drivers/peripheral/gpio/cy_gpio.h **** *     <td>The objects pointed to by the base addresses of the GPIO port are not always modified.
  81:Generated_Source\PSoC6\pdl\drivers/peripheral/gpio/cy_gpio.h **** *         While a const qualifier can be used in select scenarios, it brings little benefit
  82:Generated_Source\PSoC6\pdl\drivers/peripheral/gpio/cy_gpio.h **** *         in adding this to the affected functions. </td>
  83:Generated_Source\PSoC6\pdl\drivers/peripheral/gpio/cy_gpio.h **** *   </tr>
  84:Generated_Source\PSoC6\pdl\drivers/peripheral/gpio/cy_gpio.h **** * </table>
  85:Generated_Source\PSoC6\pdl\drivers/peripheral/gpio/cy_gpio.h **** *
  86:Generated_Source\PSoC6\pdl\drivers/peripheral/gpio/cy_gpio.h **** * \section group_gpio_changelog Changelog
  87:Generated_Source\PSoC6\pdl\drivers/peripheral/gpio/cy_gpio.h **** * <table class="doxtable">
  88:Generated_Source\PSoC6\pdl\drivers/peripheral/gpio/cy_gpio.h **** *   <tr><th>Version</th><th>Changes</th><th>Reason for Change</th></tr>
  89:Generated_Source\PSoC6\pdl\drivers/peripheral/gpio/cy_gpio.h **** *   <tr>
  90:Generated_Source\PSoC6\pdl\drivers/peripheral/gpio/cy_gpio.h **** *     <td>1.10.1</td>
  91:Generated_Source\PSoC6\pdl\drivers/peripheral/gpio/cy_gpio.h **** *     <td>Updated description for the functions: \ref Cy_GPIO_GetInterruptStatus, 
  92:Generated_Source\PSoC6\pdl\drivers/peripheral/gpio/cy_gpio.h **** *         \ref Cy_GPIO_GetInterruptMask, \ref Cy_GPIO_GetInterruptStatusMasked.
  93:Generated_Source\PSoC6\pdl\drivers/peripheral/gpio/cy_gpio.h **** *         Minor documentation edits.
  94:Generated_Source\PSoC6\pdl\drivers/peripheral/gpio/cy_gpio.h **** *     </td>
  95:Generated_Source\PSoC6\pdl\drivers/peripheral/gpio/cy_gpio.h **** *     <td>Documentation update and clarification</td>
  96:Generated_Source\PSoC6\pdl\drivers/peripheral/gpio/cy_gpio.h **** *   </tr>
  97:Generated_Source\PSoC6\pdl\drivers/peripheral/gpio/cy_gpio.h **** *   <tr>
  98:Generated_Source\PSoC6\pdl\drivers/peripheral/gpio/cy_gpio.h **** *     <td>1.10</td>
  99:Generated_Source\PSoC6\pdl\drivers/peripheral/gpio/cy_gpio.h **** *     <td>Added input parameter validation to the API functions</td>
 100:Generated_Source\PSoC6\pdl\drivers/peripheral/gpio/cy_gpio.h **** *     <td></td>
 101:Generated_Source\PSoC6\pdl\drivers/peripheral/gpio/cy_gpio.h **** *   </tr>
 102:Generated_Source\PSoC6\pdl\drivers/peripheral/gpio/cy_gpio.h **** *   <tr>
 103:Generated_Source\PSoC6\pdl\drivers/peripheral/gpio/cy_gpio.h **** *     <td>1.0</td>
 104:Generated_Source\PSoC6\pdl\drivers/peripheral/gpio/cy_gpio.h **** *     <td>Initial version</td>
 105:Generated_Source\PSoC6\pdl\drivers/peripheral/gpio/cy_gpio.h **** *     <td></td>
 106:Generated_Source\PSoC6\pdl\drivers/peripheral/gpio/cy_gpio.h **** *   </tr>
 107:Generated_Source\PSoC6\pdl\drivers/peripheral/gpio/cy_gpio.h **** * </table>
 108:Generated_Source\PSoC6\pdl\drivers/peripheral/gpio/cy_gpio.h **** *
 109:Generated_Source\PSoC6\pdl\drivers/peripheral/gpio/cy_gpio.h **** * \defgroup group_gpio_macros Macros
 110:Generated_Source\PSoC6\pdl\drivers/peripheral/gpio/cy_gpio.h **** * \defgroup group_gpio_functions Functions
 111:Generated_Source\PSoC6\pdl\drivers/peripheral/gpio/cy_gpio.h **** * \{
 112:Generated_Source\PSoC6\pdl\drivers/peripheral/gpio/cy_gpio.h **** *   \defgroup group_gpio_functions_init       Initialization Functions
 113:Generated_Source\PSoC6\pdl\drivers/peripheral/gpio/cy_gpio.h **** *   \defgroup group_gpio_functions_gpio       GPIO Functions
 114:Generated_Source\PSoC6\pdl\drivers/peripheral/gpio/cy_gpio.h **** *   \defgroup group_gpio_functions_sio        SIO Functions
 115:Generated_Source\PSoC6\pdl\drivers/peripheral/gpio/cy_gpio.h **** *   \defgroup group_gpio_functions_interrupt  Port Interrupt Functions
 116:Generated_Source\PSoC6\pdl\drivers/peripheral/gpio/cy_gpio.h **** * \}
 117:Generated_Source\PSoC6\pdl\drivers/peripheral/gpio/cy_gpio.h **** * \defgroup group_gpio_data_structures Data Structures
 118:Generated_Source\PSoC6\pdl\drivers/peripheral/gpio/cy_gpio.h **** * \defgroup group_gpio_enums Enumerated Types
 119:Generated_Source\PSoC6\pdl\drivers/peripheral/gpio/cy_gpio.h **** */
 120:Generated_Source\PSoC6\pdl\drivers/peripheral/gpio/cy_gpio.h **** 
 121:Generated_Source\PSoC6\pdl\drivers/peripheral/gpio/cy_gpio.h **** #if !defined(CY_GPIO_H)
 122:Generated_Source\PSoC6\pdl\drivers/peripheral/gpio/cy_gpio.h **** #define CY_GPIO_H
 123:Generated_Source\PSoC6\pdl\drivers/peripheral/gpio/cy_gpio.h **** 
 124:Generated_Source\PSoC6\pdl\drivers/peripheral/gpio/cy_gpio.h **** #include <stddef.h>
 125:Generated_Source\PSoC6\pdl\drivers/peripheral/gpio/cy_gpio.h **** #include "syslib/cy_syslib.h"
 126:Generated_Source\PSoC6\pdl\drivers/peripheral/gpio/cy_gpio.h **** #include "cy_device_headers.h"
 127:Generated_Source\PSoC6\pdl\drivers/peripheral/gpio/cy_gpio.h **** 
 128:Generated_Source\PSoC6\pdl\drivers/peripheral/gpio/cy_gpio.h **** #if defined(__cplusplus)
 129:Generated_Source\PSoC6\pdl\drivers/peripheral/gpio/cy_gpio.h **** extern "C" {
 130:Generated_Source\PSoC6\pdl\drivers/peripheral/gpio/cy_gpio.h **** #endif
 131:Generated_Source\PSoC6\pdl\drivers/peripheral/gpio/cy_gpio.h **** 
 132:Generated_Source\PSoC6\pdl\drivers/peripheral/gpio/cy_gpio.h **** /** \addtogroup group_gpio_macros
ARM GAS  C:\Users\rober\AppData\Local\Temp\ccAa3myu.s 			page 4


 133:Generated_Source\PSoC6\pdl\drivers/peripheral/gpio/cy_gpio.h **** * \{
 134:Generated_Source\PSoC6\pdl\drivers/peripheral/gpio/cy_gpio.h **** */
 135:Generated_Source\PSoC6\pdl\drivers/peripheral/gpio/cy_gpio.h **** 
 136:Generated_Source\PSoC6\pdl\drivers/peripheral/gpio/cy_gpio.h **** /** Driver major version */
 137:Generated_Source\PSoC6\pdl\drivers/peripheral/gpio/cy_gpio.h **** #define CY_GPIO_DRV_VERSION_MAJOR       1
 138:Generated_Source\PSoC6\pdl\drivers/peripheral/gpio/cy_gpio.h **** 
 139:Generated_Source\PSoC6\pdl\drivers/peripheral/gpio/cy_gpio.h **** /** Driver minor version */
 140:Generated_Source\PSoC6\pdl\drivers/peripheral/gpio/cy_gpio.h **** #define CY_GPIO_DRV_VERSION_MINOR       10
 141:Generated_Source\PSoC6\pdl\drivers/peripheral/gpio/cy_gpio.h **** 
 142:Generated_Source\PSoC6\pdl\drivers/peripheral/gpio/cy_gpio.h **** /** GPIO driver ID */
 143:Generated_Source\PSoC6\pdl\drivers/peripheral/gpio/cy_gpio.h **** #define CY_GPIO_ID CY_PDL_DRV_ID(0x16u)
 144:Generated_Source\PSoC6\pdl\drivers/peripheral/gpio/cy_gpio.h **** 
 145:Generated_Source\PSoC6\pdl\drivers/peripheral/gpio/cy_gpio.h **** /** \} group_gpio_macros */
 146:Generated_Source\PSoC6\pdl\drivers/peripheral/gpio/cy_gpio.h **** 
 147:Generated_Source\PSoC6\pdl\drivers/peripheral/gpio/cy_gpio.h **** 
 148:Generated_Source\PSoC6\pdl\drivers/peripheral/gpio/cy_gpio.h **** /***************************************
 149:Generated_Source\PSoC6\pdl\drivers/peripheral/gpio/cy_gpio.h **** *       Enumerations
 150:Generated_Source\PSoC6\pdl\drivers/peripheral/gpio/cy_gpio.h **** ***************************************/
 151:Generated_Source\PSoC6\pdl\drivers/peripheral/gpio/cy_gpio.h **** /**
 152:Generated_Source\PSoC6\pdl\drivers/peripheral/gpio/cy_gpio.h **** * \addtogroup group_gpio_enums
 153:Generated_Source\PSoC6\pdl\drivers/peripheral/gpio/cy_gpio.h **** * \{
 154:Generated_Source\PSoC6\pdl\drivers/peripheral/gpio/cy_gpio.h **** */
 155:Generated_Source\PSoC6\pdl\drivers/peripheral/gpio/cy_gpio.h **** 
 156:Generated_Source\PSoC6\pdl\drivers/peripheral/gpio/cy_gpio.h **** /**
 157:Generated_Source\PSoC6\pdl\drivers/peripheral/gpio/cy_gpio.h **** * GPIO Driver error codes
 158:Generated_Source\PSoC6\pdl\drivers/peripheral/gpio/cy_gpio.h **** */
 159:Generated_Source\PSoC6\pdl\drivers/peripheral/gpio/cy_gpio.h **** typedef enum 
 160:Generated_Source\PSoC6\pdl\drivers/peripheral/gpio/cy_gpio.h **** {
 161:Generated_Source\PSoC6\pdl\drivers/peripheral/gpio/cy_gpio.h ****     CY_GPIO_SUCCESS   = 0x00u,                                    /**< Returned successful */
 162:Generated_Source\PSoC6\pdl\drivers/peripheral/gpio/cy_gpio.h ****     CY_GPIO_BAD_PARAM = CY_GPIO_ID | CY_PDL_STATUS_ERROR | 0x01u, /**< Bad parameter was passed */
 163:Generated_Source\PSoC6\pdl\drivers/peripheral/gpio/cy_gpio.h **** } cy_en_gpio_status_t;
 164:Generated_Source\PSoC6\pdl\drivers/peripheral/gpio/cy_gpio.h **** 
 165:Generated_Source\PSoC6\pdl\drivers/peripheral/gpio/cy_gpio.h **** /** \} group_gpio_enums */
 166:Generated_Source\PSoC6\pdl\drivers/peripheral/gpio/cy_gpio.h **** 
 167:Generated_Source\PSoC6\pdl\drivers/peripheral/gpio/cy_gpio.h **** 
 168:Generated_Source\PSoC6\pdl\drivers/peripheral/gpio/cy_gpio.h **** /***************************************
 169:Generated_Source\PSoC6\pdl\drivers/peripheral/gpio/cy_gpio.h **** *       Configuration Structures
 170:Generated_Source\PSoC6\pdl\drivers/peripheral/gpio/cy_gpio.h **** ***************************************/
 171:Generated_Source\PSoC6\pdl\drivers/peripheral/gpio/cy_gpio.h **** 
 172:Generated_Source\PSoC6\pdl\drivers/peripheral/gpio/cy_gpio.h **** /**
 173:Generated_Source\PSoC6\pdl\drivers/peripheral/gpio/cy_gpio.h **** * \addtogroup group_gpio_data_structures
 174:Generated_Source\PSoC6\pdl\drivers/peripheral/gpio/cy_gpio.h **** * \{
 175:Generated_Source\PSoC6\pdl\drivers/peripheral/gpio/cy_gpio.h **** */
 176:Generated_Source\PSoC6\pdl\drivers/peripheral/gpio/cy_gpio.h **** 
 177:Generated_Source\PSoC6\pdl\drivers/peripheral/gpio/cy_gpio.h **** /** This structure is used to initialize a port of GPIO pins */
 178:Generated_Source\PSoC6\pdl\drivers/peripheral/gpio/cy_gpio.h **** typedef struct {
 179:Generated_Source\PSoC6\pdl\drivers/peripheral/gpio/cy_gpio.h ****     uint32_t out;           /**< Initial output data for the IO pins in the port */
 180:Generated_Source\PSoC6\pdl\drivers/peripheral/gpio/cy_gpio.h ****     uint32_t intrMask;      /**< Interrupt enable mask for the port interrupt */
 181:Generated_Source\PSoC6\pdl\drivers/peripheral/gpio/cy_gpio.h ****     uint32_t intrCfg;       /**< Port pin interrupt edge detection configuration */
 182:Generated_Source\PSoC6\pdl\drivers/peripheral/gpio/cy_gpio.h ****     uint32_t cfg;           /**< Port pin drive modes and input buffer enable configuration */
 183:Generated_Source\PSoC6\pdl\drivers/peripheral/gpio/cy_gpio.h ****     uint32_t cfgIn;         /**< Port pin input buffer configuration */
 184:Generated_Source\PSoC6\pdl\drivers/peripheral/gpio/cy_gpio.h ****     uint32_t cfgOut;        /**< Port pin output buffer configuration */
 185:Generated_Source\PSoC6\pdl\drivers/peripheral/gpio/cy_gpio.h ****     uint32_t cfgSIO;        /**< Port SIO pins configuration */
 186:Generated_Source\PSoC6\pdl\drivers/peripheral/gpio/cy_gpio.h ****     uint32_t sel0Active;    /**< HSIOM selection for port pins 0,1,2,3 */
 187:Generated_Source\PSoC6\pdl\drivers/peripheral/gpio/cy_gpio.h ****     uint32_t sel1Active;    /**< HSIOM selection for port pins 4,5,6,7 */
 188:Generated_Source\PSoC6\pdl\drivers/peripheral/gpio/cy_gpio.h **** } cy_stc_gpio_prt_config_t;
 189:Generated_Source\PSoC6\pdl\drivers/peripheral/gpio/cy_gpio.h **** 
ARM GAS  C:\Users\rober\AppData\Local\Temp\ccAa3myu.s 			page 5


 190:Generated_Source\PSoC6\pdl\drivers/peripheral/gpio/cy_gpio.h **** /** This structure is used to initialize a single GPIO pin */
 191:Generated_Source\PSoC6\pdl\drivers/peripheral/gpio/cy_gpio.h **** typedef struct {
 192:Generated_Source\PSoC6\pdl\drivers/peripheral/gpio/cy_gpio.h ****     uint32_t outVal;         /**< Pin output state */
 193:Generated_Source\PSoC6\pdl\drivers/peripheral/gpio/cy_gpio.h ****     uint32_t driveMode;      /**< Drive mode */
 194:Generated_Source\PSoC6\pdl\drivers/peripheral/gpio/cy_gpio.h ****     en_hsiom_sel_t hsiom;   /**< HSIOM selection */
 195:Generated_Source\PSoC6\pdl\drivers/peripheral/gpio/cy_gpio.h ****     uint32_t intEdge;        /**< Interrupt Edge type */
 196:Generated_Source\PSoC6\pdl\drivers/peripheral/gpio/cy_gpio.h ****     uint32_t intMask;        /**< Interrupt enable mask */
 197:Generated_Source\PSoC6\pdl\drivers/peripheral/gpio/cy_gpio.h ****     uint32_t vtrip;          /**< Input buffer voltage trip type */
 198:Generated_Source\PSoC6\pdl\drivers/peripheral/gpio/cy_gpio.h ****     uint32_t slewRate;       /**< Output buffer slew rate */
 199:Generated_Source\PSoC6\pdl\drivers/peripheral/gpio/cy_gpio.h ****     uint32_t driveSel;       /**< Drive strength */
 200:Generated_Source\PSoC6\pdl\drivers/peripheral/gpio/cy_gpio.h ****     uint32_t vregEn;         /**< SIO pair output buffer mode */
 201:Generated_Source\PSoC6\pdl\drivers/peripheral/gpio/cy_gpio.h ****     uint32_t ibufMode;       /**< SIO pair input buffer mode */
 202:Generated_Source\PSoC6\pdl\drivers/peripheral/gpio/cy_gpio.h ****     uint32_t vtripSel;       /**< SIO pair input buffer trip point */
 203:Generated_Source\PSoC6\pdl\drivers/peripheral/gpio/cy_gpio.h ****     uint32_t vrefSel;        /**< SIO pair reference voltage for input buffer trip point */
 204:Generated_Source\PSoC6\pdl\drivers/peripheral/gpio/cy_gpio.h ****     uint32_t vohSel;         /**< SIO pair regulated voltage output level */
 205:Generated_Source\PSoC6\pdl\drivers/peripheral/gpio/cy_gpio.h **** } cy_stc_gpio_pin_config_t;
 206:Generated_Source\PSoC6\pdl\drivers/peripheral/gpio/cy_gpio.h **** 
 207:Generated_Source\PSoC6\pdl\drivers/peripheral/gpio/cy_gpio.h **** /** \} group_gpio_data_structures */
 208:Generated_Source\PSoC6\pdl\drivers/peripheral/gpio/cy_gpio.h **** 
 209:Generated_Source\PSoC6\pdl\drivers/peripheral/gpio/cy_gpio.h **** /***************************************
 210:Generated_Source\PSoC6\pdl\drivers/peripheral/gpio/cy_gpio.h **** *        Constants
 211:Generated_Source\PSoC6\pdl\drivers/peripheral/gpio/cy_gpio.h **** ***************************************/
 212:Generated_Source\PSoC6\pdl\drivers/peripheral/gpio/cy_gpio.h **** 
 213:Generated_Source\PSoC6\pdl\drivers/peripheral/gpio/cy_gpio.h **** /** \cond INTERNAL */
 214:Generated_Source\PSoC6\pdl\drivers/peripheral/gpio/cy_gpio.h **** 
 215:Generated_Source\PSoC6\pdl\drivers/peripheral/gpio/cy_gpio.h **** /* General Constants */
 216:Generated_Source\PSoC6\pdl\drivers/peripheral/gpio/cy_gpio.h **** #define CY_GPIO_PRT_HALF                       (4UL)      /**< Half-way point of a GPIO port */
 217:Generated_Source\PSoC6\pdl\drivers/peripheral/gpio/cy_gpio.h **** #define CY_GPIO_PRT_DEINIT                     (0UL)      /**< De-init value for port registers */
 218:Generated_Source\PSoC6\pdl\drivers/peripheral/gpio/cy_gpio.h **** 
 219:Generated_Source\PSoC6\pdl\drivers/peripheral/gpio/cy_gpio.h **** /* GPIO Masks */
 220:Generated_Source\PSoC6\pdl\drivers/peripheral/gpio/cy_gpio.h **** #define CY_GPIO_HSIOM_MASK                     (0x1FUL)   /**< HSIOM selection mask */
 221:Generated_Source\PSoC6\pdl\drivers/peripheral/gpio/cy_gpio.h **** #define CY_GPIO_OUT_MASK                       (0x01UL)   /**< Single pin mask for OUT register */
 222:Generated_Source\PSoC6\pdl\drivers/peripheral/gpio/cy_gpio.h **** #define CY_GPIO_IN_MASK                        (0x01UL)   /**< Single pin mask for IN register */
 223:Generated_Source\PSoC6\pdl\drivers/peripheral/gpio/cy_gpio.h **** #define CY_GPIO_CFG_DM_MASK                    (0x0FUL)   /**< Single pin mask for drive mode in CF
 224:Generated_Source\PSoC6\pdl\drivers/peripheral/gpio/cy_gpio.h **** #define CY_GPIO_CFG_IN_VTRIP_SEL_MASK          (0x01UL)   /**< Single pin mask for VTRIP selection 
 225:Generated_Source\PSoC6\pdl\drivers/peripheral/gpio/cy_gpio.h **** #define CY_GPIO_CFG_OUT_SLOW_MASK              (0x01UL)   /**< Single pin mask for slew rate in CFG
 226:Generated_Source\PSoC6\pdl\drivers/peripheral/gpio/cy_gpio.h **** #define CY_GPIO_CFG_OUT_DRIVE_SEL_MASK         (0x03UL)   /**< Single pin mask for drive strength i
 227:Generated_Source\PSoC6\pdl\drivers/peripheral/gpio/cy_gpio.h **** #define CY_GPIO_INTR_STATUS_MASK               (0x01UL)   /**< Single pin mask for interrupt status
 228:Generated_Source\PSoC6\pdl\drivers/peripheral/gpio/cy_gpio.h **** #define CY_GPIO_INTR_EN_MASK                   (0x01UL)   /**< Single pin mask for interrupt status
 229:Generated_Source\PSoC6\pdl\drivers/peripheral/gpio/cy_gpio.h **** #define CY_GPIO_INTR_MASKED_MASK               (0x01UL)   /**< Single pin mask for masked interrupt
 230:Generated_Source\PSoC6\pdl\drivers/peripheral/gpio/cy_gpio.h **** #define CY_GPIO_INTR_SET_MASK                  (0x01UL)   /**< Single pin mask for setting the inte
 231:Generated_Source\PSoC6\pdl\drivers/peripheral/gpio/cy_gpio.h **** #define CY_GPIO_INTR_EDGE_MASK                 (0x03UL)   /**< Single pin mask for interrupt edge t
 232:Generated_Source\PSoC6\pdl\drivers/peripheral/gpio/cy_gpio.h **** #define CY_GPIO_INTR_FLT_EDGE_MASK             (0x07UL)   /**< Single pin mask for setting filtered
 233:Generated_Source\PSoC6\pdl\drivers/peripheral/gpio/cy_gpio.h **** 
 234:Generated_Source\PSoC6\pdl\drivers/peripheral/gpio/cy_gpio.h **** /* SIO Masks */
 235:Generated_Source\PSoC6\pdl\drivers/peripheral/gpio/cy_gpio.h **** #define CY_GPIO_VREG_EN_MASK                   (0x01UL)   /**< Single SIO pin mask for voltage regu
 236:Generated_Source\PSoC6\pdl\drivers/peripheral/gpio/cy_gpio.h **** #define CY_GPIO_IBUF_MASK                      (0x01UL)   /**< Single SIO pin mask for input buffer
 237:Generated_Source\PSoC6\pdl\drivers/peripheral/gpio/cy_gpio.h **** #define CY_GPIO_IBUF_SHIFT                     (0x01UL)   /**< Single SIO pin shift for input buffe
 238:Generated_Source\PSoC6\pdl\drivers/peripheral/gpio/cy_gpio.h **** #define CY_GPIO_VTRIP_SEL_MASK                 (0x01UL)   /**< Single SIO pin mask for the input bu
 239:Generated_Source\PSoC6\pdl\drivers/peripheral/gpio/cy_gpio.h **** #define CY_GPIO_VTRIP_SEL_SHIFT                (0x02UL)   /**< Single SIO pin shift for the input b
 240:Generated_Source\PSoC6\pdl\drivers/peripheral/gpio/cy_gpio.h **** #define CY_GPIO_VREF_SEL_MASK                  (0x03UL)   /**< Single SIO pin mask for voltage refe
 241:Generated_Source\PSoC6\pdl\drivers/peripheral/gpio/cy_gpio.h **** #define CY_GPIO_VREF_SEL_SHIFT                 (0x03UL)   /**< Single SIO pin shift for voltage ref
 242:Generated_Source\PSoC6\pdl\drivers/peripheral/gpio/cy_gpio.h **** #define CY_GPIO_VOH_SEL_MASK                   (0x07UL)   /**< Single SIO pin mask for VOH */
 243:Generated_Source\PSoC6\pdl\drivers/peripheral/gpio/cy_gpio.h **** #define CY_GPIO_VOH_SEL_SHIFT                  (0x05UL)   /**< Single SIO pin shift for VOH */
 244:Generated_Source\PSoC6\pdl\drivers/peripheral/gpio/cy_gpio.h **** 
 245:Generated_Source\PSoC6\pdl\drivers/peripheral/gpio/cy_gpio.h **** /* Special mask for SIO pin pair setting */
 246:Generated_Source\PSoC6\pdl\drivers/peripheral/gpio/cy_gpio.h **** #define CY_GPIO_SIO_ODD_PIN_MASK               (0x00FEUL) /**< SIO pin pair selection mask */
ARM GAS  C:\Users\rober\AppData\Local\Temp\ccAa3myu.s 			page 6


 247:Generated_Source\PSoC6\pdl\drivers/peripheral/gpio/cy_gpio.h **** #define CY_GPIO_SIO_PIN_MASK                   (0x00FFUL) /**< SIO pin pair mask */
 248:Generated_Source\PSoC6\pdl\drivers/peripheral/gpio/cy_gpio.h **** 
 249:Generated_Source\PSoC6\pdl\drivers/peripheral/gpio/cy_gpio.h **** /* Offsets */
 250:Generated_Source\PSoC6\pdl\drivers/peripheral/gpio/cy_gpio.h **** #define CY_GPIO_HSIOM_OFFSET                   (3UL)      /**< Offset for HSIOM */
 251:Generated_Source\PSoC6\pdl\drivers/peripheral/gpio/cy_gpio.h **** #define CY_GPIO_DRIVE_MODE_OFFSET              (2UL)      /**< Offset for Drive mode */
 252:Generated_Source\PSoC6\pdl\drivers/peripheral/gpio/cy_gpio.h **** #define CY_GPIO_INBUF_OFFSET                   (3UL)      /**< Offset for input buffer */
 253:Generated_Source\PSoC6\pdl\drivers/peripheral/gpio/cy_gpio.h **** #define CY_GPIO_CFG_OUT_DRIVE_OFFSET           (16UL)     /**< Offset for drive strength */
 254:Generated_Source\PSoC6\pdl\drivers/peripheral/gpio/cy_gpio.h **** #define CY_GPIO_INTR_CFG_OFFSET                (1UL)      /**< Offset for interrupt config */
 255:Generated_Source\PSoC6\pdl\drivers/peripheral/gpio/cy_gpio.h **** #define CY_GPIO_INTR_FILT_OFFSET               (18UL)     /**< Offset for filtered interrupt config
 256:Generated_Source\PSoC6\pdl\drivers/peripheral/gpio/cy_gpio.h **** #define CY_GPIO_CFG_SIO_OFFSET                 (2UL)      /**< Offset for SIO config */
 257:Generated_Source\PSoC6\pdl\drivers/peripheral/gpio/cy_gpio.h **** 
 258:Generated_Source\PSoC6\pdl\drivers/peripheral/gpio/cy_gpio.h **** /* Parameter validation constants */
 259:Generated_Source\PSoC6\pdl\drivers/peripheral/gpio/cy_gpio.h **** #define CY_GPIO_PINS_MAX                       (8UL)      /**< Number of pins in the port */
 260:Generated_Source\PSoC6\pdl\drivers/peripheral/gpio/cy_gpio.h **** #define CY_GPIO_PRT_PINS_MASK                  (0x0000000FFUL)
 261:Generated_Source\PSoC6\pdl\drivers/peripheral/gpio/cy_gpio.h **** #define CY_GPIO_PRT_INTR_CFG_EDGE_SEL_MASK     (GPIO_PRT_INTR_CFG_EDGE0_SEL_Msk | \
 262:Generated_Source\PSoC6\pdl\drivers/peripheral/gpio/cy_gpio.h ****                                                 GPIO_PRT_INTR_CFG_EDGE1_SEL_Msk | \
 263:Generated_Source\PSoC6\pdl\drivers/peripheral/gpio/cy_gpio.h ****                                                 GPIO_PRT_INTR_CFG_EDGE2_SEL_Msk | \
 264:Generated_Source\PSoC6\pdl\drivers/peripheral/gpio/cy_gpio.h ****                                                 GPIO_PRT_INTR_CFG_EDGE3_SEL_Msk | \
 265:Generated_Source\PSoC6\pdl\drivers/peripheral/gpio/cy_gpio.h ****                                                 GPIO_PRT_INTR_CFG_EDGE4_SEL_Msk | \
 266:Generated_Source\PSoC6\pdl\drivers/peripheral/gpio/cy_gpio.h ****                                                 GPIO_PRT_INTR_CFG_EDGE5_SEL_Msk | \
 267:Generated_Source\PSoC6\pdl\drivers/peripheral/gpio/cy_gpio.h ****                                                 GPIO_PRT_INTR_CFG_EDGE6_SEL_Msk | \
 268:Generated_Source\PSoC6\pdl\drivers/peripheral/gpio/cy_gpio.h ****                                                 GPIO_PRT_INTR_CFG_EDGE7_SEL_Msk)            
 269:Generated_Source\PSoC6\pdl\drivers/peripheral/gpio/cy_gpio.h **** #define CY_GPIO_PRT_INTR_CFG_RANGE_MASK        (CY_GPIO_PRT_INTR_CFG_EDGE_SEL_MASK | \
 270:Generated_Source\PSoC6\pdl\drivers/peripheral/gpio/cy_gpio.h ****                                                 GPIO_PRT_INTR_CFG_FLT_EDGE_SEL_Msk | \
 271:Generated_Source\PSoC6\pdl\drivers/peripheral/gpio/cy_gpio.h ****                                                 GPIO_PRT_INTR_CFG_FLT_SEL_Msk)
 272:Generated_Source\PSoC6\pdl\drivers/peripheral/gpio/cy_gpio.h **** #define CY_GPIO_PRT_INT_MASK_MASK              (0x0000001FFUL)
 273:Generated_Source\PSoC6\pdl\drivers/peripheral/gpio/cy_gpio.h **** #define CY_GPIO_PRT_SEL_ACTIVE_MASK            (0x1FFFFFFFUL)
 274:Generated_Source\PSoC6\pdl\drivers/peripheral/gpio/cy_gpio.h **** 
 275:Generated_Source\PSoC6\pdl\drivers/peripheral/gpio/cy_gpio.h **** /* Parameter validation macros */
 276:Generated_Source\PSoC6\pdl\drivers/peripheral/gpio/cy_gpio.h **** #define CY_GPIO_IS_PIN_VALID(pinNum)           (CY_GPIO_PINS_MAX > (pinNum))
 277:Generated_Source\PSoC6\pdl\drivers/peripheral/gpio/cy_gpio.h **** #define CY_GPIO_IS_FILTER_PIN_VALID(pinNum)    (CY_GPIO_PINS_MAX >= (pinNum))
 278:Generated_Source\PSoC6\pdl\drivers/peripheral/gpio/cy_gpio.h **** #define CY_GPIO_IS_VALUE_VALID(outVal)         (1UL >= (outVal))
 279:Generated_Source\PSoC6\pdl\drivers/peripheral/gpio/cy_gpio.h **** #define CY_GPIO_IS_DM_VALID(driveMode)         (0U == ((driveMode) & (uint32_t)~CY_GPIO_CFG_DM_MASK
 280:Generated_Source\PSoC6\pdl\drivers/peripheral/gpio/cy_gpio.h **** 
 281:Generated_Source\PSoC6\pdl\drivers/peripheral/gpio/cy_gpio.h **** #define CY_GPIO_IS_HSIOM_VALID(hsiom)          (0U == ((hsiom) & (uint32_t)~CY_GPIO_HSIOM_MASK))
 282:Generated_Source\PSoC6\pdl\drivers/peripheral/gpio/cy_gpio.h **** 
 283:Generated_Source\PSoC6\pdl\drivers/peripheral/gpio/cy_gpio.h **** #define CY_GPIO_IS_INT_EDGE_VALID(intEdge)     ((CY_GPIO_INTR_DISABLE  == (intEdge)) || \
 284:Generated_Source\PSoC6\pdl\drivers/peripheral/gpio/cy_gpio.h ****                                                 (CY_GPIO_INTR_RISING   == (intEdge)) || \
 285:Generated_Source\PSoC6\pdl\drivers/peripheral/gpio/cy_gpio.h ****                                                 (CY_GPIO_INTR_FALLING  == (intEdge)) || \
 286:Generated_Source\PSoC6\pdl\drivers/peripheral/gpio/cy_gpio.h ****                                                 (CY_GPIO_INTR_BOTH     == (intEdge)))
 287:Generated_Source\PSoC6\pdl\drivers/peripheral/gpio/cy_gpio.h **** 
 288:Generated_Source\PSoC6\pdl\drivers/peripheral/gpio/cy_gpio.h **** #define CY_GPIO_IS_DRIVE_SEL_VALID(driveSel)   ((CY_GPIO_DRIVE_FULL    == (driveSel)) || \
 289:Generated_Source\PSoC6\pdl\drivers/peripheral/gpio/cy_gpio.h ****                                                 (CY_GPIO_DRIVE_1_2     == (driveSel)) || \
 290:Generated_Source\PSoC6\pdl\drivers/peripheral/gpio/cy_gpio.h ****                                                 (CY_GPIO_DRIVE_1_4     == (driveSel)) || \
 291:Generated_Source\PSoC6\pdl\drivers/peripheral/gpio/cy_gpio.h ****                                                 (CY_GPIO_DRIVE_1_8     == (driveSel)))
 292:Generated_Source\PSoC6\pdl\drivers/peripheral/gpio/cy_gpio.h **** 
 293:Generated_Source\PSoC6\pdl\drivers/peripheral/gpio/cy_gpio.h **** #define CY_GPIO_IS_VREF_SEL_VALID(vrefSel)     ((CY_SIO_VREF_PINREF    == (vrefSel)) || \
 294:Generated_Source\PSoC6\pdl\drivers/peripheral/gpio/cy_gpio.h ****                                                 (CY_SIO_VREF_1_2V      == (vrefSel)) || \
 295:Generated_Source\PSoC6\pdl\drivers/peripheral/gpio/cy_gpio.h ****                                                 (CY_SIO_VREF_AMUX_A    == (vrefSel)) || \
 296:Generated_Source\PSoC6\pdl\drivers/peripheral/gpio/cy_gpio.h ****                                                 (CY_SIO_VREF_AMUX_B    == (vrefSel)))
 297:Generated_Source\PSoC6\pdl\drivers/peripheral/gpio/cy_gpio.h **** 
 298:Generated_Source\PSoC6\pdl\drivers/peripheral/gpio/cy_gpio.h **** #define CY_GPIO_IS_VOH_SEL_VALID(vrefSel)      ((CY_SIO_VOH_1_00       == (vrefSel)) || \
 299:Generated_Source\PSoC6\pdl\drivers/peripheral/gpio/cy_gpio.h ****                                                 (CY_SIO_VOH_1_25       == (vrefSel)) || \
 300:Generated_Source\PSoC6\pdl\drivers/peripheral/gpio/cy_gpio.h ****                                                 (CY_SIO_VOH_1_49       == (vrefSel)) || \
 301:Generated_Source\PSoC6\pdl\drivers/peripheral/gpio/cy_gpio.h ****                                                 (CY_SIO_VOH_1_67       == (vrefSel)) || \
 302:Generated_Source\PSoC6\pdl\drivers/peripheral/gpio/cy_gpio.h ****                                                 (CY_SIO_VOH_2_08       == (vrefSel)) || \
 303:Generated_Source\PSoC6\pdl\drivers/peripheral/gpio/cy_gpio.h ****                                                 (CY_SIO_VOH_2_50       == (vrefSel)) || \
ARM GAS  C:\Users\rober\AppData\Local\Temp\ccAa3myu.s 			page 7


 304:Generated_Source\PSoC6\pdl\drivers/peripheral/gpio/cy_gpio.h ****                                                 (CY_SIO_VOH_2_78       == (vrefSel)) || \
 305:Generated_Source\PSoC6\pdl\drivers/peripheral/gpio/cy_gpio.h ****                                                 (CY_SIO_VOH_4_16       == (vrefSel)))
 306:Generated_Source\PSoC6\pdl\drivers/peripheral/gpio/cy_gpio.h ****                    
 307:Generated_Source\PSoC6\pdl\drivers/peripheral/gpio/cy_gpio.h **** #define CY_GPIO_IS_PIN_BIT_VALID(pinBit)       (0U == ((pinBit) & (uint32_t)~CY_GPIO_PRT_PINS_MASK)
 308:Generated_Source\PSoC6\pdl\drivers/peripheral/gpio/cy_gpio.h **** #define CY_GPIO_IS_INTR_CFG_VALID(intrCfg)     (0U == ((intrCfg) & (uint32_t)~CY_GPIO_PRT_INTR_CFG_
 309:Generated_Source\PSoC6\pdl\drivers/peripheral/gpio/cy_gpio.h **** #define CY_GPIO_IS_INTR_MASK_VALID(intrMask)   (0U == ((intrMask) & (uint32_t)~CY_GPIO_PRT_INT_MASK
 310:Generated_Source\PSoC6\pdl\drivers/peripheral/gpio/cy_gpio.h **** #define CY_GPIO_IS_SEL_ACT_VALID(selActive)    (0U == ((selActive) & (uint32_t)~CY_GPIO_PRT_SEL_ACT
 311:Generated_Source\PSoC6\pdl\drivers/peripheral/gpio/cy_gpio.h **** 
 312:Generated_Source\PSoC6\pdl\drivers/peripheral/gpio/cy_gpio.h **** /** \endcond */
 313:Generated_Source\PSoC6\pdl\drivers/peripheral/gpio/cy_gpio.h **** 
 314:Generated_Source\PSoC6\pdl\drivers/peripheral/gpio/cy_gpio.h **** 
 315:Generated_Source\PSoC6\pdl\drivers/peripheral/gpio/cy_gpio.h **** /***************************************
 316:Generated_Source\PSoC6\pdl\drivers/peripheral/gpio/cy_gpio.h **** *        Function Constants
 317:Generated_Source\PSoC6\pdl\drivers/peripheral/gpio/cy_gpio.h **** ***************************************/
 318:Generated_Source\PSoC6\pdl\drivers/peripheral/gpio/cy_gpio.h **** 
 319:Generated_Source\PSoC6\pdl\drivers/peripheral/gpio/cy_gpio.h **** /**
 320:Generated_Source\PSoC6\pdl\drivers/peripheral/gpio/cy_gpio.h **** * \addtogroup group_gpio_macros
 321:Generated_Source\PSoC6\pdl\drivers/peripheral/gpio/cy_gpio.h **** * \{
 322:Generated_Source\PSoC6\pdl\drivers/peripheral/gpio/cy_gpio.h **** */
 323:Generated_Source\PSoC6\pdl\drivers/peripheral/gpio/cy_gpio.h **** 
 324:Generated_Source\PSoC6\pdl\drivers/peripheral/gpio/cy_gpio.h **** /**
 325:Generated_Source\PSoC6\pdl\drivers/peripheral/gpio/cy_gpio.h **** * \defgroup group_gpio_driveModes Pin drive mode
 326:Generated_Source\PSoC6\pdl\drivers/peripheral/gpio/cy_gpio.h **** * \{
 327:Generated_Source\PSoC6\pdl\drivers/peripheral/gpio/cy_gpio.h **** * Constants to be used for setting the drive mode of the pin.
 328:Generated_Source\PSoC6\pdl\drivers/peripheral/gpio/cy_gpio.h **** */
 329:Generated_Source\PSoC6\pdl\drivers/peripheral/gpio/cy_gpio.h **** #define CY_GPIO_DM_ANALOG                      (0x00UL) /**< \brief Analog High-Z. Input buffer off
 330:Generated_Source\PSoC6\pdl\drivers/peripheral/gpio/cy_gpio.h **** #define CY_GPIO_DM_PULLUP_IN_OFF               (0x02UL) /**< \brief Resistive Pull-Up. Input buffer
 331:Generated_Source\PSoC6\pdl\drivers/peripheral/gpio/cy_gpio.h **** #define CY_GPIO_DM_PULLDOWN_IN_OFF             (0x03UL) /**< \brief Resistive Pull-Down. Input buff
 332:Generated_Source\PSoC6\pdl\drivers/peripheral/gpio/cy_gpio.h **** #define CY_GPIO_DM_OD_DRIVESLOW_IN_OFF         (0x04UL) /**< \brief Open Drain, Drives Low. Input b
 333:Generated_Source\PSoC6\pdl\drivers/peripheral/gpio/cy_gpio.h **** #define CY_GPIO_DM_OD_DRIVESHIGH_IN_OFF        (0x05UL) /**< \brief Open Drain, Drives High. Input 
 334:Generated_Source\PSoC6\pdl\drivers/peripheral/gpio/cy_gpio.h **** #define CY_GPIO_DM_STRONG_IN_OFF               (0x06UL) /**< \brief Strong Drive. Input buffer off 
 335:Generated_Source\PSoC6\pdl\drivers/peripheral/gpio/cy_gpio.h **** #define CY_GPIO_DM_PULLUP_DOWN_IN_OFF          (0x07UL) /**< \brief Resistive Pull-Up/Down. Input b
 336:Generated_Source\PSoC6\pdl\drivers/peripheral/gpio/cy_gpio.h **** #define CY_GPIO_DM_HIGHZ                       (0x08UL) /**< \brief Digital High-Z. Input buffer on
 337:Generated_Source\PSoC6\pdl\drivers/peripheral/gpio/cy_gpio.h **** #define CY_GPIO_DM_PULLUP                      (0x0AUL) /**< \brief Resistive Pull-Up. Input buffer
 338:Generated_Source\PSoC6\pdl\drivers/peripheral/gpio/cy_gpio.h **** #define CY_GPIO_DM_PULLDOWN                    (0x0BUL) /**< \brief Resistive Pull-Down. Input buff
 339:Generated_Source\PSoC6\pdl\drivers/peripheral/gpio/cy_gpio.h **** #define CY_GPIO_DM_OD_DRIVESLOW                (0x0CUL) /**< \brief Open Drain, Drives Low. Input b
 340:Generated_Source\PSoC6\pdl\drivers/peripheral/gpio/cy_gpio.h **** #define CY_GPIO_DM_OD_DRIVESHIGH               (0x0DUL) /**< \brief Open Drain, Drives High. Input 
 341:Generated_Source\PSoC6\pdl\drivers/peripheral/gpio/cy_gpio.h **** #define CY_GPIO_DM_STRONG                      (0x0EUL) /**< \brief Strong Drive. Input buffer on *
 342:Generated_Source\PSoC6\pdl\drivers/peripheral/gpio/cy_gpio.h **** #define CY_GPIO_DM_PULLUP_DOWN                 (0x0FUL) /**< \brief Resistive Pull-Up/Down. Input b
 343:Generated_Source\PSoC6\pdl\drivers/peripheral/gpio/cy_gpio.h **** /** \} */
 344:Generated_Source\PSoC6\pdl\drivers/peripheral/gpio/cy_gpio.h **** 
 345:Generated_Source\PSoC6\pdl\drivers/peripheral/gpio/cy_gpio.h **** /**
 346:Generated_Source\PSoC6\pdl\drivers/peripheral/gpio/cy_gpio.h **** * \defgroup group_gpio_vtrip Voltage trip mode
 347:Generated_Source\PSoC6\pdl\drivers/peripheral/gpio/cy_gpio.h **** * \{
 348:Generated_Source\PSoC6\pdl\drivers/peripheral/gpio/cy_gpio.h **** * Constants to be used for setting the voltage trip type on the pin.
 349:Generated_Source\PSoC6\pdl\drivers/peripheral/gpio/cy_gpio.h **** */
 350:Generated_Source\PSoC6\pdl\drivers/peripheral/gpio/cy_gpio.h **** #define CY_GPIO_VTRIP_CMOS                     (0x00UL) /**< \brief Input buffer compatible with CM
 351:Generated_Source\PSoC6\pdl\drivers/peripheral/gpio/cy_gpio.h **** #define CY_GPIO_VTRIP_TTL                      (0x01UL) /**< \brief Input buffer compatible with TT
 352:Generated_Source\PSoC6\pdl\drivers/peripheral/gpio/cy_gpio.h **** /** \} */
 353:Generated_Source\PSoC6\pdl\drivers/peripheral/gpio/cy_gpio.h **** 
 354:Generated_Source\PSoC6\pdl\drivers/peripheral/gpio/cy_gpio.h **** /**
 355:Generated_Source\PSoC6\pdl\drivers/peripheral/gpio/cy_gpio.h **** * \defgroup group_gpio_slewRate Slew Rate Mode
 356:Generated_Source\PSoC6\pdl\drivers/peripheral/gpio/cy_gpio.h **** * \{
 357:Generated_Source\PSoC6\pdl\drivers/peripheral/gpio/cy_gpio.h **** * Constants to be used for setting the slew rate of the pin.
 358:Generated_Source\PSoC6\pdl\drivers/peripheral/gpio/cy_gpio.h **** */
 359:Generated_Source\PSoC6\pdl\drivers/peripheral/gpio/cy_gpio.h **** #define CY_GPIO_SLEW_FAST                      (0x00UL) /**< \brief Fast slew rate */
 360:Generated_Source\PSoC6\pdl\drivers/peripheral/gpio/cy_gpio.h **** #define CY_GPIO_SLEW_SLOW                      (0x01UL) /**< \brief Slow slew rate */
ARM GAS  C:\Users\rober\AppData\Local\Temp\ccAa3myu.s 			page 8


 361:Generated_Source\PSoC6\pdl\drivers/peripheral/gpio/cy_gpio.h **** /** \} */
 362:Generated_Source\PSoC6\pdl\drivers/peripheral/gpio/cy_gpio.h **** 
 363:Generated_Source\PSoC6\pdl\drivers/peripheral/gpio/cy_gpio.h **** /**
 364:Generated_Source\PSoC6\pdl\drivers/peripheral/gpio/cy_gpio.h **** * \defgroup group_gpio_driveStrength Pin drive strength
 365:Generated_Source\PSoC6\pdl\drivers/peripheral/gpio/cy_gpio.h **** * \{
 366:Generated_Source\PSoC6\pdl\drivers/peripheral/gpio/cy_gpio.h **** * Constants to be used for setting the drive strength of the pin.
 367:Generated_Source\PSoC6\pdl\drivers/peripheral/gpio/cy_gpio.h **** */
 368:Generated_Source\PSoC6\pdl\drivers/peripheral/gpio/cy_gpio.h **** #define CY_GPIO_DRIVE_FULL                     (0x00UL) /**< \brief Full drive strength: Max drive 
 369:Generated_Source\PSoC6\pdl\drivers/peripheral/gpio/cy_gpio.h **** #define CY_GPIO_DRIVE_1_2                      (0x01UL) /**< \brief 1/2 drive strength: 1/2 drive c
 370:Generated_Source\PSoC6\pdl\drivers/peripheral/gpio/cy_gpio.h **** #define CY_GPIO_DRIVE_1_4                      (0x02UL) /**< \brief 1/4 drive strength: 1/4 drive c
 371:Generated_Source\PSoC6\pdl\drivers/peripheral/gpio/cy_gpio.h **** #define CY_GPIO_DRIVE_1_8                      (0x03UL) /**< \brief 1/8 drive strength: 1/8 drive c
 372:Generated_Source\PSoC6\pdl\drivers/peripheral/gpio/cy_gpio.h **** /** \} */
 373:Generated_Source\PSoC6\pdl\drivers/peripheral/gpio/cy_gpio.h **** 
 374:Generated_Source\PSoC6\pdl\drivers/peripheral/gpio/cy_gpio.h **** /**
 375:Generated_Source\PSoC6\pdl\drivers/peripheral/gpio/cy_gpio.h **** * \defgroup group_gpio_interruptTrigger Interrupt trigger type
 376:Generated_Source\PSoC6\pdl\drivers/peripheral/gpio/cy_gpio.h **** * \{
 377:Generated_Source\PSoC6\pdl\drivers/peripheral/gpio/cy_gpio.h **** * Constants to be used for setting the interrupt trigger type on the pin.
 378:Generated_Source\PSoC6\pdl\drivers/peripheral/gpio/cy_gpio.h **** */
 379:Generated_Source\PSoC6\pdl\drivers/peripheral/gpio/cy_gpio.h **** #define CY_GPIO_INTR_DISABLE                   (0x00UL) /**< \brief Disable the pin interrupt gener
 380:Generated_Source\PSoC6\pdl\drivers/peripheral/gpio/cy_gpio.h **** #define CY_GPIO_INTR_RISING                    (0x01UL) /**< \brief Rising-Edge interrupt */
 381:Generated_Source\PSoC6\pdl\drivers/peripheral/gpio/cy_gpio.h **** #define CY_GPIO_INTR_FALLING                   (0x02UL) /**< \brief Falling-Edge interrupt */
 382:Generated_Source\PSoC6\pdl\drivers/peripheral/gpio/cy_gpio.h **** #define CY_GPIO_INTR_BOTH                      (0x03UL) /**< \brief Both-Edge interrupt */
 383:Generated_Source\PSoC6\pdl\drivers/peripheral/gpio/cy_gpio.h **** /** \} */
 384:Generated_Source\PSoC6\pdl\drivers/peripheral/gpio/cy_gpio.h **** 
 385:Generated_Source\PSoC6\pdl\drivers/peripheral/gpio/cy_gpio.h **** /**
 386:Generated_Source\PSoC6\pdl\drivers/peripheral/gpio/cy_gpio.h **** * \defgroup group_gpio_sioVreg SIO output buffer mode
 387:Generated_Source\PSoC6\pdl\drivers/peripheral/gpio/cy_gpio.h **** * \{
 388:Generated_Source\PSoC6\pdl\drivers/peripheral/gpio/cy_gpio.h **** * Constants to be used for setting the SIO output buffer mode on the pin.
 389:Generated_Source\PSoC6\pdl\drivers/peripheral/gpio/cy_gpio.h **** */
 390:Generated_Source\PSoC6\pdl\drivers/peripheral/gpio/cy_gpio.h **** #define CY_SIO_VREG_UNREGULATED                (0x00UL) /**< \brief Unregulated output buffer */
 391:Generated_Source\PSoC6\pdl\drivers/peripheral/gpio/cy_gpio.h **** #define CY_SIO_VREG_REGULATED                  (0x01UL) /**< \brief Regulated output buffer */
 392:Generated_Source\PSoC6\pdl\drivers/peripheral/gpio/cy_gpio.h **** /** \} */
 393:Generated_Source\PSoC6\pdl\drivers/peripheral/gpio/cy_gpio.h **** 
 394:Generated_Source\PSoC6\pdl\drivers/peripheral/gpio/cy_gpio.h **** /**
 395:Generated_Source\PSoC6\pdl\drivers/peripheral/gpio/cy_gpio.h **** * \defgroup group_gpio_sioIbuf SIO input buffer mode
 396:Generated_Source\PSoC6\pdl\drivers/peripheral/gpio/cy_gpio.h **** * \{
 397:Generated_Source\PSoC6\pdl\drivers/peripheral/gpio/cy_gpio.h **** * Constants to be used for setting the SIO input buffer mode on the pin.
 398:Generated_Source\PSoC6\pdl\drivers/peripheral/gpio/cy_gpio.h **** */
 399:Generated_Source\PSoC6\pdl\drivers/peripheral/gpio/cy_gpio.h **** #define CY_SIO_IBUF_SINGLEENDED                (0x00UL) /**< \brief Single ended input buffer */
 400:Generated_Source\PSoC6\pdl\drivers/peripheral/gpio/cy_gpio.h **** #define CY_SIO_IBUF_DIFFERENTIAL               (0x01UL) /**< \brief Differential input buffer */
 401:Generated_Source\PSoC6\pdl\drivers/peripheral/gpio/cy_gpio.h **** /** \} */
 402:Generated_Source\PSoC6\pdl\drivers/peripheral/gpio/cy_gpio.h **** 
 403:Generated_Source\PSoC6\pdl\drivers/peripheral/gpio/cy_gpio.h **** /**
 404:Generated_Source\PSoC6\pdl\drivers/peripheral/gpio/cy_gpio.h **** * \defgroup group_gpio_sioVtrip SIO input buffer trip-point
 405:Generated_Source\PSoC6\pdl\drivers/peripheral/gpio/cy_gpio.h **** * \{
 406:Generated_Source\PSoC6\pdl\drivers/peripheral/gpio/cy_gpio.h **** * Constants to be used for setting the SIO input buffer trip-point of the pin.
 407:Generated_Source\PSoC6\pdl\drivers/peripheral/gpio/cy_gpio.h **** */
 408:Generated_Source\PSoC6\pdl\drivers/peripheral/gpio/cy_gpio.h **** #define CY_SIO_VTRIP_CMOS                      (0x00UL) /**< \brief CMOS input buffer (single-ended
 409:Generated_Source\PSoC6\pdl\drivers/peripheral/gpio/cy_gpio.h **** #define CY_SIO_VTRIP_TTL                       (0x01UL) /**< \brief TTL input buffer (single-ended)
 410:Generated_Source\PSoC6\pdl\drivers/peripheral/gpio/cy_gpio.h **** #define CY_SIO_VTRIP_0_5VDDIO_0_5VOH           (0x00UL) /**< \brief 0.5xVddio or 0.5xVoh (different
 411:Generated_Source\PSoC6\pdl\drivers/peripheral/gpio/cy_gpio.h **** #define CY_SIO_VTRIP_0_4VDDIO_1_0VREF          (0x01UL) /**< \brief 0.4xVddio or 0.4xVoh (different
 412:Generated_Source\PSoC6\pdl\drivers/peripheral/gpio/cy_gpio.h **** /** \} */
 413:Generated_Source\PSoC6\pdl\drivers/peripheral/gpio/cy_gpio.h **** 
 414:Generated_Source\PSoC6\pdl\drivers/peripheral/gpio/cy_gpio.h **** /**
 415:Generated_Source\PSoC6\pdl\drivers/peripheral/gpio/cy_gpio.h **** * \defgroup group_gpio_sioVref SIO reference voltage for input buffer trip-point
 416:Generated_Source\PSoC6\pdl\drivers/peripheral/gpio/cy_gpio.h **** * \{
 417:Generated_Source\PSoC6\pdl\drivers/peripheral/gpio/cy_gpio.h **** * Constants to be used for setting the reference voltage of SIO input buffer trip-point.
ARM GAS  C:\Users\rober\AppData\Local\Temp\ccAa3myu.s 			page 9


 418:Generated_Source\PSoC6\pdl\drivers/peripheral/gpio/cy_gpio.h **** */
 419:Generated_Source\PSoC6\pdl\drivers/peripheral/gpio/cy_gpio.h **** #define CY_SIO_VREF_PINREF                     (0x00UL) /**< \brief Vref from analog pin */
 420:Generated_Source\PSoC6\pdl\drivers/peripheral/gpio/cy_gpio.h **** #define CY_SIO_VREF_1_2V                       (0x01UL) /**< \brief Vref from internal 1.2V referen
 421:Generated_Source\PSoC6\pdl\drivers/peripheral/gpio/cy_gpio.h **** #define CY_SIO_VREF_AMUX_A                     (0x02UL) /**< \brief Vref from AMUXBUS_A */
 422:Generated_Source\PSoC6\pdl\drivers/peripheral/gpio/cy_gpio.h **** #define CY_SIO_VREF_AMUX_B                     (0x03UL) /**< \brief Vref from AMUXBUS_B */
 423:Generated_Source\PSoC6\pdl\drivers/peripheral/gpio/cy_gpio.h **** /** \} */
 424:Generated_Source\PSoC6\pdl\drivers/peripheral/gpio/cy_gpio.h **** 
 425:Generated_Source\PSoC6\pdl\drivers/peripheral/gpio/cy_gpio.h **** /**
 426:Generated_Source\PSoC6\pdl\drivers/peripheral/gpio/cy_gpio.h **** * \defgroup group_gpio_sioVoh Regulated output voltage level (Voh) and input buffer trip-point of a
 427:Generated_Source\PSoC6\pdl\drivers/peripheral/gpio/cy_gpio.h **** * \{
 428:Generated_Source\PSoC6\pdl\drivers/peripheral/gpio/cy_gpio.h **** * Constants to be used for setting the Voh and input buffer trip-point of an SIO pair
 429:Generated_Source\PSoC6\pdl\drivers/peripheral/gpio/cy_gpio.h **** */
 430:Generated_Source\PSoC6\pdl\drivers/peripheral/gpio/cy_gpio.h **** #define CY_SIO_VOH_1_00                        (0x00UL) /**< \brief Voh = 1 x Reference */
 431:Generated_Source\PSoC6\pdl\drivers/peripheral/gpio/cy_gpio.h **** #define CY_SIO_VOH_1_25                        (0x01UL) /**< \brief Voh = 1.25 x Reference */
 432:Generated_Source\PSoC6\pdl\drivers/peripheral/gpio/cy_gpio.h **** #define CY_SIO_VOH_1_49                        (0x02UL) /**< \brief Voh = 1.49 x Reference */
 433:Generated_Source\PSoC6\pdl\drivers/peripheral/gpio/cy_gpio.h **** #define CY_SIO_VOH_1_67                        (0x03UL) /**< \brief Voh = 1.67 x Reference */
 434:Generated_Source\PSoC6\pdl\drivers/peripheral/gpio/cy_gpio.h **** #define CY_SIO_VOH_2_08                        (0x04UL) /**< \brief Voh = 2.08 x Reference */
 435:Generated_Source\PSoC6\pdl\drivers/peripheral/gpio/cy_gpio.h **** #define CY_SIO_VOH_2_50                        (0x05UL) /**< \brief Voh = 2.50 x Reference */
 436:Generated_Source\PSoC6\pdl\drivers/peripheral/gpio/cy_gpio.h **** #define CY_SIO_VOH_2_78                        (0x06UL) /**< \brief Voh = 2.78 x Reference */
 437:Generated_Source\PSoC6\pdl\drivers/peripheral/gpio/cy_gpio.h **** #define CY_SIO_VOH_4_16                        (0x07UL) /**< \brief Voh = 4.16 x Reference */
 438:Generated_Source\PSoC6\pdl\drivers/peripheral/gpio/cy_gpio.h **** /** \} */
 439:Generated_Source\PSoC6\pdl\drivers/peripheral/gpio/cy_gpio.h **** 
 440:Generated_Source\PSoC6\pdl\drivers/peripheral/gpio/cy_gpio.h **** /** \} group_gpio_macros */
 441:Generated_Source\PSoC6\pdl\drivers/peripheral/gpio/cy_gpio.h **** 
 442:Generated_Source\PSoC6\pdl\drivers/peripheral/gpio/cy_gpio.h **** /***************************************
 443:Generated_Source\PSoC6\pdl\drivers/peripheral/gpio/cy_gpio.h **** *        Function Prototypes
 444:Generated_Source\PSoC6\pdl\drivers/peripheral/gpio/cy_gpio.h **** ***************************************/
 445:Generated_Source\PSoC6\pdl\drivers/peripheral/gpio/cy_gpio.h **** 
 446:Generated_Source\PSoC6\pdl\drivers/peripheral/gpio/cy_gpio.h **** /**
 447:Generated_Source\PSoC6\pdl\drivers/peripheral/gpio/cy_gpio.h **** * \addtogroup group_gpio_functions
 448:Generated_Source\PSoC6\pdl\drivers/peripheral/gpio/cy_gpio.h **** * \{
 449:Generated_Source\PSoC6\pdl\drivers/peripheral/gpio/cy_gpio.h **** */
 450:Generated_Source\PSoC6\pdl\drivers/peripheral/gpio/cy_gpio.h **** 
 451:Generated_Source\PSoC6\pdl\drivers/peripheral/gpio/cy_gpio.h **** /**
 452:Generated_Source\PSoC6\pdl\drivers/peripheral/gpio/cy_gpio.h **** * \addtogroup group_gpio_functions_init
 453:Generated_Source\PSoC6\pdl\drivers/peripheral/gpio/cy_gpio.h **** * \{
 454:Generated_Source\PSoC6\pdl\drivers/peripheral/gpio/cy_gpio.h **** */
 455:Generated_Source\PSoC6\pdl\drivers/peripheral/gpio/cy_gpio.h **** 
 456:Generated_Source\PSoC6\pdl\drivers/peripheral/gpio/cy_gpio.h **** cy_en_gpio_status_t Cy_GPIO_Pin_Init(GPIO_PRT_Type* base, uint32_t pinNum, const cy_stc_gpio_pin_co
 457:Generated_Source\PSoC6\pdl\drivers/peripheral/gpio/cy_gpio.h **** cy_en_gpio_status_t Cy_GPIO_Port_Init(GPIO_PRT_Type* base, const cy_stc_gpio_prt_config_t *config);
 458:Generated_Source\PSoC6\pdl\drivers/peripheral/gpio/cy_gpio.h **** void Cy_GPIO_Pin_FastInit(GPIO_PRT_Type* base, uint32_t pinNum, uint32_t driveMode, uint32_t outVal
 459:Generated_Source\PSoC6\pdl\drivers/peripheral/gpio/cy_gpio.h **** void Cy_GPIO_Port_Deinit(GPIO_PRT_Type* base);
 460:Generated_Source\PSoC6\pdl\drivers/peripheral/gpio/cy_gpio.h **** __STATIC_INLINE void Cy_GPIO_SetHSIOM(GPIO_PRT_Type* base, uint32_t pinNum, en_hsiom_sel_t value);
 461:Generated_Source\PSoC6\pdl\drivers/peripheral/gpio/cy_gpio.h **** __STATIC_INLINE en_hsiom_sel_t Cy_GPIO_GetHSIOM(GPIO_PRT_Type* base, uint32_t pinNum);
 462:Generated_Source\PSoC6\pdl\drivers/peripheral/gpio/cy_gpio.h **** __STATIC_INLINE GPIO_PRT_Type* Cy_GPIO_PortToAddr(uint32_t portNum);
 463:Generated_Source\PSoC6\pdl\drivers/peripheral/gpio/cy_gpio.h **** 
 464:Generated_Source\PSoC6\pdl\drivers/peripheral/gpio/cy_gpio.h **** /** \} group_gpio_functions_init */
 465:Generated_Source\PSoC6\pdl\drivers/peripheral/gpio/cy_gpio.h **** 
 466:Generated_Source\PSoC6\pdl\drivers/peripheral/gpio/cy_gpio.h **** /**
 467:Generated_Source\PSoC6\pdl\drivers/peripheral/gpio/cy_gpio.h **** * \addtogroup group_gpio_functions_gpio
 468:Generated_Source\PSoC6\pdl\drivers/peripheral/gpio/cy_gpio.h **** * \{
 469:Generated_Source\PSoC6\pdl\drivers/peripheral/gpio/cy_gpio.h **** */
 470:Generated_Source\PSoC6\pdl\drivers/peripheral/gpio/cy_gpio.h **** 
 471:Generated_Source\PSoC6\pdl\drivers/peripheral/gpio/cy_gpio.h **** __STATIC_INLINE uint32_t Cy_GPIO_Read(GPIO_PRT_Type* base, uint32_t pinNum);
 472:Generated_Source\PSoC6\pdl\drivers/peripheral/gpio/cy_gpio.h **** __STATIC_INLINE void Cy_GPIO_Write(GPIO_PRT_Type* base, uint32_t pinNum, uint32_t value);
 473:Generated_Source\PSoC6\pdl\drivers/peripheral/gpio/cy_gpio.h **** __STATIC_INLINE uint32_t Cy_GPIO_ReadOut(GPIO_PRT_Type* base, uint32_t pinNum);
 474:Generated_Source\PSoC6\pdl\drivers/peripheral/gpio/cy_gpio.h **** __STATIC_INLINE void Cy_GPIO_Set(GPIO_PRT_Type* base, uint32_t pinNum);
ARM GAS  C:\Users\rober\AppData\Local\Temp\ccAa3myu.s 			page 10


 475:Generated_Source\PSoC6\pdl\drivers/peripheral/gpio/cy_gpio.h **** __STATIC_INLINE void Cy_GPIO_Clr(GPIO_PRT_Type* base, uint32_t pinNum);
 476:Generated_Source\PSoC6\pdl\drivers/peripheral/gpio/cy_gpio.h **** __STATIC_INLINE void Cy_GPIO_Inv(GPIO_PRT_Type* base, uint32_t pinNum);
 477:Generated_Source\PSoC6\pdl\drivers/peripheral/gpio/cy_gpio.h **** __STATIC_INLINE void Cy_GPIO_SetDrivemode(GPIO_PRT_Type* base, uint32_t pinNum, uint32_t value);
 478:Generated_Source\PSoC6\pdl\drivers/peripheral/gpio/cy_gpio.h **** __STATIC_INLINE uint32_t Cy_GPIO_GetDrivemode(GPIO_PRT_Type* base, uint32_t pinNum);
 479:Generated_Source\PSoC6\pdl\drivers/peripheral/gpio/cy_gpio.h **** __STATIC_INLINE void Cy_GPIO_SetVtrip(GPIO_PRT_Type* base, uint32_t pinNum, uint32_t value);
 480:Generated_Source\PSoC6\pdl\drivers/peripheral/gpio/cy_gpio.h **** __STATIC_INLINE uint32_t Cy_GPIO_GetVtrip(GPIO_PRT_Type* base, uint32_t pinNum);
 481:Generated_Source\PSoC6\pdl\drivers/peripheral/gpio/cy_gpio.h **** __STATIC_INLINE void Cy_GPIO_SetSlewRate(GPIO_PRT_Type* base, uint32_t pinNum, uint32_t value);
 482:Generated_Source\PSoC6\pdl\drivers/peripheral/gpio/cy_gpio.h **** __STATIC_INLINE uint32_t Cy_GPIO_GetSlewRate(GPIO_PRT_Type* base, uint32_t pinNum);
 483:Generated_Source\PSoC6\pdl\drivers/peripheral/gpio/cy_gpio.h **** __STATIC_INLINE void Cy_GPIO_SetDriveSel(GPIO_PRT_Type* base, uint32_t pinNum, uint32_t value);
 484:Generated_Source\PSoC6\pdl\drivers/peripheral/gpio/cy_gpio.h **** __STATIC_INLINE uint32_t Cy_GPIO_GetDriveSel(GPIO_PRT_Type* base, uint32_t pinNum);
 485:Generated_Source\PSoC6\pdl\drivers/peripheral/gpio/cy_gpio.h **** 
 486:Generated_Source\PSoC6\pdl\drivers/peripheral/gpio/cy_gpio.h **** /** \} group_gpio_functions_gpio */
 487:Generated_Source\PSoC6\pdl\drivers/peripheral/gpio/cy_gpio.h **** 
 488:Generated_Source\PSoC6\pdl\drivers/peripheral/gpio/cy_gpio.h **** /**
 489:Generated_Source\PSoC6\pdl\drivers/peripheral/gpio/cy_gpio.h **** * \addtogroup group_gpio_functions_sio
 490:Generated_Source\PSoC6\pdl\drivers/peripheral/gpio/cy_gpio.h **** * \{
 491:Generated_Source\PSoC6\pdl\drivers/peripheral/gpio/cy_gpio.h **** */
 492:Generated_Source\PSoC6\pdl\drivers/peripheral/gpio/cy_gpio.h **** 
 493:Generated_Source\PSoC6\pdl\drivers/peripheral/gpio/cy_gpio.h **** __STATIC_INLINE void Cy_GPIO_SetVregEn(GPIO_PRT_Type* base, uint32_t pinNum, uint32_t value);
 494:Generated_Source\PSoC6\pdl\drivers/peripheral/gpio/cy_gpio.h **** __STATIC_INLINE uint32_t Cy_GPIO_GetVregEn(GPIO_PRT_Type* base, uint32_t pinNum);
 495:Generated_Source\PSoC6\pdl\drivers/peripheral/gpio/cy_gpio.h **** __STATIC_INLINE void Cy_GPIO_SetIbufMode(GPIO_PRT_Type* base, uint32_t pinNum, uint32_t value);
 496:Generated_Source\PSoC6\pdl\drivers/peripheral/gpio/cy_gpio.h **** __STATIC_INLINE uint32_t Cy_GPIO_GetIbufMode(GPIO_PRT_Type* base, uint32_t pinNum);
 497:Generated_Source\PSoC6\pdl\drivers/peripheral/gpio/cy_gpio.h **** __STATIC_INLINE void Cy_GPIO_SetVtripSel(GPIO_PRT_Type* base, uint32_t pinNum, uint32_t value);
 498:Generated_Source\PSoC6\pdl\drivers/peripheral/gpio/cy_gpio.h **** __STATIC_INLINE uint32_t Cy_GPIO_GetVtripSel(GPIO_PRT_Type* base, uint32_t pinNum);
 499:Generated_Source\PSoC6\pdl\drivers/peripheral/gpio/cy_gpio.h **** __STATIC_INLINE void Cy_GPIO_SetVrefSel(GPIO_PRT_Type* base, uint32_t pinNum, uint32_t value);
 500:Generated_Source\PSoC6\pdl\drivers/peripheral/gpio/cy_gpio.h **** __STATIC_INLINE uint32_t Cy_GPIO_GetVrefSel(GPIO_PRT_Type* base, uint32_t pinNum);
 501:Generated_Source\PSoC6\pdl\drivers/peripheral/gpio/cy_gpio.h **** __STATIC_INLINE void Cy_GPIO_SetVohSel(GPIO_PRT_Type* base, uint32_t pinNum, uint32_t value);
 502:Generated_Source\PSoC6\pdl\drivers/peripheral/gpio/cy_gpio.h **** __STATIC_INLINE uint32_t Cy_GPIO_GetVohSel(GPIO_PRT_Type* base, uint32_t pinNum);
 503:Generated_Source\PSoC6\pdl\drivers/peripheral/gpio/cy_gpio.h **** 
 504:Generated_Source\PSoC6\pdl\drivers/peripheral/gpio/cy_gpio.h **** /** \} group_gpio_functions_sio */
 505:Generated_Source\PSoC6\pdl\drivers/peripheral/gpio/cy_gpio.h **** 
 506:Generated_Source\PSoC6\pdl\drivers/peripheral/gpio/cy_gpio.h **** /**
 507:Generated_Source\PSoC6\pdl\drivers/peripheral/gpio/cy_gpio.h **** * \addtogroup group_gpio_functions_interrupt
 508:Generated_Source\PSoC6\pdl\drivers/peripheral/gpio/cy_gpio.h **** * \{
 509:Generated_Source\PSoC6\pdl\drivers/peripheral/gpio/cy_gpio.h **** */
 510:Generated_Source\PSoC6\pdl\drivers/peripheral/gpio/cy_gpio.h **** 
 511:Generated_Source\PSoC6\pdl\drivers/peripheral/gpio/cy_gpio.h **** __STATIC_INLINE uint32_t Cy_GPIO_GetInterruptStatus(GPIO_PRT_Type* base, uint32_t pinNum);
 512:Generated_Source\PSoC6\pdl\drivers/peripheral/gpio/cy_gpio.h **** __STATIC_INLINE void Cy_GPIO_ClearInterrupt(GPIO_PRT_Type* base, uint32_t pinNum);
 513:Generated_Source\PSoC6\pdl\drivers/peripheral/gpio/cy_gpio.h **** __STATIC_INLINE void Cy_GPIO_SetInterruptMask(GPIO_PRT_Type* base, uint32_t pinNum, uint32_t value)
 514:Generated_Source\PSoC6\pdl\drivers/peripheral/gpio/cy_gpio.h **** __STATIC_INLINE uint32_t Cy_GPIO_GetInterruptMask(GPIO_PRT_Type* base, uint32_t pinNum);
 515:Generated_Source\PSoC6\pdl\drivers/peripheral/gpio/cy_gpio.h **** __STATIC_INLINE uint32_t Cy_GPIO_GetInterruptStatusMasked(GPIO_PRT_Type* base, uint32_t pinNum);
 516:Generated_Source\PSoC6\pdl\drivers/peripheral/gpio/cy_gpio.h **** __STATIC_INLINE void Cy_GPIO_SetSwInterrupt(GPIO_PRT_Type* base, uint32_t pinNum);
 517:Generated_Source\PSoC6\pdl\drivers/peripheral/gpio/cy_gpio.h **** __STATIC_INLINE void Cy_GPIO_SetInterruptEdge(GPIO_PRT_Type* base, uint32_t pinNum, uint32_t value)
 518:Generated_Source\PSoC6\pdl\drivers/peripheral/gpio/cy_gpio.h **** __STATIC_INLINE uint32_t Cy_GPIO_GetInterruptEdge(GPIO_PRT_Type* base, uint32_t pinNum);
 519:Generated_Source\PSoC6\pdl\drivers/peripheral/gpio/cy_gpio.h **** __STATIC_INLINE void Cy_GPIO_SetFilter(GPIO_PRT_Type* base, uint32_t value);
 520:Generated_Source\PSoC6\pdl\drivers/peripheral/gpio/cy_gpio.h **** __STATIC_INLINE uint32_t Cy_GPIO_GetFilter(GPIO_PRT_Type* base);
 521:Generated_Source\PSoC6\pdl\drivers/peripheral/gpio/cy_gpio.h **** 
 522:Generated_Source\PSoC6\pdl\drivers/peripheral/gpio/cy_gpio.h **** #if (IOSS_GPIO_GPIO_PORT_NR_0_31 != 0) || defined (CY_DOXYGEN)
 523:Generated_Source\PSoC6\pdl\drivers/peripheral/gpio/cy_gpio.h **** __STATIC_INLINE uint32_t Cy_GPIO_GetInterruptCause0(void);
 524:Generated_Source\PSoC6\pdl\drivers/peripheral/gpio/cy_gpio.h **** #endif /* (IOSS_GPIO_GPIO_PORT_NR_0_31 != 0) */
 525:Generated_Source\PSoC6\pdl\drivers/peripheral/gpio/cy_gpio.h **** 
 526:Generated_Source\PSoC6\pdl\drivers/peripheral/gpio/cy_gpio.h **** #if (IOSS_GPIO_GPIO_PORT_NR_32_63 != 0) || defined (CY_DOXYGEN)
 527:Generated_Source\PSoC6\pdl\drivers/peripheral/gpio/cy_gpio.h **** __STATIC_INLINE uint32_t Cy_GPIO_GetInterruptCause1(void);
 528:Generated_Source\PSoC6\pdl\drivers/peripheral/gpio/cy_gpio.h **** #endif /* (IOSS_GPIO_GPIO_PORT_NR_32_63 != 0) */
 529:Generated_Source\PSoC6\pdl\drivers/peripheral/gpio/cy_gpio.h **** 
 530:Generated_Source\PSoC6\pdl\drivers/peripheral/gpio/cy_gpio.h **** #if (IOSS_GPIO_GPIO_PORT_NR_64_95 != 0) || defined (CY_DOXYGEN)
 531:Generated_Source\PSoC6\pdl\drivers/peripheral/gpio/cy_gpio.h **** __STATIC_INLINE uint32_t Cy_GPIO_GetInterruptCause2(void);
ARM GAS  C:\Users\rober\AppData\Local\Temp\ccAa3myu.s 			page 11


 532:Generated_Source\PSoC6\pdl\drivers/peripheral/gpio/cy_gpio.h **** #endif /* (IOSS_GPIO_GPIO_PORT_NR_64_95 != 0) */
 533:Generated_Source\PSoC6\pdl\drivers/peripheral/gpio/cy_gpio.h **** 
 534:Generated_Source\PSoC6\pdl\drivers/peripheral/gpio/cy_gpio.h **** #if (IOSS_GPIO_GPIO_PORT_NR_96_127 != 0) || defined (CY_DOXYGEN)
 535:Generated_Source\PSoC6\pdl\drivers/peripheral/gpio/cy_gpio.h **** __STATIC_INLINE uint32_t Cy_GPIO_GetInterruptCause3(void);
 536:Generated_Source\PSoC6\pdl\drivers/peripheral/gpio/cy_gpio.h **** #endif /* (IOSS_GPIO_GPIO_PORT_NR_96_127 != 0) */
 537:Generated_Source\PSoC6\pdl\drivers/peripheral/gpio/cy_gpio.h **** 
 538:Generated_Source\PSoC6\pdl\drivers/peripheral/gpio/cy_gpio.h **** /** \} group_gpio_functions_interrupt */
 539:Generated_Source\PSoC6\pdl\drivers/peripheral/gpio/cy_gpio.h **** 
 540:Generated_Source\PSoC6\pdl\drivers/peripheral/gpio/cy_gpio.h **** 
 541:Generated_Source\PSoC6\pdl\drivers/peripheral/gpio/cy_gpio.h **** /**
 542:Generated_Source\PSoC6\pdl\drivers/peripheral/gpio/cy_gpio.h **** * \addtogroup group_gpio_functions_init
 543:Generated_Source\PSoC6\pdl\drivers/peripheral/gpio/cy_gpio.h **** * \{
 544:Generated_Source\PSoC6\pdl\drivers/peripheral/gpio/cy_gpio.h **** */
 545:Generated_Source\PSoC6\pdl\drivers/peripheral/gpio/cy_gpio.h **** 
 546:Generated_Source\PSoC6\pdl\drivers/peripheral/gpio/cy_gpio.h **** /*******************************************************************************
 547:Generated_Source\PSoC6\pdl\drivers/peripheral/gpio/cy_gpio.h **** * Function Name: Cy_GPIO_SetHSIOM
 548:Generated_Source\PSoC6\pdl\drivers/peripheral/gpio/cy_gpio.h **** ****************************************************************************//**
 549:Generated_Source\PSoC6\pdl\drivers/peripheral/gpio/cy_gpio.h **** *
 550:Generated_Source\PSoC6\pdl\drivers/peripheral/gpio/cy_gpio.h **** * \brief Configures the HSIOM connection to the pin.
 551:Generated_Source\PSoC6\pdl\drivers/peripheral/gpio/cy_gpio.h **** *
 552:Generated_Source\PSoC6\pdl\drivers/peripheral/gpio/cy_gpio.h **** * Connects the specified High-Speed Input Output Multiplexer (HSIOM) selection
 553:Generated_Source\PSoC6\pdl\drivers/peripheral/gpio/cy_gpio.h **** * to the pin.
 554:Generated_Source\PSoC6\pdl\drivers/peripheral/gpio/cy_gpio.h **** *
 555:Generated_Source\PSoC6\pdl\drivers/peripheral/gpio/cy_gpio.h **** * \param base
 556:Generated_Source\PSoC6\pdl\drivers/peripheral/gpio/cy_gpio.h **** * Pointer to the pin's port register base address
 557:Generated_Source\PSoC6\pdl\drivers/peripheral/gpio/cy_gpio.h **** *
 558:Generated_Source\PSoC6\pdl\drivers/peripheral/gpio/cy_gpio.h **** * \param pinNum
 559:Generated_Source\PSoC6\pdl\drivers/peripheral/gpio/cy_gpio.h **** * Position of the pin bit-field within the port register
 560:Generated_Source\PSoC6\pdl\drivers/peripheral/gpio/cy_gpio.h **** *
 561:Generated_Source\PSoC6\pdl\drivers/peripheral/gpio/cy_gpio.h **** * \param value
 562:Generated_Source\PSoC6\pdl\drivers/peripheral/gpio/cy_gpio.h **** * HSIOM input selection
 563:Generated_Source\PSoC6\pdl\drivers/peripheral/gpio/cy_gpio.h **** *
 564:Generated_Source\PSoC6\pdl\drivers/peripheral/gpio/cy_gpio.h **** * \return
 565:Generated_Source\PSoC6\pdl\drivers/peripheral/gpio/cy_gpio.h **** * void
 566:Generated_Source\PSoC6\pdl\drivers/peripheral/gpio/cy_gpio.h **** *
 567:Generated_Source\PSoC6\pdl\drivers/peripheral/gpio/cy_gpio.h **** * \note 
 568:Generated_Source\PSoC6\pdl\drivers/peripheral/gpio/cy_gpio.h **** * This function modifies a port register in a read-modify-write operation. It is
 569:Generated_Source\PSoC6\pdl\drivers/peripheral/gpio/cy_gpio.h **** * not thread safe as the resource is shared among multiple pins on a port.
 570:Generated_Source\PSoC6\pdl\drivers/peripheral/gpio/cy_gpio.h **** *
 571:Generated_Source\PSoC6\pdl\drivers/peripheral/gpio/cy_gpio.h **** * \funcusage
 572:Generated_Source\PSoC6\pdl\drivers/peripheral/gpio/cy_gpio.h **** * \snippet gpio/gpio_v1_10_sut_01.cydsn/main_cm4.c snippet_Cy_GPIO_SetHSIOM
 573:Generated_Source\PSoC6\pdl\drivers/peripheral/gpio/cy_gpio.h **** *
 574:Generated_Source\PSoC6\pdl\drivers/peripheral/gpio/cy_gpio.h **** *******************************************************************************/
 575:Generated_Source\PSoC6\pdl\drivers/peripheral/gpio/cy_gpio.h **** __STATIC_INLINE void Cy_GPIO_SetHSIOM(GPIO_PRT_Type* base, uint32_t pinNum, en_hsiom_sel_t value)
 576:Generated_Source\PSoC6\pdl\drivers/peripheral/gpio/cy_gpio.h **** {
 577:Generated_Source\PSoC6\pdl\drivers/peripheral/gpio/cy_gpio.h ****     uint32_t portNum;
 578:Generated_Source\PSoC6\pdl\drivers/peripheral/gpio/cy_gpio.h ****     uint32_t tempReg;
 579:Generated_Source\PSoC6\pdl\drivers/peripheral/gpio/cy_gpio.h ****     HSIOM_PRT_Type* portAddrHSIOM;
 580:Generated_Source\PSoC6\pdl\drivers/peripheral/gpio/cy_gpio.h **** 
 581:Generated_Source\PSoC6\pdl\drivers/peripheral/gpio/cy_gpio.h ****     CY_ASSERT_L2(CY_GPIO_IS_PIN_VALID(pinNum));
 582:Generated_Source\PSoC6\pdl\drivers/peripheral/gpio/cy_gpio.h ****     CY_ASSERT_L2(CY_GPIO_IS_HSIOM_VALID(value));
 583:Generated_Source\PSoC6\pdl\drivers/peripheral/gpio/cy_gpio.h **** 
 584:Generated_Source\PSoC6\pdl\drivers/peripheral/gpio/cy_gpio.h ****     portNum = ((uint32_t)(base) - GPIO_BASE) / GPIO_PRT_SECTION_SIZE;
 585:Generated_Source\PSoC6\pdl\drivers/peripheral/gpio/cy_gpio.h ****     portAddrHSIOM = (HSIOM_PRT_Type*)(HSIOM_BASE + (HSIOM_PRT_SECTION_SIZE * portNum));
 586:Generated_Source\PSoC6\pdl\drivers/peripheral/gpio/cy_gpio.h **** 
 587:Generated_Source\PSoC6\pdl\drivers/peripheral/gpio/cy_gpio.h ****     if(pinNum < CY_GPIO_PRT_HALF)
 588:Generated_Source\PSoC6\pdl\drivers/peripheral/gpio/cy_gpio.h ****     {
ARM GAS  C:\Users\rober\AppData\Local\Temp\ccAa3myu.s 			page 12


 589:Generated_Source\PSoC6\pdl\drivers/peripheral/gpio/cy_gpio.h ****         tempReg = portAddrHSIOM->PORT_SEL0 & ~(CY_GPIO_HSIOM_MASK << (pinNum << CY_GPIO_HSIOM_OFFSE
 590:Generated_Source\PSoC6\pdl\drivers/peripheral/gpio/cy_gpio.h ****         portAddrHSIOM->PORT_SEL0 = tempReg | ((value & CY_GPIO_HSIOM_MASK) << (pinNum << CY_GPIO_HS
 591:Generated_Source\PSoC6\pdl\drivers/peripheral/gpio/cy_gpio.h ****     }
 592:Generated_Source\PSoC6\pdl\drivers/peripheral/gpio/cy_gpio.h ****     else
 593:Generated_Source\PSoC6\pdl\drivers/peripheral/gpio/cy_gpio.h ****     {
 594:Generated_Source\PSoC6\pdl\drivers/peripheral/gpio/cy_gpio.h ****         pinNum -= CY_GPIO_PRT_HALF;
 595:Generated_Source\PSoC6\pdl\drivers/peripheral/gpio/cy_gpio.h ****         tempReg = portAddrHSIOM->PORT_SEL1 & ~(CY_GPIO_HSIOM_MASK << (pinNum << CY_GPIO_HSIOM_OFFSE
 596:Generated_Source\PSoC6\pdl\drivers/peripheral/gpio/cy_gpio.h ****         portAddrHSIOM->PORT_SEL1 = tempReg | ((value & CY_GPIO_HSIOM_MASK) << (pinNum << CY_GPIO_HS
 597:Generated_Source\PSoC6\pdl\drivers/peripheral/gpio/cy_gpio.h ****     }
 598:Generated_Source\PSoC6\pdl\drivers/peripheral/gpio/cy_gpio.h **** }
 599:Generated_Source\PSoC6\pdl\drivers/peripheral/gpio/cy_gpio.h **** 
 600:Generated_Source\PSoC6\pdl\drivers/peripheral/gpio/cy_gpio.h **** 
 601:Generated_Source\PSoC6\pdl\drivers/peripheral/gpio/cy_gpio.h **** /*******************************************************************************
 602:Generated_Source\PSoC6\pdl\drivers/peripheral/gpio/cy_gpio.h **** * Function Name: Cy_GPIO_GetHSIOM
 603:Generated_Source\PSoC6\pdl\drivers/peripheral/gpio/cy_gpio.h **** ****************************************************************************//**
 604:Generated_Source\PSoC6\pdl\drivers/peripheral/gpio/cy_gpio.h **** *
 605:Generated_Source\PSoC6\pdl\drivers/peripheral/gpio/cy_gpio.h **** * \brief Returns the current HSIOM multiplexer connection to the pin.
 606:Generated_Source\PSoC6\pdl\drivers/peripheral/gpio/cy_gpio.h **** *
 607:Generated_Source\PSoC6\pdl\drivers/peripheral/gpio/cy_gpio.h **** * \param base
 608:Generated_Source\PSoC6\pdl\drivers/peripheral/gpio/cy_gpio.h **** * Pointer to the pin's port register base address
 609:Generated_Source\PSoC6\pdl\drivers/peripheral/gpio/cy_gpio.h **** *
 610:Generated_Source\PSoC6\pdl\drivers/peripheral/gpio/cy_gpio.h **** * \param pinNum
 611:Generated_Source\PSoC6\pdl\drivers/peripheral/gpio/cy_gpio.h **** * Position of the pin bit-field within the port register
 612:Generated_Source\PSoC6\pdl\drivers/peripheral/gpio/cy_gpio.h **** *
 613:Generated_Source\PSoC6\pdl\drivers/peripheral/gpio/cy_gpio.h **** * \return
 614:Generated_Source\PSoC6\pdl\drivers/peripheral/gpio/cy_gpio.h **** * HSIOM input selection
 615:Generated_Source\PSoC6\pdl\drivers/peripheral/gpio/cy_gpio.h **** *
 616:Generated_Source\PSoC6\pdl\drivers/peripheral/gpio/cy_gpio.h **** * \funcusage
 617:Generated_Source\PSoC6\pdl\drivers/peripheral/gpio/cy_gpio.h **** * \snippet gpio/gpio_v1_10_sut_01.cydsn/main_cm4.c snippet_Cy_GPIO_SetHSIOM
 618:Generated_Source\PSoC6\pdl\drivers/peripheral/gpio/cy_gpio.h **** *
 619:Generated_Source\PSoC6\pdl\drivers/peripheral/gpio/cy_gpio.h **** *******************************************************************************/
 620:Generated_Source\PSoC6\pdl\drivers/peripheral/gpio/cy_gpio.h **** __STATIC_INLINE en_hsiom_sel_t Cy_GPIO_GetHSIOM(GPIO_PRT_Type* base, uint32_t pinNum)
 621:Generated_Source\PSoC6\pdl\drivers/peripheral/gpio/cy_gpio.h **** {
 622:Generated_Source\PSoC6\pdl\drivers/peripheral/gpio/cy_gpio.h ****     uint32_t returnValue;
 623:Generated_Source\PSoC6\pdl\drivers/peripheral/gpio/cy_gpio.h ****     uint32_t portNum;
 624:Generated_Source\PSoC6\pdl\drivers/peripheral/gpio/cy_gpio.h ****     HSIOM_PRT_Type* portAddrHSIOM;
 625:Generated_Source\PSoC6\pdl\drivers/peripheral/gpio/cy_gpio.h ****     
 626:Generated_Source\PSoC6\pdl\drivers/peripheral/gpio/cy_gpio.h ****     CY_ASSERT_L2(CY_GPIO_IS_PIN_VALID(pinNum));
 627:Generated_Source\PSoC6\pdl\drivers/peripheral/gpio/cy_gpio.h **** 
 628:Generated_Source\PSoC6\pdl\drivers/peripheral/gpio/cy_gpio.h ****     portNum = ((uint32_t)(base) - GPIO_BASE) / GPIO_PRT_SECTION_SIZE;
 629:Generated_Source\PSoC6\pdl\drivers/peripheral/gpio/cy_gpio.h ****     portAddrHSIOM = (HSIOM_PRT_Type*)(HSIOM_BASE + (HSIOM_PRT_SECTION_SIZE * portNum));
 630:Generated_Source\PSoC6\pdl\drivers/peripheral/gpio/cy_gpio.h **** 
 631:Generated_Source\PSoC6\pdl\drivers/peripheral/gpio/cy_gpio.h ****     if(pinNum < CY_GPIO_PRT_HALF)
 632:Generated_Source\PSoC6\pdl\drivers/peripheral/gpio/cy_gpio.h ****     {
 633:Generated_Source\PSoC6\pdl\drivers/peripheral/gpio/cy_gpio.h ****         returnValue = (portAddrHSIOM->PORT_SEL0 >> (pinNum << CY_GPIO_HSIOM_OFFSET)) & CY_GPIO_HSIO
 634:Generated_Source\PSoC6\pdl\drivers/peripheral/gpio/cy_gpio.h ****     }
 635:Generated_Source\PSoC6\pdl\drivers/peripheral/gpio/cy_gpio.h ****     else
 636:Generated_Source\PSoC6\pdl\drivers/peripheral/gpio/cy_gpio.h ****     {
 637:Generated_Source\PSoC6\pdl\drivers/peripheral/gpio/cy_gpio.h ****         pinNum -= CY_GPIO_PRT_HALF;
 638:Generated_Source\PSoC6\pdl\drivers/peripheral/gpio/cy_gpio.h ****         returnValue = (portAddrHSIOM->PORT_SEL1 >> (pinNum << CY_GPIO_HSIOM_OFFSET)) & CY_GPIO_HSIO
 639:Generated_Source\PSoC6\pdl\drivers/peripheral/gpio/cy_gpio.h ****     }
 640:Generated_Source\PSoC6\pdl\drivers/peripheral/gpio/cy_gpio.h **** 
 641:Generated_Source\PSoC6\pdl\drivers/peripheral/gpio/cy_gpio.h ****     return (en_hsiom_sel_t)returnValue;
 642:Generated_Source\PSoC6\pdl\drivers/peripheral/gpio/cy_gpio.h **** }
 643:Generated_Source\PSoC6\pdl\drivers/peripheral/gpio/cy_gpio.h **** 
 644:Generated_Source\PSoC6\pdl\drivers/peripheral/gpio/cy_gpio.h **** 
 645:Generated_Source\PSoC6\pdl\drivers/peripheral/gpio/cy_gpio.h **** /*******************************************************************************
ARM GAS  C:\Users\rober\AppData\Local\Temp\ccAa3myu.s 			page 13


 646:Generated_Source\PSoC6\pdl\drivers/peripheral/gpio/cy_gpio.h **** * Function Name: Cy_GPIO_PortToAddr
 647:Generated_Source\PSoC6\pdl\drivers/peripheral/gpio/cy_gpio.h **** ****************************************************************************//**
 648:Generated_Source\PSoC6\pdl\drivers/peripheral/gpio/cy_gpio.h **** *
 649:Generated_Source\PSoC6\pdl\drivers/peripheral/gpio/cy_gpio.h **** * \brief Retrieves the port address based on the given port number.
 650:Generated_Source\PSoC6\pdl\drivers/peripheral/gpio/cy_gpio.h **** *
 651:Generated_Source\PSoC6\pdl\drivers/peripheral/gpio/cy_gpio.h **** * This is a helper function to calculate the port base address when given a port
 652:Generated_Source\PSoC6\pdl\drivers/peripheral/gpio/cy_gpio.h **** * number. It is to be used when pin access needs to be calculated at runtime.
 653:Generated_Source\PSoC6\pdl\drivers/peripheral/gpio/cy_gpio.h **** *
 654:Generated_Source\PSoC6\pdl\drivers/peripheral/gpio/cy_gpio.h **** * \param portNum
 655:Generated_Source\PSoC6\pdl\drivers/peripheral/gpio/cy_gpio.h **** * Port number
 656:Generated_Source\PSoC6\pdl\drivers/peripheral/gpio/cy_gpio.h **** *
 657:Generated_Source\PSoC6\pdl\drivers/peripheral/gpio/cy_gpio.h **** * \return
 658:Generated_Source\PSoC6\pdl\drivers/peripheral/gpio/cy_gpio.h **** * Base address of the port register structure
 659:Generated_Source\PSoC6\pdl\drivers/peripheral/gpio/cy_gpio.h **** *
 660:Generated_Source\PSoC6\pdl\drivers/peripheral/gpio/cy_gpio.h **** * \funcusage
 661:Generated_Source\PSoC6\pdl\drivers/peripheral/gpio/cy_gpio.h **** * \snippet gpio/gpio_v1_10_sut_01.cydsn/main_cm4.c snippet_Cy_GPIO_PortToAddr
 662:Generated_Source\PSoC6\pdl\drivers/peripheral/gpio/cy_gpio.h **** *
 663:Generated_Source\PSoC6\pdl\drivers/peripheral/gpio/cy_gpio.h **** *******************************************************************************/
 664:Generated_Source\PSoC6\pdl\drivers/peripheral/gpio/cy_gpio.h **** __STATIC_INLINE GPIO_PRT_Type* Cy_GPIO_PortToAddr(uint32_t portNum)
 665:Generated_Source\PSoC6\pdl\drivers/peripheral/gpio/cy_gpio.h **** {
 666:Generated_Source\PSoC6\pdl\drivers/peripheral/gpio/cy_gpio.h ****     GPIO_PRT_Type* base;
 667:Generated_Source\PSoC6\pdl\drivers/peripheral/gpio/cy_gpio.h ****     
 668:Generated_Source\PSoC6\pdl\drivers/peripheral/gpio/cy_gpio.h ****     if(portNum < (uint32_t)IOSS_GPIO_GPIO_PORT_NR)
 669:Generated_Source\PSoC6\pdl\drivers/peripheral/gpio/cy_gpio.h ****     {
 670:Generated_Source\PSoC6\pdl\drivers/peripheral/gpio/cy_gpio.h ****          base = (GPIO_PRT_Type *)(GPIO_BASE + (GPIO_PRT_SECTION_SIZE * portNum));
 671:Generated_Source\PSoC6\pdl\drivers/peripheral/gpio/cy_gpio.h ****     }
 672:Generated_Source\PSoC6\pdl\drivers/peripheral/gpio/cy_gpio.h ****     else
 673:Generated_Source\PSoC6\pdl\drivers/peripheral/gpio/cy_gpio.h ****     {
 674:Generated_Source\PSoC6\pdl\drivers/peripheral/gpio/cy_gpio.h ****         /* Error: Return default base address */
 675:Generated_Source\PSoC6\pdl\drivers/peripheral/gpio/cy_gpio.h ****         base = (GPIO_PRT_Type *)(GPIO_BASE);
 676:Generated_Source\PSoC6\pdl\drivers/peripheral/gpio/cy_gpio.h ****     }
 677:Generated_Source\PSoC6\pdl\drivers/peripheral/gpio/cy_gpio.h **** 
 678:Generated_Source\PSoC6\pdl\drivers/peripheral/gpio/cy_gpio.h ****     return (base);
 679:Generated_Source\PSoC6\pdl\drivers/peripheral/gpio/cy_gpio.h **** }
 680:Generated_Source\PSoC6\pdl\drivers/peripheral/gpio/cy_gpio.h **** 
 681:Generated_Source\PSoC6\pdl\drivers/peripheral/gpio/cy_gpio.h **** /** \} group_gpio_functions_init */
 682:Generated_Source\PSoC6\pdl\drivers/peripheral/gpio/cy_gpio.h **** 
 683:Generated_Source\PSoC6\pdl\drivers/peripheral/gpio/cy_gpio.h **** /**
 684:Generated_Source\PSoC6\pdl\drivers/peripheral/gpio/cy_gpio.h **** * \addtogroup group_gpio_functions_gpio
 685:Generated_Source\PSoC6\pdl\drivers/peripheral/gpio/cy_gpio.h **** * \{
 686:Generated_Source\PSoC6\pdl\drivers/peripheral/gpio/cy_gpio.h **** */
 687:Generated_Source\PSoC6\pdl\drivers/peripheral/gpio/cy_gpio.h **** 
 688:Generated_Source\PSoC6\pdl\drivers/peripheral/gpio/cy_gpio.h **** /*******************************************************************************
 689:Generated_Source\PSoC6\pdl\drivers/peripheral/gpio/cy_gpio.h **** * Function Name: Cy_GPIO_Read
 690:Generated_Source\PSoC6\pdl\drivers/peripheral/gpio/cy_gpio.h **** ****************************************************************************//**
 691:Generated_Source\PSoC6\pdl\drivers/peripheral/gpio/cy_gpio.h **** *
 692:Generated_Source\PSoC6\pdl\drivers/peripheral/gpio/cy_gpio.h **** * \brief Reads the current logic level on the input buffer of the pin.
 693:Generated_Source\PSoC6\pdl\drivers/peripheral/gpio/cy_gpio.h **** *
 694:Generated_Source\PSoC6\pdl\drivers/peripheral/gpio/cy_gpio.h **** * \param base
 695:Generated_Source\PSoC6\pdl\drivers/peripheral/gpio/cy_gpio.h **** * Pointer to the pin's port register base address
 696:Generated_Source\PSoC6\pdl\drivers/peripheral/gpio/cy_gpio.h **** *
 697:Generated_Source\PSoC6\pdl\drivers/peripheral/gpio/cy_gpio.h **** * \param pinNum
 698:Generated_Source\PSoC6\pdl\drivers/peripheral/gpio/cy_gpio.h **** * Position of the pin bit-field within the port register.
 699:Generated_Source\PSoC6\pdl\drivers/peripheral/gpio/cy_gpio.h **** * Bit position 8 is the routed pin through the port glitch filter.
 700:Generated_Source\PSoC6\pdl\drivers/peripheral/gpio/cy_gpio.h **** *
 701:Generated_Source\PSoC6\pdl\drivers/peripheral/gpio/cy_gpio.h **** * \return
 702:Generated_Source\PSoC6\pdl\drivers/peripheral/gpio/cy_gpio.h **** * Logic level present on the pin
ARM GAS  C:\Users\rober\AppData\Local\Temp\ccAa3myu.s 			page 14


 703:Generated_Source\PSoC6\pdl\drivers/peripheral/gpio/cy_gpio.h **** *
 704:Generated_Source\PSoC6\pdl\drivers/peripheral/gpio/cy_gpio.h **** * \funcusage
 705:Generated_Source\PSoC6\pdl\drivers/peripheral/gpio/cy_gpio.h **** * \snippet gpio/gpio_v1_10_sut_01.cydsn/main_cm4.c snippet_Cy_GPIO_Read
 706:Generated_Source\PSoC6\pdl\drivers/peripheral/gpio/cy_gpio.h **** *
 707:Generated_Source\PSoC6\pdl\drivers/peripheral/gpio/cy_gpio.h **** *******************************************************************************/
 708:Generated_Source\PSoC6\pdl\drivers/peripheral/gpio/cy_gpio.h **** __STATIC_INLINE uint32_t Cy_GPIO_Read(GPIO_PRT_Type* base, uint32_t pinNum)
 709:Generated_Source\PSoC6\pdl\drivers/peripheral/gpio/cy_gpio.h **** {
 710:Generated_Source\PSoC6\pdl\drivers/peripheral/gpio/cy_gpio.h ****     CY_ASSERT_L2(CY_GPIO_IS_FILTER_PIN_VALID(pinNum));
 711:Generated_Source\PSoC6\pdl\drivers/peripheral/gpio/cy_gpio.h ****     
 712:Generated_Source\PSoC6\pdl\drivers/peripheral/gpio/cy_gpio.h ****     return (base->IN >> (pinNum)) & CY_GPIO_IN_MASK;
 713:Generated_Source\PSoC6\pdl\drivers/peripheral/gpio/cy_gpio.h **** }
 714:Generated_Source\PSoC6\pdl\drivers/peripheral/gpio/cy_gpio.h **** 
 715:Generated_Source\PSoC6\pdl\drivers/peripheral/gpio/cy_gpio.h **** 
 716:Generated_Source\PSoC6\pdl\drivers/peripheral/gpio/cy_gpio.h **** /*******************************************************************************
 717:Generated_Source\PSoC6\pdl\drivers/peripheral/gpio/cy_gpio.h **** * Function Name: Cy_GPIO_Write
 718:Generated_Source\PSoC6\pdl\drivers/peripheral/gpio/cy_gpio.h **** ****************************************************************************//**
 719:Generated_Source\PSoC6\pdl\drivers/peripheral/gpio/cy_gpio.h **** *
 720:Generated_Source\PSoC6\pdl\drivers/peripheral/gpio/cy_gpio.h **** * \brief Write a logic 0 or logic 1 state to the output driver.
 721:Generated_Source\PSoC6\pdl\drivers/peripheral/gpio/cy_gpio.h **** *
 722:Generated_Source\PSoC6\pdl\drivers/peripheral/gpio/cy_gpio.h **** * This function should be used only for software driven pins. It does not have
 723:Generated_Source\PSoC6\pdl\drivers/peripheral/gpio/cy_gpio.h **** * any effect on peripheral driven pins.
 724:Generated_Source\PSoC6\pdl\drivers/peripheral/gpio/cy_gpio.h **** *
 725:Generated_Source\PSoC6\pdl\drivers/peripheral/gpio/cy_gpio.h **** * \param base
 726:Generated_Source\PSoC6\pdl\drivers/peripheral/gpio/cy_gpio.h **** * Pointer to the pin's port register base address
 727:Generated_Source\PSoC6\pdl\drivers/peripheral/gpio/cy_gpio.h **** *
 728:Generated_Source\PSoC6\pdl\drivers/peripheral/gpio/cy_gpio.h **** * \param pinNum
 729:Generated_Source\PSoC6\pdl\drivers/peripheral/gpio/cy_gpio.h **** * Position of the pin bit-field within the port register
 730:Generated_Source\PSoC6\pdl\drivers/peripheral/gpio/cy_gpio.h **** *
 731:Generated_Source\PSoC6\pdl\drivers/peripheral/gpio/cy_gpio.h **** * \param value
 732:Generated_Source\PSoC6\pdl\drivers/peripheral/gpio/cy_gpio.h **** * Logic level to drive out on the pin
 733:Generated_Source\PSoC6\pdl\drivers/peripheral/gpio/cy_gpio.h **** *
 734:Generated_Source\PSoC6\pdl\drivers/peripheral/gpio/cy_gpio.h **** * \return
 735:Generated_Source\PSoC6\pdl\drivers/peripheral/gpio/cy_gpio.h **** * void
 736:Generated_Source\PSoC6\pdl\drivers/peripheral/gpio/cy_gpio.h **** *
 737:Generated_Source\PSoC6\pdl\drivers/peripheral/gpio/cy_gpio.h **** * \funcusage
 738:Generated_Source\PSoC6\pdl\drivers/peripheral/gpio/cy_gpio.h **** * \snippet gpio/gpio_v1_10_sut_01.cydsn/main_cm4.c snippet_Cy_GPIO_Write
 739:Generated_Source\PSoC6\pdl\drivers/peripheral/gpio/cy_gpio.h **** *
 740:Generated_Source\PSoC6\pdl\drivers/peripheral/gpio/cy_gpio.h **** *******************************************************************************/
 741:Generated_Source\PSoC6\pdl\drivers/peripheral/gpio/cy_gpio.h **** __STATIC_INLINE void Cy_GPIO_Write(GPIO_PRT_Type* base, uint32_t pinNum, uint32_t value)
 742:Generated_Source\PSoC6\pdl\drivers/peripheral/gpio/cy_gpio.h **** {
  33              		.loc 1 742 0
  34              		.cfi_startproc
  35              		@ args = 0, pretend = 0, frame = 16
  36              		@ frame_needed = 1, uses_anonymous_args = 0
  37 0000 80B5     		push	{r7, lr}
  38              		.cfi_def_cfa_offset 8
  39              		.cfi_offset 7, -8
  40              		.cfi_offset 14, -4
  41 0002 84B0     		sub	sp, sp, #16
  42              		.cfi_def_cfa_offset 24
  43 0004 00AF     		add	r7, sp, #0
  44              		.cfi_def_cfa_register 7
  45 0006 F860     		str	r0, [r7, #12]
  46 0008 B960     		str	r1, [r7, #8]
  47 000a 7A60     		str	r2, [r7, #4]
 743:Generated_Source\PSoC6\pdl\drivers/peripheral/gpio/cy_gpio.h ****     CY_ASSERT_L2(CY_GPIO_IS_PIN_VALID(pinNum));
  48              		.loc 1 743 0
ARM GAS  C:\Users\rober\AppData\Local\Temp\ccAa3myu.s 			page 15


  49 000c BB68     		ldr	r3, [r7, #8]
  50 000e 072B     		cmp	r3, #7
  51 0010 04D9     		bls	.L2
  52              		.loc 1 743 0 is_stmt 0 discriminator 1
  53 0012 40F2E721 		movw	r1, #743
  54 0016 0E48     		ldr	r0, .L7
  55 0018 FFF7FEFF 		bl	Cy_SysLib_AssertFailed
  56              	.L2:
 744:Generated_Source\PSoC6\pdl\drivers/peripheral/gpio/cy_gpio.h ****     CY_ASSERT_L2(CY_GPIO_IS_VALUE_VALID(value));
  57              		.loc 1 744 0 is_stmt 1
  58 001c 7B68     		ldr	r3, [r7, #4]
  59 001e 012B     		cmp	r3, #1
  60 0020 04D9     		bls	.L3
  61              		.loc 1 744 0 is_stmt 0 discriminator 1
  62 0022 4FF43A71 		mov	r1, #744
  63 0026 0A48     		ldr	r0, .L7
  64 0028 FFF7FEFF 		bl	Cy_SysLib_AssertFailed
  65              	.L3:
 745:Generated_Source\PSoC6\pdl\drivers/peripheral/gpio/cy_gpio.h **** 
 746:Generated_Source\PSoC6\pdl\drivers/peripheral/gpio/cy_gpio.h ****     /* Thread-safe: Directly access the pin registers instead of base->OUT */
 747:Generated_Source\PSoC6\pdl\drivers/peripheral/gpio/cy_gpio.h ****     if(0UL == value)
  66              		.loc 1 747 0 is_stmt 1
  67 002c 7B68     		ldr	r3, [r7, #4]
  68 002e 002B     		cmp	r3, #0
  69 0030 05D1     		bne	.L4
 748:Generated_Source\PSoC6\pdl\drivers/peripheral/gpio/cy_gpio.h ****     {
 749:Generated_Source\PSoC6\pdl\drivers/peripheral/gpio/cy_gpio.h ****         base->OUT_CLR = CY_GPIO_OUT_MASK << pinNum;
  70              		.loc 1 749 0
  71 0032 0122     		movs	r2, #1
  72 0034 BB68     		ldr	r3, [r7, #8]
  73 0036 9A40     		lsls	r2, r2, r3
  74 0038 FB68     		ldr	r3, [r7, #12]
  75 003a 5A60     		str	r2, [r3, #4]
 750:Generated_Source\PSoC6\pdl\drivers/peripheral/gpio/cy_gpio.h ****     }
 751:Generated_Source\PSoC6\pdl\drivers/peripheral/gpio/cy_gpio.h ****     else
 752:Generated_Source\PSoC6\pdl\drivers/peripheral/gpio/cy_gpio.h ****     {
 753:Generated_Source\PSoC6\pdl\drivers/peripheral/gpio/cy_gpio.h ****         base->OUT_SET = CY_GPIO_OUT_MASK << pinNum;
 754:Generated_Source\PSoC6\pdl\drivers/peripheral/gpio/cy_gpio.h ****     }
 755:Generated_Source\PSoC6\pdl\drivers/peripheral/gpio/cy_gpio.h **** }
  76              		.loc 1 755 0
  77 003c 04E0     		b	.L6
  78              	.L4:
 753:Generated_Source\PSoC6\pdl\drivers/peripheral/gpio/cy_gpio.h ****     }
  79              		.loc 1 753 0
  80 003e 0122     		movs	r2, #1
  81 0040 BB68     		ldr	r3, [r7, #8]
  82 0042 9A40     		lsls	r2, r2, r3
  83 0044 FB68     		ldr	r3, [r7, #12]
  84 0046 9A60     		str	r2, [r3, #8]
  85              	.L6:
  86              		.loc 1 755 0
  87 0048 00BF     		nop
  88 004a 1037     		adds	r7, r7, #16
  89              		.cfi_def_cfa_offset 8
  90 004c BD46     		mov	sp, r7
  91              		.cfi_def_cfa_register 13
  92              		@ sp needed
ARM GAS  C:\Users\rober\AppData\Local\Temp\ccAa3myu.s 			page 16


  93 004e 80BD     		pop	{r7, pc}
  94              	.L8:
  95              		.align	2
  96              	.L7:
  97 0050 00000000 		.word	.LC0
  98              		.cfi_endproc
  99              	.LFE405:
 100              		.size	Cy_GPIO_Write, .-Cy_GPIO_Write
 101              		.comm	bulkDriverPacket,19536,4
 102              		.bss
 103              		.align	2
 104              	driverPacket:
 105 0000 00000000 		.space	111
 105      00000000 
 105      00000000 
 105      00000000 
 105      00000000 
 106              		.global	scanTable
 107              		.section	.rodata
 108 003d 000000   		.align	2
 109              		.type	scanTable, %object
 110              		.size	scanTable, 4
 111              	scanTable:
 112 0040 C0       		.byte	-64
 113 0041 30       		.byte	48
 114 0042 0C       		.byte	12
 115 0043 03       		.byte	3
 116              		.global	channelSelect
 117              		.align	2
 118              		.type	channelSelect, %object
 119              		.size	channelSelect, 8
 120              	channelSelect:
 121 0044 00       		.byte	0
 122 0045 00       		.byte	0
 123 0046 00       		.byte	0
 124 0047 7F       		.byte	127
 125 0048 FF       		.byte	-1
 126 0049 FE       		.byte	-2
 127 004a 00       		.byte	0
 128 004b 00       		.byte	0
 129              		.bss
 130 006f 00       		.align	1
 131              	fullUpdateTime:
 132 0070 0000     		.space	2
 133              		.align	1
 134              	partialUpdateTime:
 135 0072 0000     		.space	2
 136              		.align	2
 137              	dataLineEven:
 138 0074 00000000 		.space	4
 139              		.align	2
 140              	dataLineOdd:
 141 0078 00000000 		.space	4
 142              		.align	2
 143              	dataLineScan:
 144 007c 00000000 		.space	4
 145              		.section	.text.Pv_EINK_SendData,"ax",%progbits
ARM GAS  C:\Users\rober\AppData\Local\Temp\ccAa3myu.s 			page 17


 146              		.align	2
 147              		.global	Pv_EINK_SendData
 148              		.thumb
 149              		.thumb_func
 150              		.type	Pv_EINK_SendData, %function
 151              	Pv_EINK_SendData:
 152              	.LFB603:
 153              		.file 2 "eInk Library\\pervasive_eink_hardware_driver.c"
   1:eInk Library/pervasive_eink_hardware_driver.c **** /*******************************************************************************
   2:eInk Library/pervasive_eink_hardware_driver.c **** * Copyright (2017), Pervasive Displays Inc.
   3:eInk Library/pervasive_eink_hardware_driver.c **** *******************************************************************************
   4:eInk Library/pervasive_eink_hardware_driver.c **** *
   5:eInk Library/pervasive_eink_hardware_driver.c **** *  Authors: Pervasive Displays Inc.
   6:eInk Library/pervasive_eink_hardware_driver.c **** *
   7:eInk Library/pervasive_eink_hardware_driver.c **** *  Redistribution and use in source and binary forms, with or without
   8:eInk Library/pervasive_eink_hardware_driver.c **** *  modification, are permitted provided that the following conditions
   9:eInk Library/pervasive_eink_hardware_driver.c **** *  are met:
  10:eInk Library/pervasive_eink_hardware_driver.c **** *
  11:eInk Library/pervasive_eink_hardware_driver.c **** *  1. Redistributions of source code must retain the above copyright
  12:eInk Library/pervasive_eink_hardware_driver.c **** *     notice, this list of conditions and the following disclaimer.
  13:eInk Library/pervasive_eink_hardware_driver.c **** *  2. Redistributions in binary form must reproduce the above copyright
  14:eInk Library/pervasive_eink_hardware_driver.c **** *     notice, this list of conditions and the following disclaimer in
  15:eInk Library/pervasive_eink_hardware_driver.c **** *     the documentation and/or other materials provided with the
  16:eInk Library/pervasive_eink_hardware_driver.c **** *     distribution.
  17:eInk Library/pervasive_eink_hardware_driver.c **** *
  18:eInk Library/pervasive_eink_hardware_driver.c **** *  THIS SOFTWARE IS PROVIDED BY THE COPYRIGHT HOLDERS AND CONTRIBUTORS
  19:eInk Library/pervasive_eink_hardware_driver.c **** *  "AS IS" AND ANY EXPRESS OR IMPLIED WARRANTIES, INCLUDING, BUT NOT
  20:eInk Library/pervasive_eink_hardware_driver.c **** *  LIMITED TO, THE IMPLIED WARRANTIES OF MERCHANTABILITY AND FITNESS FOR
  21:eInk Library/pervasive_eink_hardware_driver.c **** *  A PARTICULAR PURPOSE ARE DISCLAIMED. IN NO EVENT SHALL THE COPYRIGHT
  22:eInk Library/pervasive_eink_hardware_driver.c **** *  OWNER OR CONTRIBUTORS BE LIABLE FOR ANY DIRECT, INDIRECT, INCIDENTAL,
  23:eInk Library/pervasive_eink_hardware_driver.c **** *  SPECIAL, EXEMPLARY, OR CONSEQUENTIAL DAMAGES (INCLUDING, BUT NOT
  24:eInk Library/pervasive_eink_hardware_driver.c **** *  LIMITED TO, PROCUREMENT OF SUBSTITUTE GOODS OR SERVICES; LOSS OF USE,
  25:eInk Library/pervasive_eink_hardware_driver.c **** *  DATA, OR PROFITS; OR BUSINESS INTERRUPTION) HOWEVER CAUSED AND ON ANY
  26:eInk Library/pervasive_eink_hardware_driver.c **** *  THEORY OF LIABILITY, WHETHER IN CONTRACT, STRICT LIABILITY, OR TORT
  27:eInk Library/pervasive_eink_hardware_driver.c **** *  (INCLUDING NEGLIGENCE OR OTHERWISE) ARISING IN ANY WAY OUT OF THE USE
  28:eInk Library/pervasive_eink_hardware_driver.c **** *  OF THIS SOFTWARE, EVEN IF ADVISED OF THE POSSIBILITY OF SUCH DAMAGE.
  29:eInk Library/pervasive_eink_hardware_driver.c **** *******************************************************************************/
  30:eInk Library/pervasive_eink_hardware_driver.c **** /******************************************************************************
  31:eInk Library/pervasive_eink_hardware_driver.c **** * For the details of E-INK display hardware and driver, see the 2.7 inch display
  32:eInk Library/pervasive_eink_hardware_driver.c **** * product specification and G2 COG driver interface documents available at the
  33:eInk Library/pervasive_eink_hardware_driver.c **** * following location:
  34:eInk Library/pervasive_eink_hardware_driver.c **** * http://www.pervasivedisplays.com/products/271
  35:eInk Library/pervasive_eink_hardware_driver.c **** *******************************************************************************/
  36:eInk Library/pervasive_eink_hardware_driver.c **** 
  37:eInk Library/pervasive_eink_hardware_driver.c **** /* Header file includes */
  38:eInk Library/pervasive_eink_hardware_driver.c **** #include <string.h>
  39:eInk Library/pervasive_eink_hardware_driver.c **** #include "pervasive_eink_hardware_driver.h"
  40:eInk Library/pervasive_eink_hardware_driver.c **** 
  41:eInk Library/pervasive_eink_hardware_driver.c **** #define BUFFERED_WRITE  1
  42:eInk Library/pervasive_eink_hardware_driver.c **** 
  43:eInk Library/pervasive_eink_hardware_driver.c **** /* Macro for the dummy byte used in the line data */
  44:eInk Library/pervasive_eink_hardware_driver.c **** #define PV_EINK_DUMMY_BYTE     (uint8_t)(0x00u)
  45:eInk Library/pervasive_eink_hardware_driver.c **** 
  46:eInk Library/pervasive_eink_hardware_driver.c **** /* Data used to initialize the scan bytes */
  47:eInk Library/pervasive_eink_hardware_driver.c **** #define PV_EINK_SCAN_BYTE_INIT (uint8_t)(0x00u)
  48:eInk Library/pervasive_eink_hardware_driver.c **** 
  49:eInk Library/pervasive_eink_hardware_driver.c **** /* Line data structure of 2.7" display. Refer to driver document Section 5.1 
ARM GAS  C:\Users\rober\AppData\Local\Temp\ccAa3myu.s 			page 18


  50:eInk Library/pervasive_eink_hardware_driver.c ****    for details */
  51:eInk Library/pervasive_eink_hardware_driver.c **** struct eink_lineData
  52:eInk Library/pervasive_eink_hardware_driver.c **** {
  53:eInk Library/pervasive_eink_hardware_driver.c ****     /*  Dummy byte (0x00) */
  54:eInk Library/pervasive_eink_hardware_driver.c ****     uint8_t dummyData;
  55:eInk Library/pervasive_eink_hardware_driver.c **** 
  56:eInk Library/pervasive_eink_hardware_driver.c ****     /*  2.7" even byte array */
  57:eInk Library/pervasive_eink_hardware_driver.c ****     uint8_t even[PV_EINK_HORIZONTAL_SIZE];
  58:eInk Library/pervasive_eink_hardware_driver.c **** 
  59:eInk Library/pervasive_eink_hardware_driver.c ****     /*  2.7" scan byte array */
  60:eInk Library/pervasive_eink_hardware_driver.c ****     uint8_t scan[PV_EINK_SCAN_LINE_SIZE];
  61:eInk Library/pervasive_eink_hardware_driver.c **** 
  62:eInk Library/pervasive_eink_hardware_driver.c ****     /*  2.7" odd byte array */
  63:eInk Library/pervasive_eink_hardware_driver.c ****     uint8_t odd[PV_EINK_HORIZONTAL_SIZE];
  64:eInk Library/pervasive_eink_hardware_driver.c **** };
  65:eInk Library/pervasive_eink_hardware_driver.c **** 
  66:eInk Library/pervasive_eink_hardware_driver.c **** /* Packet structure of a line data */
  67:eInk Library/pervasive_eink_hardware_driver.c **** typedef union
  68:eInk Library/pervasive_eink_hardware_driver.c **** {
  69:eInk Library/pervasive_eink_hardware_driver.c ****     /* Line data structure of 2.7" E-INK display */
  70:eInk Library/pervasive_eink_hardware_driver.c ****     struct eink_lineData    lineDataBySize;
  71:eInk Library/pervasive_eink_hardware_driver.c **** 
  72:eInk Library/pervasive_eink_hardware_driver.c ****     /* Line buffer equal to the data line size */
  73:eInk Library/pervasive_eink_hardware_driver.c ****     uint8_t                 lineBuffer[PV_EINK_DATA_LINE_SIZE];
  74:eInk Library/pervasive_eink_hardware_driver.c **** 
  75:eInk Library/pervasive_eink_hardware_driver.c ****     /* The maximum line buffer data size as length */
  76:eInk Library/pervasive_eink_hardware_driver.c **** }   driver_data_packet_t;
  77:eInk Library/pervasive_eink_hardware_driver.c **** 
  78:eInk Library/pervasive_eink_hardware_driver.c **** /* Variable that stores the packets for one full drive frame. This variable
  79:eInk Library/pervasive_eink_hardware_driver.c ****    is used for full and partial updates */
  80:eInk Library/pervasive_eink_hardware_driver.c **** driver_data_packet_t  bulkDriverPacket[PV_EINK_VERTICAL_SIZE];
  81:eInk Library/pervasive_eink_hardware_driver.c **** 
  82:eInk Library/pervasive_eink_hardware_driver.c **** /* Variable that stores a single line data. This variable is used to prepare 
  83:eInk Library/pervasive_eink_hardware_driver.c ****    dummy frames */
  84:eInk Library/pervasive_eink_hardware_driver.c **** driver_data_packet_t  static driverPacket;
  85:eInk Library/pervasive_eink_hardware_driver.c **** 
  86:eInk Library/pervasive_eink_hardware_driver.c **** /* Scan table for the four stages of display update*/
  87:eInk Library/pervasive_eink_hardware_driver.c **** uint8_t const               scanTable[PV_EINK_SCAN_TABLE_SIZE] =
  88:eInk Library/pervasive_eink_hardware_driver.c ****                             PV_EINK_SCAN_TABLE_DATA;
  89:eInk Library/pervasive_eink_hardware_driver.c **** 
  90:eInk Library/pervasive_eink_hardware_driver.c **** /* The SPI register addresses for Channel Select */
  91:eInk Library/pervasive_eink_hardware_driver.c **** uint8_t const               channelSelect[PV_EINK_CHANNEL_SEL_SIZE] =
  92:eInk Library/pervasive_eink_hardware_driver.c ****                             PV_EINK_CHANNEL_SEL_DATA;
  93:eInk Library/pervasive_eink_hardware_driver.c **** 
  94:eInk Library/pervasive_eink_hardware_driver.c **** /* Variables that store the driver timing information */
  95:eInk Library/pervasive_eink_hardware_driver.c **** uint16_t static             fullUpdateTime;
  96:eInk Library/pervasive_eink_hardware_driver.c **** uint16_t static             partialUpdateTime;
  97:eInk Library/pervasive_eink_hardware_driver.c **** 
  98:eInk Library/pervasive_eink_hardware_driver.c **** /* Pointers for the data structures used by the driver */
  99:eInk Library/pervasive_eink_hardware_driver.c **** uint8_t static*             dataLineEven;
 100:eInk Library/pervasive_eink_hardware_driver.c **** uint8_t static*             dataLineOdd;
 101:eInk Library/pervasive_eink_hardware_driver.c **** uint8_t static*             dataLineScan;
 102:eInk Library/pervasive_eink_hardware_driver.c **** 
 103:eInk Library/pervasive_eink_hardware_driver.c **** /*******************************************************************************
 104:eInk Library/pervasive_eink_hardware_driver.c **** * Function Name: void Pv_EINK_SendData(uint8_t regAddr, uint8_t* data, 
 105:eInk Library/pervasive_eink_hardware_driver.c **** *                                   uint16_t dataLength)
 106:eInk Library/pervasive_eink_hardware_driver.c **** ********************************************************************************
ARM GAS  C:\Users\rober\AppData\Local\Temp\ccAa3myu.s 			page 19


 107:eInk Library/pervasive_eink_hardware_driver.c **** *
 108:eInk Library/pervasive_eink_hardware_driver.c **** * Summary: Sends an array of data to the E-INK driver.
 109:eInk Library/pervasive_eink_hardware_driver.c **** *
 110:eInk Library/pervasive_eink_hardware_driver.c **** * Parameters:
 111:eInk Library/pervasive_eink_hardware_driver.c **** *  uint8_t regAddr    : Display driver register address
 112:eInk Library/pervasive_eink_hardware_driver.c **** *  uint8_t* data      : Pointer to the data array that will be sent to the driver
 113:eInk Library/pervasive_eink_hardware_driver.c **** *  uint16_t dataLength: Length of the data array
 114:eInk Library/pervasive_eink_hardware_driver.c **** *
 115:eInk Library/pervasive_eink_hardware_driver.c **** * Return:
 116:eInk Library/pervasive_eink_hardware_driver.c **** *  None
 117:eInk Library/pervasive_eink_hardware_driver.c **** *
 118:eInk Library/pervasive_eink_hardware_driver.c **** * Side Effects:
 119:eInk Library/pervasive_eink_hardware_driver.c **** *  None
 120:eInk Library/pervasive_eink_hardware_driver.c **** *******************************************************************************/
 121:eInk Library/pervasive_eink_hardware_driver.c **** void Pv_EINK_SendData(uint8_t regAddr, uint8_t* data, uint16_t dataLength)
 122:eInk Library/pervasive_eink_hardware_driver.c **** {
 154              		.loc 2 122 0
 155              		.cfi_startproc
 156              		@ args = 0, pretend = 0, frame = 8
 157              		@ frame_needed = 1, uses_anonymous_args = 0
 158 0000 80B5     		push	{r7, lr}
 159              		.cfi_def_cfa_offset 8
 160              		.cfi_offset 7, -8
 161              		.cfi_offset 14, -4
 162 0002 82B0     		sub	sp, sp, #8
 163              		.cfi_def_cfa_offset 16
 164 0004 00AF     		add	r7, sp, #0
 165              		.cfi_def_cfa_register 7
 166 0006 0346     		mov	r3, r0
 167 0008 3960     		str	r1, [r7]
 168 000a FB71     		strb	r3, [r7, #7]
 169 000c 1346     		mov	r3, r2	@ movhi
 170 000e BB80     		strh	r3, [r7, #4]	@ movhi
 123:eInk Library/pervasive_eink_hardware_driver.c ****     /* Pull the chip select line LOW to begin communication */
 124:eInk Library/pervasive_eink_hardware_driver.c ****     CY_EINK_CsLow;
 171              		.loc 2 124 0
 172 0010 0022     		movs	r2, #0
 173 0012 0321     		movs	r1, #3
 174 0014 1248     		ldr	r0, .L10
 175 0016 FFF7FEFF 		bl	Cy_GPIO_Write
 125:eInk Library/pervasive_eink_hardware_driver.c ****     /* Send the header of register address index */
 126:eInk Library/pervasive_eink_hardware_driver.c ****     Cy_EINK_WriteSPI(PV_EINK_REG_INDEX_HEADER);
 176              		.loc 2 126 0
 177 001a 7020     		movs	r0, #112
 178 001c FFF7FEFF 		bl	Cy_EINK_WriteSPI
 127:eInk Library/pervasive_eink_hardware_driver.c ****     /* Send the register address */
 128:eInk Library/pervasive_eink_hardware_driver.c ****     Cy_EINK_WriteSPI(regAddr);
 179              		.loc 2 128 0
 180 0020 FB79     		ldrb	r3, [r7, #7]	@ zero_extendqisi2
 181 0022 1846     		mov	r0, r3
 182 0024 FFF7FEFF 		bl	Cy_EINK_WriteSPI
 129:eInk Library/pervasive_eink_hardware_driver.c ****     /* Push the chip select line HIGH to end communication */
 130:eInk Library/pervasive_eink_hardware_driver.c ****     CY_EINK_CsHigh;
 183              		.loc 2 130 0
 184 0028 0122     		movs	r2, #1
 185 002a 0321     		movs	r1, #3
 186 002c 0C48     		ldr	r0, .L10
ARM GAS  C:\Users\rober\AppData\Local\Temp\ccAa3myu.s 			page 20


 187 002e FFF7FEFF 		bl	Cy_GPIO_Write
 131:eInk Library/pervasive_eink_hardware_driver.c ****     
 132:eInk Library/pervasive_eink_hardware_driver.c ****     /* Wait for 10uS before the next transmission */
 133:eInk Library/pervasive_eink_hardware_driver.c ****     CY_EINK_Wait10uS;
 134:eInk Library/pervasive_eink_hardware_driver.c ****     
 135:eInk Library/pervasive_eink_hardware_driver.c ****     /* Pull the chip select line LOW to begin communication */
 136:eInk Library/pervasive_eink_hardware_driver.c ****     CY_EINK_CsLow;
 188              		.loc 2 136 0
 189 0032 0022     		movs	r2, #0
 190 0034 0321     		movs	r1, #3
 191 0036 0A48     		ldr	r0, .L10
 192 0038 FFF7FEFF 		bl	Cy_GPIO_Write
 137:eInk Library/pervasive_eink_hardware_driver.c ****     
 138:eInk Library/pervasive_eink_hardware_driver.c ****     /* Send the header of data write index */
 139:eInk Library/pervasive_eink_hardware_driver.c ****     Cy_EINK_WriteSPI(PV_EINK_REG_DATA_WRITE);
 193              		.loc 2 139 0
 194 003c 7220     		movs	r0, #114
 195 003e FFF7FEFF 		bl	Cy_EINK_WriteSPI
 140:eInk Library/pervasive_eink_hardware_driver.c **** 
 141:eInk Library/pervasive_eink_hardware_driver.c **** #if (BUFFERED_WRITE == 1)    
 142:eInk Library/pervasive_eink_hardware_driver.c ****     Cy_EINK_WriteSPIBuffer(data, dataLength);
 196              		.loc 2 142 0
 197 0042 BB88     		ldrh	r3, [r7, #4]
 198 0044 1946     		mov	r1, r3
 199 0046 3868     		ldr	r0, [r7]
 200 0048 FFF7FEFF 		bl	Cy_EINK_WriteSPIBuffer
 143:eInk Library/pervasive_eink_hardware_driver.c **** #else    
 144:eInk Library/pervasive_eink_hardware_driver.c ****     //    /* Send the array of data */
 145:eInk Library/pervasive_eink_hardware_driver.c ****     while (dataLength--)
 146:eInk Library/pervasive_eink_hardware_driver.c ****     {
 147:eInk Library/pervasive_eink_hardware_driver.c ****         Cy_EINK_WriteSPI(*data++);
 148:eInk Library/pervasive_eink_hardware_driver.c ****     }
 149:eInk Library/pervasive_eink_hardware_driver.c **** #endif
 150:eInk Library/pervasive_eink_hardware_driver.c **** 
 151:eInk Library/pervasive_eink_hardware_driver.c ****     /* Push the chip select line HIGH to end communication */
 152:eInk Library/pervasive_eink_hardware_driver.c ****     CY_EINK_CsHigh;
 201              		.loc 2 152 0
 202 004c 0122     		movs	r2, #1
 203 004e 0321     		movs	r1, #3
 204 0050 0348     		ldr	r0, .L10
 205 0052 FFF7FEFF 		bl	Cy_GPIO_Write
 153:eInk Library/pervasive_eink_hardware_driver.c **** }
 206              		.loc 2 153 0
 207 0056 00BF     		nop
 208 0058 0837     		adds	r7, r7, #8
 209              		.cfi_def_cfa_offset 8
 210 005a BD46     		mov	sp, r7
 211              		.cfi_def_cfa_register 13
 212              		@ sp needed
 213 005c 80BD     		pop	{r7, pc}
 214              	.L11:
 215 005e 00BF     		.align	2
 216              	.L10:
 217 0060 00063240 		.word	1077020160
 218              		.cfi_endproc
 219              	.LFE603:
 220              		.size	Pv_EINK_SendData, .-Pv_EINK_SendData
ARM GAS  C:\Users\rober\AppData\Local\Temp\ccAa3myu.s 			page 21


 221              		.section	.text.Pv_EINK_SendByte,"ax",%progbits
 222              		.align	2
 223              		.global	Pv_EINK_SendByte
 224              		.thumb
 225              		.thumb_func
 226              		.type	Pv_EINK_SendByte, %function
 227              	Pv_EINK_SendByte:
 228              	.LFB604:
 154:eInk Library/pervasive_eink_hardware_driver.c **** 
 155:eInk Library/pervasive_eink_hardware_driver.c **** /*******************************************************************************
 156:eInk Library/pervasive_eink_hardware_driver.c **** * Function Name: void Pv_EINK_SendByte(uint8_t regAddr, uint8_t data)
 157:eInk Library/pervasive_eink_hardware_driver.c **** ********************************************************************************
 158:eInk Library/pervasive_eink_hardware_driver.c **** *
 159:eInk Library/pervasive_eink_hardware_driver.c **** * Summary: Sends a byte of data to the E-INK driver.
 160:eInk Library/pervasive_eink_hardware_driver.c **** *
 161:eInk Library/pervasive_eink_hardware_driver.c **** * Parameters:
 162:eInk Library/pervasive_eink_hardware_driver.c **** *  uint8_t regAddr: Display driver register address
 163:eInk Library/pervasive_eink_hardware_driver.c **** *  uint8_t data   : Data byte that will be sent to the driver
 164:eInk Library/pervasive_eink_hardware_driver.c **** *
 165:eInk Library/pervasive_eink_hardware_driver.c **** * Return:
 166:eInk Library/pervasive_eink_hardware_driver.c **** *  None
 167:eInk Library/pervasive_eink_hardware_driver.c **** *
 168:eInk Library/pervasive_eink_hardware_driver.c **** * Side Effects:
 169:eInk Library/pervasive_eink_hardware_driver.c **** *  None
 170:eInk Library/pervasive_eink_hardware_driver.c **** *******************************************************************************/
 171:eInk Library/pervasive_eink_hardware_driver.c **** void Pv_EINK_SendByte(uint8_t regAddr, uint8_t data)
 172:eInk Library/pervasive_eink_hardware_driver.c **** {
 229              		.loc 2 172 0
 230              		.cfi_startproc
 231              		@ args = 0, pretend = 0, frame = 8
 232              		@ frame_needed = 1, uses_anonymous_args = 0
 233 0000 80B5     		push	{r7, lr}
 234              		.cfi_def_cfa_offset 8
 235              		.cfi_offset 7, -8
 236              		.cfi_offset 14, -4
 237 0002 82B0     		sub	sp, sp, #8
 238              		.cfi_def_cfa_offset 16
 239 0004 00AF     		add	r7, sp, #0
 240              		.cfi_def_cfa_register 7
 241 0006 0346     		mov	r3, r0
 242 0008 0A46     		mov	r2, r1
 243 000a FB71     		strb	r3, [r7, #7]
 244 000c 1346     		mov	r3, r2
 245 000e BB71     		strb	r3, [r7, #6]
 173:eInk Library/pervasive_eink_hardware_driver.c ****     /* Send a single byte of data */
 174:eInk Library/pervasive_eink_hardware_driver.c ****     Pv_EINK_SendData(regAddr, &data, CY_EINK_SINGLE_BYTE);
 246              		.loc 2 174 0
 247 0010 B91D     		adds	r1, r7, #6
 248 0012 FB79     		ldrb	r3, [r7, #7]	@ zero_extendqisi2
 249 0014 0122     		movs	r2, #1
 250 0016 1846     		mov	r0, r3
 251 0018 FFF7FEFF 		bl	Pv_EINK_SendData
 175:eInk Library/pervasive_eink_hardware_driver.c **** }
 252              		.loc 2 175 0
 253 001c 00BF     		nop
 254 001e 0837     		adds	r7, r7, #8
 255              		.cfi_def_cfa_offset 8
ARM GAS  C:\Users\rober\AppData\Local\Temp\ccAa3myu.s 			page 22


 256 0020 BD46     		mov	sp, r7
 257              		.cfi_def_cfa_register 13
 258              		@ sp needed
 259 0022 80BD     		pop	{r7, pc}
 260              		.cfi_endproc
 261              	.LFE604:
 262              		.size	Pv_EINK_SendByte, .-Pv_EINK_SendByte
 263              		.section	.text.Pv_EINK_ReadByte,"ax",%progbits
 264              		.align	2
 265              		.global	Pv_EINK_ReadByte
 266              		.thumb
 267              		.thumb_func
 268              		.type	Pv_EINK_ReadByte, %function
 269              	Pv_EINK_ReadByte:
 270              	.LFB605:
 176:eInk Library/pervasive_eink_hardware_driver.c **** 
 177:eInk Library/pervasive_eink_hardware_driver.c **** /*******************************************************************************
 178:eInk Library/pervasive_eink_hardware_driver.c **** * Function Name: uint8_t Pv_EINK_ReadByte(uint8_t regAddr, uint8_t data)
 179:eInk Library/pervasive_eink_hardware_driver.c **** ********************************************************************************
 180:eInk Library/pervasive_eink_hardware_driver.c **** *
 181:eInk Library/pervasive_eink_hardware_driver.c **** * Summary: Sends a read command to the E-INK driver and receives a byte of data
 182:eInk Library/pervasive_eink_hardware_driver.c **** *  from the driver.
 183:eInk Library/pervasive_eink_hardware_driver.c **** *
 184:eInk Library/pervasive_eink_hardware_driver.c **** * Parameters:
 185:eInk Library/pervasive_eink_hardware_driver.c **** *  uint8_t regAddr: Display driver register address
 186:eInk Library/pervasive_eink_hardware_driver.c **** *  uint8_t data   : Data command that will be sent to the driver
 187:eInk Library/pervasive_eink_hardware_driver.c **** *
 188:eInk Library/pervasive_eink_hardware_driver.c **** * Return:
 189:eInk Library/pervasive_eink_hardware_driver.c **** *  uint8_t :  Data received from the display driver
 190:eInk Library/pervasive_eink_hardware_driver.c **** *
 191:eInk Library/pervasive_eink_hardware_driver.c **** * Side Effects:
 192:eInk Library/pervasive_eink_hardware_driver.c **** *  None
 193:eInk Library/pervasive_eink_hardware_driver.c **** *******************************************************************************/
 194:eInk Library/pervasive_eink_hardware_driver.c **** uint8_t Pv_EINK_ReadByte(uint8_t regAddr, uint8_t data)
 195:eInk Library/pervasive_eink_hardware_driver.c **** {
 271              		.loc 2 195 0
 272              		.cfi_startproc
 273              		@ args = 0, pretend = 0, frame = 16
 274              		@ frame_needed = 1, uses_anonymous_args = 0
 275 0000 80B5     		push	{r7, lr}
 276              		.cfi_def_cfa_offset 8
 277              		.cfi_offset 7, -8
 278              		.cfi_offset 14, -4
 279 0002 84B0     		sub	sp, sp, #16
 280              		.cfi_def_cfa_offset 24
 281 0004 00AF     		add	r7, sp, #0
 282              		.cfi_def_cfa_register 7
 283 0006 0346     		mov	r3, r0
 284 0008 0A46     		mov	r2, r1
 285 000a FB71     		strb	r3, [r7, #7]
 286 000c 1346     		mov	r3, r2
 287 000e BB71     		strb	r3, [r7, #6]
 196:eInk Library/pervasive_eink_hardware_driver.c ****     /* Variable that stores received data */
 197:eInk Library/pervasive_eink_hardware_driver.c ****     uint8_t dataRead;
 198:eInk Library/pervasive_eink_hardware_driver.c ****     
 199:eInk Library/pervasive_eink_hardware_driver.c ****     /* Pull the chip select line LOW to begin communication */
 200:eInk Library/pervasive_eink_hardware_driver.c ****     CY_EINK_CsLow;
ARM GAS  C:\Users\rober\AppData\Local\Temp\ccAa3myu.s 			page 23


 288              		.loc 2 200 0
 289 0010 0022     		movs	r2, #0
 290 0012 0321     		movs	r1, #3
 291 0014 1348     		ldr	r0, .L15
 292 0016 FFF7FEFF 		bl	Cy_GPIO_Write
 201:eInk Library/pervasive_eink_hardware_driver.c ****     /* Send the header of register address index */
 202:eInk Library/pervasive_eink_hardware_driver.c ****     Cy_EINK_WriteSPI(PV_EINK_REG_INDEX_HEADER);
 293              		.loc 2 202 0
 294 001a 7020     		movs	r0, #112
 295 001c FFF7FEFF 		bl	Cy_EINK_WriteSPI
 203:eInk Library/pervasive_eink_hardware_driver.c ****     /* Send the register address */
 204:eInk Library/pervasive_eink_hardware_driver.c ****     Cy_EINK_WriteSPI(regAddr);
 296              		.loc 2 204 0
 297 0020 FB79     		ldrb	r3, [r7, #7]	@ zero_extendqisi2
 298 0022 1846     		mov	r0, r3
 299 0024 FFF7FEFF 		bl	Cy_EINK_WriteSPI
 205:eInk Library/pervasive_eink_hardware_driver.c ****     /* Push the chip select line HIGH to end communication */
 206:eInk Library/pervasive_eink_hardware_driver.c ****     CY_EINK_CsHigh;
 300              		.loc 2 206 0
 301 0028 0122     		movs	r2, #1
 302 002a 0321     		movs	r1, #3
 303 002c 0D48     		ldr	r0, .L15
 304 002e FFF7FEFF 		bl	Cy_GPIO_Write
 207:eInk Library/pervasive_eink_hardware_driver.c ****     
 208:eInk Library/pervasive_eink_hardware_driver.c ****     /* Wait for 10uS before the next transmission */
 209:eInk Library/pervasive_eink_hardware_driver.c ****     CY_EINK_Wait10uS;
 210:eInk Library/pervasive_eink_hardware_driver.c ****     
 211:eInk Library/pervasive_eink_hardware_driver.c ****     /* Pull the chip select line LOW to begin communication */
 212:eInk Library/pervasive_eink_hardware_driver.c ****     CY_EINK_CsLow;
 305              		.loc 2 212 0
 306 0032 0022     		movs	r2, #0
 307 0034 0321     		movs	r1, #3
 308 0036 0B48     		ldr	r0, .L15
 309 0038 FFF7FEFF 		bl	Cy_GPIO_Write
 213:eInk Library/pervasive_eink_hardware_driver.c ****     /* Send the header of data read index */
 214:eInk Library/pervasive_eink_hardware_driver.c ****     Cy_EINK_WriteSPI(PV_EINK_REG_DATA_READ);
 310              		.loc 2 214 0
 311 003c 7320     		movs	r0, #115
 312 003e FFF7FEFF 		bl	Cy_EINK_WriteSPI
 215:eInk Library/pervasive_eink_hardware_driver.c ****     /* Send the command to receive a byte of data */
 216:eInk Library/pervasive_eink_hardware_driver.c ****     dataRead = Cy_EINK_ReadSPI(data);
 313              		.loc 2 216 0
 314 0042 BB79     		ldrb	r3, [r7, #6]	@ zero_extendqisi2
 315 0044 1846     		mov	r0, r3
 316 0046 FFF7FEFF 		bl	Cy_EINK_ReadSPI
 317 004a 0346     		mov	r3, r0
 318 004c FB73     		strb	r3, [r7, #15]
 217:eInk Library/pervasive_eink_hardware_driver.c ****     /* Push the chip select line HIGH to end communication*/
 218:eInk Library/pervasive_eink_hardware_driver.c ****     CY_EINK_CsHigh;
 319              		.loc 2 218 0
 320 004e 0122     		movs	r2, #1
 321 0050 0321     		movs	r1, #3
 322 0052 0448     		ldr	r0, .L15
 323 0054 FFF7FEFF 		bl	Cy_GPIO_Write
 219:eInk Library/pervasive_eink_hardware_driver.c ****     
 220:eInk Library/pervasive_eink_hardware_driver.c ****     /* Return the received data */
 221:eInk Library/pervasive_eink_hardware_driver.c ****     return(dataRead);
ARM GAS  C:\Users\rober\AppData\Local\Temp\ccAa3myu.s 			page 24


 324              		.loc 2 221 0
 325 0058 FB7B     		ldrb	r3, [r7, #15]	@ zero_extendqisi2
 222:eInk Library/pervasive_eink_hardware_driver.c **** }
 326              		.loc 2 222 0
 327 005a 1846     		mov	r0, r3
 328 005c 1037     		adds	r7, r7, #16
 329              		.cfi_def_cfa_offset 8
 330 005e BD46     		mov	sp, r7
 331              		.cfi_def_cfa_register 13
 332              		@ sp needed
 333 0060 80BD     		pop	{r7, pc}
 334              	.L16:
 335 0062 00BF     		.align	2
 336              	.L15:
 337 0064 00063240 		.word	1077020160
 338              		.cfi_endproc
 339              	.LFE605:
 340              		.size	Pv_EINK_ReadByte, .-Pv_EINK_ReadByte
 341              		.section	.text.Pv_EINK_Init,"ax",%progbits
 342              		.align	2
 343              		.global	Pv_EINK_Init
 344              		.thumb
 345              		.thumb_func
 346              		.type	Pv_EINK_Init, %function
 347              	Pv_EINK_Init:
 348              	.LFB606:
 223:eInk Library/pervasive_eink_hardware_driver.c **** 
 224:eInk Library/pervasive_eink_hardware_driver.c **** /*******************************************************************************
 225:eInk Library/pervasive_eink_hardware_driver.c **** * Function Name: void  Pv_EINK_Init()
 226:eInk Library/pervasive_eink_hardware_driver.c **** ********************************************************************************
 227:eInk Library/pervasive_eink_hardware_driver.c **** *
 228:eInk Library/pervasive_eink_hardware_driver.c **** * Summary: Initialize the E-INK display hardware and associated PSoC components.
 229:eInk Library/pervasive_eink_hardware_driver.c **** *
 230:eInk Library/pervasive_eink_hardware_driver.c **** * Parameters:
 231:eInk Library/pervasive_eink_hardware_driver.c **** *  None
 232:eInk Library/pervasive_eink_hardware_driver.c **** *
 233:eInk Library/pervasive_eink_hardware_driver.c **** * Return:
 234:eInk Library/pervasive_eink_hardware_driver.c **** *  None
 235:eInk Library/pervasive_eink_hardware_driver.c **** *
 236:eInk Library/pervasive_eink_hardware_driver.c **** * Side Effects:
 237:eInk Library/pervasive_eink_hardware_driver.c **** *  None
 238:eInk Library/pervasive_eink_hardware_driver.c **** *******************************************************************************/
 239:eInk Library/pervasive_eink_hardware_driver.c **** void Pv_EINK_Init(void)
 240:eInk Library/pervasive_eink_hardware_driver.c **** {
 349              		.loc 2 240 0
 350              		.cfi_startproc
 351              		@ args = 0, pretend = 0, frame = 0
 352              		@ frame_needed = 1, uses_anonymous_args = 0
 353 0000 80B5     		push	{r7, lr}
 354              		.cfi_def_cfa_offset 8
 355              		.cfi_offset 7, -8
 356              		.cfi_offset 14, -4
 357 0002 00AF     		add	r7, sp, #0
 358              		.cfi_def_cfa_register 7
 241:eInk Library/pervasive_eink_hardware_driver.c ****     /* Enable the level translator located between PSoC and the E-INK display */
 242:eInk Library/pervasive_eink_hardware_driver.c ****     CY_EINK_EnableIO;
 359              		.loc 2 242 0
ARM GAS  C:\Users\rober\AppData\Local\Temp\ccAa3myu.s 			page 25


 360 0004 0022     		movs	r2, #0
 361 0006 0221     		movs	r1, #2
 362 0008 1048     		ldr	r0, .L18
 363 000a FFF7FEFF 		bl	Cy_GPIO_Write
 243:eInk Library/pervasive_eink_hardware_driver.c ****     /* Pull the Border pin to LOW */
 244:eInk Library/pervasive_eink_hardware_driver.c ****     CY_EINK_BorderLow;
 364              		.loc 2 244 0
 365 000e 0022     		movs	r2, #0
 366 0010 0621     		movs	r1, #6
 367 0012 0F48     		ldr	r0, .L18+4
 368 0014 FFF7FEFF 		bl	Cy_GPIO_Write
 245:eInk Library/pervasive_eink_hardware_driver.c ****     /* Disable the load switch connected to E-INK display's Vcc */
 246:eInk Library/pervasive_eink_hardware_driver.c ****     CY_EINK_TurnOffVcc;
 369              		.loc 2 246 0
 370 0018 0022     		movs	r2, #0
 371 001a 0421     		movs	r1, #4
 372 001c 0C48     		ldr	r0, .L18+4
 373 001e FFF7FEFF 		bl	Cy_GPIO_Write
 247:eInk Library/pervasive_eink_hardware_driver.c ****     
 248:eInk Library/pervasive_eink_hardware_driver.c ****     /* Initialize the PSoC SPI */
 249:eInk Library/pervasive_eink_hardware_driver.c ****     Cy_EINK_InitSPI();
 374              		.loc 2 249 0
 375 0022 FFF7FEFF 		bl	Cy_EINK_InitSPI
 250:eInk Library/pervasive_eink_hardware_driver.c ****     /* Pull the chip select, reset and discharge pins to LOW */
 251:eInk Library/pervasive_eink_hardware_driver.c ****     CY_EINK_CsLow;
 376              		.loc 2 251 0
 377 0026 0022     		movs	r2, #0
 378 0028 0321     		movs	r1, #3
 379 002a 0A48     		ldr	r0, .L18+8
 380 002c FFF7FEFF 		bl	Cy_GPIO_Write
 252:eInk Library/pervasive_eink_hardware_driver.c ****     CY_EINK_RstLow;
 381              		.loc 2 252 0
 382 0030 0022     		movs	r2, #0
 383 0032 0221     		movs	r1, #2
 384 0034 0648     		ldr	r0, .L18+4
 385 0036 FFF7FEFF 		bl	Cy_GPIO_Write
 253:eInk Library/pervasive_eink_hardware_driver.c ****     CY_EINK_DischargeLow;
 386              		.loc 2 253 0
 387 003a 0022     		movs	r2, #0
 388 003c 0521     		movs	r1, #5
 389 003e 0448     		ldr	r0, .L18+4
 390 0040 FFF7FEFF 		bl	Cy_GPIO_Write
 254:eInk Library/pervasive_eink_hardware_driver.c ****     
 255:eInk Library/pervasive_eink_hardware_driver.c ****     /* Initialize the E-INK display Timer */
 256:eInk Library/pervasive_eink_hardware_driver.c ****     Cy_EINK_TimerInit();
 391              		.loc 2 256 0
 392 0044 FFF7FEFF 		bl	Cy_EINK_TimerInit
 257:eInk Library/pervasive_eink_hardware_driver.c **** }
 393              		.loc 2 257 0
 394 0048 00BF     		nop
 395 004a 80BD     		pop	{r7, pc}
 396              	.L19:
 397              		.align	2
 398              	.L18:
 399 004c 00003240 		.word	1077018624
 400 0050 80023240 		.word	1077019264
 401 0054 00063240 		.word	1077020160
ARM GAS  C:\Users\rober\AppData\Local\Temp\ccAa3myu.s 			page 26


 402              		.cfi_endproc
 403              	.LFE606:
 404              		.size	Pv_EINK_Init, .-Pv_EINK_Init
 405              		.section	.text.Pv_EINK_InitDriver,"ax",%progbits
 406              		.align	2
 407              		.global	Pv_EINK_InitDriver
 408              		.thumb
 409              		.thumb_func
 410              		.type	Pv_EINK_InitDriver, %function
 411              	Pv_EINK_InitDriver:
 412              	.LFB607:
 258:eInk Library/pervasive_eink_hardware_driver.c **** 
 259:eInk Library/pervasive_eink_hardware_driver.c **** /*******************************************************************************
 260:eInk Library/pervasive_eink_hardware_driver.c **** * Function Name: Cy_EINK_Status PV_EINK_InitDriver(void)
 261:eInk Library/pervasive_eink_hardware_driver.c **** ********************************************************************************
 262:eInk Library/pervasive_eink_hardware_driver.c **** *
 263:eInk Library/pervasive_eink_hardware_driver.c **** * Summary: Initialize E-INK Driver. For detailed flow and description, please 
 264:eInk Library/pervasive_eink_hardware_driver.c **** * refer to the driver G2 document Section 4.
 265:eInk Library/pervasive_eink_hardware_driver.c **** *
 266:eInk Library/pervasive_eink_hardware_driver.c **** * Parameters:
 267:eInk Library/pervasive_eink_hardware_driver.c **** *  None
 268:eInk Library/pervasive_eink_hardware_driver.c **** *
 269:eInk Library/pervasive_eink_hardware_driver.c **** * Return:
 270:eInk Library/pervasive_eink_hardware_driver.c **** *  pv_eink_status_t: Status of the initialization
 271:eInk Library/pervasive_eink_hardware_driver.c **** *
 272:eInk Library/pervasive_eink_hardware_driver.c **** * Side Effects:
 273:eInk Library/pervasive_eink_hardware_driver.c **** *  None
 274:eInk Library/pervasive_eink_hardware_driver.c **** *******************************************************************************/
 275:eInk Library/pervasive_eink_hardware_driver.c **** pv_eink_status_t Pv_EINK_InitDriver(void)
 276:eInk Library/pervasive_eink_hardware_driver.c **** {
 413              		.loc 2 276 0
 414              		.cfi_startproc
 415              		@ args = 0, pretend = 0, frame = 8
 416              		@ frame_needed = 1, uses_anonymous_args = 0
 417 0000 80B5     		push	{r7, lr}
 418              		.cfi_def_cfa_offset 8
 419              		.cfi_offset 7, -8
 420              		.cfi_offset 14, -4
 421 0002 82B0     		sub	sp, sp, #8
 422              		.cfi_def_cfa_offset 16
 423 0004 00AF     		add	r7, sp, #0
 424              		.cfi_def_cfa_register 7
 277:eInk Library/pervasive_eink_hardware_driver.c ****     /* Variable used to count the number of loops */
 278:eInk Library/pervasive_eink_hardware_driver.c ****     uint16_t    loopCounter = 0;
 425              		.loc 2 278 0
 426 0006 0023     		movs	r3, #0
 427 0008 FB80     		strh	r3, [r7, #6]	@ movhi
 279:eInk Library/pervasive_eink_hardware_driver.c ****     
 280:eInk Library/pervasive_eink_hardware_driver.c ****     /* Clear the line buffer with all zeros */
 281:eInk Library/pervasive_eink_hardware_driver.c ****     memset(&driverPacket.lineBuffer, 0, sizeof(driverPacket.lineBuffer)) ;
 428              		.loc 2 281 0
 429 000a 6F22     		movs	r2, #111
 430 000c 0021     		movs	r1, #0
 431 000e 4648     		ldr	r0, .L30
 432 0010 FFF7FEFF 		bl	memset
 282:eInk Library/pervasive_eink_hardware_driver.c ****     
 283:eInk Library/pervasive_eink_hardware_driver.c ****     /* Initialize the even data, odd data and scan data pointers */
ARM GAS  C:\Users\rober\AppData\Local\Temp\ccAa3myu.s 			page 27


 284:eInk Library/pervasive_eink_hardware_driver.c ****     dataLineEven = &driverPacket.lineDataBySize.even[0];
 433              		.loc 2 284 0
 434 0014 454B     		ldr	r3, .L30+4
 435 0016 464A     		ldr	r2, .L30+8
 436 0018 1A60     		str	r2, [r3]
 285:eInk Library/pervasive_eink_hardware_driver.c ****     dataLineOdd  = &driverPacket.lineDataBySize.odd[0];
 437              		.loc 2 285 0
 438 001a 464B     		ldr	r3, .L30+12
 439 001c 464A     		ldr	r2, .L30+16
 440 001e 1A60     		str	r2, [r3]
 286:eInk Library/pervasive_eink_hardware_driver.c ****     dataLineScan = &driverPacket.lineDataBySize.scan[0];
 441              		.loc 2 286 0
 442 0020 464B     		ldr	r3, .L30+20
 443 0022 474A     		ldr	r2, .L30+24
 444 0024 1A60     		str	r2, [r3]
 287:eInk Library/pervasive_eink_hardware_driver.c ****     
 288:eInk Library/pervasive_eink_hardware_driver.c ****     /* Initialize and start the E-INK Timer   */
 289:eInk Library/pervasive_eink_hardware_driver.c ****     Cy_EINK_TimerInit();
 445              		.loc 2 289 0
 446 0026 FFF7FEFF 		bl	Cy_EINK_TimerInit
 290:eInk Library/pervasive_eink_hardware_driver.c ****         
 291:eInk Library/pervasive_eink_hardware_driver.c ****     /* Check if E-INK driver is busy */
 292:eInk Library/pervasive_eink_hardware_driver.c ****     while (Cy_EINK_IsBusy())
 447              		.loc 2 292 0
 448 002a 06E0     		b	.L21
 449              	.L23:
 293:eInk Library/pervasive_eink_hardware_driver.c ****     {
 294:eInk Library/pervasive_eink_hardware_driver.c ****         /* If the E-INK driver is busy for more than maximum allowed time,
 295:eInk Library/pervasive_eink_hardware_driver.c ****            return an error message */
 296:eInk Library/pervasive_eink_hardware_driver.c ****         if (Cy_EINK_GetTimeTick() >= PV_EINK_MAX_PV_EINK_BUSY_TIME)
 450              		.loc 2 296 0
 451 002c FFF7FEFF 		bl	Cy_EINK_GetTimeTick
 452 0030 0346     		mov	r3, r0
 453 0032 032B     		cmp	r3, #3
 454 0034 01D9     		bls	.L21
 297:eInk Library/pervasive_eink_hardware_driver.c ****         {
 298:eInk Library/pervasive_eink_hardware_driver.c ****             return(PV_EINK_ERROR_BUSY);
 455              		.loc 2 298 0
 456 0036 0123     		movs	r3, #1
 457 0038 71E0     		b	.L22
 458              	.L21:
 292:eInk Library/pervasive_eink_hardware_driver.c ****     {
 459              		.loc 2 292 0
 460 003a FFF7FEFF 		bl	Cy_EINK_IsBusy
 461 003e 0346     		mov	r3, r0
 462 0040 002B     		cmp	r3, #0
 463 0042 F3D1     		bne	.L23
 299:eInk Library/pervasive_eink_hardware_driver.c ****         }
 300:eInk Library/pervasive_eink_hardware_driver.c ****     }
 301:eInk Library/pervasive_eink_hardware_driver.c ****     
 302:eInk Library/pervasive_eink_hardware_driver.c ****     /* Stop the E-INK Timer */
 303:eInk Library/pervasive_eink_hardware_driver.c ****     Cy_EINK_TimerStop();
 464              		.loc 2 303 0
 465 0044 FFF7FEFF 		bl	Cy_EINK_TimerStop
 304:eInk Library/pervasive_eink_hardware_driver.c ****     
 305:eInk Library/pervasive_eink_hardware_driver.c ****     /* Check the driver ID */
 306:eInk Library/pervasive_eink_hardware_driver.c ****     if ((Pv_EINK_ReadByte(PV_EINK_DRIVER_ID_COMMAND_INDEX, 
ARM GAS  C:\Users\rober\AppData\Local\Temp\ccAa3myu.s 			page 28


 466              		.loc 2 306 0
 467 0048 0021     		movs	r1, #0
 468 004a 7220     		movs	r0, #114
 469 004c FFF7FEFF 		bl	Pv_EINK_ReadByte
 470 0050 0346     		mov	r3, r0
 307:eInk Library/pervasive_eink_hardware_driver.c ****                           PV_EINK_DRIVER_ID_COMMAND_DATA)
 308:eInk Library/pervasive_eink_hardware_driver.c ****                           & PV_EINK_DRIVER_ID_MASK)
 471              		.loc 2 308 0
 472 0052 03F00F03 		and	r3, r3, #15
 306:eInk Library/pervasive_eink_hardware_driver.c ****                           PV_EINK_DRIVER_ID_COMMAND_DATA)
 473              		.loc 2 306 0
 474 0056 022B     		cmp	r3, #2
 475 0058 01D0     		beq	.L24
 309:eInk Library/pervasive_eink_hardware_driver.c ****                           != PV_EINK_DRIVER_ID_CHECK)
 310:eInk Library/pervasive_eink_hardware_driver.c ****     {
 311:eInk Library/pervasive_eink_hardware_driver.c ****         /* Return an error message if incorrect driver ID is received */
 312:eInk Library/pervasive_eink_hardware_driver.c ****         return(PV_EINK_ERROR_ID);
 476              		.loc 2 312 0
 477 005a 0223     		movs	r3, #2
 478 005c 5FE0     		b	.L22
 479              	.L24:
 313:eInk Library/pervasive_eink_hardware_driver.c ****     }
 314:eInk Library/pervasive_eink_hardware_driver.c ****     /* Disable OE */
 315:eInk Library/pervasive_eink_hardware_driver.c ****     Pv_EINK_SendByte(PV_EINK_DISABLE_OE_COMMAND_INDEX, 
 480              		.loc 2 315 0
 481 005e 4021     		movs	r1, #64
 482 0060 0220     		movs	r0, #2
 483 0062 FFF7FEFF 		bl	Pv_EINK_SendByte
 316:eInk Library/pervasive_eink_hardware_driver.c ****                      PV_EINK_DISABLE_OE_COMMAND_DATA);
 317:eInk Library/pervasive_eink_hardware_driver.c ****     
 318:eInk Library/pervasive_eink_hardware_driver.c ****     /* Check Breakage */
 319:eInk Library/pervasive_eink_hardware_driver.c ****     if ((Pv_EINK_ReadByte(PV_EINK_TEST_BREAKAGE_COMMAND_INDEX,
 484              		.loc 2 319 0
 485 0066 0021     		movs	r1, #0
 486 0068 0F20     		movs	r0, #15
 487 006a FFF7FEFF 		bl	Pv_EINK_ReadByte
 488 006e 0346     		mov	r3, r0
 320:eInk Library/pervasive_eink_hardware_driver.c ****                           PV_EINK_TEST_BREAKAGE_COMMAND_DATA) & 
 321:eInk Library/pervasive_eink_hardware_driver.c ****                           PV_EINK_TEST_BREAKAGE_MASK)
 322:eInk Library/pervasive_eink_hardware_driver.c ****                           != PV_EINK_TEST_BREAKAGE_CHECK)
 489              		.loc 2 322 0
 490 0070 5BB2     		sxtb	r3, r3
 319:eInk Library/pervasive_eink_hardware_driver.c ****                           PV_EINK_TEST_BREAKAGE_COMMAND_DATA) & 
 491              		.loc 2 319 0
 492 0072 002B     		cmp	r3, #0
 493 0074 01DB     		blt	.L25
 323:eInk Library/pervasive_eink_hardware_driver.c ****     {
 324:eInk Library/pervasive_eink_hardware_driver.c ****         /* Send the error message for breakage */
 325:eInk Library/pervasive_eink_hardware_driver.c ****         return(PV_EINK_ERROR_BREAKAGE);
 494              		.loc 2 325 0
 495 0076 0323     		movs	r3, #3
 496 0078 51E0     		b	.L22
 497              	.L25:
 326:eInk Library/pervasive_eink_hardware_driver.c ****     }
 327:eInk Library/pervasive_eink_hardware_driver.c ****     /* Power Saving Mode */
 328:eInk Library/pervasive_eink_hardware_driver.c ****     Pv_EINK_SendByte(PV_EINK_PWR_SAVING_COMMAND_INDEX, 
 498              		.loc 2 328 0
ARM GAS  C:\Users\rober\AppData\Local\Temp\ccAa3myu.s 			page 29


 499 007a 0221     		movs	r1, #2
 500 007c 0B20     		movs	r0, #11
 501 007e FFF7FEFF 		bl	Pv_EINK_SendByte
 329:eInk Library/pervasive_eink_hardware_driver.c ****                   PV_EINK_PWR1_SAVING_COMMAND_DATA);
 330:eInk Library/pervasive_eink_hardware_driver.c ****     
 331:eInk Library/pervasive_eink_hardware_driver.c ****     /* Channel Select */
 332:eInk Library/pervasive_eink_hardware_driver.c ****     Pv_EINK_SendData(PV_EINK_CHANNEL_SEL_COMMAND_INDEX, 
 502              		.loc 2 332 0
 503 0082 0822     		movs	r2, #8
 504 0084 2F49     		ldr	r1, .L30+28
 505 0086 0120     		movs	r0, #1
 506 0088 FFF7FEFF 		bl	Pv_EINK_SendData
 333:eInk Library/pervasive_eink_hardware_driver.c ****                     (uint8_t*) &channelSelect,
 334:eInk Library/pervasive_eink_hardware_driver.c ****                      PV_EINK_CHANNEL_SEL_SIZE);
 335:eInk Library/pervasive_eink_hardware_driver.c ****     
 336:eInk Library/pervasive_eink_hardware_driver.c ****     /* High Power Mode Oscillator Setting */
 337:eInk Library/pervasive_eink_hardware_driver.c ****     Pv_EINK_SendByte(PV_EINK_OSC_SETTING_COMMAND_INDEX, 
 507              		.loc 2 337 0
 508 008c D121     		movs	r1, #209
 509 008e 0720     		movs	r0, #7
 510 0090 FFF7FEFF 		bl	Pv_EINK_SendByte
 338:eInk Library/pervasive_eink_hardware_driver.c ****                      PV_EINK_OSC_SETTING_COMMAND_DATA);
 339:eInk Library/pervasive_eink_hardware_driver.c ****     /* Power Setting */
 340:eInk Library/pervasive_eink_hardware_driver.c ****     Pv_EINK_SendByte(PV_EINK_PWR1_SETTING_COMMAND_INDEX,
 511              		.loc 2 340 0
 512 0094 0221     		movs	r1, #2
 513 0096 0820     		movs	r0, #8
 514 0098 FFF7FEFF 		bl	Pv_EINK_SendByte
 341:eInk Library/pervasive_eink_hardware_driver.c ****                      PV_EINK_PWR1_SETTING_COMMAND_DATA);
 342:eInk Library/pervasive_eink_hardware_driver.c ****     /* Set Vcom level */
 343:eInk Library/pervasive_eink_hardware_driver.c ****     Pv_EINK_SendByte(PV_EINK_VCOM1_LEVEL_COMMAND_INDEX, 
 515              		.loc 2 343 0
 516 009c C221     		movs	r1, #194
 517 009e 0920     		movs	r0, #9
 518 00a0 FFF7FEFF 		bl	Pv_EINK_SendByte
 344:eInk Library/pervasive_eink_hardware_driver.c ****                      PV_EINK_VCOM1_LEVEL_COMMAND_DATA);
 345:eInk Library/pervasive_eink_hardware_driver.c ****     /* Power Setting */
 346:eInk Library/pervasive_eink_hardware_driver.c ****     Pv_EINK_SendByte(PV_EINK_PWR2_SETTING_COMMAND_INDEX,
 519              		.loc 2 346 0
 520 00a4 0321     		movs	r1, #3
 521 00a6 0420     		movs	r0, #4
 522 00a8 FFF7FEFF 		bl	Pv_EINK_SendByte
 347:eInk Library/pervasive_eink_hardware_driver.c ****                      PV_EINK_PWR2_SETTING_COMMAND_DATA);
 348:eInk Library/pervasive_eink_hardware_driver.c ****                   
 349:eInk Library/pervasive_eink_hardware_driver.c ****     /* Driver latch on */
 350:eInk Library/pervasive_eink_hardware_driver.c ****     Pv_EINK_SendByte(PV_EINK_LATCH_OFF_COMMAND_INDEX,
 523              		.loc 2 350 0
 524 00ac 0121     		movs	r1, #1
 525 00ae 0320     		movs	r0, #3
 526 00b0 FFF7FEFF 		bl	Pv_EINK_SendByte
 351:eInk Library/pervasive_eink_hardware_driver.c ****                      PV_EINK_LATCH_ON_COMMAND_DATA);
 352:eInk Library/pervasive_eink_hardware_driver.c ****     /* Driver latch off */
 353:eInk Library/pervasive_eink_hardware_driver.c ****     Pv_EINK_SendByte(PV_EINK_LATCH_OFF_COMMAND_INDEX, 
 527              		.loc 2 353 0
 528 00b4 0021     		movs	r1, #0
 529 00b6 0320     		movs	r0, #3
 530 00b8 FFF7FEFF 		bl	Pv_EINK_SendByte
ARM GAS  C:\Users\rober\AppData\Local\Temp\ccAa3myu.s 			page 30


 354:eInk Library/pervasive_eink_hardware_driver.c ****                      PV_EINK_LATCH_OFF_COMMAND_DATA);
 355:eInk Library/pervasive_eink_hardware_driver.c ****     CY_EINK_Delay(PV_EINK_PIN_DELAY);
 531              		.loc 2 355 0
 532 00bc 0A20     		movs	r0, #10
 533 00be FFF7FEFF 		bl	Cy_SysLib_Delay
 534              	.L28:
 356:eInk Library/pervasive_eink_hardware_driver.c ****     
 357:eInk Library/pervasive_eink_hardware_driver.c ****     /* Start the charge pump */
 358:eInk Library/pervasive_eink_hardware_driver.c ****     do
 359:eInk Library/pervasive_eink_hardware_driver.c ****     {
 360:eInk Library/pervasive_eink_hardware_driver.c ****         /* Start charge pump positive voltage (VGH & VDH on) */
 361:eInk Library/pervasive_eink_hardware_driver.c ****         Pv_EINK_SendByte(PV_EINK_VGH_VDH_ON_COMMAND_INDEX,
 535              		.loc 2 361 0
 536 00c2 0121     		movs	r1, #1
 537 00c4 0520     		movs	r0, #5
 538 00c6 FFF7FEFF 		bl	Pv_EINK_SendByte
 362:eInk Library/pervasive_eink_hardware_driver.c ****                       PV_EINK_VGH_VDH_ON_COMMAND_DATA);
 363:eInk Library/pervasive_eink_hardware_driver.c ****         CY_EINK_Delay(PV_EINK_POSITIVE_V_DELAY);
 539              		.loc 2 363 0
 540 00ca 6420     		movs	r0, #100
 541 00cc FFF7FEFF 		bl	Cy_SysLib_Delay
 364:eInk Library/pervasive_eink_hardware_driver.c ****         
 365:eInk Library/pervasive_eink_hardware_driver.c ****         /* Start charge pump negative voltage (VGL & VDL on) */
 366:eInk Library/pervasive_eink_hardware_driver.c ****         Pv_EINK_SendByte(PV_EINK_VGH_VDH_ON_COMMAND_INDEX,
 542              		.loc 2 366 0
 543 00d0 0321     		movs	r1, #3
 544 00d2 0520     		movs	r0, #5
 545 00d4 FFF7FEFF 		bl	Pv_EINK_SendByte
 367:eInk Library/pervasive_eink_hardware_driver.c ****                       PV_EINK_VGL_VDL_ON_COMMAND_DATA);
 368:eInk Library/pervasive_eink_hardware_driver.c ****         CY_EINK_Delay(PV_EINK_PWR_CTRL_DELAY);
 546              		.loc 2 368 0
 547 00d8 3220     		movs	r0, #50
 548 00da FFF7FEFF 		bl	Cy_SysLib_Delay
 369:eInk Library/pervasive_eink_hardware_driver.c ****         
 370:eInk Library/pervasive_eink_hardware_driver.c ****         /* Set charge pump (Vcom_Driver on) */
 371:eInk Library/pervasive_eink_hardware_driver.c ****         Pv_EINK_SendByte(PV_EINK_VCOM_DRIVE_ON_COMMAND_INDEX,
 549              		.loc 2 371 0
 550 00de 0F21     		movs	r1, #15
 551 00e0 0520     		movs	r0, #5
 552 00e2 FFF7FEFF 		bl	Pv_EINK_SendByte
 372:eInk Library/pervasive_eink_hardware_driver.c ****                       PV_EINK_VCOM_DRIVE_ON_COMMAND_DATA);
 373:eInk Library/pervasive_eink_hardware_driver.c ****         CY_EINK_Delay(PV_EINK_PWR_CTRL_DELAY);
 553              		.loc 2 373 0
 554 00e6 3220     		movs	r0, #50
 555 00e8 FFF7FEFF 		bl	Cy_SysLib_Delay
 374:eInk Library/pervasive_eink_hardware_driver.c ****         
 375:eInk Library/pervasive_eink_hardware_driver.c ****         /* Check DC level */
 376:eInk Library/pervasive_eink_hardware_driver.c ****         if ((Pv_EINK_ReadByte(PV_EINK_DC_LEVEL_READ_COMMAND_INDEX,
 556              		.loc 2 376 0
 557 00ec 0021     		movs	r1, #0
 558 00ee 0F20     		movs	r0, #15
 559 00f0 FFF7FEFF 		bl	Pv_EINK_ReadByte
 560 00f4 0346     		mov	r3, r0
 377:eInk Library/pervasive_eink_hardware_driver.c ****                            PV_EINK_DC_LEVEL_READ_COMMAND_DATA) & 
 561              		.loc 2 377 0
 562 00f6 03F04003 		and	r3, r3, #64
 376:eInk Library/pervasive_eink_hardware_driver.c ****                            PV_EINK_DC_LEVEL_READ_COMMAND_DATA) & 
ARM GAS  C:\Users\rober\AppData\Local\Temp\ccAa3myu.s 			page 31


 563              		.loc 2 376 0
 564 00fa 002B     		cmp	r3, #0
 565 00fc 04D0     		beq	.L26
 378:eInk Library/pervasive_eink_hardware_driver.c ****                            PV_EINK_DC_LEVEL_MASK)
 379:eInk Library/pervasive_eink_hardware_driver.c ****                            != PV_EINK_DC_LEVEL_CHECK)
 380:eInk Library/pervasive_eink_hardware_driver.c ****         {
 381:eInk Library/pervasive_eink_hardware_driver.c ****             /* Disable OLE */
 382:eInk Library/pervasive_eink_hardware_driver.c ****             Pv_EINK_SendByte(PV_EINK_DISABLE_OE_COMMAND_INDEX,
 566              		.loc 2 382 0
 567 00fe 4021     		movs	r1, #64
 568 0100 0220     		movs	r0, #2
 569 0102 FFF7FEFF 		bl	Pv_EINK_SendByte
 383:eInk Library/pervasive_eink_hardware_driver.c ****                           PV_EINK_DISABLE_OE_COMMAND_DATA);
 384:eInk Library/pervasive_eink_hardware_driver.c ****             break;
 570              		.loc 2 384 0
 571 0106 04E0     		b	.L27
 572              	.L26:
 385:eInk Library/pervasive_eink_hardware_driver.c ****         }
 386:eInk Library/pervasive_eink_hardware_driver.c ****     }
 387:eInk Library/pervasive_eink_hardware_driver.c ****     /* Perform this operation for required charge pump write cycles */
 388:eInk Library/pervasive_eink_hardware_driver.c ****     while ((loopCounter++) != PV_EINK_CHARGE_PUMP_MAX_WRITE);
 573              		.loc 2 388 0
 574 0108 FB88     		ldrh	r3, [r7, #6]
 575 010a 5A1C     		adds	r2, r3, #1
 576 010c FA80     		strh	r2, [r7, #6]	@ movhi
 577 010e 042B     		cmp	r3, #4
 578 0110 D7D1     		bne	.L28
 579              	.L27:
 389:eInk Library/pervasive_eink_hardware_driver.c ****     
 390:eInk Library/pervasive_eink_hardware_driver.c ****     /* If the operation not completed within the required write cycles, send an 
 391:eInk Library/pervasive_eink_hardware_driver.c ****        error message */
 392:eInk Library/pervasive_eink_hardware_driver.c ****     if (loopCounter >= PV_EINK_CHARGE_PUMP_MAX_WRITE)
 580              		.loc 2 392 0
 581 0112 FB88     		ldrh	r3, [r7, #6]
 582 0114 032B     		cmp	r3, #3
 583 0116 01D9     		bls	.L29
 393:eInk Library/pervasive_eink_hardware_driver.c ****     {
 394:eInk Library/pervasive_eink_hardware_driver.c ****         CY_EINK_Wait10uS;
 395:eInk Library/pervasive_eink_hardware_driver.c ****         return(PV_EINK_ERROR_CHARGEPUMP);
 584              		.loc 2 395 0
 585 0118 0523     		movs	r3, #5
 586 011a 00E0     		b	.L22
 587              	.L29:
 396:eInk Library/pervasive_eink_hardware_driver.c ****     }
 397:eInk Library/pervasive_eink_hardware_driver.c ****     /* If all operations completed successfully, send the corresponding status 
 398:eInk Library/pervasive_eink_hardware_driver.c ****        message */
 399:eInk Library/pervasive_eink_hardware_driver.c ****     return(PV_EINK_RES_OK);
 588              		.loc 2 399 0
 589 011c 0023     		movs	r3, #0
 590              	.L22:
 400:eInk Library/pervasive_eink_hardware_driver.c **** }
 591              		.loc 2 400 0
 592 011e 1846     		mov	r0, r3
 593 0120 0837     		adds	r7, r7, #8
 594              		.cfi_def_cfa_offset 8
 595 0122 BD46     		mov	sp, r7
 596              		.cfi_def_cfa_register 13
ARM GAS  C:\Users\rober\AppData\Local\Temp\ccAa3myu.s 			page 32


 597              		@ sp needed
 598 0124 80BD     		pop	{r7, pc}
 599              	.L31:
 600 0126 00BF     		.align	2
 601              	.L30:
 602 0128 00000000 		.word	driverPacket
 603 012c 74000000 		.word	dataLineEven
 604 0130 01000000 		.word	driverPacket+1
 605 0134 78000000 		.word	dataLineOdd
 606 0138 4E000000 		.word	driverPacket+78
 607 013c 7C000000 		.word	dataLineScan
 608 0140 22000000 		.word	driverPacket+34
 609 0144 00000000 		.word	channelSelect
 610              		.cfi_endproc
 611              	.LFE607:
 612              		.size	Pv_EINK_InitDriver, .-Pv_EINK_InitDriver
 613              		.section	.text.Pv_EINK_SetTempFactor,"ax",%progbits
 614              		.align	2
 615              		.global	Pv_EINK_SetTempFactor
 616              		.thumb
 617              		.thumb_func
 618              		.type	Pv_EINK_SetTempFactor, %function
 619              	Pv_EINK_SetTempFactor:
 620              	.LFB608:
 401:eInk Library/pervasive_eink_hardware_driver.c **** 
 402:eInk Library/pervasive_eink_hardware_driver.c **** /*******************************************************************************
 403:eInk Library/pervasive_eink_hardware_driver.c **** * Function Name: void Pv_EINK_SetTempFactor(int8_t temperature)
 404:eInk Library/pervasive_eink_hardware_driver.c **** ********************************************************************************
 405:eInk Library/pervasive_eink_hardware_driver.c **** *
 406:eInk Library/pervasive_eink_hardware_driver.c **** * Summary: Set the E-INK update times per the ambient temperature. For detailed
 407:eInk Library/pervasive_eink_hardware_driver.c **** * flow and description, please refer to the driver G2 document Section 5.4.
 408:eInk Library/pervasive_eink_hardware_driver.c **** *
 409:eInk Library/pervasive_eink_hardware_driver.c **** * Parameters:
 410:eInk Library/pervasive_eink_hardware_driver.c **** * int8_t temperature: Ambient temperature in degree Celsius
 411:eInk Library/pervasive_eink_hardware_driver.c **** *
 412:eInk Library/pervasive_eink_hardware_driver.c **** * Return:
 413:eInk Library/pervasive_eink_hardware_driver.c **** *  None
 414:eInk Library/pervasive_eink_hardware_driver.c **** *
 415:eInk Library/pervasive_eink_hardware_driver.c **** * Side Effects:
 416:eInk Library/pervasive_eink_hardware_driver.c **** *  None
 417:eInk Library/pervasive_eink_hardware_driver.c **** *******************************************************************************/
 418:eInk Library/pervasive_eink_hardware_driver.c **** void Pv_EINK_SetTempFactor(int8_t temperature)
 419:eInk Library/pervasive_eink_hardware_driver.c **** {
 621              		.loc 2 419 0
 622              		.cfi_startproc
 623              		@ args = 0, pretend = 0, frame = 16
 624              		@ frame_needed = 1, uses_anonymous_args = 0
 625              		@ link register save eliminated.
 626 0000 80B4     		push	{r7}
 627              		.cfi_def_cfa_offset 4
 628              		.cfi_offset 7, -4
 629 0002 85B0     		sub	sp, sp, #20
 630              		.cfi_def_cfa_offset 24
 631 0004 00AF     		add	r7, sp, #0
 632              		.cfi_def_cfa_register 7
 633 0006 0346     		mov	r3, r0
 634 0008 FB71     		strb	r3, [r7, #7]
ARM GAS  C:\Users\rober\AppData\Local\Temp\ccAa3myu.s 			page 33


 420:eInk Library/pervasive_eink_hardware_driver.c ****     /* Variable used to store the update time */
 421:eInk Library/pervasive_eink_hardware_driver.c ****     uint16_t    updateTime;
 422:eInk Library/pervasive_eink_hardware_driver.c ****     /* Set the update time per the temperature table */
 423:eInk Library/pervasive_eink_hardware_driver.c ****     if (PV_EINK_TEMP_DEG_M10 >= temperature)
 635              		.loc 2 423 0
 636 000a 97F90730 		ldrsb	r3, [r7, #7]
 637 000e 13F1090F 		cmn	r3, #9
 638 0012 03DA     		bge	.L33
 424:eInk Library/pervasive_eink_hardware_driver.c ****     {
 425:eInk Library/pervasive_eink_hardware_driver.c ****         updateTime = PV_EINK_TEMP_SEL0;
 639              		.loc 2 425 0
 640 0014 4FF49663 		mov	r3, #1200
 641 0018 FB81     		strh	r3, [r7, #14]	@ movhi
 642 001a 2FE0     		b	.L34
 643              	.L33:
 426:eInk Library/pervasive_eink_hardware_driver.c ****     }
 427:eInk Library/pervasive_eink_hardware_driver.c ****     else if (PV_EINK_TEMP_DEG_M5 >= temperature)
 644              		.loc 2 427 0
 645 001c 97F90730 		ldrsb	r3, [r7, #7]
 646 0020 13F1040F 		cmn	r3, #4
 647 0024 03DA     		bge	.L35
 428:eInk Library/pervasive_eink_hardware_driver.c ****     {
 429:eInk Library/pervasive_eink_hardware_driver.c ****         updateTime = PV_EINK_TEMP_SEL1;
 648              		.loc 2 429 0
 649 0026 4FF46173 		mov	r3, #900
 650 002a FB81     		strh	r3, [r7, #14]	@ movhi
 651 002c 26E0     		b	.L34
 652              	.L35:
 430:eInk Library/pervasive_eink_hardware_driver.c ****     }
 431:eInk Library/pervasive_eink_hardware_driver.c ****     else if (PV_EINK_TEMP_DEG_5 >= temperature)
 653              		.loc 2 431 0
 654 002e 97F90730 		ldrsb	r3, [r7, #7]
 655 0032 052B     		cmp	r3, #5
 656 0034 03DC     		bgt	.L36
 432:eInk Library/pervasive_eink_hardware_driver.c ****     {
 433:eInk Library/pervasive_eink_hardware_driver.c ****         updateTime = PV_EINK_TEMP_SEL2;
 657              		.loc 2 433 0
 658 0036 4FF41673 		mov	r3, #600
 659 003a FB81     		strh	r3, [r7, #14]	@ movhi
 660 003c 1EE0     		b	.L34
 661              	.L36:
 434:eInk Library/pervasive_eink_hardware_driver.c ****     }
 435:eInk Library/pervasive_eink_hardware_driver.c ****     else if (PV_EINK_TEMP_DEG_10 >= temperature)
 662              		.loc 2 435 0
 663 003e 97F90730 		ldrsb	r3, [r7, #7]
 664 0042 0A2B     		cmp	r3, #10
 665 0044 03DC     		bgt	.L37
 436:eInk Library/pervasive_eink_hardware_driver.c ****     {
 437:eInk Library/pervasive_eink_hardware_driver.c ****         updateTime = PV_EINK_TEMP_SEL3;
 666              		.loc 2 437 0
 667 0046 4FF4A573 		mov	r3, #330
 668 004a FB81     		strh	r3, [r7, #14]	@ movhi
 669 004c 16E0     		b	.L34
 670              	.L37:
 438:eInk Library/pervasive_eink_hardware_driver.c ****     }
 439:eInk Library/pervasive_eink_hardware_driver.c ****     else if (PV_EINK_TEMP_DEG_15 >= temperature)
 671              		.loc 2 439 0
ARM GAS  C:\Users\rober\AppData\Local\Temp\ccAa3myu.s 			page 34


 672 004e 97F90730 		ldrsb	r3, [r7, #7]
 673 0052 0F2B     		cmp	r3, #15
 674 0054 02DC     		bgt	.L38
 440:eInk Library/pervasive_eink_hardware_driver.c ****     {
 441:eInk Library/pervasive_eink_hardware_driver.c ****         updateTime = PV_EINK_TEMP_SEL4;
 675              		.loc 2 441 0
 676 0056 DC23     		movs	r3, #220
 677 0058 FB81     		strh	r3, [r7, #14]	@ movhi
 678 005a 0FE0     		b	.L34
 679              	.L38:
 442:eInk Library/pervasive_eink_hardware_driver.c ****     }
 443:eInk Library/pervasive_eink_hardware_driver.c ****     else if (PV_EINK_TEMP_DEG_20 >= temperature)
 680              		.loc 2 443 0
 681 005c 97F90730 		ldrsb	r3, [r7, #7]
 682 0060 142B     		cmp	r3, #20
 683 0062 02DC     		bgt	.L39
 444:eInk Library/pervasive_eink_hardware_driver.c ****     {
 445:eInk Library/pervasive_eink_hardware_driver.c ****         updateTime = PV_EINK_TEMP_SEL5;
 684              		.loc 2 445 0
 685 0064 B423     		movs	r3, #180
 686 0066 FB81     		strh	r3, [r7, #14]	@ movhi
 687 0068 08E0     		b	.L34
 688              	.L39:
 446:eInk Library/pervasive_eink_hardware_driver.c ****     }
 447:eInk Library/pervasive_eink_hardware_driver.c ****     else if (PV_EINK_TEMP_DEG_40 >= temperature)
 689              		.loc 2 447 0
 690 006a 97F90730 		ldrsb	r3, [r7, #7]
 691 006e 282B     		cmp	r3, #40
 692 0070 02DC     		bgt	.L40
 448:eInk Library/pervasive_eink_hardware_driver.c ****     {
 449:eInk Library/pervasive_eink_hardware_driver.c ****         updateTime = PV_EINK_TEMP_SEL6;
 693              		.loc 2 449 0
 694 0072 5A23     		movs	r3, #90
 695 0074 FB81     		strh	r3, [r7, #14]	@ movhi
 696 0076 01E0     		b	.L34
 697              	.L40:
 450:eInk Library/pervasive_eink_hardware_driver.c ****     }
 451:eInk Library/pervasive_eink_hardware_driver.c ****     else
 452:eInk Library/pervasive_eink_hardware_driver.c ****     {
 453:eInk Library/pervasive_eink_hardware_driver.c ****         updateTime = PV_EINK_TEMP_SEL7;
 698              		.loc 2 453 0
 699 0078 3C23     		movs	r3, #60
 700 007a FB81     		strh	r3, [r7, #14]	@ movhi
 701              	.L34:
 454:eInk Library/pervasive_eink_hardware_driver.c ****     }
 455:eInk Library/pervasive_eink_hardware_driver.c ****     /* Scale the update times : this is a speed-contrast trade-off */
 456:eInk Library/pervasive_eink_hardware_driver.c ****     fullUpdateTime = updateTime * PV_EINK_SCALING_FULL;
 702              		.loc 2 456 0
 703 007c 054A     		ldr	r2, .L41
 704 007e FB89     		ldrh	r3, [r7, #14]	@ movhi
 705 0080 1380     		strh	r3, [r2]	@ movhi
 457:eInk Library/pervasive_eink_hardware_driver.c ****     partialUpdateTime = updateTime * PV_EINK_SCALING_PARTIAL;
 706              		.loc 2 457 0
 707 0082 054A     		ldr	r2, .L41+4
 708 0084 FB89     		ldrh	r3, [r7, #14]	@ movhi
 709 0086 1380     		strh	r3, [r2]	@ movhi
 458:eInk Library/pervasive_eink_hardware_driver.c **** }
ARM GAS  C:\Users\rober\AppData\Local\Temp\ccAa3myu.s 			page 35


 710              		.loc 2 458 0
 711 0088 00BF     		nop
 712 008a 1437     		adds	r7, r7, #20
 713              		.cfi_def_cfa_offset 4
 714 008c BD46     		mov	sp, r7
 715              		.cfi_def_cfa_register 13
 716              		@ sp needed
 717 008e 5DF8047B 		ldr	r7, [sp], #4
 718              		.cfi_restore 7
 719              		.cfi_def_cfa_offset 0
 720 0092 7047     		bx	lr
 721              	.L42:
 722              		.align	2
 723              	.L41:
 724 0094 70000000 		.word	fullUpdateTime
 725 0098 72000000 		.word	partialUpdateTime
 726              		.cfi_endproc
 727              	.LFE608:
 728              		.size	Pv_EINK_SetTempFactor, .-Pv_EINK_SetTempFactor
 729              		.section	.text.Pv_EINK_FullStageHandler,"ax",%progbits
 730              		.align	2
 731              		.global	Pv_EINK_FullStageHandler
 732              		.thumb
 733              		.thumb_func
 734              		.type	Pv_EINK_FullStageHandler, %function
 735              	Pv_EINK_FullStageHandler:
 736              	.LFB609:
 459:eInk Library/pervasive_eink_hardware_driver.c **** 
 460:eInk Library/pervasive_eink_hardware_driver.c **** /*******************************************************************************
 461:eInk Library/pervasive_eink_hardware_driver.c **** * Function Name: void Pv_EINK_FullStageHandler(pv_eink_frame_data_t* imagePtr,
 462:eInk Library/pervasive_eink_hardware_driver.c **** *                                              pv_eink_stage_t stageNumber)
 463:eInk Library/pervasive_eink_hardware_driver.c **** ********************************************************************************
 464:eInk Library/pervasive_eink_hardware_driver.c **** *
 465:eInk Library/pervasive_eink_hardware_driver.c **** * Summary: The full update driving stages for getting Odd and Even bytes, and
 466:eInk Library/pervasive_eink_hardware_driver.c **** * then writing the data from memory array to E-INK driver.
 467:eInk Library/pervasive_eink_hardware_driver.c **** *
 468:eInk Library/pervasive_eink_hardware_driver.c **** * One dot/pixel is comprised of 2 bits that can be White(10), Black(11) or 
 469:eInk Library/pervasive_eink_hardware_driver.c **** * Nothing * (01 or 00). The image data bytes must be divided into Odd and Even 
 470:eInk Library/pervasive_eink_hardware_driver.c **** * bytes.
 471:eInk Library/pervasive_eink_hardware_driver.c **** * Line data flow is first half of data bytes -> scan bytes -> second half of data
 472:eInk Library/pervasive_eink_hardware_driver.c **** * bytes. For more details on the driving stages, please refer to the driver G2
 473:eInk Library/pervasive_eink_hardware_driver.c **** * document Section 5.
 474:eInk Library/pervasive_eink_hardware_driver.c **** *
 475:eInk Library/pervasive_eink_hardware_driver.c **** * Parameters:
 476:eInk Library/pervasive_eink_hardware_driver.c **** * pv_eink_frame_data_t* imagePtr    : The pointer to the memory that contains a
 477:eInk Library/pervasive_eink_hardware_driver.c **** *                                     frame
 478:eInk Library/pervasive_eink_hardware_driver.c **** * pv_eink_stage_t stageNumber       : The assigned stage number
 479:eInk Library/pervasive_eink_hardware_driver.c **** *
 480:eInk Library/pervasive_eink_hardware_driver.c **** * Return:
 481:eInk Library/pervasive_eink_hardware_driver.c **** *  None
 482:eInk Library/pervasive_eink_hardware_driver.c **** *
 483:eInk Library/pervasive_eink_hardware_driver.c **** * Side Effects:
 484:eInk Library/pervasive_eink_hardware_driver.c **** *  This is a blocking function. CPU will be busy during the entire operation,
 485:eInk Library/pervasive_eink_hardware_driver.c **** * which can be 1 to 2 seconds.
 486:eInk Library/pervasive_eink_hardware_driver.c **** *******************************************************************************/
 487:eInk Library/pervasive_eink_hardware_driver.c **** void Pv_EINK_FullStageHandler(pv_eink_frame_data_t* imagePtr, 
 488:eInk Library/pervasive_eink_hardware_driver.c ****                               pv_eink_stage_t stageNumber)
ARM GAS  C:\Users\rober\AppData\Local\Temp\ccAa3myu.s 			page 36


 489:eInk Library/pervasive_eink_hardware_driver.c **** {
 737              		.loc 2 489 0
 738              		.cfi_startproc
 739              		@ args = 0, pretend = 0, frame = 24
 740              		@ frame_needed = 1, uses_anonymous_args = 0
 741 0000 90B5     		push	{r4, r7, lr}
 742              		.cfi_def_cfa_offset 12
 743              		.cfi_offset 4, -12
 744              		.cfi_offset 7, -8
 745              		.cfi_offset 14, -4
 746 0002 87B0     		sub	sp, sp, #28
 747              		.cfi_def_cfa_offset 40
 748 0004 00AF     		add	r7, sp, #0
 749              		.cfi_def_cfa_register 7
 750 0006 7860     		str	r0, [r7, #4]
 751 0008 0B46     		mov	r3, r1
 752 000a FB70     		strb	r3, [r7, #3]
 490:eInk Library/pervasive_eink_hardware_driver.c ****     /* Counter variable for the horizontal pixel loop */
 491:eInk Library/pervasive_eink_hardware_driver.c ****     uint16_t    x;
 492:eInk Library/pervasive_eink_hardware_driver.c ****     /* Counter variable for the vertical pixel loop */
 493:eInk Library/pervasive_eink_hardware_driver.c ****     uint16_t    y;
 494:eInk Library/pervasive_eink_hardware_driver.c ****     /* Counter variable for the horizontal byte loop */
 495:eInk Library/pervasive_eink_hardware_driver.c ****     uint16_t    k;
 496:eInk Library/pervasive_eink_hardware_driver.c ****       
 497:eInk Library/pervasive_eink_hardware_driver.c ****     /* Variable for storing the line number under scan */
 498:eInk Library/pervasive_eink_hardware_driver.c ****     int16       scanlineNumber = 0;
 753              		.loc 2 498 0
 754 000c 0023     		movs	r3, #0
 755 000e FB81     		strh	r3, [r7, #14]	@ movhi
 499:eInk Library/pervasive_eink_hardware_driver.c ****     
 500:eInk Library/pervasive_eink_hardware_driver.c ****     /* Temporary storage for image data byte */
 501:eInk Library/pervasive_eink_hardware_driver.c ****     uint8_t     tempByte = *imagePtr;
 756              		.loc 2 501 0
 757 0010 7B68     		ldr	r3, [r7, #4]
 758 0012 1B78     		ldrb	r3, [r3]
 759 0014 7B74     		strb	r3, [r7, #17]
 502:eInk Library/pervasive_eink_hardware_driver.c ****     
 503:eInk Library/pervasive_eink_hardware_driver.c ****     /* Flag to check if the current pointer is a macro of white/black frame */
 504:eInk Library/pervasive_eink_hardware_driver.c ****     bool        blackOrWhiteFrame;
 505:eInk Library/pervasive_eink_hardware_driver.c ****     
 506:eInk Library/pervasive_eink_hardware_driver.c ****     /* If the current pointer is a macro of the white frame */
 507:eInk Library/pervasive_eink_hardware_driver.c ****     if (imagePtr == PV_EINK_WHITE_FRAME_ADDRESS)
 760              		.loc 2 507 0
 761 0016 7B68     		ldr	r3, [r7, #4]
 762 0018 002B     		cmp	r3, #0
 763 001a 04D1     		bne	.L44
 508:eInk Library/pervasive_eink_hardware_driver.c ****     {
 509:eInk Library/pervasive_eink_hardware_driver.c ****         /* Set the white/black frame flag */
 510:eInk Library/pervasive_eink_hardware_driver.c ****         blackOrWhiteFrame = true;
 764              		.loc 2 510 0
 765 001c 0123     		movs	r3, #1
 766 001e 3B74     		strb	r3, [r7, #16]
 511:eInk Library/pervasive_eink_hardware_driver.c ****         /* Set the tempByte to white pixel byte */
 512:eInk Library/pervasive_eink_hardware_driver.c ****         tempByte = PV_EINK_WHITE_PIXEL_BYTE;
 767              		.loc 2 512 0
 768 0020 FF23     		movs	r3, #255
 769 0022 7B74     		strb	r3, [r7, #17]
ARM GAS  C:\Users\rober\AppData\Local\Temp\ccAa3myu.s 			page 37


 770 0024 0AE0     		b	.L45
 771              	.L44:
 513:eInk Library/pervasive_eink_hardware_driver.c ****         
 514:eInk Library/pervasive_eink_hardware_driver.c ****     }
 515:eInk Library/pervasive_eink_hardware_driver.c ****     /* If the current pointer is a macro of the black frame */
 516:eInk Library/pervasive_eink_hardware_driver.c ****     else if (imagePtr == PV_EINK_BLACK_FRAME_ADDRESS)
 772              		.loc 2 516 0
 773 0026 7B68     		ldr	r3, [r7, #4]
 774 0028 A64A     		ldr	r2, .L126
 775 002a 9342     		cmp	r3, r2
 776 002c 04D1     		bne	.L46
 517:eInk Library/pervasive_eink_hardware_driver.c ****     {
 518:eInk Library/pervasive_eink_hardware_driver.c ****          /* Set the white/black frame flag */
 519:eInk Library/pervasive_eink_hardware_driver.c ****         blackOrWhiteFrame = true;
 777              		.loc 2 519 0
 778 002e 0123     		movs	r3, #1
 779 0030 3B74     		strb	r3, [r7, #16]
 520:eInk Library/pervasive_eink_hardware_driver.c ****         /* set the tempByte to black pixel byte */
 521:eInk Library/pervasive_eink_hardware_driver.c ****         tempByte = PV_EINK_BLACK_PIXEL_BYTE;
 780              		.loc 2 521 0
 781 0032 0023     		movs	r3, #0
 782 0034 7B74     		strb	r3, [r7, #17]
 783 0036 01E0     		b	.L45
 784              	.L46:
 522:eInk Library/pervasive_eink_hardware_driver.c ****     }
 523:eInk Library/pervasive_eink_hardware_driver.c ****     /* If the current pointer is of an image stored in flash */
 524:eInk Library/pervasive_eink_hardware_driver.c ****     else
 525:eInk Library/pervasive_eink_hardware_driver.c ****     {
 526:eInk Library/pervasive_eink_hardware_driver.c ****         /* Clear the white/black frame flag */
 527:eInk Library/pervasive_eink_hardware_driver.c ****         blackOrWhiteFrame = false;
 785              		.loc 2 527 0
 786 0038 0023     		movs	r3, #0
 787 003a 3B74     		strb	r3, [r7, #16]
 788              	.L45:
 528:eInk Library/pervasive_eink_hardware_driver.c ****     }
 529:eInk Library/pervasive_eink_hardware_driver.c **** 
 530:eInk Library/pervasive_eink_hardware_driver.c ****     /* Re-initialize E-INK timer to ensure the same duration of each stage */
 531:eInk Library/pervasive_eink_hardware_driver.c ****     Cy_EINK_TimerInit();
 789              		.loc 2 531 0
 790 003c FFF7FEFF 		bl	Cy_EINK_TimerInit
 532:eInk Library/pervasive_eink_hardware_driver.c **** 
 533:eInk Library/pervasive_eink_hardware_driver.c ****     /* Vertical pixel loop */
 534:eInk Library/pervasive_eink_hardware_driver.c ****     for (y = 0; y < PV_EINK_VERTICAL_SIZE; y++)
 791              		.loc 2 534 0
 792 0040 0023     		movs	r3, #0
 793 0042 BB82     		strh	r3, [r7, #20]	@ movhi
 794 0044 11E3     		b	.L47
 795              	.L122:
 535:eInk Library/pervasive_eink_hardware_driver.c ****     {
 536:eInk Library/pervasive_eink_hardware_driver.c ****         /* Clear the line buffer with all zeros */
 537:eInk Library/pervasive_eink_hardware_driver.c ****         memset(&bulkDriverPacket[y].lineBuffer, 0, 
 796              		.loc 2 537 0
 797 0046 BA8A     		ldrh	r2, [r7, #20]
 798 0048 1346     		mov	r3, r2
 799 004a DB00     		lsls	r3, r3, #3
 800 004c 9B1A     		subs	r3, r3, r2
 801 004e 1B01     		lsls	r3, r3, #4
ARM GAS  C:\Users\rober\AppData\Local\Temp\ccAa3myu.s 			page 38


 802 0050 9B1A     		subs	r3, r3, r2
 803 0052 9D4A     		ldr	r2, .L126+4
 804 0054 1344     		add	r3, r3, r2
 805 0056 6F22     		movs	r2, #111
 806 0058 0021     		movs	r1, #0
 807 005a 1846     		mov	r0, r3
 808 005c FFF7FEFF 		bl	memset
 538:eInk Library/pervasive_eink_hardware_driver.c ****                sizeof(bulkDriverPacket[y].lineBuffer)) ;
 539:eInk Library/pervasive_eink_hardware_driver.c **** 
 540:eInk Library/pervasive_eink_hardware_driver.c ****         /* Initialize the even data, odd data and scan data pointers */
 541:eInk Library/pervasive_eink_hardware_driver.c ****         dataLineEven = &bulkDriverPacket[y].lineDataBySize.even[0];
 809              		.loc 2 541 0
 810 0060 BA8A     		ldrh	r2, [r7, #20]
 811 0062 1346     		mov	r3, r2
 812 0064 DB00     		lsls	r3, r3, #3
 813 0066 9B1A     		subs	r3, r3, r2
 814 0068 1B01     		lsls	r3, r3, #4
 815 006a 9B1A     		subs	r3, r3, r2
 816 006c 964A     		ldr	r2, .L126+4
 817 006e 1344     		add	r3, r3, r2
 818 0070 0133     		adds	r3, r3, #1
 819 0072 964A     		ldr	r2, .L126+8
 820 0074 1360     		str	r3, [r2]
 542:eInk Library/pervasive_eink_hardware_driver.c ****         dataLineOdd  = &bulkDriverPacket[y].lineDataBySize.odd[0];
 821              		.loc 2 542 0
 822 0076 BA8A     		ldrh	r2, [r7, #20]
 823 0078 1346     		mov	r3, r2
 824 007a DB00     		lsls	r3, r3, #3
 825 007c 9B1A     		subs	r3, r3, r2
 826 007e 1B01     		lsls	r3, r3, #4
 827 0080 9B1A     		subs	r3, r3, r2
 828 0082 4833     		adds	r3, r3, #72
 829 0084 904A     		ldr	r2, .L126+4
 830 0086 1344     		add	r3, r3, r2
 831 0088 0633     		adds	r3, r3, #6
 832 008a 914A     		ldr	r2, .L126+12
 833 008c 1360     		str	r3, [r2]
 543:eInk Library/pervasive_eink_hardware_driver.c ****         dataLineScan = &bulkDriverPacket[y].lineDataBySize.scan[0];
 834              		.loc 2 543 0
 835 008e BA8A     		ldrh	r2, [r7, #20]
 836 0090 1346     		mov	r3, r2
 837 0092 DB00     		lsls	r3, r3, #3
 838 0094 9B1A     		subs	r3, r3, r2
 839 0096 1B01     		lsls	r3, r3, #4
 840 0098 9B1A     		subs	r3, r3, r2
 841 009a 2033     		adds	r3, r3, #32
 842 009c 8A4A     		ldr	r2, .L126+4
 843 009e 1344     		add	r3, r3, r2
 844 00a0 0233     		adds	r3, r3, #2
 845 00a2 8C4A     		ldr	r2, .L126+16
 846 00a4 1360     		str	r3, [r2]
 544:eInk Library/pervasive_eink_hardware_driver.c ****         
 545:eInk Library/pervasive_eink_hardware_driver.c ****         /* Horizontal bytes initialization */
 546:eInk Library/pervasive_eink_hardware_driver.c ****         k = PV_EINK_HORIZONTAL_SIZE;
 847              		.loc 2 546 0
 848 00a6 2123     		movs	r3, #33
 849 00a8 7B82     		strh	r3, [r7, #18]	@ movhi
ARM GAS  C:\Users\rober\AppData\Local\Temp\ccAa3myu.s 			page 39


 547:eInk Library/pervasive_eink_hardware_driver.c ****         k--;
 850              		.loc 2 547 0
 851 00aa 7B8A     		ldrh	r3, [r7, #18]
 852 00ac 013B     		subs	r3, r3, #1
 853 00ae 7B82     		strh	r3, [r7, #18]	@ movhi
 548:eInk Library/pervasive_eink_hardware_driver.c ****         
 549:eInk Library/pervasive_eink_hardware_driver.c ****         /* Horizontal pixel loop */
 550:eInk Library/pervasive_eink_hardware_driver.c ****         for (x = 0; x < PV_EINK_HORIZONTAL_SIZE; x++)
 854              		.loc 2 550 0
 855 00b0 0023     		movs	r3, #0
 856 00b2 FB82     		strh	r3, [r7, #22]	@ movhi
 857 00b4 B1E2     		b	.L48
 858              	.L120:
 551:eInk Library/pervasive_eink_hardware_driver.c ****         {
 552:eInk Library/pervasive_eink_hardware_driver.c ****             /* If the current pointer is of an image stored in flash */
 553:eInk Library/pervasive_eink_hardware_driver.c ****             if(!blackOrWhiteFrame)
 859              		.loc 2 553 0
 860 00b6 3B7C     		ldrb	r3, [r7, #16]
 861 00b8 83F00103 		eor	r3, r3, #1
 862 00bc DBB2     		uxtb	r3, r3
 863 00be 002B     		cmp	r3, #0
 864 00c0 04D0     		beq	.L49
 554:eInk Library/pervasive_eink_hardware_driver.c ****             {
 555:eInk Library/pervasive_eink_hardware_driver.c ****                 /* Fetch successive data bytes */
 556:eInk Library/pervasive_eink_hardware_driver.c ****                 tempByte = *imagePtr++;
 865              		.loc 2 556 0
 866 00c2 7B68     		ldr	r3, [r7, #4]
 867 00c4 5A1C     		adds	r2, r3, #1
 868 00c6 7A60     		str	r2, [r7, #4]
 869 00c8 1B78     		ldrb	r3, [r3]
 870 00ca 7B74     		strb	r3, [r7, #17]
 871              	.L49:
 557:eInk Library/pervasive_eink_hardware_driver.c ****             }
 558:eInk Library/pervasive_eink_hardware_driver.c ****             /* Perform one of the four stage operations */
 559:eInk Library/pervasive_eink_hardware_driver.c ****             switch (stageNumber)
 872              		.loc 2 559 0
 873 00cc FB78     		ldrb	r3, [r7, #3]	@ zero_extendqisi2
 874 00ce 032B     		cmp	r3, #3
 875 00d0 00F2A082 		bhi	.L50
 876 00d4 01A2     		adr	r2, .L52
 877 00d6 52F823F0 		ldr	pc, [r2, r3, lsl #2]
 878 00da 00BF     		.p2align 2
 879              	.L52:
 880 00dc ED000000 		.word	.L51+1
 881 00e0 31020000 		.word	.L53+1
 882 00e4 87030000 		.word	.L54+1
 883 00e8 C9040000 		.word	.L55+1
 884              		.p2align 1
 885              	.L51:
 560:eInk Library/pervasive_eink_hardware_driver.c ****             {
 561:eInk Library/pervasive_eink_hardware_driver.c ****             /* Stage 1: Calculate the inverted Even and Odd bytes of 
 562:eInk Library/pervasive_eink_hardware_driver.c ****                the previous image data */
 563:eInk Library/pervasive_eink_hardware_driver.c ****             case PV_EINK_STAGE1:
 564:eInk Library/pervasive_eink_hardware_driver.c ****                 dataLineOdd[x]       = ((tempByte & PV_EINK_ODD_MASK_A)  ? 
 886              		.loc 2 564 0
 887 00ec 784B     		ldr	r3, .L126+12
 888 00ee 1A68     		ldr	r2, [r3]
ARM GAS  C:\Users\rober\AppData\Local\Temp\ccAa3myu.s 			page 40


 889 00f0 FB8A     		ldrh	r3, [r7, #22]
 890 00f2 1344     		add	r3, r3, r2
 891 00f4 7A7C     		ldrb	r2, [r7, #17]	@ zero_extendqisi2
 892 00f6 02F04002 		and	r2, r2, #64
 893 00fa 002A     		cmp	r2, #0
 894 00fc 01D0     		beq	.L56
 895              		.loc 2 564 0 is_stmt 0 discriminator 1
 896 00fe C022     		movs	r2, #192
 897 0100 00E0     		b	.L57
 898              	.L56:
 899              		.loc 2 564 0 discriminator 2
 900 0102 8022     		movs	r2, #128
 901              	.L57:
 902              		.loc 2 564 0 discriminator 4
 903 0104 1A70     		strb	r2, [r3]
 565:eInk Library/pervasive_eink_hardware_driver.c ****                                         PV_EINK_BLACK3 : PV_EINK_WHITE3);
 566:eInk Library/pervasive_eink_hardware_driver.c ****                 dataLineOdd[x]      |= ((tempByte & PV_EINK_ODD_MASK_B)  ? 
 904              		.loc 2 566 0 is_stmt 1 discriminator 4
 905 0106 724B     		ldr	r3, .L126+12
 906 0108 1A68     		ldr	r2, [r3]
 907 010a FB8A     		ldrh	r3, [r7, #22]
 908 010c 1344     		add	r3, r3, r2
 909 010e 704A     		ldr	r2, .L126+12
 910 0110 1168     		ldr	r1, [r2]
 911 0112 FA8A     		ldrh	r2, [r7, #22]
 912 0114 0A44     		add	r2, r2, r1
 913 0116 1278     		ldrb	r2, [r2]	@ zero_extendqisi2
 914 0118 51B2     		sxtb	r1, r2
 915 011a 7A7C     		ldrb	r2, [r7, #17]	@ zero_extendqisi2
 916 011c 02F01002 		and	r2, r2, #16
 917 0120 002A     		cmp	r2, #0
 918 0122 01D0     		beq	.L58
 919              		.loc 2 566 0 is_stmt 0 discriminator 1
 920 0124 3022     		movs	r2, #48
 921 0126 00E0     		b	.L59
 922              	.L58:
 923              		.loc 2 566 0 discriminator 2
 924 0128 2022     		movs	r2, #32
 925              	.L59:
 926              		.loc 2 566 0 discriminator 4
 927 012a 0A43     		orrs	r2, r2, r1
 928 012c 52B2     		sxtb	r2, r2
 929 012e D2B2     		uxtb	r2, r2
 930 0130 1A70     		strb	r2, [r3]
 567:eInk Library/pervasive_eink_hardware_driver.c ****                                         PV_EINK_BLACK2 : PV_EINK_WHITE2);
 568:eInk Library/pervasive_eink_hardware_driver.c ****                 dataLineOdd[x]      |= ((tempByte & PV_EINK_ODD_MASK_C)  ? 
 931              		.loc 2 568 0 is_stmt 1 discriminator 4
 932 0132 674B     		ldr	r3, .L126+12
 933 0134 1A68     		ldr	r2, [r3]
 934 0136 FB8A     		ldrh	r3, [r7, #22]
 935 0138 1344     		add	r3, r3, r2
 936 013a 654A     		ldr	r2, .L126+12
 937 013c 1168     		ldr	r1, [r2]
 938 013e FA8A     		ldrh	r2, [r7, #22]
 939 0140 0A44     		add	r2, r2, r1
 940 0142 1278     		ldrb	r2, [r2]	@ zero_extendqisi2
 941 0144 51B2     		sxtb	r1, r2
ARM GAS  C:\Users\rober\AppData\Local\Temp\ccAa3myu.s 			page 41


 942 0146 7A7C     		ldrb	r2, [r7, #17]	@ zero_extendqisi2
 943 0148 02F00402 		and	r2, r2, #4
 944 014c 002A     		cmp	r2, #0
 945 014e 01D0     		beq	.L60
 946              		.loc 2 568 0 is_stmt 0 discriminator 1
 947 0150 0C22     		movs	r2, #12
 948 0152 00E0     		b	.L61
 949              	.L60:
 950              		.loc 2 568 0 discriminator 2
 951 0154 0822     		movs	r2, #8
 952              	.L61:
 953              		.loc 2 568 0 discriminator 4
 954 0156 0A43     		orrs	r2, r2, r1
 955 0158 52B2     		sxtb	r2, r2
 956 015a D2B2     		uxtb	r2, r2
 957 015c 1A70     		strb	r2, [r3]
 569:eInk Library/pervasive_eink_hardware_driver.c ****                                         PV_EINK_BLACK1 : PV_EINK_WHITE1);
 570:eInk Library/pervasive_eink_hardware_driver.c ****                 dataLineOdd[x]      |= ((tempByte & PV_EINK_ODD_MASK_D)  ? 
 958              		.loc 2 570 0 is_stmt 1 discriminator 4
 959 015e 5C4B     		ldr	r3, .L126+12
 960 0160 1A68     		ldr	r2, [r3]
 961 0162 FB8A     		ldrh	r3, [r7, #22]
 962 0164 1344     		add	r3, r3, r2
 963 0166 5A4A     		ldr	r2, .L126+12
 964 0168 1168     		ldr	r1, [r2]
 965 016a FA8A     		ldrh	r2, [r7, #22]
 966 016c 0A44     		add	r2, r2, r1
 967 016e 1278     		ldrb	r2, [r2]	@ zero_extendqisi2
 968 0170 51B2     		sxtb	r1, r2
 969 0172 7A7C     		ldrb	r2, [r7, #17]	@ zero_extendqisi2
 970 0174 02F00102 		and	r2, r2, #1
 971 0178 002A     		cmp	r2, #0
 972 017a 01D0     		beq	.L62
 973              		.loc 2 570 0 is_stmt 0 discriminator 1
 974 017c 0322     		movs	r2, #3
 975 017e 00E0     		b	.L63
 976              	.L62:
 977              		.loc 2 570 0 discriminator 2
 978 0180 0222     		movs	r2, #2
 979              	.L63:
 980              		.loc 2 570 0 discriminator 4
 981 0182 0A43     		orrs	r2, r2, r1
 982 0184 52B2     		sxtb	r2, r2
 983 0186 D2B2     		uxtb	r2, r2
 984 0188 1A70     		strb	r2, [r3]
 571:eInk Library/pervasive_eink_hardware_driver.c ****                                         PV_EINK_BLACK0 : PV_EINK_WHITE0);
 572:eInk Library/pervasive_eink_hardware_driver.c ****                 dataLineEven[k]      = ((tempByte & PV_EINK_EVEN_MASK_A) ? 
 985              		.loc 2 572 0 is_stmt 1 discriminator 4
 986 018a 504B     		ldr	r3, .L126+8
 987 018c 1A68     		ldr	r2, [r3]
 988 018e 7B8A     		ldrh	r3, [r7, #18]
 989 0190 1344     		add	r3, r3, r2
 990 0192 97F91120 		ldrsb	r2, [r7, #17]
 991 0196 002A     		cmp	r2, #0
 992 0198 01DA     		bge	.L64
 993              		.loc 2 572 0 is_stmt 0 discriminator 1
 994 019a 0322     		movs	r2, #3
ARM GAS  C:\Users\rober\AppData\Local\Temp\ccAa3myu.s 			page 42


 995 019c 00E0     		b	.L65
 996              	.L64:
 997              		.loc 2 572 0 discriminator 2
 998 019e 0222     		movs	r2, #2
 999              	.L65:
 1000              		.loc 2 572 0 discriminator 4
 1001 01a0 1A70     		strb	r2, [r3]
 573:eInk Library/pervasive_eink_hardware_driver.c ****                                         PV_EINK_BLACK0 : PV_EINK_WHITE0);
 574:eInk Library/pervasive_eink_hardware_driver.c ****                 dataLineEven[k]     |= ((tempByte & PV_EINK_EVEN_MASK_B) ? 
 1002              		.loc 2 574 0 is_stmt 1 discriminator 4
 1003 01a2 4A4B     		ldr	r3, .L126+8
 1004 01a4 1A68     		ldr	r2, [r3]
 1005 01a6 7B8A     		ldrh	r3, [r7, #18]
 1006 01a8 1344     		add	r3, r3, r2
 1007 01aa 484A     		ldr	r2, .L126+8
 1008 01ac 1168     		ldr	r1, [r2]
 1009 01ae 7A8A     		ldrh	r2, [r7, #18]
 1010 01b0 0A44     		add	r2, r2, r1
 1011 01b2 1278     		ldrb	r2, [r2]	@ zero_extendqisi2
 1012 01b4 51B2     		sxtb	r1, r2
 1013 01b6 7A7C     		ldrb	r2, [r7, #17]	@ zero_extendqisi2
 1014 01b8 02F02002 		and	r2, r2, #32
 1015 01bc 002A     		cmp	r2, #0
 1016 01be 01D0     		beq	.L66
 1017              		.loc 2 574 0 is_stmt 0 discriminator 1
 1018 01c0 0C22     		movs	r2, #12
 1019 01c2 00E0     		b	.L67
 1020              	.L66:
 1021              		.loc 2 574 0 discriminator 2
 1022 01c4 0822     		movs	r2, #8
 1023              	.L67:
 1024              		.loc 2 574 0 discriminator 4
 1025 01c6 0A43     		orrs	r2, r2, r1
 1026 01c8 52B2     		sxtb	r2, r2
 1027 01ca D2B2     		uxtb	r2, r2
 1028 01cc 1A70     		strb	r2, [r3]
 575:eInk Library/pervasive_eink_hardware_driver.c ****                                         PV_EINK_BLACK1 : PV_EINK_WHITE1);
 576:eInk Library/pervasive_eink_hardware_driver.c ****                 dataLineEven[k]     |= ((tempByte & PV_EINK_EVEN_MASK_C) ? 
 1029              		.loc 2 576 0 is_stmt 1 discriminator 4
 1030 01ce 3F4B     		ldr	r3, .L126+8
 1031 01d0 1A68     		ldr	r2, [r3]
 1032 01d2 7B8A     		ldrh	r3, [r7, #18]
 1033 01d4 1344     		add	r3, r3, r2
 1034 01d6 3D4A     		ldr	r2, .L126+8
 1035 01d8 1168     		ldr	r1, [r2]
 1036 01da 7A8A     		ldrh	r2, [r7, #18]
 1037 01dc 0A44     		add	r2, r2, r1
 1038 01de 1278     		ldrb	r2, [r2]	@ zero_extendqisi2
 1039 01e0 51B2     		sxtb	r1, r2
 1040 01e2 7A7C     		ldrb	r2, [r7, #17]	@ zero_extendqisi2
 1041 01e4 02F00802 		and	r2, r2, #8
 1042 01e8 002A     		cmp	r2, #0
 1043 01ea 01D0     		beq	.L68
 1044              		.loc 2 576 0 is_stmt 0 discriminator 1
 1045 01ec 3022     		movs	r2, #48
 1046 01ee 00E0     		b	.L69
 1047              	.L68:
ARM GAS  C:\Users\rober\AppData\Local\Temp\ccAa3myu.s 			page 43


 1048              		.loc 2 576 0 discriminator 2
 1049 01f0 2022     		movs	r2, #32
 1050              	.L69:
 1051              		.loc 2 576 0 discriminator 4
 1052 01f2 0A43     		orrs	r2, r2, r1
 1053 01f4 52B2     		sxtb	r2, r2
 1054 01f6 D2B2     		uxtb	r2, r2
 1055 01f8 1A70     		strb	r2, [r3]
 577:eInk Library/pervasive_eink_hardware_driver.c ****                                         PV_EINK_BLACK2 : PV_EINK_WHITE2);
 578:eInk Library/pervasive_eink_hardware_driver.c ****                 dataLineEven[k--]   |= ((tempByte & PV_EINK_EVEN_MASK_D) ? 
 1056              		.loc 2 578 0 is_stmt 1 discriminator 4
 1057 01fa 344B     		ldr	r3, .L126+8
 1058 01fc 1A68     		ldr	r2, [r3]
 1059 01fe 7B8A     		ldrh	r3, [r7, #18]
 1060 0200 591E     		subs	r1, r3, #1
 1061 0202 7982     		strh	r1, [r7, #18]	@ movhi
 1062 0204 1946     		mov	r1, r3
 1063 0206 0A44     		add	r2, r2, r1
 1064 0208 3049     		ldr	r1, .L126+8
 1065 020a 0968     		ldr	r1, [r1]
 1066 020c 0B44     		add	r3, r3, r1
 1067 020e 1B78     		ldrb	r3, [r3]	@ zero_extendqisi2
 1068 0210 59B2     		sxtb	r1, r3
 1069 0212 7B7C     		ldrb	r3, [r7, #17]	@ zero_extendqisi2
 1070 0214 03F00203 		and	r3, r3, #2
 1071 0218 002B     		cmp	r3, #0
 1072 021a 02D0     		beq	.L70
 1073              		.loc 2 578 0 is_stmt 0 discriminator 1
 1074 021c 6FF03F03 		mvn	r3, #63
 1075 0220 01E0     		b	.L71
 1076              	.L70:
 1077              		.loc 2 578 0 discriminator 2
 1078 0222 6FF07F03 		mvn	r3, #127
 1079              	.L71:
 1080              		.loc 2 578 0 discriminator 4
 1081 0226 0B43     		orrs	r3, r3, r1
 1082 0228 5BB2     		sxtb	r3, r3
 1083 022a DBB2     		uxtb	r3, r3
 1084 022c 1370     		strb	r3, [r2]
 579:eInk Library/pervasive_eink_hardware_driver.c ****                                         PV_EINK_BLACK3 : PV_EINK_WHITE3);
 580:eInk Library/pervasive_eink_hardware_driver.c ****                 break;
 1085              		.loc 2 580 0 is_stmt 1 discriminator 4
 1086 022e F1E1     		b	.L50
 1087              	.L53:
 581:eInk Library/pervasive_eink_hardware_driver.c ****             /* Stage 2: Calculate the Even and Odd bytes of an all-white
 582:eInk Library/pervasive_eink_hardware_driver.c ****                frame */
 583:eInk Library/pervasive_eink_hardware_driver.c ****             case PV_EINK_STAGE2:
 584:eInk Library/pervasive_eink_hardware_driver.c ****                 dataLineOdd[x]       = ((tempByte & PV_EINK_ODD_MASK_A)  ? 
 1088              		.loc 2 584 0
 1089 0230 274B     		ldr	r3, .L126+12
 1090 0232 1A68     		ldr	r2, [r3]
 1091 0234 FB8A     		ldrh	r3, [r7, #22]
 1092 0236 1344     		add	r3, r3, r2
 1093 0238 7A7C     		ldrb	r2, [r7, #17]	@ zero_extendqisi2
 1094 023a 02F04002 		and	r2, r2, #64
 1095 023e 002A     		cmp	r2, #0
 1096 0240 01D0     		beq	.L72
ARM GAS  C:\Users\rober\AppData\Local\Temp\ccAa3myu.s 			page 44


 1097              		.loc 2 584 0 is_stmt 0 discriminator 1
 1098 0242 8022     		movs	r2, #128
 1099 0244 00E0     		b	.L73
 1100              	.L72:
 1101              		.loc 2 584 0 discriminator 2
 1102 0246 4022     		movs	r2, #64
 1103              	.L73:
 1104              		.loc 2 584 0 discriminator 4
 1105 0248 1A70     		strb	r2, [r3]
 585:eInk Library/pervasive_eink_hardware_driver.c ****                                         PV_EINK_WHITE3 : PV_EINK_NOTHING3);
 586:eInk Library/pervasive_eink_hardware_driver.c ****                 dataLineOdd[x]      |= ((tempByte & PV_EINK_ODD_MASK_B)  ? 
 1106              		.loc 2 586 0 is_stmt 1 discriminator 4
 1107 024a 214B     		ldr	r3, .L126+12
 1108 024c 1A68     		ldr	r2, [r3]
 1109 024e FB8A     		ldrh	r3, [r7, #22]
 1110 0250 1344     		add	r3, r3, r2
 1111 0252 1F4A     		ldr	r2, .L126+12
 1112 0254 1168     		ldr	r1, [r2]
 1113 0256 FA8A     		ldrh	r2, [r7, #22]
 1114 0258 0A44     		add	r2, r2, r1
 1115 025a 1278     		ldrb	r2, [r2]	@ zero_extendqisi2
 1116 025c 51B2     		sxtb	r1, r2
 1117 025e 7A7C     		ldrb	r2, [r7, #17]	@ zero_extendqisi2
 1118 0260 02F01002 		and	r2, r2, #16
 1119 0264 002A     		cmp	r2, #0
 1120 0266 01D0     		beq	.L74
 1121              		.loc 2 586 0 is_stmt 0 discriminator 1
 1122 0268 2022     		movs	r2, #32
 1123 026a 00E0     		b	.L75
 1124              	.L74:
 1125              		.loc 2 586 0 discriminator 2
 1126 026c 1022     		movs	r2, #16
 1127              	.L75:
 1128              		.loc 2 586 0 discriminator 4
 1129 026e 0A43     		orrs	r2, r2, r1
 1130 0270 52B2     		sxtb	r2, r2
 1131 0272 D2B2     		uxtb	r2, r2
 1132 0274 1A70     		strb	r2, [r3]
 587:eInk Library/pervasive_eink_hardware_driver.c ****                                         PV_EINK_WHITE2 : PV_EINK_NOTHING2);
 588:eInk Library/pervasive_eink_hardware_driver.c ****                 dataLineOdd[x]      |= ((tempByte & PV_EINK_ODD_MASK_C)  ? 
 1133              		.loc 2 588 0 is_stmt 1 discriminator 4
 1134 0276 164B     		ldr	r3, .L126+12
 1135 0278 1A68     		ldr	r2, [r3]
 1136 027a FB8A     		ldrh	r3, [r7, #22]
 1137 027c 1344     		add	r3, r3, r2
 1138 027e 144A     		ldr	r2, .L126+12
 1139 0280 1168     		ldr	r1, [r2]
 1140 0282 FA8A     		ldrh	r2, [r7, #22]
 1141 0284 0A44     		add	r2, r2, r1
 1142 0286 1278     		ldrb	r2, [r2]	@ zero_extendqisi2
 1143 0288 51B2     		sxtb	r1, r2
 1144 028a 7A7C     		ldrb	r2, [r7, #17]	@ zero_extendqisi2
 1145 028c 02F00402 		and	r2, r2, #4
 1146 0290 002A     		cmp	r2, #0
 1147 0292 01D0     		beq	.L76
 1148              		.loc 2 588 0 is_stmt 0 discriminator 1
 1149 0294 0822     		movs	r2, #8
ARM GAS  C:\Users\rober\AppData\Local\Temp\ccAa3myu.s 			page 45


 1150 0296 00E0     		b	.L77
 1151              	.L76:
 1152              		.loc 2 588 0 discriminator 2
 1153 0298 0422     		movs	r2, #4
 1154              	.L77:
 1155              		.loc 2 588 0 discriminator 4
 1156 029a 0A43     		orrs	r2, r2, r1
 1157 029c 52B2     		sxtb	r2, r2
 1158 029e D2B2     		uxtb	r2, r2
 1159 02a0 1A70     		strb	r2, [r3]
 589:eInk Library/pervasive_eink_hardware_driver.c ****                                         PV_EINK_WHITE1 : PV_EINK_NOTHING1);
 590:eInk Library/pervasive_eink_hardware_driver.c ****                 dataLineOdd[x]      |= ((tempByte & PV_EINK_ODD_MASK_D)  ? 
 1160              		.loc 2 590 0 is_stmt 1 discriminator 4
 1161 02a2 0B4B     		ldr	r3, .L126+12
 1162 02a4 1A68     		ldr	r2, [r3]
 1163 02a6 FB8A     		ldrh	r3, [r7, #22]
 1164 02a8 1344     		add	r3, r3, r2
 1165 02aa 094A     		ldr	r2, .L126+12
 1166 02ac 1168     		ldr	r1, [r2]
 1167 02ae FA8A     		ldrh	r2, [r7, #22]
 1168 02b0 0A44     		add	r2, r2, r1
 1169 02b2 1278     		ldrb	r2, [r2]	@ zero_extendqisi2
 1170 02b4 51B2     		sxtb	r1, r2
 1171 02b6 7A7C     		ldrb	r2, [r7, #17]	@ zero_extendqisi2
 1172 02b8 02F00102 		and	r2, r2, #1
 1173 02bc 002A     		cmp	r2, #0
 1174 02be 0BD0     		beq	.L78
 1175              		.loc 2 590 0 is_stmt 0 discriminator 1
 1176 02c0 0222     		movs	r2, #2
 1177 02c2 0AE0     		b	.L79
 1178              	.L127:
 1179              		.align	2
 1180              	.L126:
 1181 02c4 FFFF0F10 		.word	269484031
 1182 02c8 00000000 		.word	bulkDriverPacket
 1183 02cc 74000000 		.word	dataLineEven
 1184 02d0 78000000 		.word	dataLineOdd
 1185 02d4 7C000000 		.word	dataLineScan
 1186              	.L78:
 1187              		.loc 2 590 0 discriminator 2
 1188 02d8 0122     		movs	r2, #1
 1189              	.L79:
 1190              		.loc 2 590 0 discriminator 4
 1191 02da 0A43     		orrs	r2, r2, r1
 1192 02dc 52B2     		sxtb	r2, r2
 1193 02de D2B2     		uxtb	r2, r2
 1194 02e0 1A70     		strb	r2, [r3]
 591:eInk Library/pervasive_eink_hardware_driver.c ****                                         PV_EINK_WHITE0 : PV_EINK_NOTHING0);
 592:eInk Library/pervasive_eink_hardware_driver.c ****                 dataLineEven[k]      = ((tempByte & PV_EINK_EVEN_MASK_A) ?
 1195              		.loc 2 592 0 is_stmt 1 discriminator 4
 1196 02e2 9E4B     		ldr	r3, .L128
 1197 02e4 1A68     		ldr	r2, [r3]
 1198 02e6 7B8A     		ldrh	r3, [r7, #18]
 1199 02e8 1344     		add	r3, r3, r2
 1200 02ea 97F91120 		ldrsb	r2, [r7, #17]
 1201 02ee 002A     		cmp	r2, #0
 1202 02f0 01DA     		bge	.L80
ARM GAS  C:\Users\rober\AppData\Local\Temp\ccAa3myu.s 			page 46


 1203              		.loc 2 592 0 is_stmt 0 discriminator 1
 1204 02f2 0222     		movs	r2, #2
 1205 02f4 00E0     		b	.L81
 1206              	.L80:
 1207              		.loc 2 592 0 discriminator 2
 1208 02f6 0122     		movs	r2, #1
 1209              	.L81:
 1210              		.loc 2 592 0 discriminator 4
 1211 02f8 1A70     		strb	r2, [r3]
 593:eInk Library/pervasive_eink_hardware_driver.c ****                                         PV_EINK_WHITE0 : PV_EINK_NOTHING0);
 594:eInk Library/pervasive_eink_hardware_driver.c ****                 dataLineEven[k]     |= ((tempByte & PV_EINK_EVEN_MASK_B) ? 
 1212              		.loc 2 594 0 is_stmt 1 discriminator 4
 1213 02fa 984B     		ldr	r3, .L128
 1214 02fc 1A68     		ldr	r2, [r3]
 1215 02fe 7B8A     		ldrh	r3, [r7, #18]
 1216 0300 1344     		add	r3, r3, r2
 1217 0302 964A     		ldr	r2, .L128
 1218 0304 1168     		ldr	r1, [r2]
 1219 0306 7A8A     		ldrh	r2, [r7, #18]
 1220 0308 0A44     		add	r2, r2, r1
 1221 030a 1278     		ldrb	r2, [r2]	@ zero_extendqisi2
 1222 030c 51B2     		sxtb	r1, r2
 1223 030e 7A7C     		ldrb	r2, [r7, #17]	@ zero_extendqisi2
 1224 0310 02F02002 		and	r2, r2, #32
 1225 0314 002A     		cmp	r2, #0
 1226 0316 01D0     		beq	.L82
 1227              		.loc 2 594 0 is_stmt 0 discriminator 1
 1228 0318 0822     		movs	r2, #8
 1229 031a 00E0     		b	.L83
 1230              	.L82:
 1231              		.loc 2 594 0 discriminator 2
 1232 031c 0422     		movs	r2, #4
 1233              	.L83:
 1234              		.loc 2 594 0 discriminator 4
 1235 031e 0A43     		orrs	r2, r2, r1
 1236 0320 52B2     		sxtb	r2, r2
 1237 0322 D2B2     		uxtb	r2, r2
 1238 0324 1A70     		strb	r2, [r3]
 595:eInk Library/pervasive_eink_hardware_driver.c ****                                         PV_EINK_WHITE1 : PV_EINK_NOTHING1);
 596:eInk Library/pervasive_eink_hardware_driver.c ****                 dataLineEven[k]     |= ((tempByte & PV_EINK_EVEN_MASK_C) ? 
 1239              		.loc 2 596 0 is_stmt 1 discriminator 4
 1240 0326 8D4B     		ldr	r3, .L128
 1241 0328 1A68     		ldr	r2, [r3]
 1242 032a 7B8A     		ldrh	r3, [r7, #18]
 1243 032c 1344     		add	r3, r3, r2
 1244 032e 8B4A     		ldr	r2, .L128
 1245 0330 1168     		ldr	r1, [r2]
 1246 0332 7A8A     		ldrh	r2, [r7, #18]
 1247 0334 0A44     		add	r2, r2, r1
 1248 0336 1278     		ldrb	r2, [r2]	@ zero_extendqisi2
 1249 0338 51B2     		sxtb	r1, r2
 1250 033a 7A7C     		ldrb	r2, [r7, #17]	@ zero_extendqisi2
 1251 033c 02F00802 		and	r2, r2, #8
 1252 0340 002A     		cmp	r2, #0
 1253 0342 01D0     		beq	.L84
 1254              		.loc 2 596 0 is_stmt 0 discriminator 1
 1255 0344 2022     		movs	r2, #32
ARM GAS  C:\Users\rober\AppData\Local\Temp\ccAa3myu.s 			page 47


 1256 0346 00E0     		b	.L85
 1257              	.L84:
 1258              		.loc 2 596 0 discriminator 2
 1259 0348 1022     		movs	r2, #16
 1260              	.L85:
 1261              		.loc 2 596 0 discriminator 4
 1262 034a 0A43     		orrs	r2, r2, r1
 1263 034c 52B2     		sxtb	r2, r2
 1264 034e D2B2     		uxtb	r2, r2
 1265 0350 1A70     		strb	r2, [r3]
 597:eInk Library/pervasive_eink_hardware_driver.c ****                                         PV_EINK_WHITE2 : PV_EINK_NOTHING2);
 598:eInk Library/pervasive_eink_hardware_driver.c ****                 dataLineEven[k--]   |= ((tempByte & PV_EINK_EVEN_MASK_D) ? 
 1266              		.loc 2 598 0 is_stmt 1 discriminator 4
 1267 0352 824B     		ldr	r3, .L128
 1268 0354 1A68     		ldr	r2, [r3]
 1269 0356 7B8A     		ldrh	r3, [r7, #18]
 1270 0358 591E     		subs	r1, r3, #1
 1271 035a 7982     		strh	r1, [r7, #18]	@ movhi
 1272 035c 1946     		mov	r1, r3
 1273 035e 0A44     		add	r2, r2, r1
 1274 0360 7E49     		ldr	r1, .L128
 1275 0362 0968     		ldr	r1, [r1]
 1276 0364 0B44     		add	r3, r3, r1
 1277 0366 1B78     		ldrb	r3, [r3]	@ zero_extendqisi2
 1278 0368 59B2     		sxtb	r1, r3
 1279 036a 7B7C     		ldrb	r3, [r7, #17]	@ zero_extendqisi2
 1280 036c 03F00203 		and	r3, r3, #2
 1281 0370 002B     		cmp	r3, #0
 1282 0372 02D0     		beq	.L86
 1283              		.loc 2 598 0 is_stmt 0 discriminator 1
 1284 0374 6FF07F03 		mvn	r3, #127
 1285 0378 00E0     		b	.L87
 1286              	.L86:
 1287              		.loc 2 598 0 discriminator 2
 1288 037a 4023     		movs	r3, #64
 1289              	.L87:
 1290              		.loc 2 598 0 discriminator 4
 1291 037c 0B43     		orrs	r3, r3, r1
 1292 037e 5BB2     		sxtb	r3, r3
 1293 0380 DBB2     		uxtb	r3, r3
 1294 0382 1370     		strb	r3, [r2]
 599:eInk Library/pervasive_eink_hardware_driver.c ****                                         PV_EINK_WHITE3 : PV_EINK_NOTHING3);
 600:eInk Library/pervasive_eink_hardware_driver.c ****                 break;
 1295              		.loc 2 600 0 is_stmt 1 discriminator 4
 1296 0384 46E1     		b	.L50
 1297              	.L54:
 601:eInk Library/pervasive_eink_hardware_driver.c ****             /* Stage 3: Calculate the inverted Even and Odd bytes of the
 602:eInk Library/pervasive_eink_hardware_driver.c ****                new image data */
 603:eInk Library/pervasive_eink_hardware_driver.c ****             case PV_EINK_STAGE3:
 604:eInk Library/pervasive_eink_hardware_driver.c ****                 dataLineOdd[x]       = ((tempByte & PV_EINK_ODD_MASK_A)  ? 
 1298              		.loc 2 604 0
 1299 0386 764B     		ldr	r3, .L128+4
 1300 0388 1A68     		ldr	r2, [r3]
 1301 038a FB8A     		ldrh	r3, [r7, #22]
 1302 038c 1344     		add	r3, r3, r2
 1303 038e 7A7C     		ldrb	r2, [r7, #17]	@ zero_extendqisi2
 1304 0390 02F04002 		and	r2, r2, #64
ARM GAS  C:\Users\rober\AppData\Local\Temp\ccAa3myu.s 			page 48


 1305 0394 002A     		cmp	r2, #0
 1306 0396 01D0     		beq	.L88
 1307              		.loc 2 604 0 is_stmt 0 discriminator 1
 1308 0398 C022     		movs	r2, #192
 1309 039a 00E0     		b	.L89
 1310              	.L88:
 1311              		.loc 2 604 0 discriminator 2
 1312 039c 4022     		movs	r2, #64
 1313              	.L89:
 1314              		.loc 2 604 0 discriminator 4
 1315 039e 1A70     		strb	r2, [r3]
 605:eInk Library/pervasive_eink_hardware_driver.c ****                                         PV_EINK_BLACK3 : PV_EINK_NOTHING3);
 606:eInk Library/pervasive_eink_hardware_driver.c ****                 dataLineOdd[x]      |= ((tempByte & PV_EINK_ODD_MASK_B)  ? 
 1316              		.loc 2 606 0 is_stmt 1 discriminator 4
 1317 03a0 6F4B     		ldr	r3, .L128+4
 1318 03a2 1A68     		ldr	r2, [r3]
 1319 03a4 FB8A     		ldrh	r3, [r7, #22]
 1320 03a6 1344     		add	r3, r3, r2
 1321 03a8 6D4A     		ldr	r2, .L128+4
 1322 03aa 1168     		ldr	r1, [r2]
 1323 03ac FA8A     		ldrh	r2, [r7, #22]
 1324 03ae 0A44     		add	r2, r2, r1
 1325 03b0 1278     		ldrb	r2, [r2]	@ zero_extendqisi2
 1326 03b2 51B2     		sxtb	r1, r2
 1327 03b4 7A7C     		ldrb	r2, [r7, #17]	@ zero_extendqisi2
 1328 03b6 02F01002 		and	r2, r2, #16
 1329 03ba 002A     		cmp	r2, #0
 1330 03bc 01D0     		beq	.L90
 1331              		.loc 2 606 0 is_stmt 0 discriminator 1
 1332 03be 3022     		movs	r2, #48
 1333 03c0 00E0     		b	.L91
 1334              	.L90:
 1335              		.loc 2 606 0 discriminator 2
 1336 03c2 1022     		movs	r2, #16
 1337              	.L91:
 1338              		.loc 2 606 0 discriminator 4
 1339 03c4 0A43     		orrs	r2, r2, r1
 1340 03c6 52B2     		sxtb	r2, r2
 1341 03c8 D2B2     		uxtb	r2, r2
 1342 03ca 1A70     		strb	r2, [r3]
 607:eInk Library/pervasive_eink_hardware_driver.c ****                                         PV_EINK_BLACK2 : PV_EINK_NOTHING2);
 608:eInk Library/pervasive_eink_hardware_driver.c ****                 dataLineOdd[x]      |= ((tempByte & PV_EINK_ODD_MASK_C)  ?
 1343              		.loc 2 608 0 is_stmt 1 discriminator 4
 1344 03cc 644B     		ldr	r3, .L128+4
 1345 03ce 1A68     		ldr	r2, [r3]
 1346 03d0 FB8A     		ldrh	r3, [r7, #22]
 1347 03d2 1344     		add	r3, r3, r2
 1348 03d4 624A     		ldr	r2, .L128+4
 1349 03d6 1168     		ldr	r1, [r2]
 1350 03d8 FA8A     		ldrh	r2, [r7, #22]
 1351 03da 0A44     		add	r2, r2, r1
 1352 03dc 1278     		ldrb	r2, [r2]	@ zero_extendqisi2
 1353 03de 51B2     		sxtb	r1, r2
 1354 03e0 7A7C     		ldrb	r2, [r7, #17]	@ zero_extendqisi2
 1355 03e2 02F00402 		and	r2, r2, #4
 1356 03e6 002A     		cmp	r2, #0
 1357 03e8 01D0     		beq	.L92
ARM GAS  C:\Users\rober\AppData\Local\Temp\ccAa3myu.s 			page 49


 1358              		.loc 2 608 0 is_stmt 0 discriminator 1
 1359 03ea 0C22     		movs	r2, #12
 1360 03ec 00E0     		b	.L93
 1361              	.L92:
 1362              		.loc 2 608 0 discriminator 2
 1363 03ee 0422     		movs	r2, #4
 1364              	.L93:
 1365              		.loc 2 608 0 discriminator 4
 1366 03f0 0A43     		orrs	r2, r2, r1
 1367 03f2 52B2     		sxtb	r2, r2
 1368 03f4 D2B2     		uxtb	r2, r2
 1369 03f6 1A70     		strb	r2, [r3]
 609:eInk Library/pervasive_eink_hardware_driver.c ****                                         PV_EINK_BLACK1 : PV_EINK_NOTHING1);
 610:eInk Library/pervasive_eink_hardware_driver.c ****                 dataLineOdd[x]      |= ((tempByte & PV_EINK_ODD_MASK_D)  ?
 1370              		.loc 2 610 0 is_stmt 1 discriminator 4
 1371 03f8 594B     		ldr	r3, .L128+4
 1372 03fa 1A68     		ldr	r2, [r3]
 1373 03fc FB8A     		ldrh	r3, [r7, #22]
 1374 03fe 1344     		add	r3, r3, r2
 1375 0400 574A     		ldr	r2, .L128+4
 1376 0402 1168     		ldr	r1, [r2]
 1377 0404 FA8A     		ldrh	r2, [r7, #22]
 1378 0406 0A44     		add	r2, r2, r1
 1379 0408 1278     		ldrb	r2, [r2]	@ zero_extendqisi2
 1380 040a 51B2     		sxtb	r1, r2
 1381 040c 7A7C     		ldrb	r2, [r7, #17]	@ zero_extendqisi2
 1382 040e 02F00102 		and	r2, r2, #1
 1383 0412 002A     		cmp	r2, #0
 1384 0414 01D0     		beq	.L94
 1385              		.loc 2 610 0 is_stmt 0 discriminator 1
 1386 0416 0322     		movs	r2, #3
 1387 0418 00E0     		b	.L95
 1388              	.L94:
 1389              		.loc 2 610 0 discriminator 2
 1390 041a 0122     		movs	r2, #1
 1391              	.L95:
 1392              		.loc 2 610 0 discriminator 4
 1393 041c 0A43     		orrs	r2, r2, r1
 1394 041e 52B2     		sxtb	r2, r2
 1395 0420 D2B2     		uxtb	r2, r2
 1396 0422 1A70     		strb	r2, [r3]
 611:eInk Library/pervasive_eink_hardware_driver.c ****                                         PV_EINK_BLACK0 : PV_EINK_NOTHING0);
 612:eInk Library/pervasive_eink_hardware_driver.c ****                 dataLineEven[k]      = ((tempByte & PV_EINK_EVEN_MASK_A) ?
 1397              		.loc 2 612 0 is_stmt 1 discriminator 4
 1398 0424 4D4B     		ldr	r3, .L128
 1399 0426 1A68     		ldr	r2, [r3]
 1400 0428 7B8A     		ldrh	r3, [r7, #18]
 1401 042a 1344     		add	r3, r3, r2
 1402 042c 97F91120 		ldrsb	r2, [r7, #17]
 1403 0430 002A     		cmp	r2, #0
 1404 0432 01DA     		bge	.L96
 1405              		.loc 2 612 0 is_stmt 0 discriminator 1
 1406 0434 0322     		movs	r2, #3
 1407 0436 00E0     		b	.L97
 1408              	.L96:
 1409              		.loc 2 612 0 discriminator 2
 1410 0438 0122     		movs	r2, #1
ARM GAS  C:\Users\rober\AppData\Local\Temp\ccAa3myu.s 			page 50


 1411              	.L97:
 1412              		.loc 2 612 0 discriminator 4
 1413 043a 1A70     		strb	r2, [r3]
 613:eInk Library/pervasive_eink_hardware_driver.c ****                                         PV_EINK_BLACK0 : PV_EINK_NOTHING0);
 614:eInk Library/pervasive_eink_hardware_driver.c ****                 dataLineEven[k]     |= ((tempByte & PV_EINK_EVEN_MASK_B) ? 
 1414              		.loc 2 614 0 is_stmt 1 discriminator 4
 1415 043c 474B     		ldr	r3, .L128
 1416 043e 1A68     		ldr	r2, [r3]
 1417 0440 7B8A     		ldrh	r3, [r7, #18]
 1418 0442 1344     		add	r3, r3, r2
 1419 0444 454A     		ldr	r2, .L128
 1420 0446 1168     		ldr	r1, [r2]
 1421 0448 7A8A     		ldrh	r2, [r7, #18]
 1422 044a 0A44     		add	r2, r2, r1
 1423 044c 1278     		ldrb	r2, [r2]	@ zero_extendqisi2
 1424 044e 51B2     		sxtb	r1, r2
 1425 0450 7A7C     		ldrb	r2, [r7, #17]	@ zero_extendqisi2
 1426 0452 02F02002 		and	r2, r2, #32
 1427 0456 002A     		cmp	r2, #0
 1428 0458 01D0     		beq	.L98
 1429              		.loc 2 614 0 is_stmt 0 discriminator 1
 1430 045a 0C22     		movs	r2, #12
 1431 045c 00E0     		b	.L99
 1432              	.L98:
 1433              		.loc 2 614 0 discriminator 2
 1434 045e 0422     		movs	r2, #4
 1435              	.L99:
 1436              		.loc 2 614 0 discriminator 4
 1437 0460 0A43     		orrs	r2, r2, r1
 1438 0462 52B2     		sxtb	r2, r2
 1439 0464 D2B2     		uxtb	r2, r2
 1440 0466 1A70     		strb	r2, [r3]
 615:eInk Library/pervasive_eink_hardware_driver.c ****                                         PV_EINK_BLACK1 : PV_EINK_NOTHING1);
 616:eInk Library/pervasive_eink_hardware_driver.c ****                 dataLineEven[k]     |= ((tempByte & PV_EINK_EVEN_MASK_C) ? 
 1441              		.loc 2 616 0 is_stmt 1 discriminator 4
 1442 0468 3C4B     		ldr	r3, .L128
 1443 046a 1A68     		ldr	r2, [r3]
 1444 046c 7B8A     		ldrh	r3, [r7, #18]
 1445 046e 1344     		add	r3, r3, r2
 1446 0470 3A4A     		ldr	r2, .L128
 1447 0472 1168     		ldr	r1, [r2]
 1448 0474 7A8A     		ldrh	r2, [r7, #18]
 1449 0476 0A44     		add	r2, r2, r1
 1450 0478 1278     		ldrb	r2, [r2]	@ zero_extendqisi2
 1451 047a 51B2     		sxtb	r1, r2
 1452 047c 7A7C     		ldrb	r2, [r7, #17]	@ zero_extendqisi2
 1453 047e 02F00802 		and	r2, r2, #8
 1454 0482 002A     		cmp	r2, #0
 1455 0484 01D0     		beq	.L100
 1456              		.loc 2 616 0 is_stmt 0 discriminator 1
 1457 0486 3022     		movs	r2, #48
 1458 0488 00E0     		b	.L101
 1459              	.L100:
 1460              		.loc 2 616 0 discriminator 2
 1461 048a 1022     		movs	r2, #16
 1462              	.L101:
 1463              		.loc 2 616 0 discriminator 4
ARM GAS  C:\Users\rober\AppData\Local\Temp\ccAa3myu.s 			page 51


 1464 048c 0A43     		orrs	r2, r2, r1
 1465 048e 52B2     		sxtb	r2, r2
 1466 0490 D2B2     		uxtb	r2, r2
 1467 0492 1A70     		strb	r2, [r3]
 617:eInk Library/pervasive_eink_hardware_driver.c ****                                         PV_EINK_BLACK2 : PV_EINK_NOTHING2);
 618:eInk Library/pervasive_eink_hardware_driver.c ****                 dataLineEven[k--]   |= ((tempByte & PV_EINK_EVEN_MASK_D) ? 
 1468              		.loc 2 618 0 is_stmt 1 discriminator 4
 1469 0494 314B     		ldr	r3, .L128
 1470 0496 1A68     		ldr	r2, [r3]
 1471 0498 7B8A     		ldrh	r3, [r7, #18]
 1472 049a 591E     		subs	r1, r3, #1
 1473 049c 7982     		strh	r1, [r7, #18]	@ movhi
 1474 049e 1946     		mov	r1, r3
 1475 04a0 0A44     		add	r2, r2, r1
 1476 04a2 2E49     		ldr	r1, .L128
 1477 04a4 0968     		ldr	r1, [r1]
 1478 04a6 0B44     		add	r3, r3, r1
 1479 04a8 1B78     		ldrb	r3, [r3]	@ zero_extendqisi2
 1480 04aa 59B2     		sxtb	r1, r3
 1481 04ac 7B7C     		ldrb	r3, [r7, #17]	@ zero_extendqisi2
 1482 04ae 03F00203 		and	r3, r3, #2
 1483 04b2 002B     		cmp	r3, #0
 1484 04b4 02D0     		beq	.L102
 1485              		.loc 2 618 0 is_stmt 0 discriminator 1
 1486 04b6 6FF03F03 		mvn	r3, #63
 1487 04ba 00E0     		b	.L103
 1488              	.L102:
 1489              		.loc 2 618 0 discriminator 2
 1490 04bc 4023     		movs	r3, #64
 1491              	.L103:
 1492              		.loc 2 618 0 discriminator 4
 1493 04be 0B43     		orrs	r3, r3, r1
 1494 04c0 5BB2     		sxtb	r3, r3
 1495 04c2 DBB2     		uxtb	r3, r3
 1496 04c4 1370     		strb	r3, [r2]
 619:eInk Library/pervasive_eink_hardware_driver.c ****                                         PV_EINK_BLACK3 : PV_EINK_NOTHING3);
 620:eInk Library/pervasive_eink_hardware_driver.c ****                 break;
 1497              		.loc 2 620 0 is_stmt 1 discriminator 4
 1498 04c6 A5E0     		b	.L50
 1499              	.L55:
 621:eInk Library/pervasive_eink_hardware_driver.c ****             /* Stage 4: Calculate the Even and Odd bytes of new image 
 622:eInk Library/pervasive_eink_hardware_driver.c ****                data */
 623:eInk Library/pervasive_eink_hardware_driver.c ****             case PV_EINK_STAGE4:
 624:eInk Library/pervasive_eink_hardware_driver.c ****                 dataLineOdd[x]       = ((tempByte & PV_EINK_ODD_MASK_A)  ? 
 1500              		.loc 2 624 0
 1501 04c8 254B     		ldr	r3, .L128+4
 1502 04ca 1A68     		ldr	r2, [r3]
 1503 04cc FB8A     		ldrh	r3, [r7, #22]
 1504 04ce 1344     		add	r3, r3, r2
 1505 04d0 7A7C     		ldrb	r2, [r7, #17]	@ zero_extendqisi2
 1506 04d2 02F04002 		and	r2, r2, #64
 1507 04d6 002A     		cmp	r2, #0
 1508 04d8 01D0     		beq	.L104
 1509              		.loc 2 624 0 is_stmt 0 discriminator 1
 1510 04da 8022     		movs	r2, #128
 1511 04dc 00E0     		b	.L105
 1512              	.L104:
ARM GAS  C:\Users\rober\AppData\Local\Temp\ccAa3myu.s 			page 52


 1513              		.loc 2 624 0 discriminator 2
 1514 04de C022     		movs	r2, #192
 1515              	.L105:
 1516              		.loc 2 624 0 discriminator 4
 1517 04e0 1A70     		strb	r2, [r3]
 625:eInk Library/pervasive_eink_hardware_driver.c ****                                         PV_EINK_WHITE3 : PV_EINK_BLACK3);
 626:eInk Library/pervasive_eink_hardware_driver.c ****                 dataLineOdd[x]      |= ((tempByte & PV_EINK_ODD_MASK_B)  ?
 1518              		.loc 2 626 0 is_stmt 1 discriminator 4
 1519 04e2 1F4B     		ldr	r3, .L128+4
 1520 04e4 1A68     		ldr	r2, [r3]
 1521 04e6 FB8A     		ldrh	r3, [r7, #22]
 1522 04e8 1344     		add	r3, r3, r2
 1523 04ea 1D4A     		ldr	r2, .L128+4
 1524 04ec 1168     		ldr	r1, [r2]
 1525 04ee FA8A     		ldrh	r2, [r7, #22]
 1526 04f0 0A44     		add	r2, r2, r1
 1527 04f2 1278     		ldrb	r2, [r2]	@ zero_extendqisi2
 1528 04f4 51B2     		sxtb	r1, r2
 1529 04f6 7A7C     		ldrb	r2, [r7, #17]	@ zero_extendqisi2
 1530 04f8 02F01002 		and	r2, r2, #16
 1531 04fc 002A     		cmp	r2, #0
 1532 04fe 01D0     		beq	.L106
 1533              		.loc 2 626 0 is_stmt 0 discriminator 1
 1534 0500 2022     		movs	r2, #32
 1535 0502 00E0     		b	.L107
 1536              	.L106:
 1537              		.loc 2 626 0 discriminator 2
 1538 0504 3022     		movs	r2, #48
 1539              	.L107:
 1540              		.loc 2 626 0 discriminator 4
 1541 0506 0A43     		orrs	r2, r2, r1
 1542 0508 52B2     		sxtb	r2, r2
 1543 050a D2B2     		uxtb	r2, r2
 1544 050c 1A70     		strb	r2, [r3]
 627:eInk Library/pervasive_eink_hardware_driver.c ****                                         PV_EINK_WHITE2 : PV_EINK_BLACK2);
 628:eInk Library/pervasive_eink_hardware_driver.c ****                 dataLineOdd[x]      |= ((tempByte & PV_EINK_ODD_MASK_C)  ? 
 1545              		.loc 2 628 0 is_stmt 1 discriminator 4
 1546 050e 144B     		ldr	r3, .L128+4
 1547 0510 1A68     		ldr	r2, [r3]
 1548 0512 FB8A     		ldrh	r3, [r7, #22]
 1549 0514 1344     		add	r3, r3, r2
 1550 0516 124A     		ldr	r2, .L128+4
 1551 0518 1168     		ldr	r1, [r2]
 1552 051a FA8A     		ldrh	r2, [r7, #22]
 1553 051c 0A44     		add	r2, r2, r1
 1554 051e 1278     		ldrb	r2, [r2]	@ zero_extendqisi2
 1555 0520 51B2     		sxtb	r1, r2
 1556 0522 7A7C     		ldrb	r2, [r7, #17]	@ zero_extendqisi2
 1557 0524 02F00402 		and	r2, r2, #4
 1558 0528 002A     		cmp	r2, #0
 1559 052a 01D0     		beq	.L108
 1560              		.loc 2 628 0 is_stmt 0 discriminator 1
 1561 052c 0822     		movs	r2, #8
 1562 052e 00E0     		b	.L109
 1563              	.L108:
 1564              		.loc 2 628 0 discriminator 2
 1565 0530 0C22     		movs	r2, #12
ARM GAS  C:\Users\rober\AppData\Local\Temp\ccAa3myu.s 			page 53


 1566              	.L109:
 1567              		.loc 2 628 0 discriminator 4
 1568 0532 0A43     		orrs	r2, r2, r1
 1569 0534 52B2     		sxtb	r2, r2
 1570 0536 D2B2     		uxtb	r2, r2
 1571 0538 1A70     		strb	r2, [r3]
 629:eInk Library/pervasive_eink_hardware_driver.c ****                                         PV_EINK_WHITE1 : PV_EINK_BLACK1);
 630:eInk Library/pervasive_eink_hardware_driver.c ****                 dataLineOdd[x]      |= ((tempByte & PV_EINK_ODD_MASK_D)  ? 
 1572              		.loc 2 630 0 is_stmt 1 discriminator 4
 1573 053a 094B     		ldr	r3, .L128+4
 1574 053c 1A68     		ldr	r2, [r3]
 1575 053e FB8A     		ldrh	r3, [r7, #22]
 1576 0540 1344     		add	r3, r3, r2
 1577 0542 074A     		ldr	r2, .L128+4
 1578 0544 1168     		ldr	r1, [r2]
 1579 0546 FA8A     		ldrh	r2, [r7, #22]
 1580 0548 0A44     		add	r2, r2, r1
 1581 054a 1278     		ldrb	r2, [r2]	@ zero_extendqisi2
 1582 054c 51B2     		sxtb	r1, r2
 1583 054e 7A7C     		ldrb	r2, [r7, #17]	@ zero_extendqisi2
 1584 0550 02F00102 		and	r2, r2, #1
 1585 0554 002A     		cmp	r2, #0
 1586 0556 05D0     		beq	.L110
 1587              		.loc 2 630 0 is_stmt 0 discriminator 1
 1588 0558 0222     		movs	r2, #2
 1589 055a 04E0     		b	.L111
 1590              	.L129:
 1591              		.align	2
 1592              	.L128:
 1593 055c 74000000 		.word	dataLineEven
 1594 0560 78000000 		.word	dataLineOdd
 1595              	.L110:
 1596              		.loc 2 630 0 discriminator 2
 1597 0564 0322     		movs	r2, #3
 1598              	.L111:
 1599              		.loc 2 630 0 discriminator 4
 1600 0566 0A43     		orrs	r2, r2, r1
 1601 0568 52B2     		sxtb	r2, r2
 1602 056a D2B2     		uxtb	r2, r2
 1603 056c 1A70     		strb	r2, [r3]
 631:eInk Library/pervasive_eink_hardware_driver.c ****                                         PV_EINK_WHITE0 : PV_EINK_BLACK0);
 632:eInk Library/pervasive_eink_hardware_driver.c ****                 dataLineEven[k]     = ((tempByte & PV_EINK_EVEN_MASK_A)  ? 
 1604              		.loc 2 632 0 is_stmt 1 discriminator 4
 1605 056e 554B     		ldr	r3, .L130
 1606 0570 1A68     		ldr	r2, [r3]
 1607 0572 7B8A     		ldrh	r3, [r7, #18]
 1608 0574 1344     		add	r3, r3, r2
 1609 0576 97F91120 		ldrsb	r2, [r7, #17]
 1610 057a 002A     		cmp	r2, #0
 1611 057c 01DA     		bge	.L112
 1612              		.loc 2 632 0 is_stmt 0 discriminator 1
 1613 057e 0222     		movs	r2, #2
 1614 0580 00E0     		b	.L113
 1615              	.L112:
 1616              		.loc 2 632 0 discriminator 2
 1617 0582 0322     		movs	r2, #3
 1618              	.L113:
ARM GAS  C:\Users\rober\AppData\Local\Temp\ccAa3myu.s 			page 54


 1619              		.loc 2 632 0 discriminator 4
 1620 0584 1A70     		strb	r2, [r3]
 633:eInk Library/pervasive_eink_hardware_driver.c ****                                         PV_EINK_WHITE0 : PV_EINK_BLACK0);
 634:eInk Library/pervasive_eink_hardware_driver.c ****                 dataLineEven[k]     |= ((tempByte & PV_EINK_EVEN_MASK_B) ? 
 1621              		.loc 2 634 0 is_stmt 1 discriminator 4
 1622 0586 4F4B     		ldr	r3, .L130
 1623 0588 1A68     		ldr	r2, [r3]
 1624 058a 7B8A     		ldrh	r3, [r7, #18]
 1625 058c 1344     		add	r3, r3, r2
 1626 058e 4D4A     		ldr	r2, .L130
 1627 0590 1168     		ldr	r1, [r2]
 1628 0592 7A8A     		ldrh	r2, [r7, #18]
 1629 0594 0A44     		add	r2, r2, r1
 1630 0596 1278     		ldrb	r2, [r2]	@ zero_extendqisi2
 1631 0598 51B2     		sxtb	r1, r2
 1632 059a 7A7C     		ldrb	r2, [r7, #17]	@ zero_extendqisi2
 1633 059c 02F02002 		and	r2, r2, #32
 1634 05a0 002A     		cmp	r2, #0
 1635 05a2 01D0     		beq	.L114
 1636              		.loc 2 634 0 is_stmt 0 discriminator 1
 1637 05a4 0822     		movs	r2, #8
 1638 05a6 00E0     		b	.L115
 1639              	.L114:
 1640              		.loc 2 634 0 discriminator 2
 1641 05a8 0C22     		movs	r2, #12
 1642              	.L115:
 1643              		.loc 2 634 0 discriminator 4
 1644 05aa 0A43     		orrs	r2, r2, r1
 1645 05ac 52B2     		sxtb	r2, r2
 1646 05ae D2B2     		uxtb	r2, r2
 1647 05b0 1A70     		strb	r2, [r3]
 635:eInk Library/pervasive_eink_hardware_driver.c ****                                         PV_EINK_WHITE1 : PV_EINK_BLACK1);
 636:eInk Library/pervasive_eink_hardware_driver.c ****                 dataLineEven[k]     |= ((tempByte & PV_EINK_EVEN_MASK_C) ?
 1648              		.loc 2 636 0 is_stmt 1 discriminator 4
 1649 05b2 444B     		ldr	r3, .L130
 1650 05b4 1A68     		ldr	r2, [r3]
 1651 05b6 7B8A     		ldrh	r3, [r7, #18]
 1652 05b8 1344     		add	r3, r3, r2
 1653 05ba 424A     		ldr	r2, .L130
 1654 05bc 1168     		ldr	r1, [r2]
 1655 05be 7A8A     		ldrh	r2, [r7, #18]
 1656 05c0 0A44     		add	r2, r2, r1
 1657 05c2 1278     		ldrb	r2, [r2]	@ zero_extendqisi2
 1658 05c4 51B2     		sxtb	r1, r2
 1659 05c6 7A7C     		ldrb	r2, [r7, #17]	@ zero_extendqisi2
 1660 05c8 02F00802 		and	r2, r2, #8
 1661 05cc 002A     		cmp	r2, #0
 1662 05ce 01D0     		beq	.L116
 1663              		.loc 2 636 0 is_stmt 0 discriminator 1
 1664 05d0 2022     		movs	r2, #32
 1665 05d2 00E0     		b	.L117
 1666              	.L116:
 1667              		.loc 2 636 0 discriminator 2
 1668 05d4 3022     		movs	r2, #48
 1669              	.L117:
 1670              		.loc 2 636 0 discriminator 4
 1671 05d6 0A43     		orrs	r2, r2, r1
ARM GAS  C:\Users\rober\AppData\Local\Temp\ccAa3myu.s 			page 55


 1672 05d8 52B2     		sxtb	r2, r2
 1673 05da D2B2     		uxtb	r2, r2
 1674 05dc 1A70     		strb	r2, [r3]
 637:eInk Library/pervasive_eink_hardware_driver.c ****                                         PV_EINK_WHITE2 : PV_EINK_BLACK2);
 638:eInk Library/pervasive_eink_hardware_driver.c ****                 dataLineEven[k--]   |= ((tempByte & PV_EINK_EVEN_MASK_D) ? 
 1675              		.loc 2 638 0 is_stmt 1 discriminator 4
 1676 05de 394B     		ldr	r3, .L130
 1677 05e0 1A68     		ldr	r2, [r3]
 1678 05e2 7B8A     		ldrh	r3, [r7, #18]
 1679 05e4 591E     		subs	r1, r3, #1
 1680 05e6 7982     		strh	r1, [r7, #18]	@ movhi
 1681 05e8 1946     		mov	r1, r3
 1682 05ea 0A44     		add	r2, r2, r1
 1683 05ec 3549     		ldr	r1, .L130
 1684 05ee 0968     		ldr	r1, [r1]
 1685 05f0 0B44     		add	r3, r3, r1
 1686 05f2 1B78     		ldrb	r3, [r3]	@ zero_extendqisi2
 1687 05f4 59B2     		sxtb	r1, r3
 1688 05f6 7B7C     		ldrb	r3, [r7, #17]	@ zero_extendqisi2
 1689 05f8 03F00203 		and	r3, r3, #2
 1690 05fc 002B     		cmp	r3, #0
 1691 05fe 02D0     		beq	.L118
 1692              		.loc 2 638 0 is_stmt 0 discriminator 1
 1693 0600 6FF07F03 		mvn	r3, #127
 1694 0604 01E0     		b	.L119
 1695              	.L118:
 1696              		.loc 2 638 0 discriminator 2
 1697 0606 6FF03F03 		mvn	r3, #63
 1698              	.L119:
 1699              		.loc 2 638 0 discriminator 4
 1700 060a 0B43     		orrs	r3, r3, r1
 1701 060c 5BB2     		sxtb	r3, r3
 1702 060e DBB2     		uxtb	r3, r3
 1703 0610 1370     		strb	r3, [r2]
 639:eInk Library/pervasive_eink_hardware_driver.c ****                                         PV_EINK_WHITE3 : PV_EINK_BLACK3);
 640:eInk Library/pervasive_eink_hardware_driver.c ****                 break;
 1704              		.loc 2 640 0 is_stmt 1 discriminator 4
 1705 0612 00BF     		nop
 1706              	.L50:
 550:eInk Library/pervasive_eink_hardware_driver.c ****         {
 1707              		.loc 2 550 0 discriminator 2
 1708 0614 FB8A     		ldrh	r3, [r7, #22]
 1709 0616 0133     		adds	r3, r3, #1
 1710 0618 FB82     		strh	r3, [r7, #22]	@ movhi
 1711              	.L48:
 550:eInk Library/pervasive_eink_hardware_driver.c ****         {
 1712              		.loc 2 550 0 is_stmt 0 discriminator 1
 1713 061a FB8A     		ldrh	r3, [r7, #22]
 1714 061c 202B     		cmp	r3, #32
 1715 061e 7FF64AAD 		bls	.L120
 641:eInk Library/pervasive_eink_hardware_driver.c ****             }
 642:eInk Library/pervasive_eink_hardware_driver.c ****         }
 643:eInk Library/pervasive_eink_hardware_driver.c ****         /* Move onto the next line */
 644:eInk Library/pervasive_eink_hardware_driver.c ****         scanlineNumber = PV_EINK_VERTICAL_SIZE - y;
 1716              		.loc 2 644 0 is_stmt 1 discriminator 2
 1717 0622 BB8A     		ldrh	r3, [r7, #20]	@ movhi
 1718 0624 C3F1B003 		rsb	r3, r3, #176
ARM GAS  C:\Users\rober\AppData\Local\Temp\ccAa3myu.s 			page 56


 1719 0628 9BB2     		uxth	r3, r3
 1720 062a FB81     		strh	r3, [r7, #14]	@ movhi
 645:eInk Library/pervasive_eink_hardware_driver.c ****         scanlineNumber--;
 1721              		.loc 2 645 0 discriminator 2
 1722 062c B7F90E30 		ldrsh	r3, [r7, #14]
 1723 0630 9BB2     		uxth	r3, r3
 1724 0632 013B     		subs	r3, r3, #1
 1725 0634 9BB2     		uxth	r3, r3
 1726 0636 FB81     		strh	r3, [r7, #14]	@ movhi
 646:eInk Library/pervasive_eink_hardware_driver.c ****         
 647:eInk Library/pervasive_eink_hardware_driver.c ****         /* Shift Scan byte according to the data line */
 648:eInk Library/pervasive_eink_hardware_driver.c ****         dataLineScan[(scanlineNumber >> PV_EINK_PIXEL_SIZE)] = scanTable
 1727              		.loc 2 648 0 discriminator 2
 1728 0638 234B     		ldr	r3, .L130+4
 1729 063a 1B68     		ldr	r3, [r3]
 1730 063c B7F90E20 		ldrsh	r2, [r7, #14]
 1731 0640 9210     		asrs	r2, r2, #2
 1732 0642 12B2     		sxth	r2, r2
 1733 0644 1A44     		add	r2, r2, r3
 649:eInk Library/pervasive_eink_hardware_driver.c ****                             [(scanlineNumber % PV_EINK_SCAN_TABLE_SIZE)];
 1734              		.loc 2 649 0 discriminator 2
 1735 0646 B7F90E10 		ldrsh	r1, [r7, #14]
 1736 064a 204B     		ldr	r3, .L130+8
 1737 064c 0B40     		ands	r3, r3, r1
 1738 064e 002B     		cmp	r3, #0
 1739 0650 03DA     		bge	.L121
 1740 0652 013B     		subs	r3, r3, #1
 1741 0654 63F00303 		orn	r3, r3, #3
 1742 0658 0133     		adds	r3, r3, #1
 1743              	.L121:
 1744 065a 1BB2     		sxth	r3, r3
 1745 065c 1946     		mov	r1, r3
 1746 065e 1C4B     		ldr	r3, .L130+12
 1747 0660 5B5C     		ldrb	r3, [r3, r1]	@ zero_extendqisi2
 648:eInk Library/pervasive_eink_hardware_driver.c ****                             [(scanlineNumber % PV_EINK_SCAN_TABLE_SIZE)];
 1748              		.loc 2 648 0 discriminator 2
 1749 0662 1370     		strb	r3, [r2]
 534:eInk Library/pervasive_eink_hardware_driver.c ****     {
 1750              		.loc 2 534 0 discriminator 2
 1751 0664 BB8A     		ldrh	r3, [r7, #20]
 1752 0666 0133     		adds	r3, r3, #1
 1753 0668 BB82     		strh	r3, [r7, #20]	@ movhi
 1754              	.L47:
 534:eInk Library/pervasive_eink_hardware_driver.c ****     {
 1755              		.loc 2 534 0 is_stmt 0 discriminator 1
 1756 066a BB8A     		ldrh	r3, [r7, #20]
 1757 066c AF2B     		cmp	r3, #175
 1758 066e 7FF6EAAC 		bls	.L122
 1759              	.L125:
 650:eInk Library/pervasive_eink_hardware_driver.c ****             
 651:eInk Library/pervasive_eink_hardware_driver.c ****     }
 652:eInk Library/pervasive_eink_hardware_driver.c ****             
 653:eInk Library/pervasive_eink_hardware_driver.c ****     /* Perform the update operation until the total time of frames exceed 
 654:eInk Library/pervasive_eink_hardware_driver.c ****        stage time */
 655:eInk Library/pervasive_eink_hardware_driver.c ****     do
 656:eInk Library/pervasive_eink_hardware_driver.c ****     {
 657:eInk Library/pervasive_eink_hardware_driver.c ****         /* Perform a line by line update */
ARM GAS  C:\Users\rober\AppData\Local\Temp\ccAa3myu.s 			page 57


 658:eInk Library/pervasive_eink_hardware_driver.c ****         for (y = 0; y < PV_EINK_VERTICAL_SIZE; y++)
 1760              		.loc 2 658 0 is_stmt 1
 1761 0672 0023     		movs	r3, #0
 1762 0674 BB82     		strh	r3, [r7, #20]	@ movhi
 1763 0676 13E0     		b	.L123
 1764              	.L124:
 659:eInk Library/pervasive_eink_hardware_driver.c ****         {
 660:eInk Library/pervasive_eink_hardware_driver.c ****                 /* Send the prepared data to the E-INK display */
 661:eInk Library/pervasive_eink_hardware_driver.c ****             Pv_EINK_SendData(PV_EINK_PIXEL_DATA_COMMAND_INDEX,
 662:eInk Library/pervasive_eink_hardware_driver.c ****                           (uint8_t*) &bulkDriverPacket[y].lineBuffer,
 1765              		.loc 2 662 0 discriminator 3
 1766 0678 BA8A     		ldrh	r2, [r7, #20]
 1767 067a 1346     		mov	r3, r2
 1768 067c DB00     		lsls	r3, r3, #3
 1769 067e 9B1A     		subs	r3, r3, r2
 1770 0680 1B01     		lsls	r3, r3, #4
 1771 0682 9B1A     		subs	r3, r3, r2
 1772 0684 134A     		ldr	r2, .L130+16
 1773 0686 1344     		add	r3, r3, r2
 661:eInk Library/pervasive_eink_hardware_driver.c ****                           (uint8_t*) &bulkDriverPacket[y].lineBuffer,
 1774              		.loc 2 661 0 discriminator 3
 1775 0688 6F22     		movs	r2, #111
 1776 068a 1946     		mov	r1, r3
 1777 068c 0A20     		movs	r0, #10
 1778 068e FFF7FEFF 		bl	Pv_EINK_SendData
 663:eInk Library/pervasive_eink_hardware_driver.c ****                           PV_EINK_DATA_LINE_SIZE);
 664:eInk Library/pervasive_eink_hardware_driver.c ****                           
 665:eInk Library/pervasive_eink_hardware_driver.c ****             /* Turn on Output Enable to latch the frame */
 666:eInk Library/pervasive_eink_hardware_driver.c ****             Pv_EINK_SendByte(PV_EINK_ENABLE_OE_COMMAND_INDEX,
 1779              		.loc 2 666 0 discriminator 3
 1780 0692 0721     		movs	r1, #7
 1781 0694 0220     		movs	r0, #2
 1782 0696 FFF7FEFF 		bl	Pv_EINK_SendByte
 658:eInk Library/pervasive_eink_hardware_driver.c ****         {
 1783              		.loc 2 658 0 discriminator 3
 1784 069a BB8A     		ldrh	r3, [r7, #20]
 1785 069c 0133     		adds	r3, r3, #1
 1786 069e BB82     		strh	r3, [r7, #20]	@ movhi
 1787              	.L123:
 658:eInk Library/pervasive_eink_hardware_driver.c ****         {
 1788              		.loc 2 658 0 is_stmt 0 discriminator 1
 1789 06a0 BB8A     		ldrh	r3, [r7, #20]
 1790 06a2 AF2B     		cmp	r3, #175
 1791 06a4 E8D9     		bls	.L124
 667:eInk Library/pervasive_eink_hardware_driver.c ****                           PV_EINK_ENABLE_OE_COMMAND_DATA);
 668:eInk Library/pervasive_eink_hardware_driver.c ****         }
 669:eInk Library/pervasive_eink_hardware_driver.c ****     
 670:eInk Library/pervasive_eink_hardware_driver.c ****     }
 671:eInk Library/pervasive_eink_hardware_driver.c ****     /* Loop until the total time of frames exceed stage time */
 672:eInk Library/pervasive_eink_hardware_driver.c ****     while (fullUpdateTime > Cy_EINK_GetTimeTick());
 1792              		.loc 2 672 0 is_stmt 1
 1793 06a6 0C4B     		ldr	r3, .L130+20
 1794 06a8 1B88     		ldrh	r3, [r3]
 1795 06aa 1C46     		mov	r4, r3
 1796 06ac FFF7FEFF 		bl	Cy_EINK_GetTimeTick
 1797 06b0 0346     		mov	r3, r0
 1798 06b2 9C42     		cmp	r4, r3
ARM GAS  C:\Users\rober\AppData\Local\Temp\ccAa3myu.s 			page 58


 1799 06b4 DDD8     		bhi	.L125
 673:eInk Library/pervasive_eink_hardware_driver.c ****     
 674:eInk Library/pervasive_eink_hardware_driver.c ****     /* Stop the E-INK Timer */
 675:eInk Library/pervasive_eink_hardware_driver.c ****     Cy_EINK_TimerStop();
 1800              		.loc 2 675 0
 1801 06b6 FFF7FEFF 		bl	Cy_EINK_TimerStop
 676:eInk Library/pervasive_eink_hardware_driver.c **** }
 1802              		.loc 2 676 0
 1803 06ba 00BF     		nop
 1804 06bc 1C37     		adds	r7, r7, #28
 1805              		.cfi_def_cfa_offset 12
 1806 06be BD46     		mov	sp, r7
 1807              		.cfi_def_cfa_register 13
 1808              		@ sp needed
 1809 06c0 90BD     		pop	{r4, r7, pc}
 1810              	.L131:
 1811 06c2 00BF     		.align	2
 1812              	.L130:
 1813 06c4 74000000 		.word	dataLineEven
 1814 06c8 7C000000 		.word	dataLineScan
 1815 06cc 03000080 		.word	-2147483645
 1816 06d0 00000000 		.word	scanTable
 1817 06d4 00000000 		.word	bulkDriverPacket
 1818 06d8 70000000 		.word	fullUpdateTime
 1819              		.cfi_endproc
 1820              	.LFE609:
 1821              		.size	Pv_EINK_FullStageHandler, .-Pv_EINK_FullStageHandler
 1822              		.section	.text.Pv_EINK_PartialStageHandler,"ax",%progbits
 1823              		.align	2
 1824              		.global	Pv_EINK_PartialStageHandler
 1825              		.thumb
 1826              		.thumb_func
 1827              		.type	Pv_EINK_PartialStageHandler, %function
 1828              	Pv_EINK_PartialStageHandler:
 1829              	.LFB610:
 677:eInk Library/pervasive_eink_hardware_driver.c **** 
 678:eInk Library/pervasive_eink_hardware_driver.c **** /*******************************************************************************
 679:eInk Library/pervasive_eink_hardware_driver.c **** * Function Name:  void Pv_EINK_PartialStageHandler(pv_eink_frame_data_t* 
 680:eInk Library/pervasive_eink_hardware_driver.c ****                             previousImagePtr, pv_eink_frame_data_t* newImagePtr)
 681:eInk Library/pervasive_eink_hardware_driver.c **** ********************************************************************************
 682:eInk Library/pervasive_eink_hardware_driver.c **** *
 683:eInk Library/pervasive_eink_hardware_driver.c **** * Summary: The partial update driving stage for getting Odd and Even bytes, and
 684:eInk Library/pervasive_eink_hardware_driver.c **** * then writing the data from memory array to E-INK driver.
 685:eInk Library/pervasive_eink_hardware_driver.c **** *
 686:eInk Library/pervasive_eink_hardware_driver.c **** * Partial update is similar to the last stage of full update. If the new data byte
 687:eInk Library/pervasive_eink_hardware_driver.c **** * is same as previous data byte, send a "nothing" pixel, so that E-INK pixel won't
 688:eInk Library/pervasive_eink_hardware_driver.c **** * be altered. If the new data byte is different from the previous data byte, send
 689:eInk Library/pervasive_eink_hardware_driver.c **** * the new data byte.
 690:eInk Library/pervasive_eink_hardware_driver.c **** * For more details on the driving stages, please refer to the driver G2 document
 691:eInk Library/pervasive_eink_hardware_driver.c **** * Section 5.
 692:eInk Library/pervasive_eink_hardware_driver.c **** *
 693:eInk Library/pervasive_eink_hardware_driver.c **** * Parameters:
 694:eInk Library/pervasive_eink_hardware_driver.c **** * pv_eink_frame_data_t* previousImagePtr : The pointer of memory that contains 
 695:eInk Library/pervasive_eink_hardware_driver.c **** *                                    previous frame written to the E-INK display
 696:eInk Library/pervasive_eink_hardware_driver.c **** * pv_eink_frame_data_t* newImagePtr      : The pointer of memory that contains a 
 697:eInk Library/pervasive_eink_hardware_driver.c **** *                       new frame which needs to be written to the E-INK display
 698:eInk Library/pervasive_eink_hardware_driver.c **** *
ARM GAS  C:\Users\rober\AppData\Local\Temp\ccAa3myu.s 			page 59


 699:eInk Library/pervasive_eink_hardware_driver.c **** * Return:
 700:eInk Library/pervasive_eink_hardware_driver.c **** *  None
 701:eInk Library/pervasive_eink_hardware_driver.c **** *
 702:eInk Library/pervasive_eink_hardware_driver.c **** * Side Effects:
 703:eInk Library/pervasive_eink_hardware_driver.c **** *  This is a blocking function. CPU will be busy during the entire operation,
 704:eInk Library/pervasive_eink_hardware_driver.c **** *  which can be 1 to 2 seconds. 
 705:eInk Library/pervasive_eink_hardware_driver.c **** *******************************************************************************/
 706:eInk Library/pervasive_eink_hardware_driver.c **** void Pv_EINK_PartialStageHandler(pv_eink_frame_data_t* previousImagePtr, 
 707:eInk Library/pervasive_eink_hardware_driver.c ****                                  pv_eink_frame_data_t* newImagePtr)
 708:eInk Library/pervasive_eink_hardware_driver.c **** {
 1830              		.loc 2 708 0
 1831              		.cfi_startproc
 1832              		@ args = 0, pretend = 0, frame = 24
 1833              		@ frame_needed = 1, uses_anonymous_args = 0
 1834 0000 90B5     		push	{r4, r7, lr}
 1835              		.cfi_def_cfa_offset 12
 1836              		.cfi_offset 4, -12
 1837              		.cfi_offset 7, -8
 1838              		.cfi_offset 14, -4
 1839 0002 87B0     		sub	sp, sp, #28
 1840              		.cfi_def_cfa_offset 40
 1841 0004 00AF     		add	r7, sp, #0
 1842              		.cfi_def_cfa_register 7
 1843 0006 7860     		str	r0, [r7, #4]
 1844 0008 3960     		str	r1, [r7]
 709:eInk Library/pervasive_eink_hardware_driver.c ****     /* Counter variable for the horizontal pixel loop */
 710:eInk Library/pervasive_eink_hardware_driver.c ****     uint16_t    x;
 711:eInk Library/pervasive_eink_hardware_driver.c ****     /* Counter variable for the vertical pixel loop */
 712:eInk Library/pervasive_eink_hardware_driver.c ****     uint16_t    y;
 713:eInk Library/pervasive_eink_hardware_driver.c ****     /* Counter variable for the horizontal byte loop */
 714:eInk Library/pervasive_eink_hardware_driver.c ****     uint16_t    k;
 715:eInk Library/pervasive_eink_hardware_driver.c ****     
 716:eInk Library/pervasive_eink_hardware_driver.c ****     /* Temporary storage for image data bytes */
 717:eInk Library/pervasive_eink_hardware_driver.c ****     uint8_t     oldByte;
 718:eInk Library/pervasive_eink_hardware_driver.c ****     /* Temporary storage for image data bytes */
 719:eInk Library/pervasive_eink_hardware_driver.c ****     uint8_t     newByte;
 720:eInk Library/pervasive_eink_hardware_driver.c ****     
 721:eInk Library/pervasive_eink_hardware_driver.c ****     /* Variable for storing the line number under scan */
 722:eInk Library/pervasive_eink_hardware_driver.c ****     int16       scanlineNumber = 0;
 1845              		.loc 2 722 0
 1846 000a 0023     		movs	r3, #0
 1847 000c 3B82     		strh	r3, [r7, #16]	@ movhi
 723:eInk Library/pervasive_eink_hardware_driver.c ****     
 724:eInk Library/pervasive_eink_hardware_driver.c ****     /* Re-initialize E-INK timer to ensure the same duration of each stage  */
 725:eInk Library/pervasive_eink_hardware_driver.c ****     Cy_EINK_TimerInit();
 1848              		.loc 2 725 0
 1849 000e FFF7FEFF 		bl	Cy_EINK_TimerInit
 726:eInk Library/pervasive_eink_hardware_driver.c ****     
 727:eInk Library/pervasive_eink_hardware_driver.c ****     /* Vcom level adjust */
 728:eInk Library/pervasive_eink_hardware_driver.c ****     Pv_EINK_SendByte(PV_EINK_VCOM2_LEVEL_COMMAND_INDEX,
 1850              		.loc 2 728 0
 1851 0012 D221     		movs	r1, #210
 1852 0014 0920     		movs	r0, #9
 1853 0016 FFF7FEFF 		bl	Pv_EINK_SendByte
 729:eInk Library/pervasive_eink_hardware_driver.c ****                      PV_EINK_VCOM2_LEVEL_COMMAND_DATA);
 730:eInk Library/pervasive_eink_hardware_driver.c ****      
 731:eInk Library/pervasive_eink_hardware_driver.c ****     /* Vertical pixel loop */
ARM GAS  C:\Users\rober\AppData\Local\Temp\ccAa3myu.s 			page 60


 732:eInk Library/pervasive_eink_hardware_driver.c ****     for (y = 0; y < PV_EINK_VERTICAL_SIZE; y++)
 1854              		.loc 2 732 0
 1855 001a 0023     		movs	r3, #0
 1856 001c BB82     		strh	r3, [r7, #20]	@ movhi
 1857 001e 5CE1     		b	.L133
 1858              	.L169:
 733:eInk Library/pervasive_eink_hardware_driver.c ****     {
 734:eInk Library/pervasive_eink_hardware_driver.c ****         /* Clear the line buffer with all zeros */
 735:eInk Library/pervasive_eink_hardware_driver.c ****         memset(&bulkDriverPacket[y].lineBuffer, 0, 
 1859              		.loc 2 735 0
 1860 0020 BA8A     		ldrh	r2, [r7, #20]
 1861 0022 1346     		mov	r3, r2
 1862 0024 DB00     		lsls	r3, r3, #3
 1863 0026 9B1A     		subs	r3, r3, r2
 1864 0028 1B01     		lsls	r3, r3, #4
 1865 002a 9B1A     		subs	r3, r3, r2
 1866 002c AE4A     		ldr	r2, .L173
 1867 002e 1344     		add	r3, r3, r2
 1868 0030 6F22     		movs	r2, #111
 1869 0032 0021     		movs	r1, #0
 1870 0034 1846     		mov	r0, r3
 1871 0036 FFF7FEFF 		bl	memset
 736:eInk Library/pervasive_eink_hardware_driver.c ****                sizeof(bulkDriverPacket[y].lineBuffer)) ;
 737:eInk Library/pervasive_eink_hardware_driver.c **** 
 738:eInk Library/pervasive_eink_hardware_driver.c ****         /* Initialize the even data, odd data and scan data pointers */
 739:eInk Library/pervasive_eink_hardware_driver.c ****         dataLineEven = &bulkDriverPacket[y].lineDataBySize.even[0];
 1872              		.loc 2 739 0
 1873 003a BA8A     		ldrh	r2, [r7, #20]
 1874 003c 1346     		mov	r3, r2
 1875 003e DB00     		lsls	r3, r3, #3
 1876 0040 9B1A     		subs	r3, r3, r2
 1877 0042 1B01     		lsls	r3, r3, #4
 1878 0044 9B1A     		subs	r3, r3, r2
 1879 0046 A84A     		ldr	r2, .L173
 1880 0048 1344     		add	r3, r3, r2
 1881 004a 0133     		adds	r3, r3, #1
 1882 004c A74A     		ldr	r2, .L173+4
 1883 004e 1360     		str	r3, [r2]
 740:eInk Library/pervasive_eink_hardware_driver.c ****         dataLineOdd  = &bulkDriverPacket[y].lineDataBySize.odd[0];
 1884              		.loc 2 740 0
 1885 0050 BA8A     		ldrh	r2, [r7, #20]
 1886 0052 1346     		mov	r3, r2
 1887 0054 DB00     		lsls	r3, r3, #3
 1888 0056 9B1A     		subs	r3, r3, r2
 1889 0058 1B01     		lsls	r3, r3, #4
 1890 005a 9B1A     		subs	r3, r3, r2
 1891 005c 4833     		adds	r3, r3, #72
 1892 005e A24A     		ldr	r2, .L173
 1893 0060 1344     		add	r3, r3, r2
 1894 0062 0633     		adds	r3, r3, #6
 1895 0064 A24A     		ldr	r2, .L173+8
 1896 0066 1360     		str	r3, [r2]
 741:eInk Library/pervasive_eink_hardware_driver.c ****         dataLineScan = &bulkDriverPacket[y].lineDataBySize.scan[0];
 1897              		.loc 2 741 0
 1898 0068 BA8A     		ldrh	r2, [r7, #20]
 1899 006a 1346     		mov	r3, r2
 1900 006c DB00     		lsls	r3, r3, #3
ARM GAS  C:\Users\rober\AppData\Local\Temp\ccAa3myu.s 			page 61


 1901 006e 9B1A     		subs	r3, r3, r2
 1902 0070 1B01     		lsls	r3, r3, #4
 1903 0072 9B1A     		subs	r3, r3, r2
 1904 0074 2033     		adds	r3, r3, #32
 1905 0076 9C4A     		ldr	r2, .L173
 1906 0078 1344     		add	r3, r3, r2
 1907 007a 0233     		adds	r3, r3, #2
 1908 007c 9D4A     		ldr	r2, .L173+12
 1909 007e 1360     		str	r3, [r2]
 742:eInk Library/pervasive_eink_hardware_driver.c **** 
 743:eInk Library/pervasive_eink_hardware_driver.c ****         /* Horizontal bytes initialization */
 744:eInk Library/pervasive_eink_hardware_driver.c ****         k = PV_EINK_HORIZONTAL_SIZE;
 1910              		.loc 2 744 0
 1911 0080 2123     		movs	r3, #33
 1912 0082 7B82     		strh	r3, [r7, #18]	@ movhi
 745:eInk Library/pervasive_eink_hardware_driver.c ****         k--;
 1913              		.loc 2 745 0
 1914 0084 7B8A     		ldrh	r3, [r7, #18]
 1915 0086 013B     		subs	r3, r3, #1
 1916 0088 7B82     		strh	r3, [r7, #18]	@ movhi
 746:eInk Library/pervasive_eink_hardware_driver.c ****         
 747:eInk Library/pervasive_eink_hardware_driver.c ****         /* Horizontal pixel loop */
 748:eInk Library/pervasive_eink_hardware_driver.c ****         for (x = 0; x < PV_EINK_HORIZONTAL_SIZE; x++)
 1917              		.loc 2 748 0
 1918 008a 0023     		movs	r3, #0
 1919 008c FB82     		strh	r3, [r7, #22]	@ movhi
 1920 008e FCE0     		b	.L134
 1921              	.L167:
 749:eInk Library/pervasive_eink_hardware_driver.c ****         {
 750:eInk Library/pervasive_eink_hardware_driver.c ****             /* Fetch successive data bytes */
 751:eInk Library/pervasive_eink_hardware_driver.c ****             oldByte = *previousImagePtr++;
 1922              		.loc 2 751 0
 1923 0090 7B68     		ldr	r3, [r7, #4]
 1924 0092 5A1C     		adds	r2, r3, #1
 1925 0094 7A60     		str	r2, [r7, #4]
 1926 0096 1B78     		ldrb	r3, [r3]
 1927 0098 FB73     		strb	r3, [r7, #15]
 752:eInk Library/pervasive_eink_hardware_driver.c ****             newByte = *newImagePtr++;
 1928              		.loc 2 752 0
 1929 009a 3B68     		ldr	r3, [r7]
 1930 009c 5A1C     		adds	r2, r3, #1
 1931 009e 3A60     		str	r2, [r7]
 1932 00a0 1B78     		ldrb	r3, [r3]
 1933 00a2 BB73     		strb	r3, [r7, #14]
 753:eInk Library/pervasive_eink_hardware_driver.c ****             
 754:eInk Library/pervasive_eink_hardware_driver.c ****             /* Calculate the Even and Odd bytes for partial update stage. Also, 
 755:eInk Library/pervasive_eink_hardware_driver.c ****                if the new data byte is same as the previous data byte, store a 
 756:eInk Library/pervasive_eink_hardware_driver.c ****                "nothing" pixel, so that the E-INK pixel won't be altered.
 757:eInk Library/pervasive_eink_hardware_driver.c ****                If the new data byte is different from the previous data byte, 
 758:eInk Library/pervasive_eink_hardware_driver.c ****                store the new data byte */
 759:eInk Library/pervasive_eink_hardware_driver.c ****             dataLineOdd[x]       = ((oldByte ^ newByte) & PV_EINK_ODD_MASK_A)
 1934              		.loc 2 759 0
 1935 00a4 924B     		ldr	r3, .L173+8
 1936 00a6 1A68     		ldr	r2, [r3]
 1937 00a8 FB8A     		ldrh	r3, [r7, #22]
 1938 00aa 1A44     		add	r2, r2, r3
 1939 00ac F97B     		ldrb	r1, [r7, #15]
ARM GAS  C:\Users\rober\AppData\Local\Temp\ccAa3myu.s 			page 62


 1940 00ae BB7B     		ldrb	r3, [r7, #14]
 1941 00b0 4B40     		eors	r3, r3, r1
 1942 00b2 DBB2     		uxtb	r3, r3
 1943 00b4 03F04003 		and	r3, r3, #64
 1944 00b8 002B     		cmp	r3, #0
 1945 00ba 08D0     		beq	.L135
 760:eInk Library/pervasive_eink_hardware_driver.c ****                                     ?((newByte & PV_EINK_ODD_MASK_A)
 1946              		.loc 2 760 0 discriminator 1
 1947 00bc BB7B     		ldrb	r3, [r7, #14]	@ zero_extendqisi2
 1948 00be 03F04003 		and	r3, r3, #64
 759:eInk Library/pervasive_eink_hardware_driver.c ****                                     ?((newByte & PV_EINK_ODD_MASK_A)
 1949              		.loc 2 759 0 discriminator 1
 1950 00c2 002B     		cmp	r3, #0
 1951 00c4 01D0     		beq	.L136
 759:eInk Library/pervasive_eink_hardware_driver.c ****                                     ?((newByte & PV_EINK_ODD_MASK_A)
 1952              		.loc 2 759 0 is_stmt 0 discriminator 3
 1953 00c6 8023     		movs	r3, #128
 1954 00c8 02E0     		b	.L138
 1955              	.L136:
 759:eInk Library/pervasive_eink_hardware_driver.c ****                                     ?((newByte & PV_EINK_ODD_MASK_A)
 1956              		.loc 2 759 0 discriminator 4
 1957 00ca C023     		movs	r3, #192
 1958 00cc 00E0     		b	.L138
 1959              	.L135:
 759:eInk Library/pervasive_eink_hardware_driver.c ****                                     ?((newByte & PV_EINK_ODD_MASK_A)
 1960              		.loc 2 759 0 discriminator 2
 1961 00ce 4023     		movs	r3, #64
 1962              	.L138:
 759:eInk Library/pervasive_eink_hardware_driver.c ****                                     ?((newByte & PV_EINK_ODD_MASK_A)
 1963              		.loc 2 759 0 discriminator 8
 1964 00d0 1370     		strb	r3, [r2]
 761:eInk Library/pervasive_eink_hardware_driver.c ****                                     ? PV_EINK_WHITE3
 762:eInk Library/pervasive_eink_hardware_driver.c ****                                     : PV_EINK_BLACK3) : PV_EINK_NOTHING3;
 763:eInk Library/pervasive_eink_hardware_driver.c ****             dataLineOdd[x]      |= ((oldByte ^ newByte) & PV_EINK_ODD_MASK_B)
 1965              		.loc 2 763 0 is_stmt 1 discriminator 8
 1966 00d2 874B     		ldr	r3, .L173+8
 1967 00d4 1A68     		ldr	r2, [r3]
 1968 00d6 FB8A     		ldrh	r3, [r7, #22]
 1969 00d8 1A44     		add	r2, r2, r3
 1970 00da 854B     		ldr	r3, .L173+8
 1971 00dc 1968     		ldr	r1, [r3]
 1972 00de FB8A     		ldrh	r3, [r7, #22]
 1973 00e0 0B44     		add	r3, r3, r1
 1974 00e2 1B78     		ldrb	r3, [r3]	@ zero_extendqisi2
 1975 00e4 59B2     		sxtb	r1, r3
 1976 00e6 F87B     		ldrb	r0, [r7, #15]
 1977 00e8 BB7B     		ldrb	r3, [r7, #14]
 1978 00ea 4340     		eors	r3, r3, r0
 1979 00ec DBB2     		uxtb	r3, r3
 1980 00ee 03F01003 		and	r3, r3, #16
 1981 00f2 002B     		cmp	r3, #0
 1982 00f4 08D0     		beq	.L139
 764:eInk Library/pervasive_eink_hardware_driver.c ****                                     ?((newByte & PV_EINK_ODD_MASK_B) 
 1983              		.loc 2 764 0 discriminator 1
 1984 00f6 BB7B     		ldrb	r3, [r7, #14]	@ zero_extendqisi2
 1985 00f8 03F01003 		and	r3, r3, #16
 763:eInk Library/pervasive_eink_hardware_driver.c ****                                     ?((newByte & PV_EINK_ODD_MASK_B) 
ARM GAS  C:\Users\rober\AppData\Local\Temp\ccAa3myu.s 			page 63


 1986              		.loc 2 763 0 discriminator 1
 1987 00fc 002B     		cmp	r3, #0
 1988 00fe 01D0     		beq	.L140
 763:eInk Library/pervasive_eink_hardware_driver.c ****                                     ?((newByte & PV_EINK_ODD_MASK_B) 
 1989              		.loc 2 763 0 is_stmt 0 discriminator 3
 1990 0100 2023     		movs	r3, #32
 1991 0102 02E0     		b	.L142
 1992              	.L140:
 763:eInk Library/pervasive_eink_hardware_driver.c ****                                     ?((newByte & PV_EINK_ODD_MASK_B) 
 1993              		.loc 2 763 0 discriminator 4
 1994 0104 3023     		movs	r3, #48
 1995 0106 00E0     		b	.L142
 1996              	.L139:
 763:eInk Library/pervasive_eink_hardware_driver.c ****                                     ?((newByte & PV_EINK_ODD_MASK_B) 
 1997              		.loc 2 763 0 discriminator 2
 1998 0108 1023     		movs	r3, #16
 1999              	.L142:
 763:eInk Library/pervasive_eink_hardware_driver.c ****                                     ?((newByte & PV_EINK_ODD_MASK_B) 
 2000              		.loc 2 763 0 discriminator 8
 2001 010a 0B43     		orrs	r3, r3, r1
 2002 010c 5BB2     		sxtb	r3, r3
 2003 010e DBB2     		uxtb	r3, r3
 2004 0110 1370     		strb	r3, [r2]
 765:eInk Library/pervasive_eink_hardware_driver.c ****                                     ? PV_EINK_WHITE2 
 766:eInk Library/pervasive_eink_hardware_driver.c ****                                     : PV_EINK_BLACK2) : PV_EINK_NOTHING2;
 767:eInk Library/pervasive_eink_hardware_driver.c ****             dataLineOdd[x]      |= ((oldByte ^ newByte) & PV_EINK_ODD_MASK_C)
 2005              		.loc 2 767 0 is_stmt 1 discriminator 8
 2006 0112 774B     		ldr	r3, .L173+8
 2007 0114 1A68     		ldr	r2, [r3]
 2008 0116 FB8A     		ldrh	r3, [r7, #22]
 2009 0118 1A44     		add	r2, r2, r3
 2010 011a 754B     		ldr	r3, .L173+8
 2011 011c 1968     		ldr	r1, [r3]
 2012 011e FB8A     		ldrh	r3, [r7, #22]
 2013 0120 0B44     		add	r3, r3, r1
 2014 0122 1B78     		ldrb	r3, [r3]	@ zero_extendqisi2
 2015 0124 59B2     		sxtb	r1, r3
 2016 0126 F87B     		ldrb	r0, [r7, #15]
 2017 0128 BB7B     		ldrb	r3, [r7, #14]
 2018 012a 4340     		eors	r3, r3, r0
 2019 012c DBB2     		uxtb	r3, r3
 2020 012e 03F00403 		and	r3, r3, #4
 2021 0132 002B     		cmp	r3, #0
 2022 0134 08D0     		beq	.L143
 768:eInk Library/pervasive_eink_hardware_driver.c ****                                     ?((newByte & PV_EINK_ODD_MASK_C) 
 2023              		.loc 2 768 0 discriminator 1
 2024 0136 BB7B     		ldrb	r3, [r7, #14]	@ zero_extendqisi2
 2025 0138 03F00403 		and	r3, r3, #4
 767:eInk Library/pervasive_eink_hardware_driver.c ****                                     ?((newByte & PV_EINK_ODD_MASK_C) 
 2026              		.loc 2 767 0 discriminator 1
 2027 013c 002B     		cmp	r3, #0
 2028 013e 01D0     		beq	.L144
 767:eInk Library/pervasive_eink_hardware_driver.c ****                                     ?((newByte & PV_EINK_ODD_MASK_C) 
 2029              		.loc 2 767 0 is_stmt 0 discriminator 3
 2030 0140 0823     		movs	r3, #8
 2031 0142 02E0     		b	.L146
 2032              	.L144:
ARM GAS  C:\Users\rober\AppData\Local\Temp\ccAa3myu.s 			page 64


 767:eInk Library/pervasive_eink_hardware_driver.c ****                                     ?((newByte & PV_EINK_ODD_MASK_C) 
 2033              		.loc 2 767 0 discriminator 4
 2034 0144 0C23     		movs	r3, #12
 2035 0146 00E0     		b	.L146
 2036              	.L143:
 767:eInk Library/pervasive_eink_hardware_driver.c ****                                     ?((newByte & PV_EINK_ODD_MASK_C) 
 2037              		.loc 2 767 0 discriminator 2
 2038 0148 0423     		movs	r3, #4
 2039              	.L146:
 767:eInk Library/pervasive_eink_hardware_driver.c ****                                     ?((newByte & PV_EINK_ODD_MASK_C) 
 2040              		.loc 2 767 0 discriminator 8
 2041 014a 0B43     		orrs	r3, r3, r1
 2042 014c 5BB2     		sxtb	r3, r3
 2043 014e DBB2     		uxtb	r3, r3
 2044 0150 1370     		strb	r3, [r2]
 769:eInk Library/pervasive_eink_hardware_driver.c ****                                     ? PV_EINK_WHITE1
 770:eInk Library/pervasive_eink_hardware_driver.c ****                                     : PV_EINK_BLACK1) : PV_EINK_NOTHING1;
 771:eInk Library/pervasive_eink_hardware_driver.c ****             dataLineOdd[x]      |= ((oldByte ^ newByte) & PV_EINK_ODD_MASK_D)
 2045              		.loc 2 771 0 is_stmt 1 discriminator 8
 2046 0152 674B     		ldr	r3, .L173+8
 2047 0154 1A68     		ldr	r2, [r3]
 2048 0156 FB8A     		ldrh	r3, [r7, #22]
 2049 0158 1A44     		add	r2, r2, r3
 2050 015a 654B     		ldr	r3, .L173+8
 2051 015c 1968     		ldr	r1, [r3]
 2052 015e FB8A     		ldrh	r3, [r7, #22]
 2053 0160 0B44     		add	r3, r3, r1
 2054 0162 1B78     		ldrb	r3, [r3]	@ zero_extendqisi2
 2055 0164 59B2     		sxtb	r1, r3
 2056 0166 F87B     		ldrb	r0, [r7, #15]
 2057 0168 BB7B     		ldrb	r3, [r7, #14]
 2058 016a 4340     		eors	r3, r3, r0
 2059 016c DBB2     		uxtb	r3, r3
 2060 016e 03F00103 		and	r3, r3, #1
 2061 0172 002B     		cmp	r3, #0
 2062 0174 08D0     		beq	.L147
 772:eInk Library/pervasive_eink_hardware_driver.c ****                                     ?((newByte & PV_EINK_ODD_MASK_D) 
 2063              		.loc 2 772 0 discriminator 1
 2064 0176 BB7B     		ldrb	r3, [r7, #14]	@ zero_extendqisi2
 2065 0178 03F00103 		and	r3, r3, #1
 771:eInk Library/pervasive_eink_hardware_driver.c ****                                     ?((newByte & PV_EINK_ODD_MASK_D) 
 2066              		.loc 2 771 0 discriminator 1
 2067 017c 002B     		cmp	r3, #0
 2068 017e 01D0     		beq	.L148
 771:eInk Library/pervasive_eink_hardware_driver.c ****                                     ?((newByte & PV_EINK_ODD_MASK_D) 
 2069              		.loc 2 771 0 is_stmt 0 discriminator 3
 2070 0180 0223     		movs	r3, #2
 2071 0182 02E0     		b	.L150
 2072              	.L148:
 771:eInk Library/pervasive_eink_hardware_driver.c ****                                     ?((newByte & PV_EINK_ODD_MASK_D) 
 2073              		.loc 2 771 0 discriminator 4
 2074 0184 0323     		movs	r3, #3
 2075 0186 00E0     		b	.L150
 2076              	.L147:
 771:eInk Library/pervasive_eink_hardware_driver.c ****                                     ?((newByte & PV_EINK_ODD_MASK_D) 
 2077              		.loc 2 771 0 discriminator 2
 2078 0188 0123     		movs	r3, #1
ARM GAS  C:\Users\rober\AppData\Local\Temp\ccAa3myu.s 			page 65


 2079              	.L150:
 771:eInk Library/pervasive_eink_hardware_driver.c ****                                     ?((newByte & PV_EINK_ODD_MASK_D) 
 2080              		.loc 2 771 0 discriminator 8
 2081 018a 0B43     		orrs	r3, r3, r1
 2082 018c 5BB2     		sxtb	r3, r3
 2083 018e DBB2     		uxtb	r3, r3
 2084 0190 1370     		strb	r3, [r2]
 773:eInk Library/pervasive_eink_hardware_driver.c ****                                     ? PV_EINK_WHITE0 
 774:eInk Library/pervasive_eink_hardware_driver.c ****                                     : PV_EINK_BLACK0) : PV_EINK_NOTHING0;
 775:eInk Library/pervasive_eink_hardware_driver.c ****             dataLineEven[k]      = ((oldByte ^ newByte) & PV_EINK_EVEN_MASK_A)
 2085              		.loc 2 775 0 is_stmt 1 discriminator 8
 2086 0192 564B     		ldr	r3, .L173+4
 2087 0194 1A68     		ldr	r2, [r3]
 2088 0196 7B8A     		ldrh	r3, [r7, #18]
 2089 0198 1A44     		add	r2, r2, r3
 776:eInk Library/pervasive_eink_hardware_driver.c ****                                     ?((newByte & PV_EINK_EVEN_MASK_A) 
 2090              		.loc 2 776 0 discriminator 8
 2091 019a F97B     		ldrb	r1, [r7, #15]
 2092 019c BB7B     		ldrb	r3, [r7, #14]
 2093 019e 4B40     		eors	r3, r3, r1
 2094 01a0 DBB2     		uxtb	r3, r3
 2095 01a2 5BB2     		sxtb	r3, r3
 775:eInk Library/pervasive_eink_hardware_driver.c ****                                     ?((newByte & PV_EINK_EVEN_MASK_A) 
 2096              		.loc 2 775 0 discriminator 8
 2097 01a4 002B     		cmp	r3, #0
 2098 01a6 07DA     		bge	.L151
 777:eInk Library/pervasive_eink_hardware_driver.c ****                                     ? PV_EINK_WHITE0
 2099              		.loc 2 777 0 discriminator 1
 2100 01a8 97F90E30 		ldrsb	r3, [r7, #14]
 775:eInk Library/pervasive_eink_hardware_driver.c ****                                     ?((newByte & PV_EINK_EVEN_MASK_A) 
 2101              		.loc 2 775 0 discriminator 1
 2102 01ac 002B     		cmp	r3, #0
 2103 01ae 01DA     		bge	.L152
 775:eInk Library/pervasive_eink_hardware_driver.c ****                                     ?((newByte & PV_EINK_EVEN_MASK_A) 
 2104              		.loc 2 775 0 is_stmt 0 discriminator 3
 2105 01b0 0223     		movs	r3, #2
 2106 01b2 02E0     		b	.L154
 2107              	.L152:
 775:eInk Library/pervasive_eink_hardware_driver.c ****                                     ?((newByte & PV_EINK_EVEN_MASK_A) 
 2108              		.loc 2 775 0 discriminator 4
 2109 01b4 0323     		movs	r3, #3
 2110 01b6 00E0     		b	.L154
 2111              	.L151:
 775:eInk Library/pervasive_eink_hardware_driver.c ****                                     ?((newByte & PV_EINK_EVEN_MASK_A) 
 2112              		.loc 2 775 0 discriminator 2
 2113 01b8 0123     		movs	r3, #1
 2114              	.L154:
 775:eInk Library/pervasive_eink_hardware_driver.c ****                                     ?((newByte & PV_EINK_EVEN_MASK_A) 
 2115              		.loc 2 775 0 discriminator 8
 2116 01ba 1370     		strb	r3, [r2]
 778:eInk Library/pervasive_eink_hardware_driver.c ****                                     : PV_EINK_BLACK0) : PV_EINK_NOTHING0;
 779:eInk Library/pervasive_eink_hardware_driver.c ****             dataLineEven[k]     |= ((oldByte ^ newByte) & PV_EINK_EVEN_MASK_B) 
 2117              		.loc 2 779 0 is_stmt 1 discriminator 8
 2118 01bc 4B4B     		ldr	r3, .L173+4
 2119 01be 1A68     		ldr	r2, [r3]
 2120 01c0 7B8A     		ldrh	r3, [r7, #18]
 2121 01c2 1A44     		add	r2, r2, r3
ARM GAS  C:\Users\rober\AppData\Local\Temp\ccAa3myu.s 			page 66


 2122 01c4 494B     		ldr	r3, .L173+4
 2123 01c6 1968     		ldr	r1, [r3]
 2124 01c8 7B8A     		ldrh	r3, [r7, #18]
 2125 01ca 0B44     		add	r3, r3, r1
 2126 01cc 1B78     		ldrb	r3, [r3]	@ zero_extendqisi2
 2127 01ce 59B2     		sxtb	r1, r3
 2128 01d0 F87B     		ldrb	r0, [r7, #15]
 2129 01d2 BB7B     		ldrb	r3, [r7, #14]
 2130 01d4 4340     		eors	r3, r3, r0
 2131 01d6 DBB2     		uxtb	r3, r3
 2132 01d8 03F02003 		and	r3, r3, #32
 2133 01dc 002B     		cmp	r3, #0
 2134 01de 08D0     		beq	.L155
 780:eInk Library/pervasive_eink_hardware_driver.c ****                                     ?((newByte & PV_EINK_EVEN_MASK_B) 
 2135              		.loc 2 780 0 discriminator 1
 2136 01e0 BB7B     		ldrb	r3, [r7, #14]	@ zero_extendqisi2
 2137 01e2 03F02003 		and	r3, r3, #32
 779:eInk Library/pervasive_eink_hardware_driver.c ****                                     ?((newByte & PV_EINK_EVEN_MASK_B) 
 2138              		.loc 2 779 0 discriminator 1
 2139 01e6 002B     		cmp	r3, #0
 2140 01e8 01D0     		beq	.L156
 779:eInk Library/pervasive_eink_hardware_driver.c ****                                     ?((newByte & PV_EINK_EVEN_MASK_B) 
 2141              		.loc 2 779 0 is_stmt 0 discriminator 3
 2142 01ea 0823     		movs	r3, #8
 2143 01ec 02E0     		b	.L158
 2144              	.L156:
 779:eInk Library/pervasive_eink_hardware_driver.c ****                                     ?((newByte & PV_EINK_EVEN_MASK_B) 
 2145              		.loc 2 779 0 discriminator 4
 2146 01ee 0C23     		movs	r3, #12
 2147 01f0 00E0     		b	.L158
 2148              	.L155:
 779:eInk Library/pervasive_eink_hardware_driver.c ****                                     ?((newByte & PV_EINK_EVEN_MASK_B) 
 2149              		.loc 2 779 0 discriminator 2
 2150 01f2 0423     		movs	r3, #4
 2151              	.L158:
 779:eInk Library/pervasive_eink_hardware_driver.c ****                                     ?((newByte & PV_EINK_EVEN_MASK_B) 
 2152              		.loc 2 779 0 discriminator 8
 2153 01f4 0B43     		orrs	r3, r3, r1
 2154 01f6 5BB2     		sxtb	r3, r3
 2155 01f8 DBB2     		uxtb	r3, r3
 2156 01fa 1370     		strb	r3, [r2]
 781:eInk Library/pervasive_eink_hardware_driver.c ****                                     ? PV_EINK_WHITE1
 782:eInk Library/pervasive_eink_hardware_driver.c ****                                     : PV_EINK_BLACK1) : PV_EINK_NOTHING1;
 783:eInk Library/pervasive_eink_hardware_driver.c ****             dataLineEven[k]     |= ((oldByte ^ newByte) & PV_EINK_EVEN_MASK_C)
 2157              		.loc 2 783 0 is_stmt 1 discriminator 8
 2158 01fc 3B4B     		ldr	r3, .L173+4
 2159 01fe 1A68     		ldr	r2, [r3]
 2160 0200 7B8A     		ldrh	r3, [r7, #18]
 2161 0202 1A44     		add	r2, r2, r3
 2162 0204 394B     		ldr	r3, .L173+4
 2163 0206 1968     		ldr	r1, [r3]
 2164 0208 7B8A     		ldrh	r3, [r7, #18]
 2165 020a 0B44     		add	r3, r3, r1
 2166 020c 1B78     		ldrb	r3, [r3]	@ zero_extendqisi2
 2167 020e 59B2     		sxtb	r1, r3
 2168 0210 F87B     		ldrb	r0, [r7, #15]
 2169 0212 BB7B     		ldrb	r3, [r7, #14]
ARM GAS  C:\Users\rober\AppData\Local\Temp\ccAa3myu.s 			page 67


 2170 0214 4340     		eors	r3, r3, r0
 2171 0216 DBB2     		uxtb	r3, r3
 2172 0218 03F00803 		and	r3, r3, #8
 2173 021c 002B     		cmp	r3, #0
 2174 021e 08D0     		beq	.L159
 784:eInk Library/pervasive_eink_hardware_driver.c ****                                     ?((newByte & PV_EINK_EVEN_MASK_C) 
 2175              		.loc 2 784 0 discriminator 1
 2176 0220 BB7B     		ldrb	r3, [r7, #14]	@ zero_extendqisi2
 2177 0222 03F00803 		and	r3, r3, #8
 783:eInk Library/pervasive_eink_hardware_driver.c ****                                     ?((newByte & PV_EINK_EVEN_MASK_C) 
 2178              		.loc 2 783 0 discriminator 1
 2179 0226 002B     		cmp	r3, #0
 2180 0228 01D0     		beq	.L160
 783:eInk Library/pervasive_eink_hardware_driver.c ****                                     ?((newByte & PV_EINK_EVEN_MASK_C) 
 2181              		.loc 2 783 0 is_stmt 0 discriminator 3
 2182 022a 2023     		movs	r3, #32
 2183 022c 02E0     		b	.L162
 2184              	.L160:
 783:eInk Library/pervasive_eink_hardware_driver.c ****                                     ?((newByte & PV_EINK_EVEN_MASK_C) 
 2185              		.loc 2 783 0 discriminator 4
 2186 022e 3023     		movs	r3, #48
 2187 0230 00E0     		b	.L162
 2188              	.L159:
 783:eInk Library/pervasive_eink_hardware_driver.c ****                                     ?((newByte & PV_EINK_EVEN_MASK_C) 
 2189              		.loc 2 783 0 discriminator 2
 2190 0232 1023     		movs	r3, #16
 2191              	.L162:
 783:eInk Library/pervasive_eink_hardware_driver.c ****                                     ?((newByte & PV_EINK_EVEN_MASK_C) 
 2192              		.loc 2 783 0 discriminator 8
 2193 0234 0B43     		orrs	r3, r3, r1
 2194 0236 5BB2     		sxtb	r3, r3
 2195 0238 DBB2     		uxtb	r3, r3
 2196 023a 1370     		strb	r3, [r2]
 785:eInk Library/pervasive_eink_hardware_driver.c ****                                     ? PV_EINK_WHITE2 
 786:eInk Library/pervasive_eink_hardware_driver.c ****                                     : PV_EINK_BLACK2) : PV_EINK_NOTHING2;
 787:eInk Library/pervasive_eink_hardware_driver.c ****             dataLineEven[k--]   |= ((oldByte ^ newByte) & PV_EINK_EVEN_MASK_D)
 2197              		.loc 2 787 0 is_stmt 1 discriminator 8
 2198 023c 2B4B     		ldr	r3, .L173+4
 2199 023e 1A68     		ldr	r2, [r3]
 2200 0240 7B8A     		ldrh	r3, [r7, #18]
 2201 0242 591E     		subs	r1, r3, #1
 2202 0244 7982     		strh	r1, [r7, #18]	@ movhi
 2203 0246 1946     		mov	r1, r3
 2204 0248 0A44     		add	r2, r2, r1
 2205 024a 2849     		ldr	r1, .L173+4
 2206 024c 0968     		ldr	r1, [r1]
 2207 024e 0B44     		add	r3, r3, r1
 2208 0250 1B78     		ldrb	r3, [r3]	@ zero_extendqisi2
 2209 0252 59B2     		sxtb	r1, r3
 2210 0254 F87B     		ldrb	r0, [r7, #15]
 2211 0256 BB7B     		ldrb	r3, [r7, #14]
 2212 0258 4340     		eors	r3, r3, r0
 2213 025a DBB2     		uxtb	r3, r3
 2214 025c 03F00203 		and	r3, r3, #2
 2215 0260 002B     		cmp	r3, #0
 2216 0262 0AD0     		beq	.L163
 788:eInk Library/pervasive_eink_hardware_driver.c ****                                     ?((newByte & PV_EINK_EVEN_MASK_D) 
ARM GAS  C:\Users\rober\AppData\Local\Temp\ccAa3myu.s 			page 68


 2217              		.loc 2 788 0 discriminator 1
 2218 0264 BB7B     		ldrb	r3, [r7, #14]	@ zero_extendqisi2
 2219 0266 03F00203 		and	r3, r3, #2
 787:eInk Library/pervasive_eink_hardware_driver.c ****                                     ?((newByte & PV_EINK_EVEN_MASK_D) 
 2220              		.loc 2 787 0 discriminator 1
 2221 026a 002B     		cmp	r3, #0
 2222 026c 02D0     		beq	.L164
 787:eInk Library/pervasive_eink_hardware_driver.c ****                                     ?((newByte & PV_EINK_EVEN_MASK_D) 
 2223              		.loc 2 787 0 is_stmt 0 discriminator 3
 2224 026e 6FF07F03 		mvn	r3, #127
 2225 0272 03E0     		b	.L166
 2226              	.L164:
 787:eInk Library/pervasive_eink_hardware_driver.c ****                                     ?((newByte & PV_EINK_EVEN_MASK_D) 
 2227              		.loc 2 787 0 discriminator 4
 2228 0274 6FF03F03 		mvn	r3, #63
 2229 0278 00E0     		b	.L166
 2230              	.L163:
 787:eInk Library/pervasive_eink_hardware_driver.c ****                                     ?((newByte & PV_EINK_EVEN_MASK_D) 
 2231              		.loc 2 787 0 discriminator 2
 2232 027a 4023     		movs	r3, #64
 2233              	.L166:
 787:eInk Library/pervasive_eink_hardware_driver.c ****                                     ?((newByte & PV_EINK_EVEN_MASK_D) 
 2234              		.loc 2 787 0 discriminator 8
 2235 027c 0B43     		orrs	r3, r3, r1
 2236 027e 5BB2     		sxtb	r3, r3
 2237 0280 DBB2     		uxtb	r3, r3
 2238 0282 1370     		strb	r3, [r2]
 748:eInk Library/pervasive_eink_hardware_driver.c ****         {
 2239              		.loc 2 748 0 is_stmt 1 discriminator 8
 2240 0284 FB8A     		ldrh	r3, [r7, #22]
 2241 0286 0133     		adds	r3, r3, #1
 2242 0288 FB82     		strh	r3, [r7, #22]	@ movhi
 2243              	.L134:
 748:eInk Library/pervasive_eink_hardware_driver.c ****         {
 2244              		.loc 2 748 0 is_stmt 0 discriminator 2
 2245 028a FB8A     		ldrh	r3, [r7, #22]
 2246 028c 202B     		cmp	r3, #32
 2247 028e 7FF6FFAE 		bls	.L167
 789:eInk Library/pervasive_eink_hardware_driver.c ****                                     ? PV_EINK_WHITE3 
 790:eInk Library/pervasive_eink_hardware_driver.c ****                                     : PV_EINK_BLACK3) : PV_EINK_NOTHING3;
 791:eInk Library/pervasive_eink_hardware_driver.c ****         }
 792:eInk Library/pervasive_eink_hardware_driver.c ****         /* Move onto the next line */
 793:eInk Library/pervasive_eink_hardware_driver.c ****         scanlineNumber = PV_EINK_VERTICAL_SIZE - y;
 2248              		.loc 2 793 0 is_stmt 1 discriminator 2
 2249 0292 BB8A     		ldrh	r3, [r7, #20]	@ movhi
 2250 0294 C3F1B003 		rsb	r3, r3, #176
 2251 0298 9BB2     		uxth	r3, r3
 2252 029a 3B82     		strh	r3, [r7, #16]	@ movhi
 794:eInk Library/pervasive_eink_hardware_driver.c ****         scanlineNumber--;
 2253              		.loc 2 794 0 discriminator 2
 2254 029c B7F91030 		ldrsh	r3, [r7, #16]
 2255 02a0 9BB2     		uxth	r3, r3
 2256 02a2 013B     		subs	r3, r3, #1
 2257 02a4 9BB2     		uxth	r3, r3
 2258 02a6 3B82     		strh	r3, [r7, #16]	@ movhi
 795:eInk Library/pervasive_eink_hardware_driver.c ****         
 796:eInk Library/pervasive_eink_hardware_driver.c ****         /* Shift Scan byte according to the data line */
ARM GAS  C:\Users\rober\AppData\Local\Temp\ccAa3myu.s 			page 69


 797:eInk Library/pervasive_eink_hardware_driver.c ****         dataLineScan[(scanlineNumber >> PV_EINK_PIXEL_SIZE)] = scanTable
 2259              		.loc 2 797 0 discriminator 2
 2260 02a8 124B     		ldr	r3, .L173+12
 2261 02aa 1B68     		ldr	r3, [r3]
 2262 02ac B7F91020 		ldrsh	r2, [r7, #16]
 2263 02b0 9210     		asrs	r2, r2, #2
 2264 02b2 12B2     		sxth	r2, r2
 2265 02b4 1A44     		add	r2, r2, r3
 798:eInk Library/pervasive_eink_hardware_driver.c ****                             [(scanlineNumber % PV_EINK_SCAN_TABLE_SIZE)];
 2266              		.loc 2 798 0 discriminator 2
 2267 02b6 B7F91010 		ldrsh	r1, [r7, #16]
 2268 02ba 0F4B     		ldr	r3, .L173+16
 2269 02bc 0B40     		ands	r3, r3, r1
 2270 02be 002B     		cmp	r3, #0
 2271 02c0 03DA     		bge	.L168
 2272 02c2 013B     		subs	r3, r3, #1
 2273 02c4 63F00303 		orn	r3, r3, #3
 2274 02c8 0133     		adds	r3, r3, #1
 2275              	.L168:
 2276 02ca 1BB2     		sxth	r3, r3
 2277 02cc 1946     		mov	r1, r3
 2278 02ce 0B4B     		ldr	r3, .L173+20
 2279 02d0 5B5C     		ldrb	r3, [r3, r1]	@ zero_extendqisi2
 797:eInk Library/pervasive_eink_hardware_driver.c ****                             [(scanlineNumber % PV_EINK_SCAN_TABLE_SIZE)];
 2280              		.loc 2 797 0 discriminator 2
 2281 02d2 1370     		strb	r3, [r2]
 732:eInk Library/pervasive_eink_hardware_driver.c ****     {
 2282              		.loc 2 732 0 discriminator 2
 2283 02d4 BB8A     		ldrh	r3, [r7, #20]
 2284 02d6 0133     		adds	r3, r3, #1
 2285 02d8 BB82     		strh	r3, [r7, #20]	@ movhi
 2286              	.L133:
 732:eInk Library/pervasive_eink_hardware_driver.c ****     {
 2287              		.loc 2 732 0 is_stmt 0 discriminator 1
 2288 02da BB8A     		ldrh	r3, [r7, #20]
 2289 02dc AF2B     		cmp	r3, #175
 2290 02de 7FF69FAE 		bls	.L169
 2291              	.L172:
 799:eInk Library/pervasive_eink_hardware_driver.c ****     }
 800:eInk Library/pervasive_eink_hardware_driver.c ****     
 801:eInk Library/pervasive_eink_hardware_driver.c ****     /* Perform the update operation until the total time of frames exceed stage
 802:eInk Library/pervasive_eink_hardware_driver.c ****        time */
 803:eInk Library/pervasive_eink_hardware_driver.c ****     do
 804:eInk Library/pervasive_eink_hardware_driver.c ****     {
 805:eInk Library/pervasive_eink_hardware_driver.c ****         /* Perform a line by line update */
 806:eInk Library/pervasive_eink_hardware_driver.c ****         for (y = 0; y < PV_EINK_VERTICAL_SIZE; y++)
 2292              		.loc 2 806 0 is_stmt 1
 2293 02e2 0023     		movs	r3, #0
 2294 02e4 BB82     		strh	r3, [r7, #20]	@ movhi
 2295 02e6 4CE0     		b	.L170
 2296              	.L174:
 2297              		.align	2
 2298              	.L173:
 2299 02e8 00000000 		.word	bulkDriverPacket
 2300 02ec 74000000 		.word	dataLineEven
 2301 02f0 78000000 		.word	dataLineOdd
 2302 02f4 7C000000 		.word	dataLineScan
ARM GAS  C:\Users\rober\AppData\Local\Temp\ccAa3myu.s 			page 70


 2303 02f8 03000080 		.word	-2147483645
 2304 02fc 00000000 		.word	scanTable
 2305              	.L171:
 807:eInk Library/pervasive_eink_hardware_driver.c ****         {
 808:eInk Library/pervasive_eink_hardware_driver.c ****             /* Send the prepared data to the E-INK display */
 809:eInk Library/pervasive_eink_hardware_driver.c ****             Pv_EINK_SendData(PV_EINK_PIXEL_DATA_COMMAND_INDEX,
 810:eInk Library/pervasive_eink_hardware_driver.c ****                             (uint8_t*) &bulkDriverPacket[y].lineBuffer,
 2306              		.loc 2 810 0 discriminator 3
 2307 0300 BA8A     		ldrh	r2, [r7, #20]
 2308 0302 1346     		mov	r3, r2
 2309 0304 DB00     		lsls	r3, r3, #3
 2310 0306 9B1A     		subs	r3, r3, r2
 2311 0308 1B01     		lsls	r3, r3, #4
 2312 030a 9B1A     		subs	r3, r3, r2
 2313 030c 274A     		ldr	r2, .L175
 2314 030e 1344     		add	r3, r3, r2
 809:eInk Library/pervasive_eink_hardware_driver.c ****                             (uint8_t*) &bulkDriverPacket[y].lineBuffer,
 2315              		.loc 2 809 0 discriminator 3
 2316 0310 6F22     		movs	r2, #111
 2317 0312 1946     		mov	r1, r3
 2318 0314 0A20     		movs	r0, #10
 2319 0316 FFF7FEFF 		bl	Pv_EINK_SendData
 811:eInk Library/pervasive_eink_hardware_driver.c ****                              PV_EINK_DATA_LINE_SIZE);
 812:eInk Library/pervasive_eink_hardware_driver.c ****             /* Turn on Output Enable to latch the frame */
 813:eInk Library/pervasive_eink_hardware_driver.c ****             Pv_EINK_SendByte(PV_EINK_ENABLE_OE_COMMAND_INDEX,
 2320              		.loc 2 813 0 discriminator 3
 2321 031a 0721     		movs	r1, #7
 2322 031c 0220     		movs	r0, #2
 2323 031e FFF7FEFF 		bl	Pv_EINK_SendByte
 814:eInk Library/pervasive_eink_hardware_driver.c ****                              PV_EINK_ENABLE_OE_COMMAND_DATA);
 815:eInk Library/pervasive_eink_hardware_driver.c ****             
 816:eInk Library/pervasive_eink_hardware_driver.c ****             /* Calculate the current line under scan */
 817:eInk Library/pervasive_eink_hardware_driver.c ****             scanlineNumber = PV_EINK_VERTICAL_SIZE - y;
 2324              		.loc 2 817 0 discriminator 3
 2325 0322 BB8A     		ldrh	r3, [r7, #20]	@ movhi
 2326 0324 C3F1B003 		rsb	r3, r3, #176
 2327 0328 9BB2     		uxth	r3, r3
 2328 032a 3B82     		strh	r3, [r7, #16]	@ movhi
 818:eInk Library/pervasive_eink_hardware_driver.c ****             scanlineNumber--;
 2329              		.loc 2 818 0 discriminator 3
 2330 032c B7F91030 		ldrsh	r3, [r7, #16]
 2331 0330 9BB2     		uxth	r3, r3
 2332 0332 013B     		subs	r3, r3, #1
 2333 0334 9BB2     		uxth	r3, r3
 2334 0336 3B82     		strh	r3, [r7, #16]	@ movhi
 819:eInk Library/pervasive_eink_hardware_driver.c ****             
 820:eInk Library/pervasive_eink_hardware_driver.c ****             /* Re-initialize the scan line (extra step for partial update) */
 821:eInk Library/pervasive_eink_hardware_driver.c ****             bulkDriverPacket[y].lineDataBySize.scan[(scanlineNumber 
 2335              		.loc 2 821 0 discriminator 3
 2336 0338 BA8A     		ldrh	r2, [r7, #20]
 822:eInk Library/pervasive_eink_hardware_driver.c ****                                                      >> PV_EINK_PIXEL_SIZE)]
 2337              		.loc 2 822 0 discriminator 3
 2338 033a B7F91030 		ldrsh	r3, [r7, #16]
 2339 033e 9B10     		asrs	r3, r3, #2
 2340 0340 1BB2     		sxth	r3, r3
 2341 0342 1846     		mov	r0, r3
 823:eInk Library/pervasive_eink_hardware_driver.c ****                                                      = PV_EINK_SCAN_BYTE_INIT;
ARM GAS  C:\Users\rober\AppData\Local\Temp\ccAa3myu.s 			page 71


 2342              		.loc 2 823 0 discriminator 3
 2343 0344 1949     		ldr	r1, .L175
 2344 0346 1346     		mov	r3, r2
 2345 0348 DB00     		lsls	r3, r3, #3
 2346 034a 9B1A     		subs	r3, r3, r2
 2347 034c 1B01     		lsls	r3, r3, #4
 2348 034e 9B1A     		subs	r3, r3, r2
 2349 0350 0B44     		add	r3, r3, r1
 2350 0352 0344     		add	r3, r3, r0
 2351 0354 2233     		adds	r3, r3, #34
 2352 0356 0022     		movs	r2, #0
 2353 0358 1A70     		strb	r2, [r3]
 824:eInk Library/pervasive_eink_hardware_driver.c **** 
 825:eInk Library/pervasive_eink_hardware_driver.c ****             Pv_EINK_SendData(PV_EINK_PIXEL_DATA_COMMAND_INDEX,
 826:eInk Library/pervasive_eink_hardware_driver.c ****                             (uint8_t*) &bulkDriverPacket[y].lineBuffer,
 2354              		.loc 2 826 0 discriminator 3
 2355 035a BA8A     		ldrh	r2, [r7, #20]
 2356 035c 1346     		mov	r3, r2
 2357 035e DB00     		lsls	r3, r3, #3
 2358 0360 9B1A     		subs	r3, r3, r2
 2359 0362 1B01     		lsls	r3, r3, #4
 2360 0364 9B1A     		subs	r3, r3, r2
 2361 0366 114A     		ldr	r2, .L175
 2362 0368 1344     		add	r3, r3, r2
 825:eInk Library/pervasive_eink_hardware_driver.c ****                             (uint8_t*) &bulkDriverPacket[y].lineBuffer,
 2363              		.loc 2 825 0 discriminator 3
 2364 036a 6F22     		movs	r2, #111
 2365 036c 1946     		mov	r1, r3
 2366 036e 0A20     		movs	r0, #10
 2367 0370 FFF7FEFF 		bl	Pv_EINK_SendData
 827:eInk Library/pervasive_eink_hardware_driver.c ****                              PV_EINK_DATA_LINE_SIZE);
 828:eInk Library/pervasive_eink_hardware_driver.c ****             Pv_EINK_SendByte(PV_EINK_ENABLE_OE_COMMAND_INDEX,
 2368              		.loc 2 828 0 discriminator 3
 2369 0374 0721     		movs	r1, #7
 2370 0376 0220     		movs	r0, #2
 2371 0378 FFF7FEFF 		bl	Pv_EINK_SendByte
 806:eInk Library/pervasive_eink_hardware_driver.c ****         {
 2372              		.loc 2 806 0 discriminator 3
 2373 037c BB8A     		ldrh	r3, [r7, #20]
 2374 037e 0133     		adds	r3, r3, #1
 2375 0380 BB82     		strh	r3, [r7, #20]	@ movhi
 2376              	.L170:
 806:eInk Library/pervasive_eink_hardware_driver.c ****         {
 2377              		.loc 2 806 0 is_stmt 0 discriminator 1
 2378 0382 BB8A     		ldrh	r3, [r7, #20]
 2379 0384 AF2B     		cmp	r3, #175
 2380 0386 BBD9     		bls	.L171
 829:eInk Library/pervasive_eink_hardware_driver.c ****                              PV_EINK_ENABLE_OE_COMMAND_DATA);
 830:eInk Library/pervasive_eink_hardware_driver.c ****         }
 831:eInk Library/pervasive_eink_hardware_driver.c ****     }
 832:eInk Library/pervasive_eink_hardware_driver.c ****     /* Loop until the total time of frames exceed stage time */
 833:eInk Library/pervasive_eink_hardware_driver.c ****     while (partialUpdateTime > Cy_EINK_GetTimeTick());
 2381              		.loc 2 833 0 is_stmt 1
 2382 0388 094B     		ldr	r3, .L175+4
 2383 038a 1B88     		ldrh	r3, [r3]
 2384 038c 1C46     		mov	r4, r3
 2385 038e FFF7FEFF 		bl	Cy_EINK_GetTimeTick
ARM GAS  C:\Users\rober\AppData\Local\Temp\ccAa3myu.s 			page 72


 2386 0392 0346     		mov	r3, r0
 2387 0394 9C42     		cmp	r4, r3
 2388 0396 A4D8     		bhi	.L172
 834:eInk Library/pervasive_eink_hardware_driver.c ****     
 835:eInk Library/pervasive_eink_hardware_driver.c ****     /* Stop system timer */
 836:eInk Library/pervasive_eink_hardware_driver.c ****     Cy_EINK_TimerStop();
 2389              		.loc 2 836 0
 2390 0398 FFF7FEFF 		bl	Cy_EINK_TimerStop
 837:eInk Library/pervasive_eink_hardware_driver.c ****     
 838:eInk Library/pervasive_eink_hardware_driver.c ****     /* Re-adjust Vcom level */
 839:eInk Library/pervasive_eink_hardware_driver.c ****     Pv_EINK_SendByte(PV_EINK_VCOM1_LEVEL_COMMAND_INDEX, 
 2391              		.loc 2 839 0
 2392 039c C221     		movs	r1, #194
 2393 039e 0920     		movs	r0, #9
 2394 03a0 FFF7FEFF 		bl	Pv_EINK_SendByte
 840:eInk Library/pervasive_eink_hardware_driver.c ****                      PV_EINK_VCOM1_LEVEL_COMMAND_DATA);
 841:eInk Library/pervasive_eink_hardware_driver.c **** }
 2395              		.loc 2 841 0
 2396 03a4 00BF     		nop
 2397 03a6 1C37     		adds	r7, r7, #28
 2398              		.cfi_def_cfa_offset 12
 2399 03a8 BD46     		mov	sp, r7
 2400              		.cfi_def_cfa_register 13
 2401              		@ sp needed
 2402 03aa 90BD     		pop	{r4, r7, pc}
 2403              	.L176:
 2404              		.align	2
 2405              	.L175:
 2406 03ac 00000000 		.word	bulkDriverPacket
 2407 03b0 72000000 		.word	partialUpdateTime
 2408              		.cfi_endproc
 2409              	.LFE610:
 2410              		.size	Pv_EINK_PartialStageHandler, .-Pv_EINK_PartialStageHandler
 2411              		.section	.text.Pv_EINK_NothingFrame,"ax",%progbits
 2412              		.align	2
 2413              		.global	Pv_EINK_NothingFrame
 2414              		.thumb
 2415              		.thumb_func
 2416              		.type	Pv_EINK_NothingFrame, %function
 2417              	Pv_EINK_NothingFrame:
 2418              	.LFB611:
 842:eInk Library/pervasive_eink_hardware_driver.c **** 
 843:eInk Library/pervasive_eink_hardware_driver.c **** /*******************************************************************************
 844:eInk Library/pervasive_eink_hardware_driver.c **** * Function Name:  void Pv_EINK_NothingFrame(void)
 845:eInk Library/pervasive_eink_hardware_driver.c **** ********************************************************************************
 846:eInk Library/pervasive_eink_hardware_driver.c **** *
 847:eInk Library/pervasive_eink_hardware_driver.c **** * Summary: Write a "Nothing Frame" to driver. For a "Nothing Frame",
 848:eInk Library/pervasive_eink_hardware_driver.c **** * all pixel data D(x,y) are "01".
 849:eInk Library/pervasive_eink_hardware_driver.c **** * For more details, please refer to the driver G2 document Section 6.
 850:eInk Library/pervasive_eink_hardware_driver.c **** *
 851:eInk Library/pervasive_eink_hardware_driver.c **** * Parameters:
 852:eInk Library/pervasive_eink_hardware_driver.c **** *  None
 853:eInk Library/pervasive_eink_hardware_driver.c **** *
 854:eInk Library/pervasive_eink_hardware_driver.c **** * Return:
 855:eInk Library/pervasive_eink_hardware_driver.c **** *  None
 856:eInk Library/pervasive_eink_hardware_driver.c **** *
 857:eInk Library/pervasive_eink_hardware_driver.c **** * Side Effects:
ARM GAS  C:\Users\rober\AppData\Local\Temp\ccAa3myu.s 			page 73


 858:eInk Library/pervasive_eink_hardware_driver.c **** *  None
 859:eInk Library/pervasive_eink_hardware_driver.c **** *******************************************************************************/
 860:eInk Library/pervasive_eink_hardware_driver.c **** void Pv_EINK_NothingFrame(void)
 861:eInk Library/pervasive_eink_hardware_driver.c **** {
 2419              		.loc 2 861 0
 2420              		.cfi_startproc
 2421              		@ args = 0, pretend = 0, frame = 8
 2422              		@ frame_needed = 1, uses_anonymous_args = 0
 2423 0000 80B5     		push	{r7, lr}
 2424              		.cfi_def_cfa_offset 8
 2425              		.cfi_offset 7, -8
 2426              		.cfi_offset 14, -4
 2427 0002 82B0     		sub	sp, sp, #8
 2428              		.cfi_def_cfa_offset 16
 2429 0004 00AF     		add	r7, sp, #0
 2430              		.cfi_def_cfa_register 7
 862:eInk Library/pervasive_eink_hardware_driver.c ****     /* Counter variable for data line bytes */
 863:eInk Library/pervasive_eink_hardware_driver.c ****     uint16_t    byteCounter;
 864:eInk Library/pervasive_eink_hardware_driver.c ****     
 865:eInk Library/pervasive_eink_hardware_driver.c ****     /* Set all Even and Odd data bytes as "Nothing" bytes */
 866:eInk Library/pervasive_eink_hardware_driver.c ****     for (byteCounter = 0; byteCounter < PV_EINK_HORIZONTAL_SIZE; byteCounter++)
 2431              		.loc 2 866 0
 2432 0006 0023     		movs	r3, #0
 2433 0008 FB80     		strh	r3, [r7, #6]	@ movhi
 2434 000a 0EE0     		b	.L178
 2435              	.L179:
 867:eInk Library/pervasive_eink_hardware_driver.c ****     {
 868:eInk Library/pervasive_eink_hardware_driver.c ****         dataLineEven[byteCounter] = PV_EINK_NOTHING;
 2436              		.loc 2 868 0 discriminator 3
 2437 000c 1D4B     		ldr	r3, .L182
 2438 000e 1A68     		ldr	r2, [r3]
 2439 0010 FB88     		ldrh	r3, [r7, #6]
 2440 0012 1344     		add	r3, r3, r2
 2441 0014 5522     		movs	r2, #85
 2442 0016 1A70     		strb	r2, [r3]
 869:eInk Library/pervasive_eink_hardware_driver.c ****         dataLineOdd[byteCounter] = PV_EINK_NOTHING;
 2443              		.loc 2 869 0 discriminator 3
 2444 0018 1B4B     		ldr	r3, .L182+4
 2445 001a 1A68     		ldr	r2, [r3]
 2446 001c FB88     		ldrh	r3, [r7, #6]
 2447 001e 1344     		add	r3, r3, r2
 2448 0020 5522     		movs	r2, #85
 2449 0022 1A70     		strb	r2, [r3]
 866:eInk Library/pervasive_eink_hardware_driver.c ****     {
 2450              		.loc 2 866 0 discriminator 3
 2451 0024 FB88     		ldrh	r3, [r7, #6]
 2452 0026 0133     		adds	r3, r3, #1
 2453 0028 FB80     		strh	r3, [r7, #6]	@ movhi
 2454              	.L178:
 866:eInk Library/pervasive_eink_hardware_driver.c ****     {
 2455              		.loc 2 866 0 is_stmt 0 discriminator 1
 2456 002a FB88     		ldrh	r3, [r7, #6]
 2457 002c 202B     		cmp	r3, #32
 2458 002e EDD9     		bls	.L179
 870:eInk Library/pervasive_eink_hardware_driver.c ****     }
 871:eInk Library/pervasive_eink_hardware_driver.c ****     /* Send the same horizontal data for all vertical lines */
 872:eInk Library/pervasive_eink_hardware_driver.c ****     for (byteCounter = 0; byteCounter < PV_EINK_VERTICAL_SIZE; byteCounter++)
ARM GAS  C:\Users\rober\AppData\Local\Temp\ccAa3myu.s 			page 74


 2459              		.loc 2 872 0 is_stmt 1
 2460 0030 0023     		movs	r3, #0
 2461 0032 FB80     		strh	r3, [r7, #6]	@ movhi
 2462 0034 1FE0     		b	.L180
 2463              	.L181:
 873:eInk Library/pervasive_eink_hardware_driver.c ****     {
 874:eInk Library/pervasive_eink_hardware_driver.c ****         /* Scan byte shift per data line */
 875:eInk Library/pervasive_eink_hardware_driver.c ****         dataLineScan[(byteCounter >> PV_EINK_PIXEL_SIZE)] = scanTable
 2464              		.loc 2 875 0 discriminator 3
 2465 0036 154B     		ldr	r3, .L182+8
 2466 0038 1B68     		ldr	r3, [r3]
 2467 003a FA88     		ldrh	r2, [r7, #6]
 2468 003c 9208     		lsrs	r2, r2, #2
 2469 003e 92B2     		uxth	r2, r2
 2470 0040 1344     		add	r3, r3, r2
 876:eInk Library/pervasive_eink_hardware_driver.c ****                             [(byteCounter % PV_EINK_SCAN_TABLE_SIZE)];
 2471              		.loc 2 876 0 discriminator 3
 2472 0042 FA88     		ldrh	r2, [r7, #6]
 2473 0044 02F00302 		and	r2, r2, #3
 2474 0048 1149     		ldr	r1, .L182+12
 2475 004a 8A5C     		ldrb	r2, [r1, r2]	@ zero_extendqisi2
 875:eInk Library/pervasive_eink_hardware_driver.c ****                             [(byteCounter % PV_EINK_SCAN_TABLE_SIZE)];
 2476              		.loc 2 875 0 discriminator 3
 2477 004c 1A70     		strb	r2, [r3]
 877:eInk Library/pervasive_eink_hardware_driver.c ****         
 878:eInk Library/pervasive_eink_hardware_driver.c ****         /* Send the prepared data to the E-INK display */
 879:eInk Library/pervasive_eink_hardware_driver.c ****         Pv_EINK_SendData(PV_EINK_PIXEL_DATA_COMMAND_INDEX,
 2478              		.loc 2 879 0 discriminator 3
 2479 004e 6F22     		movs	r2, #111
 2480 0050 1049     		ldr	r1, .L182+16
 2481 0052 0A20     		movs	r0, #10
 2482 0054 FFF7FEFF 		bl	Pv_EINK_SendData
 880:eInk Library/pervasive_eink_hardware_driver.c ****                         (uint8_t*) &driverPacket.lineBuffer,
 881:eInk Library/pervasive_eink_hardware_driver.c ****                          PV_EINK_DATA_LINE_SIZE);
 882:eInk Library/pervasive_eink_hardware_driver.c ****         /* Turn on Output Enable to latch the frame */
 883:eInk Library/pervasive_eink_hardware_driver.c ****         Pv_EINK_SendByte(PV_EINK_ENABLE_OE_COMMAND_INDEX, 
 2483              		.loc 2 883 0 discriminator 3
 2484 0058 0721     		movs	r1, #7
 2485 005a 0220     		movs	r0, #2
 2486 005c FFF7FEFF 		bl	Pv_EINK_SendByte
 884:eInk Library/pervasive_eink_hardware_driver.c ****                          PV_EINK_ENABLE_OE_COMMAND_DATA);
 885:eInk Library/pervasive_eink_hardware_driver.c ****         
 886:eInk Library/pervasive_eink_hardware_driver.c ****         /* Initialize the next scan byte */
 887:eInk Library/pervasive_eink_hardware_driver.c ****         dataLineScan[(byteCounter >> PV_EINK_PIXEL_SIZE)] = 0u;
 2487              		.loc 2 887 0 discriminator 3
 2488 0060 0A4B     		ldr	r3, .L182+8
 2489 0062 1B68     		ldr	r3, [r3]
 2490 0064 FA88     		ldrh	r2, [r7, #6]
 2491 0066 9208     		lsrs	r2, r2, #2
 2492 0068 92B2     		uxth	r2, r2
 2493 006a 1344     		add	r3, r3, r2
 2494 006c 0022     		movs	r2, #0
 2495 006e 1A70     		strb	r2, [r3]
 872:eInk Library/pervasive_eink_hardware_driver.c ****     {
 2496              		.loc 2 872 0 discriminator 3
 2497 0070 FB88     		ldrh	r3, [r7, #6]
 2498 0072 0133     		adds	r3, r3, #1
ARM GAS  C:\Users\rober\AppData\Local\Temp\ccAa3myu.s 			page 75


 2499 0074 FB80     		strh	r3, [r7, #6]	@ movhi
 2500              	.L180:
 872:eInk Library/pervasive_eink_hardware_driver.c ****     {
 2501              		.loc 2 872 0 is_stmt 0 discriminator 1
 2502 0076 FB88     		ldrh	r3, [r7, #6]
 2503 0078 AF2B     		cmp	r3, #175
 2504 007a DCD9     		bls	.L181
 888:eInk Library/pervasive_eink_hardware_driver.c ****     }
 889:eInk Library/pervasive_eink_hardware_driver.c **** }
 2505              		.loc 2 889 0 is_stmt 1
 2506 007c 00BF     		nop
 2507 007e 0837     		adds	r7, r7, #8
 2508              		.cfi_def_cfa_offset 8
 2509 0080 BD46     		mov	sp, r7
 2510              		.cfi_def_cfa_register 13
 2511              		@ sp needed
 2512 0082 80BD     		pop	{r7, pc}
 2513              	.L183:
 2514              		.align	2
 2515              	.L182:
 2516 0084 74000000 		.word	dataLineEven
 2517 0088 78000000 		.word	dataLineOdd
 2518 008c 7C000000 		.word	dataLineScan
 2519 0090 00000000 		.word	scanTable
 2520 0094 00000000 		.word	driverPacket
 2521              		.cfi_endproc
 2522              	.LFE611:
 2523              		.size	Pv_EINK_NothingFrame, .-Pv_EINK_NothingFrame
 2524              		.section	.text.Pv_EINK_DummyLine,"ax",%progbits
 2525              		.align	2
 2526              		.global	Pv_EINK_DummyLine
 2527              		.thumb
 2528              		.thumb_func
 2529              		.type	Pv_EINK_DummyLine, %function
 2530              	Pv_EINK_DummyLine:
 2531              	.LFB612:
 890:eInk Library/pervasive_eink_hardware_driver.c **** 
 891:eInk Library/pervasive_eink_hardware_driver.c **** /*******************************************************************************
 892:eInk Library/pervasive_eink_hardware_driver.c **** * Function Name:  void Pv_EINK_DummyLine(void)
 893:eInk Library/pervasive_eink_hardware_driver.c **** ********************************************************************************
 894:eInk Library/pervasive_eink_hardware_driver.c **** *
 895:eInk Library/pervasive_eink_hardware_driver.c **** * Summary: Write a "Dummy Line" to driver. For a "Dummy Line" , all pixel data
 896:eInk Library/pervasive_eink_hardware_driver.c **** * are "00". For more details, please refer to the driver G2 document Section 6.
 897:eInk Library/pervasive_eink_hardware_driver.c **** *
 898:eInk Library/pervasive_eink_hardware_driver.c **** * Parameters:
 899:eInk Library/pervasive_eink_hardware_driver.c **** *  None
 900:eInk Library/pervasive_eink_hardware_driver.c **** *
 901:eInk Library/pervasive_eink_hardware_driver.c **** * Return:
 902:eInk Library/pervasive_eink_hardware_driver.c **** *  None
 903:eInk Library/pervasive_eink_hardware_driver.c **** *
 904:eInk Library/pervasive_eink_hardware_driver.c **** * Side Effects:
 905:eInk Library/pervasive_eink_hardware_driver.c **** *  None
 906:eInk Library/pervasive_eink_hardware_driver.c **** *******************************************************************************/
 907:eInk Library/pervasive_eink_hardware_driver.c **** void Pv_EINK_DummyLine(void)
 908:eInk Library/pervasive_eink_hardware_driver.c **** {
 2532              		.loc 2 908 0
 2533              		.cfi_startproc
ARM GAS  C:\Users\rober\AppData\Local\Temp\ccAa3myu.s 			page 76


 2534              		@ args = 0, pretend = 0, frame = 8
 2535              		@ frame_needed = 1, uses_anonymous_args = 0
 2536 0000 80B5     		push	{r7, lr}
 2537              		.cfi_def_cfa_offset 8
 2538              		.cfi_offset 7, -8
 2539              		.cfi_offset 14, -4
 2540 0002 82B0     		sub	sp, sp, #8
 2541              		.cfi_def_cfa_offset 16
 2542 0004 00AF     		add	r7, sp, #0
 2543              		.cfi_def_cfa_register 7
 909:eInk Library/pervasive_eink_hardware_driver.c ****     /* Counter variable for data line bytes */
 910:eInk Library/pervasive_eink_hardware_driver.c ****     uint8_t byteCounter;
 911:eInk Library/pervasive_eink_hardware_driver.c ****     
 912:eInk Library/pervasive_eink_hardware_driver.c ****     /* Create a data line containing dummy bytes */
 913:eInk Library/pervasive_eink_hardware_driver.c ****     for (byteCounter = 0; byteCounter < (PV_EINK_VERTICAL_SIZE 
 2544              		.loc 2 913 0
 2545 0006 0023     		movs	r3, #0
 2546 0008 FB71     		strb	r3, [r7, #7]
 2547 000a 06E0     		b	.L185
 2548              	.L186:
 914:eInk Library/pervasive_eink_hardware_driver.c ****                                         / CY_EINK_BYTE_SIZE);
 915:eInk Library/pervasive_eink_hardware_driver.c ****          byteCounter++)
 916:eInk Library/pervasive_eink_hardware_driver.c ****     {
 917:eInk Library/pervasive_eink_hardware_driver.c ****         driverPacket.lineBuffer[byteCounter] = PV_EINK_DUMMY_BYTE;
 2549              		.loc 2 917 0
 2550 000c FB79     		ldrb	r3, [r7, #7]	@ zero_extendqisi2
 2551 000e 0D4A     		ldr	r2, .L187
 2552 0010 0021     		movs	r1, #0
 2553 0012 D154     		strb	r1, [r2, r3]
 915:eInk Library/pervasive_eink_hardware_driver.c ****     {
 2554              		.loc 2 915 0
 2555 0014 FB79     		ldrb	r3, [r7, #7]	@ zero_extendqisi2
 2556 0016 0133     		adds	r3, r3, #1
 2557 0018 FB71     		strb	r3, [r7, #7]
 2558              	.L185:
 913:eInk Library/pervasive_eink_hardware_driver.c ****                                         / CY_EINK_BYTE_SIZE);
 2559              		.loc 2 913 0 discriminator 1
 2560 001a FB79     		ldrb	r3, [r7, #7]	@ zero_extendqisi2
 2561 001c 152B     		cmp	r3, #21
 2562 001e F5D9     		bls	.L186
 918:eInk Library/pervasive_eink_hardware_driver.c ****     }
 919:eInk Library/pervasive_eink_hardware_driver.c ****     
 920:eInk Library/pervasive_eink_hardware_driver.c ****     /* Set charge pump voltage level to reduce voltage shift */
 921:eInk Library/pervasive_eink_hardware_driver.c ****     Pv_EINK_SendByte(PV_EINK_PWR2_SETTING_COMMAND_INDEX, 
 2563              		.loc 2 921 0
 2564 0020 0021     		movs	r1, #0
 2565 0022 0420     		movs	r0, #4
 2566 0024 FFF7FEFF 		bl	Pv_EINK_SendByte
 922:eInk Library/pervasive_eink_hardware_driver.c ****                      PV_EINK_VOLTAGE_LEVEL);
 923:eInk Library/pervasive_eink_hardware_driver.c ****     /* Send the prepared data to the E-INK display */
 924:eInk Library/pervasive_eink_hardware_driver.c ****     Pv_EINK_SendData(PV_EINK_PIXEL_DATA_COMMAND_INDEX,
 2567              		.loc 2 924 0
 2568 0028 6F22     		movs	r2, #111
 2569 002a 0649     		ldr	r1, .L187
 2570 002c 0A20     		movs	r0, #10
 2571 002e FFF7FEFF 		bl	Pv_EINK_SendData
 925:eInk Library/pervasive_eink_hardware_driver.c ****                     (uint8_t*) &driverPacket.lineBuffer, 
ARM GAS  C:\Users\rober\AppData\Local\Temp\ccAa3myu.s 			page 77


 926:eInk Library/pervasive_eink_hardware_driver.c ****                      PV_EINK_DATA_LINE_SIZE);
 927:eInk Library/pervasive_eink_hardware_driver.c ****     /* Turn on Output Enable to latch the frame */
 928:eInk Library/pervasive_eink_hardware_driver.c ****     Pv_EINK_SendByte(PV_EINK_ENABLE_OE_COMMAND_INDEX, 
 2572              		.loc 2 928 0
 2573 0032 0721     		movs	r1, #7
 2574 0034 0220     		movs	r0, #2
 2575 0036 FFF7FEFF 		bl	Pv_EINK_SendByte
 929:eInk Library/pervasive_eink_hardware_driver.c ****                      PV_EINK_ENABLE_OE_COMMAND_DATA);
 930:eInk Library/pervasive_eink_hardware_driver.c **** }
 2576              		.loc 2 930 0
 2577 003a 00BF     		nop
 2578 003c 0837     		adds	r7, r7, #8
 2579              		.cfi_def_cfa_offset 8
 2580 003e BD46     		mov	sp, r7
 2581              		.cfi_def_cfa_register 13
 2582              		@ sp needed
 2583 0040 80BD     		pop	{r7, pc}
 2584              	.L188:
 2585 0042 00BF     		.align	2
 2586              	.L187:
 2587 0044 00000000 		.word	driverPacket
 2588              		.cfi_endproc
 2589              	.LFE612:
 2590              		.size	Pv_EINK_DummyLine, .-Pv_EINK_DummyLine
 2591              		.section	.text.Pv_EINK_HardwarePowerOn,"ax",%progbits
 2592              		.align	2
 2593              		.global	Pv_EINK_HardwarePowerOn
 2594              		.thumb
 2595              		.thumb_func
 2596              		.type	Pv_EINK_HardwarePowerOn, %function
 2597              	Pv_EINK_HardwarePowerOn:
 2598              	.LFB613:
 931:eInk Library/pervasive_eink_hardware_driver.c **** 
 932:eInk Library/pervasive_eink_hardware_driver.c **** /*******************************************************************************
 933:eInk Library/pervasive_eink_hardware_driver.c **** * Function Name: pv_eink_status_t Pv_EINK_HardwarePowerOn()
 934:eInk Library/pervasive_eink_hardware_driver.c **** ********************************************************************************
 935:eInk Library/pervasive_eink_hardware_driver.c **** *
 936:eInk Library/pervasive_eink_hardware_driver.c **** * Summary: Power on E-INK Driver. For detailed flow and description, please refer
 937:eInk Library/pervasive_eink_hardware_driver.c **** * to the driver G2 document Section 3.
 938:eInk Library/pervasive_eink_hardware_driver.c **** *
 939:eInk Library/pervasive_eink_hardware_driver.c **** * Parameters:
 940:eInk Library/pervasive_eink_hardware_driver.c **** *  None
 941:eInk Library/pervasive_eink_hardware_driver.c **** *
 942:eInk Library/pervasive_eink_hardware_driver.c **** * Return:
 943:eInk Library/pervasive_eink_hardware_driver.c **** *  pv_eink_status_t: Status of the power on operation
 944:eInk Library/pervasive_eink_hardware_driver.c **** *
 945:eInk Library/pervasive_eink_hardware_driver.c **** * Side Effects:
 946:eInk Library/pervasive_eink_hardware_driver.c **** *  None
 947:eInk Library/pervasive_eink_hardware_driver.c **** *******************************************************************************/
 948:eInk Library/pervasive_eink_hardware_driver.c **** pv_eink_status_t Pv_EINK_HardwarePowerOn(void)
 949:eInk Library/pervasive_eink_hardware_driver.c **** {
 2599              		.loc 2 949 0
 2600              		.cfi_startproc
 2601              		@ args = 0, pretend = 0, frame = 0
 2602              		@ frame_needed = 1, uses_anonymous_args = 0
 2603 0000 80B5     		push	{r7, lr}
 2604              		.cfi_def_cfa_offset 8
ARM GAS  C:\Users\rober\AppData\Local\Temp\ccAa3myu.s 			page 78


 2605              		.cfi_offset 7, -8
 2606              		.cfi_offset 14, -4
 2607 0002 00AF     		add	r7, sp, #0
 2608              		.cfi_def_cfa_register 7
 950:eInk Library/pervasive_eink_hardware_driver.c ****     /* Enable the load switch connected to E-INK display's Vcc, and wait till
 951:eInk Library/pervasive_eink_hardware_driver.c ****     the voltage ramps up to the level required for proper operation of E-INK */
 952:eInk Library/pervasive_eink_hardware_driver.c ****     CY_EINK_TurnOnVcc;
 2609              		.loc 2 952 0
 2610 0004 0122     		movs	r2, #1
 2611 0006 0421     		movs	r1, #4
 2612 0008 1748     		ldr	r0, .L191
 2613 000a FFF7FEFF 		bl	Cy_GPIO_Write
 953:eInk Library/pervasive_eink_hardware_driver.c ****     CY_EINK_Delay(PV_EINK_PWR_DELAY);
 2614              		.loc 2 953 0
 2615 000e 1420     		movs	r0, #20
 2616 0010 FFF7FEFF 		bl	Cy_SysLib_Delay
 954:eInk Library/pervasive_eink_hardware_driver.c ****     
 955:eInk Library/pervasive_eink_hardware_driver.c ****     /* Attach PSoC's SPI hardware to E-INK driver */
 956:eInk Library/pervasive_eink_hardware_driver.c ****     Cy_EINK_AttachSPI();
 2617              		.loc 2 956 0
 2618 0014 FFF7FEFF 		bl	Cy_EINK_AttachSPI
 957:eInk Library/pervasive_eink_hardware_driver.c ****     /* Push the chip select, and border pins to HIGH */
 958:eInk Library/pervasive_eink_hardware_driver.c ****     CY_EINK_CsHigh;
 2619              		.loc 2 958 0
 2620 0018 0122     		movs	r2, #1
 2621 001a 0321     		movs	r1, #3
 2622 001c 1348     		ldr	r0, .L191+4
 2623 001e FFF7FEFF 		bl	Cy_GPIO_Write
 959:eInk Library/pervasive_eink_hardware_driver.c ****     CY_EINK_BorderHigh;
 2624              		.loc 2 959 0
 2625 0022 0122     		movs	r2, #1
 2626 0024 0621     		movs	r1, #6
 2627 0026 1048     		ldr	r0, .L191
 2628 0028 FFF7FEFF 		bl	Cy_GPIO_Write
 960:eInk Library/pervasive_eink_hardware_driver.c ****     
 961:eInk Library/pervasive_eink_hardware_driver.c ****     /* Create two pulses on the reset line to properly reset the E-INK driver */
 962:eInk Library/pervasive_eink_hardware_driver.c ****     CY_EINK_RstHigh;
 2629              		.loc 2 962 0
 2630 002c 0122     		movs	r2, #1
 2631 002e 0221     		movs	r1, #2
 2632 0030 0D48     		ldr	r0, .L191
 2633 0032 FFF7FEFF 		bl	Cy_GPIO_Write
 963:eInk Library/pervasive_eink_hardware_driver.c ****     CY_EINK_Delay(PV_EINK_PIN_DELAY);
 2634              		.loc 2 963 0
 2635 0036 0A20     		movs	r0, #10
 2636 0038 FFF7FEFF 		bl	Cy_SysLib_Delay
 964:eInk Library/pervasive_eink_hardware_driver.c ****     CY_EINK_RstLow;
 2637              		.loc 2 964 0
 2638 003c 0022     		movs	r2, #0
 2639 003e 0221     		movs	r1, #2
 2640 0040 0948     		ldr	r0, .L191
 2641 0042 FFF7FEFF 		bl	Cy_GPIO_Write
 965:eInk Library/pervasive_eink_hardware_driver.c ****     CY_EINK_Delay(PV_EINK_PIN_DELAY);
 2642              		.loc 2 965 0
 2643 0046 0A20     		movs	r0, #10
 2644 0048 FFF7FEFF 		bl	Cy_SysLib_Delay
 966:eInk Library/pervasive_eink_hardware_driver.c ****     CY_EINK_RstHigh;
ARM GAS  C:\Users\rober\AppData\Local\Temp\ccAa3myu.s 			page 79


 2645              		.loc 2 966 0
 2646 004c 0122     		movs	r2, #1
 2647 004e 0221     		movs	r1, #2
 2648 0050 0548     		ldr	r0, .L191
 2649 0052 FFF7FEFF 		bl	Cy_GPIO_Write
 967:eInk Library/pervasive_eink_hardware_driver.c ****     CY_EINK_Delay(PV_EINK_PIN_DELAY);
 2650              		.loc 2 967 0
 2651 0056 0A20     		movs	r0, #10
 2652 0058 FFF7FEFF 		bl	Cy_SysLib_Delay
 968:eInk Library/pervasive_eink_hardware_driver.c ****     
 969:eInk Library/pervasive_eink_hardware_driver.c ****     /* Initialize E-INK Driver */
 970:eInk Library/pervasive_eink_hardware_driver.c ****     return(Pv_EINK_InitDriver());
 2653              		.loc 2 970 0
 2654 005c FFF7FEFF 		bl	Pv_EINK_InitDriver
 2655 0060 0346     		mov	r3, r0
 971:eInk Library/pervasive_eink_hardware_driver.c **** }
 2656              		.loc 2 971 0
 2657 0062 1846     		mov	r0, r3
 2658 0064 80BD     		pop	{r7, pc}
 2659              	.L192:
 2660 0066 00BF     		.align	2
 2661              	.L191:
 2662 0068 80023240 		.word	1077019264
 2663 006c 00063240 		.word	1077020160
 2664              		.cfi_endproc
 2665              	.LFE613:
 2666              		.size	Pv_EINK_HardwarePowerOn, .-Pv_EINK_HardwarePowerOn
 2667              		.section	.text.Pv_EINK_HardwarePowerOff,"ax",%progbits
 2668              		.align	2
 2669              		.global	Pv_EINK_HardwarePowerOff
 2670              		.thumb
 2671              		.thumb_func
 2672              		.type	Pv_EINK_HardwarePowerOff, %function
 2673              	Pv_EINK_HardwarePowerOff:
 2674              	.LFB614:
 972:eInk Library/pervasive_eink_hardware_driver.c **** 
 973:eInk Library/pervasive_eink_hardware_driver.c **** /*******************************************************************************
 974:eInk Library/pervasive_eink_hardware_driver.c **** * Function Name:  pv_eink_status_t Pv_EINK_HardwarePowerOff(void)
 975:eInk Library/pervasive_eink_hardware_driver.c **** ********************************************************************************
 976:eInk Library/pervasive_eink_hardware_driver.c **** *
 977:eInk Library/pervasive_eink_hardware_driver.c **** * Summary: Safely power off the E-INK display. For detailed flow and description,
 978:eInk Library/pervasive_eink_hardware_driver.c **** * please refer to the driver G2 document Section 6.
 979:eInk Library/pervasive_eink_hardware_driver.c **** *
 980:eInk Library/pervasive_eink_hardware_driver.c **** * Parameters:
 981:eInk Library/pervasive_eink_hardware_driver.c **** *  None
 982:eInk Library/pervasive_eink_hardware_driver.c **** *
 983:eInk Library/pervasive_eink_hardware_driver.c **** * Return:
 984:eInk Library/pervasive_eink_hardware_driver.c **** *  pv_eink_status_t : Status of the power off operation
 985:eInk Library/pervasive_eink_hardware_driver.c **** *
 986:eInk Library/pervasive_eink_hardware_driver.c **** * Side Effects:
 987:eInk Library/pervasive_eink_hardware_driver.c **** *  None
 988:eInk Library/pervasive_eink_hardware_driver.c **** *******************************************************************************/
 989:eInk Library/pervasive_eink_hardware_driver.c **** pv_eink_status_t Pv_EINK_HardwarePowerOff(void)
 990:eInk Library/pervasive_eink_hardware_driver.c **** {
 2675              		.loc 2 990 0
 2676              		.cfi_startproc
 2677              		@ args = 0, pretend = 0, frame = 0
ARM GAS  C:\Users\rober\AppData\Local\Temp\ccAa3myu.s 			page 80


 2678              		@ frame_needed = 1, uses_anonymous_args = 0
 2679 0000 80B5     		push	{r7, lr}
 2680              		.cfi_def_cfa_offset 8
 2681              		.cfi_offset 7, -8
 2682              		.cfi_offset 14, -4
 2683 0002 00AF     		add	r7, sp, #0
 2684              		.cfi_def_cfa_register 7
 991:eInk Library/pervasive_eink_hardware_driver.c ****     /* Send a "Nothing Frame", followed by a "Dummy Line" to the E-INK driver */
 992:eInk Library/pervasive_eink_hardware_driver.c ****     Pv_EINK_NothingFrame();
 2685              		.loc 2 992 0
 2686 0004 FFF7FEFF 		bl	Pv_EINK_NothingFrame
 993:eInk Library/pervasive_eink_hardware_driver.c ****     Pv_EINK_DummyLine();
 2687              		.loc 2 993 0
 2688 0008 FFF7FEFF 		bl	Pv_EINK_DummyLine
 994:eInk Library/pervasive_eink_hardware_driver.c ****     
 995:eInk Library/pervasive_eink_hardware_driver.c ****     /* After E-INK updates, the border color may degrade to a gray level that is not
 996:eInk Library/pervasive_eink_hardware_driver.c ****     as white as the active area. Toggle the Border pin to avoid this phenomenon. */
 997:eInk Library/pervasive_eink_hardware_driver.c ****     CY_EINK_Delay(PV_EINK_DUMMY_LINE_DELAY);
 2689              		.loc 2 997 0
 2690 000c 1E20     		movs	r0, #30
 2691 000e FFF7FEFF 		bl	Cy_SysLib_Delay
 998:eInk Library/pervasive_eink_hardware_driver.c ****     CY_EINK_BorderLow;
 2692              		.loc 2 998 0
 2693 0012 0022     		movs	r2, #0
 2694 0014 0621     		movs	r1, #6
 2695 0016 3048     		ldr	r0, .L196
 2696 0018 FFF7FEFF 		bl	Cy_GPIO_Write
 999:eInk Library/pervasive_eink_hardware_driver.c ****     CY_EINK_Delay(PV_EINK_BOARDER_DELAY);
 2697              		.loc 2 999 0
 2698 001c 3220     		movs	r0, #50
 2699 001e FFF7FEFF 		bl	Cy_SysLib_Delay
1000:eInk Library/pervasive_eink_hardware_driver.c ****     CY_EINK_BorderHigh;
 2700              		.loc 2 1000 0
 2701 0022 0122     		movs	r2, #1
 2702 0024 0621     		movs	r1, #6
 2703 0026 2C48     		ldr	r0, .L196
 2704 0028 FFF7FEFF 		bl	Cy_GPIO_Write
1001:eInk Library/pervasive_eink_hardware_driver.c ****     
1002:eInk Library/pervasive_eink_hardware_driver.c ****     /* Check DC level */
1003:eInk Library/pervasive_eink_hardware_driver.c ****     if ((Pv_EINK_ReadByte(PV_EINK_DC_LEVEL_READ_COMMAND_INDEX,
 2705              		.loc 2 1003 0
 2706 002c 0021     		movs	r1, #0
 2707 002e 0F20     		movs	r0, #15
 2708 0030 FFF7FEFF 		bl	Pv_EINK_ReadByte
 2709 0034 0346     		mov	r3, r0
1004:eInk Library/pervasive_eink_hardware_driver.c ****                        PV_EINK_DC_LEVEL_READ_COMMAND_DATA) & PV_EINK_DC_LEVEL_MASK
 2710              		.loc 2 1004 0
 2711 0036 03F04003 		and	r3, r3, #64
1003:eInk Library/pervasive_eink_hardware_driver.c ****                        PV_EINK_DC_LEVEL_READ_COMMAND_DATA) & PV_EINK_DC_LEVEL_MASK
 2712              		.loc 2 1003 0
 2713 003a 002B     		cmp	r3, #0
 2714 003c 01D1     		bne	.L194
1005:eInk Library/pervasive_eink_hardware_driver.c ****         ) == PV_EINK_DC_LEVEL_CHECK)
1006:eInk Library/pervasive_eink_hardware_driver.c ****     {
1007:eInk Library/pervasive_eink_hardware_driver.c ****         /* Return error message for improper DC level */
1008:eInk Library/pervasive_eink_hardware_driver.c ****         return(PV_EINK_ERROR_DC);
 2715              		.loc 2 1008 0
ARM GAS  C:\Users\rober\AppData\Local\Temp\ccAa3myu.s 			page 81


 2716 003e 0423     		movs	r3, #4
 2717 0040 48E0     		b	.L195
 2718              	.L194:
1009:eInk Library/pervasive_eink_hardware_driver.c ****     }
1010:eInk Library/pervasive_eink_hardware_driver.c ****     
1011:eInk Library/pervasive_eink_hardware_driver.c ****     /* Power Saving */
1012:eInk Library/pervasive_eink_hardware_driver.c ****     Pv_EINK_SendByte(PV_EINK_PWR_SAVING_COMMAND_INDEX,
 2719              		.loc 2 1012 0
 2720 0042 0021     		movs	r1, #0
 2721 0044 0B20     		movs	r0, #11
 2722 0046 FFF7FEFF 		bl	Pv_EINK_SendByte
1013:eInk Library/pervasive_eink_hardware_driver.c ****                      PV_EINK_PWR2_SAVING_COMMAND_DATA);
1014:eInk Library/pervasive_eink_hardware_driver.c ****     /* Turn on Latch Reset */
1015:eInk Library/pervasive_eink_hardware_driver.c ****     Pv_EINK_SendByte(PV_EINK_LATCH_ON_COMMAND_INDEX,
 2723              		.loc 2 1015 0
 2724 004a 0121     		movs	r1, #1
 2725 004c 0320     		movs	r0, #3
 2726 004e FFF7FEFF 		bl	Pv_EINK_SendByte
1016:eInk Library/pervasive_eink_hardware_driver.c ****                      PV_EINK_LATCH_ON_COMMAND_DATA);
1017:eInk Library/pervasive_eink_hardware_driver.c ****     /* Power off charge pump Vcom */
1018:eInk Library/pervasive_eink_hardware_driver.c ****     Pv_EINK_SendByte(PV_EINK_VGL_VDL_ON_COMMAND_INDEX,
 2727              		.loc 2 1018 0
 2728 0052 0321     		movs	r1, #3
 2729 0054 0520     		movs	r0, #5
 2730 0056 FFF7FEFF 		bl	Pv_EINK_SendByte
1019:eInk Library/pervasive_eink_hardware_driver.c ****                      PV_EINK_VGL_VDL_ON_COMMAND_DATA);
1020:eInk Library/pervasive_eink_hardware_driver.c ****     /* Power off charge pump negative voltage */
1021:eInk Library/pervasive_eink_hardware_driver.c ****     Pv_EINK_SendByte(PV_EINK_VGH_VDH_ON_COMMAND_INDEX,
 2731              		.loc 2 1021 0
 2732 005a 0121     		movs	r1, #1
 2733 005c 0520     		movs	r0, #5
 2734 005e FFF7FEFF 		bl	Pv_EINK_SendByte
1022:eInk Library/pervasive_eink_hardware_driver.c ****                      PV_EINK_VGH_VDH_ON_COMMAND_DATA);
1023:eInk Library/pervasive_eink_hardware_driver.c ****     
1024:eInk Library/pervasive_eink_hardware_driver.c ****     CY_EINK_Delay(PV_EINK_DISCH_SPI_DELAY);
 2735              		.loc 2 1024 0
 2736 0062 3220     		movs	r0, #50
 2737 0064 FFF7FEFF 		bl	Cy_SysLib_Delay
1025:eInk Library/pervasive_eink_hardware_driver.c ****     /* Discharge internal SPI */
1026:eInk Library/pervasive_eink_hardware_driver.c ****     Pv_EINK_SendByte(PV_EINK_DISCH_SPI_COMMAND_INDEX, 
 2738              		.loc 2 1026 0
 2739 0068 8021     		movs	r1, #128
 2740 006a 0420     		movs	r0, #4
 2741 006c FFF7FEFF 		bl	Pv_EINK_SendByte
1027:eInk Library/pervasive_eink_hardware_driver.c ****                      PV_EINK_DISCH_SPI_COMMAND_DATA);
1028:eInk Library/pervasive_eink_hardware_driver.c ****     /* Turn off all charge pump */
1029:eInk Library/pervasive_eink_hardware_driver.c ****     Pv_EINK_SendByte(PV_EINK_CH_PUMP_OFF_COMMAND_INDEX, 
 2742              		.loc 2 1029 0
 2743 0070 0021     		movs	r1, #0
 2744 0072 0520     		movs	r0, #5
 2745 0074 FFF7FEFF 		bl	Pv_EINK_SendByte
1030:eInk Library/pervasive_eink_hardware_driver.c ****                      PV_EINK_CH_PUMP_OFF_COMMAND_DATA);
1031:eInk Library/pervasive_eink_hardware_driver.c ****     /* Turn off OSC */
1032:eInk Library/pervasive_eink_hardware_driver.c ****     Pv_EINK_SendByte(PV_EINK_OSC_OFF_COMMAND_INDEX, 
 2746              		.loc 2 1032 0
 2747 0078 0121     		movs	r1, #1
 2748 007a 0720     		movs	r0, #7
ARM GAS  C:\Users\rober\AppData\Local\Temp\ccAa3myu.s 			page 82


 2749 007c FFF7FEFF 		bl	Pv_EINK_SendByte
1033:eInk Library/pervasive_eink_hardware_driver.c ****                      PV_EINK_OSC_OFF_COMMAND_DATA);
1034:eInk Library/pervasive_eink_hardware_driver.c ****     CY_EINK_Delay(PV_EINK_PWR_OFF_DELAY);
 2750              		.loc 2 1034 0
 2751 0080 1E20     		movs	r0, #30
 2752 0082 FFF7FEFF 		bl	Cy_SysLib_Delay
1035:eInk Library/pervasive_eink_hardware_driver.c ****     
1036:eInk Library/pervasive_eink_hardware_driver.c ****     /* Detach SPI and disable the load switch connected to E-INK display's Vcc */
1037:eInk Library/pervasive_eink_hardware_driver.c ****     Cy_EINK_DetachSPI();
 2753              		.loc 2 1037 0
 2754 0086 FFF7FEFF 		bl	Cy_EINK_DetachSPI
1038:eInk Library/pervasive_eink_hardware_driver.c ****     CY_EINK_TurnOffVcc;
 2755              		.loc 2 1038 0
 2756 008a 0022     		movs	r2, #0
 2757 008c 0421     		movs	r1, #4
 2758 008e 1248     		ldr	r0, .L196
 2759 0090 FFF7FEFF 		bl	Cy_GPIO_Write
1039:eInk Library/pervasive_eink_hardware_driver.c ****     
1040:eInk Library/pervasive_eink_hardware_driver.c ****     /* Return the pins to their default (OFF) values*/
1041:eInk Library/pervasive_eink_hardware_driver.c ****     CY_EINK_BorderLow;
 2760              		.loc 2 1041 0
 2761 0094 0022     		movs	r2, #0
 2762 0096 0621     		movs	r1, #6
 2763 0098 0F48     		ldr	r0, .L196
 2764 009a FFF7FEFF 		bl	Cy_GPIO_Write
1042:eInk Library/pervasive_eink_hardware_driver.c ****     CY_EINK_Delay(PV_EINK_CS_OFF_DELAY);
 2765              		.loc 2 1042 0
 2766 009e 1420     		movs	r0, #20
 2767 00a0 FFF7FEFF 		bl	Cy_SysLib_Delay
1043:eInk Library/pervasive_eink_hardware_driver.c ****     CY_EINK_CsLow;
 2768              		.loc 2 1043 0
 2769 00a4 0022     		movs	r2, #0
 2770 00a6 0321     		movs	r1, #3
 2771 00a8 0C48     		ldr	r0, .L196+4
 2772 00aa FFF7FEFF 		bl	Cy_GPIO_Write
1044:eInk Library/pervasive_eink_hardware_driver.c ****     CY_EINK_RstLow;
 2773              		.loc 2 1044 0
 2774 00ae 0022     		movs	r2, #0
 2775 00b0 0221     		movs	r1, #2
 2776 00b2 0948     		ldr	r0, .L196
 2777 00b4 FFF7FEFF 		bl	Cy_GPIO_Write
1045:eInk Library/pervasive_eink_hardware_driver.c ****     CY_EINK_DischargeHigh;
 2778              		.loc 2 1045 0
 2779 00b8 0122     		movs	r2, #1
 2780 00ba 0521     		movs	r1, #5
 2781 00bc 0648     		ldr	r0, .L196
 2782 00be FFF7FEFF 		bl	Cy_GPIO_Write
1046:eInk Library/pervasive_eink_hardware_driver.c ****     CY_EINK_Delay(PV_EINK_DETACH_DELAY);
 2783              		.loc 2 1046 0
 2784 00c2 1E20     		movs	r0, #30
 2785 00c4 FFF7FEFF 		bl	Cy_SysLib_Delay
1047:eInk Library/pervasive_eink_hardware_driver.c ****     CY_EINK_DischargeLow;
 2786              		.loc 2 1047 0
 2787 00c8 0022     		movs	r2, #0
 2788 00ca 0521     		movs	r1, #5
 2789 00cc 0248     		ldr	r0, .L196
 2790 00ce FFF7FEFF 		bl	Cy_GPIO_Write
ARM GAS  C:\Users\rober\AppData\Local\Temp\ccAa3myu.s 			page 83


1048:eInk Library/pervasive_eink_hardware_driver.c ****     
1049:eInk Library/pervasive_eink_hardware_driver.c ****     /* If all operations were completed successfully, send the corresponding flag */
1050:eInk Library/pervasive_eink_hardware_driver.c ****     return(PV_EINK_RES_OK);
 2791              		.loc 2 1050 0
 2792 00d2 0023     		movs	r3, #0
 2793              	.L195:
1051:eInk Library/pervasive_eink_hardware_driver.c **** }
 2794              		.loc 2 1051 0
 2795 00d4 1846     		mov	r0, r3
 2796 00d6 80BD     		pop	{r7, pc}
 2797              	.L197:
 2798              		.align	2
 2799              	.L196:
 2800 00d8 80023240 		.word	1077019264
 2801 00dc 00063240 		.word	1077020160
 2802              		.cfi_endproc
 2803              	.LFE614:
 2804              		.size	Pv_EINK_HardwarePowerOff, .-Pv_EINK_HardwarePowerOff
 2805              		.text
 2806              	.Letext0:
 2807              		.file 3 "c:\\program files (x86)\\cypress\\psoc creator\\4.2\\psoc creator\\import\\gnu\\arm\\5.4.
 2808              		.file 4 "c:\\program files (x86)\\cypress\\psoc creator\\4.2\\psoc creator\\import\\gnu\\arm\\5.4.
 2809              		.file 5 "Generated_Source\\PSoC6\\pdl\\devices/psoc6/ip/cyip_gpio.h"
 2810              		.file 6 "Generated_Source\\PSoC6\\pdl\\drivers/peripheral/syslib/cy_syslib.h"
 2811              		.file 7 "Generated_Source\\PSoC6\\pdl\\drivers/peripheral/tcpwm/cy_tcpwm_counter.h"
 2812              		.file 8 "Generated_Source\\PSoC6\\pdl\\drivers/peripheral/tcpwm/cy_tcpwm_pwm.h"
 2813              		.file 9 "Generated_Source\\PSoC6\\pdl\\drivers/peripheral/scb/cy_scb_spi.h"
 2814              		.file 10 "eInk Library\\pervasive_eink_hardware_driver.h"
 2815              		.file 11 "Generated_Source\\PSoC6\\pdl\\cmsis/include/core_cm4.h"
 2816              		.file 12 "Generated_Source\\PSoC6/CY_EINK_SPIM.h"
 2817              		.file 13 "Generated_Source\\PSoC6/CY_EINK_Timer.h"
 2818              		.file 14 "Generated_Source\\PSoC6/PWM.h"
 2819              		.file 15 "Generated_Source\\PSoC6/Timer.h"
 2820              		.section	.debug_info,"",%progbits
 2821              	.Ldebug_info0:
 2822 0000 F80A0000 		.4byte	0xaf8
 2823 0004 0400     		.2byte	0x4
 2824 0006 00000000 		.4byte	.Ldebug_abbrev0
 2825 000a 04       		.byte	0x4
 2826 000b 01       		.uleb128 0x1
 2827 000c 08090000 		.4byte	.LASF167
 2828 0010 0C       		.byte	0xc
 2829 0011 E9010000 		.4byte	.LASF168
 2830 0015 CC060000 		.4byte	.LASF169
 2831 0019 00000000 		.4byte	.Ldebug_ranges0+0
 2832 001d 00000000 		.4byte	0
 2833 0021 00000000 		.4byte	.Ldebug_line0
 2834 0025 02       		.uleb128 0x2
 2835 0026 04       		.byte	0x4
 2836 0027 05       		.byte	0x5
 2837 0028 696E7400 		.ascii	"int\000"
 2838 002c 03       		.uleb128 0x3
 2839 002d 04       		.byte	0x4
 2840 002e 07       		.byte	0x7
 2841 002f 67070000 		.4byte	.LASF0
 2842 0033 03       		.uleb128 0x3
 2843 0034 08       		.byte	0x8
ARM GAS  C:\Users\rober\AppData\Local\Temp\ccAa3myu.s 			page 84


 2844 0035 05       		.byte	0x5
 2845 0036 4F010000 		.4byte	.LASF1
 2846 003a 03       		.uleb128 0x3
 2847 003b 08       		.byte	0x8
 2848 003c 04       		.byte	0x4
 2849 003d C0060000 		.4byte	.LASF2
 2850 0041 04       		.uleb128 0x4
 2851 0042 0A010000 		.4byte	.LASF4
 2852 0046 03       		.byte	0x3
 2853 0047 1B       		.byte	0x1b
 2854 0048 4C000000 		.4byte	0x4c
 2855 004c 03       		.uleb128 0x3
 2856 004d 01       		.byte	0x1
 2857 004e 06       		.byte	0x6
 2858 004f 6F000000 		.4byte	.LASF3
 2859 0053 04       		.uleb128 0x4
 2860 0054 7B000000 		.4byte	.LASF5
 2861 0058 03       		.byte	0x3
 2862 0059 1D       		.byte	0x1d
 2863 005a 5E000000 		.4byte	0x5e
 2864 005e 03       		.uleb128 0x3
 2865 005f 01       		.byte	0x1
 2866 0060 08       		.byte	0x8
 2867 0061 B6050000 		.4byte	.LASF6
 2868 0065 04       		.uleb128 0x4
 2869 0066 B0020000 		.4byte	.LASF7
 2870 006a 03       		.byte	0x3
 2871 006b 29       		.byte	0x29
 2872 006c 70000000 		.4byte	0x70
 2873 0070 03       		.uleb128 0x3
 2874 0071 02       		.byte	0x2
 2875 0072 05       		.byte	0x5
 2876 0073 17020000 		.4byte	.LASF8
 2877 0077 04       		.uleb128 0x4
 2878 0078 82070000 		.4byte	.LASF9
 2879 007c 03       		.byte	0x3
 2880 007d 2B       		.byte	0x2b
 2881 007e 82000000 		.4byte	0x82
 2882 0082 03       		.uleb128 0x3
 2883 0083 02       		.byte	0x2
 2884 0084 07       		.byte	0x7
 2885 0085 7B030000 		.4byte	.LASF10
 2886 0089 04       		.uleb128 0x4
 2887 008a 98070000 		.4byte	.LASF11
 2888 008e 03       		.byte	0x3
 2889 008f 3F       		.byte	0x3f
 2890 0090 94000000 		.4byte	0x94
 2891 0094 03       		.uleb128 0x3
 2892 0095 04       		.byte	0x4
 2893 0096 05       		.byte	0x5
 2894 0097 CF010000 		.4byte	.LASF12
 2895 009b 04       		.uleb128 0x4
 2896 009c 83020000 		.4byte	.LASF13
 2897 00a0 03       		.byte	0x3
 2898 00a1 41       		.byte	0x41
 2899 00a2 A6000000 		.4byte	0xa6
 2900 00a6 03       		.uleb128 0x3
ARM GAS  C:\Users\rober\AppData\Local\Temp\ccAa3myu.s 			page 85


 2901 00a7 04       		.byte	0x4
 2902 00a8 07       		.byte	0x7
 2903 00a9 14030000 		.4byte	.LASF14
 2904 00ad 03       		.uleb128 0x3
 2905 00ae 08       		.byte	0x8
 2906 00af 07       		.byte	0x7
 2907 00b0 CF000000 		.4byte	.LASF15
 2908 00b4 03       		.uleb128 0x3
 2909 00b5 04       		.byte	0x4
 2910 00b6 07       		.byte	0x7
 2911 00b7 DC040000 		.4byte	.LASF16
 2912 00bb 05       		.uleb128 0x5
 2913 00bc 04       		.byte	0x4
 2914 00bd 03       		.uleb128 0x3
 2915 00be 01       		.byte	0x1
 2916 00bf 08       		.byte	0x8
 2917 00c0 B2060000 		.4byte	.LASF17
 2918 00c4 04       		.uleb128 0x4
 2919 00c5 C8040000 		.4byte	.LASF18
 2920 00c9 04       		.byte	0x4
 2921 00ca 14       		.byte	0x14
 2922 00cb 41000000 		.4byte	0x41
 2923 00cf 04       		.uleb128 0x4
 2924 00d0 87080000 		.4byte	.LASF19
 2925 00d4 04       		.byte	0x4
 2926 00d5 18       		.byte	0x18
 2927 00d6 53000000 		.4byte	0x53
 2928 00da 04       		.uleb128 0x4
 2929 00db 47010000 		.4byte	.LASF20
 2930 00df 04       		.byte	0x4
 2931 00e0 20       		.byte	0x20
 2932 00e1 65000000 		.4byte	0x65
 2933 00e5 04       		.uleb128 0x4
 2934 00e6 21020000 		.4byte	.LASF21
 2935 00ea 04       		.byte	0x4
 2936 00eb 24       		.byte	0x24
 2937 00ec 77000000 		.4byte	0x77
 2938 00f0 04       		.uleb128 0x4
 2939 00f1 AE050000 		.4byte	.LASF22
 2940 00f5 04       		.byte	0x4
 2941 00f6 2C       		.byte	0x2c
 2942 00f7 89000000 		.4byte	0x89
 2943 00fb 04       		.uleb128 0x4
 2944 00fc A9060000 		.4byte	.LASF23
 2945 0100 04       		.byte	0x4
 2946 0101 30       		.byte	0x30
 2947 0102 9B000000 		.4byte	0x9b
 2948 0106 06       		.uleb128 0x6
 2949 0107 FB000000 		.4byte	0xfb
 2950 010b 07       		.uleb128 0x7
 2951 010c 06010000 		.4byte	0x106
 2952 0110 08       		.uleb128 0x8
 2953 0111 0B010000 		.4byte	0x10b
 2954 0115 20010000 		.4byte	0x120
 2955 0119 09       		.uleb128 0x9
 2956 011a B4000000 		.4byte	0xb4
 2957 011e 0F       		.byte	0xf
ARM GAS  C:\Users\rober\AppData\Local\Temp\ccAa3myu.s 			page 86


 2958 011f 00       		.byte	0
 2959 0120 0A       		.uleb128 0xa
 2960 0121 80       		.byte	0x80
 2961 0122 05       		.byte	0x5
 2962 0123 22       		.byte	0x22
 2963 0124 F4010000 		.4byte	0x1f4
 2964 0128 0B       		.uleb128 0xb
 2965 0129 4F555400 		.ascii	"OUT\000"
 2966 012d 05       		.byte	0x5
 2967 012e 23       		.byte	0x23
 2968 012f 06010000 		.4byte	0x106
 2969 0133 00       		.byte	0
 2970 0134 0C       		.uleb128 0xc
 2971 0135 20050000 		.4byte	.LASF24
 2972 0139 05       		.byte	0x5
 2973 013a 24       		.byte	0x24
 2974 013b 06010000 		.4byte	0x106
 2975 013f 04       		.byte	0x4
 2976 0140 0C       		.uleb128 0xc
 2977 0141 C3030000 		.4byte	.LASF25
 2978 0145 05       		.byte	0x5
 2979 0146 25       		.byte	0x25
 2980 0147 06010000 		.4byte	0x106
 2981 014b 08       		.byte	0x8
 2982 014c 0C       		.uleb128 0xc
 2983 014d 05030000 		.4byte	.LASF26
 2984 0151 05       		.byte	0x5
 2985 0152 26       		.byte	0x26
 2986 0153 06010000 		.4byte	0x106
 2987 0157 0C       		.byte	0xc
 2988 0158 0B       		.uleb128 0xb
 2989 0159 494E00   		.ascii	"IN\000"
 2990 015c 05       		.byte	0x5
 2991 015d 27       		.byte	0x27
 2992 015e 0B010000 		.4byte	0x10b
 2993 0162 10       		.byte	0x10
 2994 0163 0C       		.uleb128 0xc
 2995 0164 FD040000 		.4byte	.LASF27
 2996 0168 05       		.byte	0x5
 2997 0169 28       		.byte	0x28
 2998 016a 06010000 		.4byte	0x106
 2999 016e 14       		.byte	0x14
 3000 016f 0C       		.uleb128 0xc
 3001 0170 3F030000 		.4byte	.LASF28
 3002 0174 05       		.byte	0x5
 3003 0175 29       		.byte	0x29
 3004 0176 06010000 		.4byte	0x106
 3005 017a 18       		.byte	0x18
 3006 017b 0C       		.uleb128 0xc
 3007 017c 8E030000 		.4byte	.LASF29
 3008 0180 05       		.byte	0x5
 3009 0181 2A       		.byte	0x2a
 3010 0182 0B010000 		.4byte	0x10b
 3011 0186 1C       		.byte	0x1c
 3012 0187 0C       		.uleb128 0xc
 3013 0188 7B040000 		.4byte	.LASF30
 3014 018c 05       		.byte	0x5
ARM GAS  C:\Users\rober\AppData\Local\Temp\ccAa3myu.s 			page 87


 3015 018d 2B       		.byte	0x2b
 3016 018e 06010000 		.4byte	0x106
 3017 0192 20       		.byte	0x20
 3018 0193 0C       		.uleb128 0xc
 3019 0194 72040000 		.4byte	.LASF31
 3020 0198 05       		.byte	0x5
 3021 0199 2C       		.byte	0x2c
 3022 019a 06010000 		.4byte	0x106
 3023 019e 24       		.byte	0x24
 3024 019f 0B       		.uleb128 0xb
 3025 01a0 43464700 		.ascii	"CFG\000"
 3026 01a4 05       		.byte	0x5
 3027 01a5 2D       		.byte	0x2d
 3028 01a6 06010000 		.4byte	0x106
 3029 01aa 28       		.byte	0x28
 3030 01ab 0C       		.uleb128 0xc
 3031 01ac 38030000 		.4byte	.LASF32
 3032 01b0 05       		.byte	0x5
 3033 01b1 2E       		.byte	0x2e
 3034 01b2 06010000 		.4byte	0x106
 3035 01b6 2C       		.byte	0x2c
 3036 01b7 0C       		.uleb128 0xc
 3037 01b8 CD080000 		.4byte	.LASF33
 3038 01bc 05       		.byte	0x5
 3039 01bd 2F       		.byte	0x2f
 3040 01be 06010000 		.4byte	0x106
 3041 01c2 30       		.byte	0x30
 3042 01c3 0C       		.uleb128 0xc
 3043 01c4 44050000 		.4byte	.LASF34
 3044 01c8 05       		.byte	0x5
 3045 01c9 30       		.byte	0x30
 3046 01ca 06010000 		.4byte	0x106
 3047 01ce 34       		.byte	0x34
 3048 01cf 0C       		.uleb128 0xc
 3049 01d0 32060000 		.4byte	.LASF35
 3050 01d4 05       		.byte	0x5
 3051 01d5 31       		.byte	0x31
 3052 01d6 0B010000 		.4byte	0x10b
 3053 01da 38       		.byte	0x38
 3054 01db 0C       		.uleb128 0xc
 3055 01dc 36050000 		.4byte	.LASF36
 3056 01e0 05       		.byte	0x5
 3057 01e1 32       		.byte	0x32
 3058 01e2 06010000 		.4byte	0x106
 3059 01e6 3C       		.byte	0x3c
 3060 01e7 0C       		.uleb128 0xc
 3061 01e8 4C050000 		.4byte	.LASF37
 3062 01ec 05       		.byte	0x5
 3063 01ed 33       		.byte	0x33
 3064 01ee F9010000 		.4byte	0x1f9
 3065 01f2 40       		.byte	0x40
 3066 01f3 00       		.byte	0
 3067 01f4 06       		.uleb128 0x6
 3068 01f5 10010000 		.4byte	0x110
 3069 01f9 07       		.uleb128 0x7
 3070 01fa F4010000 		.4byte	0x1f4
 3071 01fe 04       		.uleb128 0x4
ARM GAS  C:\Users\rober\AppData\Local\Temp\ccAa3myu.s 			page 88


 3072 01ff 74070000 		.4byte	.LASF38
 3073 0203 05       		.byte	0x5
 3074 0204 34       		.byte	0x34
 3075 0205 20010000 		.4byte	0x120
 3076 0209 0D       		.uleb128 0xd
 3077 020a 2440     		.2byte	0x4024
 3078 020c 05       		.byte	0x5
 3079 020d 39       		.byte	0x39
 3080 020e 94020000 		.4byte	0x294
 3081 0212 0B       		.uleb128 0xb
 3082 0213 50525400 		.ascii	"PRT\000"
 3083 0217 05       		.byte	0x5
 3084 0218 3A       		.byte	0x3a
 3085 0219 94020000 		.4byte	0x294
 3086 021d 00       		.byte	0
 3087 021e 0E       		.uleb128 0xe
 3088 021f 37070000 		.4byte	.LASF39
 3089 0223 05       		.byte	0x5
 3090 0224 3B       		.byte	0x3b
 3091 0225 0B010000 		.4byte	0x10b
 3092 0229 0040     		.2byte	0x4000
 3093 022b 0E       		.uleb128 0xe
 3094 022c 43070000 		.4byte	.LASF40
 3095 0230 05       		.byte	0x5
 3096 0231 3C       		.byte	0x3c
 3097 0232 0B010000 		.4byte	0x10b
 3098 0236 0440     		.2byte	0x4004
 3099 0238 0E       		.uleb128 0xe
 3100 0239 4F070000 		.4byte	.LASF41
 3101 023d 05       		.byte	0x5
 3102 023e 3D       		.byte	0x3d
 3103 023f 0B010000 		.4byte	0x10b
 3104 0243 0840     		.2byte	0x4008
 3105 0245 0E       		.uleb128 0xe
 3106 0246 5B070000 		.4byte	.LASF42
 3107 024a 05       		.byte	0x5
 3108 024b 3E       		.byte	0x3e
 3109 024c 0B010000 		.4byte	0x10b
 3110 0250 0C40     		.2byte	0x400c
 3111 0252 0E       		.uleb128 0xe
 3112 0253 A1040000 		.4byte	.LASF43
 3113 0257 05       		.byte	0x5
 3114 0258 3F       		.byte	0x3f
 3115 0259 0B010000 		.4byte	0x10b
 3116 025d 1040     		.2byte	0x4010
 3117 025f 0E       		.uleb128 0xe
 3118 0260 44060000 		.4byte	.LASF44
 3119 0264 05       		.byte	0x5
 3120 0265 40       		.byte	0x40
 3121 0266 06010000 		.4byte	0x106
 3122 026a 1440     		.2byte	0x4014
 3123 026c 0E       		.uleb128 0xe
 3124 026d A9000000 		.4byte	.LASF45
 3125 0271 05       		.byte	0x5
 3126 0272 41       		.byte	0x41
 3127 0273 06010000 		.4byte	0x106
 3128 0277 1840     		.2byte	0x4018
ARM GAS  C:\Users\rober\AppData\Local\Temp\ccAa3myu.s 			page 89


 3129 0279 0E       		.uleb128 0xe
 3130 027a AF070000 		.4byte	.LASF46
 3131 027e 05       		.byte	0x5
 3132 027f 42       		.byte	0x42
 3133 0280 0B010000 		.4byte	0x10b
 3134 0284 1C40     		.2byte	0x401c
 3135 0286 0E       		.uleb128 0xe
 3136 0287 49030000 		.4byte	.LASF47
 3137 028b 05       		.byte	0x5
 3138 028c 43       		.byte	0x43
 3139 028d 06010000 		.4byte	0x106
 3140 0291 2040     		.2byte	0x4020
 3141 0293 00       		.byte	0
 3142 0294 08       		.uleb128 0x8
 3143 0295 FE010000 		.4byte	0x1fe
 3144 0299 A4020000 		.4byte	0x2a4
 3145 029d 09       		.uleb128 0x9
 3146 029e B4000000 		.4byte	0xb4
 3147 02a2 7F       		.byte	0x7f
 3148 02a3 00       		.byte	0
 3149 02a4 04       		.uleb128 0x4
 3150 02a5 D5080000 		.4byte	.LASF48
 3151 02a9 05       		.byte	0x5
 3152 02aa 44       		.byte	0x44
 3153 02ab 09020000 		.4byte	0x209
 3154 02af 0F       		.uleb128 0xf
 3155 02b0 0D030000 		.4byte	.LASF49
 3156 02b4 06       		.byte	0x6
 3157 02b5 C401     		.2byte	0x1c4
 3158 02b7 BD000000 		.4byte	0xbd
 3159 02bb 03       		.uleb128 0x3
 3160 02bc 04       		.byte	0x4
 3161 02bd 04       		.byte	0x4
 3162 02be 30050000 		.4byte	.LASF50
 3163 02c2 03       		.uleb128 0x3
 3164 02c3 08       		.byte	0x8
 3165 02c4 04       		.byte	0x4
 3166 02c5 D7090000 		.4byte	.LASF51
 3167 02c9 0F       		.uleb128 0xf
 3168 02ca C7080000 		.4byte	.LASF52
 3169 02ce 06       		.byte	0x6
 3170 02cf 8903     		.2byte	0x389
 3171 02d1 DA000000 		.4byte	0xda
 3172 02d5 03       		.uleb128 0x3
 3173 02d6 01       		.byte	0x1
 3174 02d7 02       		.byte	0x2
 3175 02d8 A8050000 		.4byte	.LASF53
 3176 02dc 10       		.uleb128 0x10
 3177 02dd AC040000 		.4byte	.LASF74
 3178 02e1 4C       		.byte	0x4c
 3179 02e2 07       		.byte	0x7
 3180 02e3 2B       		.byte	0x2b
 3181 02e4 CD030000 		.4byte	0x3cd
 3182 02e8 0C       		.uleb128 0xc
 3183 02e9 A2000000 		.4byte	.LASF54
 3184 02ed 07       		.byte	0x7
 3185 02ee 2D       		.byte	0x2d
ARM GAS  C:\Users\rober\AppData\Local\Temp\ccAa3myu.s 			page 90


 3186 02ef FB000000 		.4byte	0xfb
 3187 02f3 00       		.byte	0
 3188 02f4 0C       		.uleb128 0xc
 3189 02f5 E6000000 		.4byte	.LASF55
 3190 02f9 07       		.byte	0x7
 3191 02fa 2F       		.byte	0x2f
 3192 02fb FB000000 		.4byte	0xfb
 3193 02ff 04       		.byte	0x4
 3194 0300 0C       		.uleb128 0xc
 3195 0301 00000000 		.4byte	.LASF56
 3196 0305 07       		.byte	0x7
 3197 0306 30       		.byte	0x30
 3198 0307 FB000000 		.4byte	0xfb
 3199 030b 08       		.byte	0x8
 3200 030c 0C       		.uleb128 0xc
 3201 030d 85000000 		.4byte	.LASF57
 3202 0311 07       		.byte	0x7
 3203 0312 31       		.byte	0x31
 3204 0313 FB000000 		.4byte	0xfb
 3205 0317 0C       		.byte	0xc
 3206 0318 0C       		.uleb128 0xc
 3207 0319 79060000 		.4byte	.LASF58
 3208 031d 07       		.byte	0x7
 3209 031e 33       		.byte	0x33
 3210 031f FB000000 		.4byte	0xfb
 3211 0323 10       		.byte	0x10
 3212 0324 0C       		.uleb128 0xc
 3213 0325 B7060000 		.4byte	.LASF59
 3214 0329 07       		.byte	0x7
 3215 032a 34       		.byte	0x34
 3216 032b FB000000 		.4byte	0xfb
 3217 032f 14       		.byte	0x14
 3218 0330 0C       		.uleb128 0xc
 3219 0331 15080000 		.4byte	.LASF60
 3220 0335 07       		.byte	0x7
 3221 0336 35       		.byte	0x35
 3222 0337 FB000000 		.4byte	0xfb
 3223 033b 18       		.byte	0x18
 3224 033c 0C       		.uleb128 0xc
 3225 033d 26030000 		.4byte	.LASF61
 3226 0341 07       		.byte	0x7
 3227 0342 36       		.byte	0x36
 3228 0343 D5020000 		.4byte	0x2d5
 3229 0347 1C       		.byte	0x1c
 3230 0348 0C       		.uleb128 0xc
 3231 0349 BF070000 		.4byte	.LASF62
 3232 034d 07       		.byte	0x7
 3233 034e 38       		.byte	0x38
 3234 034f FB000000 		.4byte	0xfb
 3235 0353 20       		.byte	0x20
 3236 0354 0C       		.uleb128 0xc
 3237 0355 5C020000 		.4byte	.LASF63
 3238 0359 07       		.byte	0x7
 3239 035a 39       		.byte	0x39
 3240 035b FB000000 		.4byte	0xfb
 3241 035f 24       		.byte	0x24
 3242 0360 0C       		.uleb128 0xc
ARM GAS  C:\Users\rober\AppData\Local\Temp\ccAa3myu.s 			page 91


 3243 0361 B7000000 		.4byte	.LASF64
 3244 0365 07       		.byte	0x7
 3245 0366 3B       		.byte	0x3b
 3246 0367 FB000000 		.4byte	0xfb
 3247 036b 28       		.byte	0x28
 3248 036c 0C       		.uleb128 0xc
 3249 036d DF080000 		.4byte	.LASF65
 3250 0371 07       		.byte	0x7
 3251 0372 3C       		.byte	0x3c
 3252 0373 FB000000 		.4byte	0xfb
 3253 0377 2C       		.byte	0x2c
 3254 0378 0C       		.uleb128 0xc
 3255 0379 D0070000 		.4byte	.LASF66
 3256 037d 07       		.byte	0x7
 3257 037e 3E       		.byte	0x3e
 3258 037f FB000000 		.4byte	0xfb
 3259 0383 30       		.byte	0x30
 3260 0384 0C       		.uleb128 0xc
 3261 0385 E6070000 		.4byte	.LASF67
 3262 0389 07       		.byte	0x7
 3263 038a 3F       		.byte	0x3f
 3264 038b FB000000 		.4byte	0xfb
 3265 038f 34       		.byte	0x34
 3266 0390 0C       		.uleb128 0xc
 3267 0391 67040000 		.4byte	.LASF68
 3268 0395 07       		.byte	0x7
 3269 0396 41       		.byte	0x41
 3270 0397 FB000000 		.4byte	0xfb
 3271 039b 38       		.byte	0x38
 3272 039c 0C       		.uleb128 0xc
 3273 039d 94000000 		.4byte	.LASF69
 3274 03a1 07       		.byte	0x7
 3275 03a2 42       		.byte	0x42
 3276 03a3 FB000000 		.4byte	0xfb
 3277 03a7 3C       		.byte	0x3c
 3278 03a8 0C       		.uleb128 0xc
 3279 03a9 DC070000 		.4byte	.LASF70
 3280 03ad 07       		.byte	0x7
 3281 03ae 44       		.byte	0x44
 3282 03af FB000000 		.4byte	0xfb
 3283 03b3 40       		.byte	0x40
 3284 03b4 0C       		.uleb128 0xc
 3285 03b5 58040000 		.4byte	.LASF71
 3286 03b9 07       		.byte	0x7
 3287 03ba 45       		.byte	0x45
 3288 03bb FB000000 		.4byte	0xfb
 3289 03bf 44       		.byte	0x44
 3290 03c0 0C       		.uleb128 0xc
 3291 03c1 CC090000 		.4byte	.LASF72
 3292 03c5 07       		.byte	0x7
 3293 03c6 47       		.byte	0x47
 3294 03c7 FB000000 		.4byte	0xfb
 3295 03cb 48       		.byte	0x48
 3296 03cc 00       		.byte	0
 3297 03cd 04       		.uleb128 0x4
 3298 03ce 5D010000 		.4byte	.LASF73
 3299 03d2 07       		.byte	0x7
ARM GAS  C:\Users\rober\AppData\Local\Temp\ccAa3myu.s 			page 92


 3300 03d3 48       		.byte	0x48
 3301 03d4 DC020000 		.4byte	0x2dc
 3302 03d8 10       		.uleb128 0x10
 3303 03d9 91060000 		.4byte	.LASF75
 3304 03dd 64       		.byte	0x64
 3305 03de 08       		.byte	0x8
 3306 03df 2B       		.byte	0x2b
 3307 03e0 11050000 		.4byte	0x511
 3308 03e4 0C       		.uleb128 0xc
 3309 03e5 28050000 		.4byte	.LASF76
 3310 03e9 08       		.byte	0x8
 3311 03ea 2D       		.byte	0x2d
 3312 03eb FB000000 		.4byte	0xfb
 3313 03ef 00       		.byte	0
 3314 03f0 0C       		.uleb128 0xc
 3315 03f1 E6000000 		.4byte	.LASF55
 3316 03f5 08       		.byte	0x8
 3317 03f6 2F       		.byte	0x2f
 3318 03f7 FB000000 		.4byte	0xfb
 3319 03fb 04       		.byte	0x4
 3320 03fc 0C       		.uleb128 0xc
 3321 03fd 56000000 		.4byte	.LASF77
 3322 0401 08       		.byte	0x8
 3323 0402 30       		.byte	0x30
 3324 0403 FB000000 		.4byte	0xfb
 3325 0407 08       		.byte	0x8
 3326 0408 0C       		.uleb128 0xc
 3327 0409 49040000 		.4byte	.LASF78
 3328 040d 08       		.byte	0x8
 3329 040e 31       		.byte	0x31
 3330 040f FB000000 		.4byte	0xfb
 3331 0413 0C       		.byte	0xc
 3332 0414 0C       		.uleb128 0xc
 3333 0415 00000000 		.4byte	.LASF56
 3334 0419 08       		.byte	0x8
 3335 041a 32       		.byte	0x32
 3336 041b FB000000 		.4byte	0xfb
 3337 041f 10       		.byte	0x10
 3338 0420 0C       		.uleb128 0xc
 3339 0421 04080000 		.4byte	.LASF79
 3340 0425 08       		.byte	0x8
 3341 0426 33       		.byte	0x33
 3342 0427 FB000000 		.4byte	0xfb
 3343 042b 14       		.byte	0x14
 3344 042c 0C       		.uleb128 0xc
 3345 042d 3F010000 		.4byte	.LASF80
 3346 0431 08       		.byte	0x8
 3347 0432 34       		.byte	0x34
 3348 0433 FB000000 		.4byte	0xfb
 3349 0437 18       		.byte	0x18
 3350 0438 0C       		.uleb128 0xc
 3351 0439 62060000 		.4byte	.LASF81
 3352 043d 08       		.byte	0x8
 3353 043e 35       		.byte	0x35
 3354 043f D5020000 		.4byte	0x2d5
 3355 0443 1C       		.byte	0x1c
 3356 0444 0C       		.uleb128 0xc
ARM GAS  C:\Users\rober\AppData\Local\Temp\ccAa3myu.s 			page 93


 3357 0445 B7060000 		.4byte	.LASF59
 3358 0449 08       		.byte	0x8
 3359 044a 36       		.byte	0x36
 3360 044b FB000000 		.4byte	0xfb
 3361 044f 20       		.byte	0x20
 3362 0450 0C       		.uleb128 0xc
 3363 0451 15080000 		.4byte	.LASF60
 3364 0455 08       		.byte	0x8
 3365 0456 37       		.byte	0x37
 3366 0457 FB000000 		.4byte	0xfb
 3367 045b 24       		.byte	0x24
 3368 045c 0C       		.uleb128 0xc
 3369 045d 26030000 		.4byte	.LASF61
 3370 0461 08       		.byte	0x8
 3371 0462 38       		.byte	0x38
 3372 0463 D5020000 		.4byte	0x2d5
 3373 0467 28       		.byte	0x28
 3374 0468 0C       		.uleb128 0xc
 3375 0469 BF070000 		.4byte	.LASF62
 3376 046d 08       		.byte	0x8
 3377 046e 3A       		.byte	0x3a
 3378 046f FB000000 		.4byte	0xfb
 3379 0473 2C       		.byte	0x2c
 3380 0474 0C       		.uleb128 0xc
 3381 0475 3C040000 		.4byte	.LASF82
 3382 0479 08       		.byte	0x8
 3383 047a 3B       		.byte	0x3b
 3384 047b FB000000 		.4byte	0xfb
 3385 047f 30       		.byte	0x30
 3386 0480 0C       		.uleb128 0xc
 3387 0481 79080000 		.4byte	.LASF83
 3388 0485 08       		.byte	0x8
 3389 0486 3C       		.byte	0x3c
 3390 0487 FB000000 		.4byte	0xfb
 3391 048b 34       		.byte	0x34
 3392 048c 0C       		.uleb128 0xc
 3393 048d 56050000 		.4byte	.LASF84
 3394 0491 08       		.byte	0x8
 3395 0492 3D       		.byte	0x3d
 3396 0493 FB000000 		.4byte	0xfb
 3397 0497 38       		.byte	0x38
 3398 0498 0C       		.uleb128 0xc
 3399 0499 6D030000 		.4byte	.LASF85
 3400 049d 08       		.byte	0x8
 3401 049e 3E       		.byte	0x3e
 3402 049f FB000000 		.4byte	0xfb
 3403 04a3 3C       		.byte	0x3c
 3404 04a4 0C       		.uleb128 0xc
 3405 04a5 A8080000 		.4byte	.LASF86
 3406 04a9 08       		.byte	0x8
 3407 04aa 40       		.byte	0x40
 3408 04ab FB000000 		.4byte	0xfb
 3409 04af 40       		.byte	0x40
 3410 04b0 0C       		.uleb128 0xc
 3411 04b1 DF080000 		.4byte	.LASF65
 3412 04b5 08       		.byte	0x8
 3413 04b6 41       		.byte	0x41
ARM GAS  C:\Users\rober\AppData\Local\Temp\ccAa3myu.s 			page 94


 3414 04b7 FB000000 		.4byte	0xfb
 3415 04bb 44       		.byte	0x44
 3416 04bc 0C       		.uleb128 0xc
 3417 04bd D0070000 		.4byte	.LASF66
 3418 04c1 08       		.byte	0x8
 3419 04c2 43       		.byte	0x43
 3420 04c3 FB000000 		.4byte	0xfb
 3421 04c7 48       		.byte	0x48
 3422 04c8 0C       		.uleb128 0xc
 3423 04c9 E6070000 		.4byte	.LASF67
 3424 04cd 08       		.byte	0x8
 3425 04ce 44       		.byte	0x44
 3426 04cf FB000000 		.4byte	0xfb
 3427 04d3 4C       		.byte	0x4c
 3428 04d4 0C       		.uleb128 0xc
 3429 04d5 67040000 		.4byte	.LASF68
 3430 04d9 08       		.byte	0x8
 3431 04da 46       		.byte	0x46
 3432 04db FB000000 		.4byte	0xfb
 3433 04df 50       		.byte	0x50
 3434 04e0 0C       		.uleb128 0xc
 3435 04e1 CB030000 		.4byte	.LASF87
 3436 04e5 08       		.byte	0x8
 3437 04e6 47       		.byte	0x47
 3438 04e7 FB000000 		.4byte	0xfb
 3439 04eb 54       		.byte	0x54
 3440 04ec 0C       		.uleb128 0xc
 3441 04ed 22000000 		.4byte	.LASF88
 3442 04f1 08       		.byte	0x8
 3443 04f2 49       		.byte	0x49
 3444 04f3 FB000000 		.4byte	0xfb
 3445 04f7 58       		.byte	0x58
 3446 04f8 0C       		.uleb128 0xc
 3447 04f9 58040000 		.4byte	.LASF71
 3448 04fd 08       		.byte	0x8
 3449 04fe 4A       		.byte	0x4a
 3450 04ff FB000000 		.4byte	0xfb
 3451 0503 5C       		.byte	0x5c
 3452 0504 0C       		.uleb128 0xc
 3453 0505 CC090000 		.4byte	.LASF72
 3454 0509 08       		.byte	0x8
 3455 050a 4C       		.byte	0x4c
 3456 050b FB000000 		.4byte	0xfb
 3457 050f 60       		.byte	0x60
 3458 0510 00       		.byte	0
 3459 0511 04       		.uleb128 0x4
 3460 0512 08000000 		.4byte	.LASF89
 3461 0516 08       		.byte	0x8
 3462 0517 4D       		.byte	0x4d
 3463 0518 D8030000 		.4byte	0x3d8
 3464 051c 11       		.uleb128 0x11
 3465 051d 04       		.byte	0x4
 3466 051e 22050000 		.4byte	0x522
 3467 0522 12       		.uleb128 0x12
 3468 0523 2D050000 		.4byte	0x52d
 3469 0527 13       		.uleb128 0x13
 3470 0528 FB000000 		.4byte	0xfb
ARM GAS  C:\Users\rober\AppData\Local\Temp\ccAa3myu.s 			page 95


 3471 052c 00       		.byte	0
 3472 052d 11       		.uleb128 0x11
 3473 052e 04       		.byte	0x4
 3474 052f CF000000 		.4byte	0xcf
 3475 0533 0F       		.uleb128 0xf
 3476 0534 B1010000 		.4byte	.LASF90
 3477 0538 09       		.byte	0x9
 3478 0539 BF01     		.2byte	0x1bf
 3479 053b 1C050000 		.4byte	0x51c
 3480 053f 14       		.uleb128 0x14
 3481 0540 7B010000 		.4byte	.LASF91
 3482 0544 24       		.byte	0x24
 3483 0545 09       		.byte	0x9
 3484 0546 4102     		.2byte	0x241
 3485 0548 C2050000 		.4byte	0x5c2
 3486 054c 15       		.uleb128 0x15
 3487 054d 72080000 		.4byte	.LASF92
 3488 0551 09       		.byte	0x9
 3489 0552 4402     		.2byte	0x244
 3490 0554 06010000 		.4byte	0x106
 3491 0558 00       		.byte	0
 3492 0559 15       		.uleb128 0x15
 3493 055a 26080000 		.4byte	.LASF93
 3494 055e 09       		.byte	0x9
 3495 055f 4602     		.2byte	0x246
 3496 0561 BB000000 		.4byte	0xbb
 3497 0565 04       		.byte	0x4
 3498 0566 15       		.uleb128 0x15
 3499 0567 79020000 		.4byte	.LASF94
 3500 056b 09       		.byte	0x9
 3501 056c 4702     		.2byte	0x247
 3502 056e FB000000 		.4byte	0xfb
 3503 0572 08       		.byte	0x8
 3504 0573 15       		.uleb128 0x15
 3505 0574 BA020000 		.4byte	.LASF95
 3506 0578 09       		.byte	0x9
 3507 0579 4802     		.2byte	0x248
 3508 057b 06010000 		.4byte	0x106
 3509 057f 0C       		.byte	0xc
 3510 0580 15       		.uleb128 0x15
 3511 0581 F0030000 		.4byte	.LASF96
 3512 0585 09       		.byte	0x9
 3513 0586 4A02     		.2byte	0x24a
 3514 0588 BB000000 		.4byte	0xbb
 3515 058c 10       		.byte	0x10
 3516 058d 15       		.uleb128 0x15
 3517 058e EF020000 		.4byte	.LASF97
 3518 0592 09       		.byte	0x9
 3519 0593 4B02     		.2byte	0x24b
 3520 0595 FB000000 		.4byte	0xfb
 3521 0599 14       		.byte	0x14
 3522 059a 15       		.uleb128 0x15
 3523 059b DE090000 		.4byte	.LASF98
 3524 059f 09       		.byte	0x9
 3525 05a0 4C02     		.2byte	0x24c
 3526 05a2 06010000 		.4byte	0x106
 3527 05a6 18       		.byte	0x18
ARM GAS  C:\Users\rober\AppData\Local\Temp\ccAa3myu.s 			page 96


 3528 05a7 15       		.uleb128 0x15
 3529 05a8 D9030000 		.4byte	.LASF99
 3530 05ac 09       		.byte	0x9
 3531 05ad 5202     		.2byte	0x252
 3532 05af 33050000 		.4byte	0x533
 3533 05b3 1C       		.byte	0x1c
 3534 05b4 15       		.uleb128 0x15
 3535 05b5 1E080000 		.4byte	.LASF100
 3536 05b9 09       		.byte	0x9
 3537 05ba 5502     		.2byte	0x255
 3538 05bc FB000000 		.4byte	0xfb
 3539 05c0 20       		.byte	0x20
 3540 05c1 00       		.byte	0
 3541 05c2 0F       		.uleb128 0xf
 3542 05c3 14040000 		.4byte	.LASF101
 3543 05c7 09       		.byte	0x9
 3544 05c8 5802     		.2byte	0x258
 3545 05ca 3F050000 		.4byte	0x53f
 3546 05ce 04       		.uleb128 0x4
 3547 05cf F5000000 		.4byte	.LASF102
 3548 05d3 0A       		.byte	0xa
 3549 05d4 35       		.byte	0x35
 3550 05d5 5E000000 		.4byte	0x5e
 3551 05d9 16       		.uleb128 0x16
 3552 05da 01       		.byte	0x1
 3553 05db 5E000000 		.4byte	0x5e
 3554 05df 0A       		.byte	0xa
 3555 05e0 39       		.byte	0x39
 3556 05e1 0A060000 		.4byte	0x60a
 3557 05e5 17       		.uleb128 0x17
 3558 05e6 99050000 		.4byte	.LASF103
 3559 05ea 00       		.byte	0
 3560 05eb 17       		.uleb128 0x17
 3561 05ec B0030000 		.4byte	.LASF104
 3562 05f0 01       		.byte	0x1
 3563 05f1 17       		.uleb128 0x17
 3564 05f2 70050000 		.4byte	.LASF105
 3565 05f6 02       		.byte	0x2
 3566 05f7 17       		.uleb128 0x17
 3567 05f8 41080000 		.4byte	.LASF106
 3568 05fc 03       		.byte	0x3
 3569 05fd 17       		.uleb128 0x17
 3570 05fe BB090000 		.4byte	.LASF107
 3571 0602 04       		.byte	0x4
 3572 0603 17       		.uleb128 0x17
 3573 0604 3D000000 		.4byte	.LASF108
 3574 0608 05       		.byte	0x5
 3575 0609 00       		.byte	0
 3576 060a 04       		.uleb128 0x4
 3577 060b 5F050000 		.4byte	.LASF109
 3578 060f 0A       		.byte	0xa
 3579 0610 40       		.byte	0x40
 3580 0611 D9050000 		.4byte	0x5d9
 3581 0615 16       		.uleb128 0x16
 3582 0616 01       		.byte	0x1
 3583 0617 5E000000 		.4byte	0x5e
 3584 061b 0A       		.byte	0xa
ARM GAS  C:\Users\rober\AppData\Local\Temp\ccAa3myu.s 			page 97


 3585 061c 44       		.byte	0x44
 3586 061d 3A060000 		.4byte	0x63a
 3587 0621 17       		.uleb128 0x17
 3588 0622 F6030000 		.4byte	.LASF110
 3589 0626 00       		.byte	0
 3590 0627 17       		.uleb128 0x17
 3591 0628 05040000 		.4byte	.LASF111
 3592 062c 01       		.byte	0x1
 3593 062d 17       		.uleb128 0x17
 3594 062e 63080000 		.4byte	.LASF112
 3595 0632 02       		.byte	0x2
 3596 0633 17       		.uleb128 0x17
 3597 0634 2D040000 		.4byte	.LASF113
 3598 0638 03       		.byte	0x3
 3599 0639 00       		.byte	0
 3600 063a 04       		.uleb128 0x4
 3601 063b 91040000 		.4byte	.LASF114
 3602 063f 0A       		.byte	0xa
 3603 0640 49       		.byte	0x49
 3604 0641 15060000 		.4byte	0x615
 3605 0645 10       		.uleb128 0x10
 3606 0646 E2030000 		.4byte	.LASF115
 3607 064a 6F       		.byte	0x6f
 3608 064b 02       		.byte	0x2
 3609 064c 33       		.byte	0x33
 3610 064d 82060000 		.4byte	0x682
 3611 0651 0C       		.uleb128 0xc
 3612 0652 2A020000 		.4byte	.LASF116
 3613 0656 02       		.byte	0x2
 3614 0657 36       		.byte	0x36
 3615 0658 CF000000 		.4byte	0xcf
 3616 065c 00       		.byte	0
 3617 065d 0C       		.uleb128 0xc
 3618 065e F8040000 		.4byte	.LASF117
 3619 0662 02       		.byte	0x2
 3620 0663 39       		.byte	0x39
 3621 0664 82060000 		.4byte	0x682
 3622 0668 01       		.byte	0x1
 3623 0669 0C       		.uleb128 0xc
 3624 066a D8010000 		.4byte	.LASF118
 3625 066e 02       		.byte	0x2
 3626 066f 3C       		.byte	0x3c
 3627 0670 92060000 		.4byte	0x692
 3628 0674 22       		.byte	0x22
 3629 0675 0B       		.uleb128 0xb
 3630 0676 6F646400 		.ascii	"odd\000"
 3631 067a 02       		.byte	0x2
 3632 067b 3F       		.byte	0x3f
 3633 067c 82060000 		.4byte	0x682
 3634 0680 4E       		.byte	0x4e
 3635 0681 00       		.byte	0
 3636 0682 08       		.uleb128 0x8
 3637 0683 CF000000 		.4byte	0xcf
 3638 0687 92060000 		.4byte	0x692
 3639 068b 09       		.uleb128 0x9
 3640 068c B4000000 		.4byte	0xb4
 3641 0690 20       		.byte	0x20
ARM GAS  C:\Users\rober\AppData\Local\Temp\ccAa3myu.s 			page 98


 3642 0691 00       		.byte	0
 3643 0692 08       		.uleb128 0x8
 3644 0693 CF000000 		.4byte	0xcf
 3645 0697 A2060000 		.4byte	0x6a2
 3646 069b 09       		.uleb128 0x9
 3647 069c B4000000 		.4byte	0xb4
 3648 06a0 2B       		.byte	0x2b
 3649 06a1 00       		.byte	0
 3650 06a2 18       		.uleb128 0x18
 3651 06a3 6F       		.byte	0x6f
 3652 06a4 02       		.byte	0x2
 3653 06a5 43       		.byte	0x43
 3654 06a6 C1060000 		.4byte	0x6c1
 3655 06aa 19       		.uleb128 0x19
 3656 06ab 09060000 		.4byte	.LASF119
 3657 06af 02       		.byte	0x2
 3658 06b0 46       		.byte	0x46
 3659 06b1 45060000 		.4byte	0x645
 3660 06b5 19       		.uleb128 0x19
 3661 06b6 C4000000 		.4byte	.LASF120
 3662 06ba 02       		.byte	0x2
 3663 06bb 49       		.byte	0x49
 3664 06bc C1060000 		.4byte	0x6c1
 3665 06c0 00       		.byte	0
 3666 06c1 08       		.uleb128 0x8
 3667 06c2 CF000000 		.4byte	0xcf
 3668 06c6 D1060000 		.4byte	0x6d1
 3669 06ca 09       		.uleb128 0x9
 3670 06cb B4000000 		.4byte	0xb4
 3671 06cf 6E       		.byte	0x6e
 3672 06d0 00       		.byte	0
 3673 06d1 04       		.uleb128 0x4
 3674 06d2 CC050000 		.4byte	.LASF121
 3675 06d6 02       		.byte	0x2
 3676 06d7 4C       		.byte	0x4c
 3677 06d8 A2060000 		.4byte	0x6a2
 3678 06dc 1A       		.uleb128 0x1a
 3679 06dd A3010000 		.4byte	.LASF170
 3680 06e1 01       		.byte	0x1
 3681 06e2 E502     		.2byte	0x2e5
 3682 06e4 00000000 		.4byte	.LFB405
 3683 06e8 54000000 		.4byte	.LFE405-.LFB405
 3684 06ec 01       		.uleb128 0x1
 3685 06ed 9C       		.byte	0x9c
 3686 06ee 20070000 		.4byte	0x720
 3687 06f2 1B       		.uleb128 0x1b
 3688 06f3 8C040000 		.4byte	.LASF122
 3689 06f7 01       		.byte	0x1
 3690 06f8 E502     		.2byte	0x2e5
 3691 06fa 20070000 		.4byte	0x720
 3692 06fe 02       		.uleb128 0x2
 3693 06ff 91       		.byte	0x91
 3694 0700 74       		.sleb128 -12
 3695 0701 1B       		.uleb128 0x1b
 3696 0702 8A060000 		.4byte	.LASF123
 3697 0706 01       		.byte	0x1
 3698 0707 E502     		.2byte	0x2e5
ARM GAS  C:\Users\rober\AppData\Local\Temp\ccAa3myu.s 			page 99


 3699 0709 FB000000 		.4byte	0xfb
 3700 070d 02       		.uleb128 0x2
 3701 070e 91       		.byte	0x91
 3702 070f 70       		.sleb128 -16
 3703 0710 1B       		.uleb128 0x1b
 3704 0711 73060000 		.4byte	.LASF124
 3705 0715 01       		.byte	0x1
 3706 0716 E502     		.2byte	0x2e5
 3707 0718 FB000000 		.4byte	0xfb
 3708 071c 02       		.uleb128 0x2
 3709 071d 91       		.byte	0x91
 3710 071e 6C       		.sleb128 -20
 3711 071f 00       		.byte	0
 3712 0720 11       		.uleb128 0x11
 3713 0721 04       		.byte	0x4
 3714 0722 FE010000 		.4byte	0x1fe
 3715 0726 1C       		.uleb128 0x1c
 3716 0727 92010000 		.4byte	.LASF128
 3717 072b 02       		.byte	0x2
 3718 072c 79       		.byte	0x79
 3719 072d 00000000 		.4byte	.LFB603
 3720 0731 64000000 		.4byte	.LFE603-.LFB603
 3721 0735 01       		.uleb128 0x1
 3722 0736 9C       		.byte	0x9c
 3723 0737 66070000 		.4byte	0x766
 3724 073b 1D       		.uleb128 0x1d
 3725 073c 84040000 		.4byte	.LASF125
 3726 0740 02       		.byte	0x2
 3727 0741 79       		.byte	0x79
 3728 0742 CF000000 		.4byte	0xcf
 3729 0746 02       		.uleb128 0x2
 3730 0747 91       		.byte	0x91
 3731 0748 77       		.sleb128 -9
 3732 0749 1D       		.uleb128 0x1d
 3733 074a 68030000 		.4byte	.LASF126
 3734 074e 02       		.byte	0x2
 3735 074f 79       		.byte	0x79
 3736 0750 2D050000 		.4byte	0x52d
 3737 0754 02       		.uleb128 0x2
 3738 0755 91       		.byte	0x91
 3739 0756 70       		.sleb128 -16
 3740 0757 1D       		.uleb128 0x1d
 3741 0758 51020000 		.4byte	.LASF127
 3742 075c 02       		.byte	0x2
 3743 075d 79       		.byte	0x79
 3744 075e E5000000 		.4byte	0xe5
 3745 0762 02       		.uleb128 0x2
 3746 0763 91       		.byte	0x91
 3747 0764 74       		.sleb128 -12
 3748 0765 00       		.byte	0
 3749 0766 1C       		.uleb128 0x1c
 3750 0767 2C000000 		.4byte	.LASF129
 3751 076b 02       		.byte	0x2
 3752 076c AB       		.byte	0xab
 3753 076d 00000000 		.4byte	.LFB604
 3754 0771 24000000 		.4byte	.LFE604-.LFB604
 3755 0775 01       		.uleb128 0x1
ARM GAS  C:\Users\rober\AppData\Local\Temp\ccAa3myu.s 			page 100


 3756 0776 9C       		.byte	0x9c
 3757 0777 98070000 		.4byte	0x798
 3758 077b 1D       		.uleb128 0x1d
 3759 077c 84040000 		.4byte	.LASF125
 3760 0780 02       		.byte	0x2
 3761 0781 AB       		.byte	0xab
 3762 0782 CF000000 		.4byte	0xcf
 3763 0786 02       		.uleb128 0x2
 3764 0787 91       		.byte	0x91
 3765 0788 77       		.sleb128 -9
 3766 0789 1D       		.uleb128 0x1d
 3767 078a 68030000 		.4byte	.LASF126
 3768 078e 02       		.byte	0x2
 3769 078f AB       		.byte	0xab
 3770 0790 CF000000 		.4byte	0xcf
 3771 0794 02       		.uleb128 0x2
 3772 0795 91       		.byte	0x91
 3773 0796 76       		.sleb128 -10
 3774 0797 00       		.byte	0
 3775 0798 1E       		.uleb128 0x1e
 3776 0799 40020000 		.4byte	.LASF130
 3777 079d 02       		.byte	0x2
 3778 079e C2       		.byte	0xc2
 3779 079f CF000000 		.4byte	0xcf
 3780 07a3 00000000 		.4byte	.LFB605
 3781 07a7 68000000 		.4byte	.LFE605-.LFB605
 3782 07ab 01       		.uleb128 0x1
 3783 07ac 9C       		.byte	0x9c
 3784 07ad DC070000 		.4byte	0x7dc
 3785 07b1 1D       		.uleb128 0x1d
 3786 07b2 84040000 		.4byte	.LASF125
 3787 07b6 02       		.byte	0x2
 3788 07b7 C2       		.byte	0xc2
 3789 07b8 CF000000 		.4byte	0xcf
 3790 07bc 02       		.uleb128 0x2
 3791 07bd 91       		.byte	0x91
 3792 07be 6F       		.sleb128 -17
 3793 07bf 1D       		.uleb128 0x1d
 3794 07c0 68030000 		.4byte	.LASF126
 3795 07c4 02       		.byte	0x2
 3796 07c5 C2       		.byte	0xc2
 3797 07c6 CF000000 		.4byte	0xcf
 3798 07ca 02       		.uleb128 0x2
 3799 07cb 91       		.byte	0x91
 3800 07cc 6E       		.sleb128 -18
 3801 07cd 1F       		.uleb128 0x1f
 3802 07ce 0C080000 		.4byte	.LASF132
 3803 07d2 02       		.byte	0x2
 3804 07d3 C5       		.byte	0xc5
 3805 07d4 CF000000 		.4byte	0xcf
 3806 07d8 02       		.uleb128 0x2
 3807 07d9 91       		.byte	0x91
 3808 07da 77       		.sleb128 -9
 3809 07db 00       		.byte	0
 3810 07dc 20       		.uleb128 0x20
 3811 07dd 02050000 		.4byte	.LASF171
 3812 07e1 02       		.byte	0x2
ARM GAS  C:\Users\rober\AppData\Local\Temp\ccAa3myu.s 			page 101


 3813 07e2 EF       		.byte	0xef
 3814 07e3 00000000 		.4byte	.LFB606
 3815 07e7 58000000 		.4byte	.LFE606-.LFB606
 3816 07eb 01       		.uleb128 0x1
 3817 07ec 9C       		.byte	0x9c
 3818 07ed 21       		.uleb128 0x21
 3819 07ee E5040000 		.4byte	.LASF131
 3820 07f2 02       		.byte	0x2
 3821 07f3 1301     		.2byte	0x113
 3822 07f5 0A060000 		.4byte	0x60a
 3823 07f9 00000000 		.4byte	.LFB607
 3824 07fd 48010000 		.4byte	.LFE607-.LFB607
 3825 0801 01       		.uleb128 0x1
 3826 0802 9C       		.byte	0x9c
 3827 0803 17080000 		.4byte	0x817
 3828 0807 22       		.uleb128 0x22
 3829 0808 63000000 		.4byte	.LASF133
 3830 080c 02       		.byte	0x2
 3831 080d 1601     		.2byte	0x116
 3832 080f E5000000 		.4byte	0xe5
 3833 0813 02       		.uleb128 0x2
 3834 0814 91       		.byte	0x91
 3835 0815 76       		.sleb128 -10
 3836 0816 00       		.byte	0
 3837 0817 23       		.uleb128 0x23
 3838 0818 9A030000 		.4byte	.LASF134
 3839 081c 02       		.byte	0x2
 3840 081d A201     		.2byte	0x1a2
 3841 081f 00000000 		.4byte	.LFB608
 3842 0823 9C000000 		.4byte	.LFE608-.LFB608
 3843 0827 01       		.uleb128 0x1
 3844 0828 9C       		.byte	0x9c
 3845 0829 4C080000 		.4byte	0x84c
 3846 082d 1B       		.uleb128 0x1b
 3847 082e 34020000 		.4byte	.LASF135
 3848 0832 02       		.byte	0x2
 3849 0833 A201     		.2byte	0x1a2
 3850 0835 C4000000 		.4byte	0xc4
 3851 0839 02       		.uleb128 0x2
 3852 083a 91       		.byte	0x91
 3853 083b 6F       		.sleb128 -17
 3854 083c 22       		.uleb128 0x22
 3855 083d 58080000 		.4byte	.LASF136
 3856 0841 02       		.byte	0x2
 3857 0842 A501     		.2byte	0x1a5
 3858 0844 E5000000 		.4byte	0xe5
 3859 0848 02       		.uleb128 0x2
 3860 0849 91       		.byte	0x91
 3861 084a 76       		.sleb128 -10
 3862 084b 00       		.byte	0
 3863 084c 24       		.uleb128 0x24
 3864 084d 8F080000 		.4byte	.LASF137
 3865 0851 02       		.byte	0x2
 3866 0852 E701     		.2byte	0x1e7
 3867 0854 00000000 		.4byte	.LFB609
 3868 0858 DC060000 		.4byte	.LFE609-.LFB609
 3869 085c 01       		.uleb128 0x1
ARM GAS  C:\Users\rober\AppData\Local\Temp\ccAa3myu.s 			page 102


 3870 085d 9C       		.byte	0x9c
 3871 085e D5080000 		.4byte	0x8d5
 3872 0862 1B       		.uleb128 0x1b
 3873 0863 3B060000 		.4byte	.LASF138
 3874 0867 02       		.byte	0x2
 3875 0868 E701     		.2byte	0x1e7
 3876 086a D5080000 		.4byte	0x8d5
 3877 086e 02       		.uleb128 0x2
 3878 086f 91       		.byte	0x91
 3879 0870 5C       		.sleb128 -36
 3880 0871 1B       		.uleb128 0x1b
 3881 0872 6D020000 		.4byte	.LASF139
 3882 0876 02       		.byte	0x2
 3883 0877 E801     		.2byte	0x1e8
 3884 0879 3A060000 		.4byte	0x63a
 3885 087d 02       		.uleb128 0x2
 3886 087e 91       		.byte	0x91
 3887 087f 5B       		.sleb128 -37
 3888 0880 25       		.uleb128 0x25
 3889 0881 7800     		.ascii	"x\000"
 3890 0883 02       		.byte	0x2
 3891 0884 EB01     		.2byte	0x1eb
 3892 0886 E5000000 		.4byte	0xe5
 3893 088a 02       		.uleb128 0x2
 3894 088b 91       		.byte	0x91
 3895 088c 6E       		.sleb128 -18
 3896 088d 25       		.uleb128 0x25
 3897 088e 7900     		.ascii	"y\000"
 3898 0890 02       		.byte	0x2
 3899 0891 ED01     		.2byte	0x1ed
 3900 0893 E5000000 		.4byte	0xe5
 3901 0897 02       		.uleb128 0x2
 3902 0898 91       		.byte	0x91
 3903 0899 6C       		.sleb128 -20
 3904 089a 25       		.uleb128 0x25
 3905 089b 6B00     		.ascii	"k\000"
 3906 089d 02       		.byte	0x2
 3907 089e EF01     		.2byte	0x1ef
 3908 08a0 E5000000 		.4byte	0xe5
 3909 08a4 02       		.uleb128 0x2
 3910 08a5 91       		.byte	0x91
 3911 08a6 6A       		.sleb128 -22
 3912 08a7 22       		.uleb128 0x22
 3913 08a8 F5070000 		.4byte	.LASF140
 3914 08ac 02       		.byte	0x2
 3915 08ad F201     		.2byte	0x1f2
 3916 08af C9020000 		.4byte	0x2c9
 3917 08b3 02       		.uleb128 0x2
 3918 08b4 91       		.byte	0x91
 3919 08b5 66       		.sleb128 -26
 3920 08b6 22       		.uleb128 0x22
 3921 08b7 A7020000 		.4byte	.LASF141
 3922 08bb 02       		.byte	0x2
 3923 08bc F501     		.2byte	0x1f5
 3924 08be CF000000 		.4byte	0xcf
 3925 08c2 02       		.uleb128 0x2
 3926 08c3 91       		.byte	0x91
ARM GAS  C:\Users\rober\AppData\Local\Temp\ccAa3myu.s 			page 103


 3927 08c4 69       		.sleb128 -23
 3928 08c5 22       		.uleb128 0x22
 3929 08c6 18060000 		.4byte	.LASF142
 3930 08ca 02       		.byte	0x2
 3931 08cb F801     		.2byte	0x1f8
 3932 08cd D5020000 		.4byte	0x2d5
 3933 08d1 02       		.uleb128 0x2
 3934 08d2 91       		.byte	0x91
 3935 08d3 68       		.sleb128 -24
 3936 08d4 00       		.byte	0
 3937 08d5 11       		.uleb128 0x11
 3938 08d6 04       		.byte	0x4
 3939 08d7 CE050000 		.4byte	0x5ce
 3940 08db 24       		.uleb128 0x24
 3941 08dc ED050000 		.4byte	.LASF143
 3942 08e0 02       		.byte	0x2
 3943 08e1 C202     		.2byte	0x2c2
 3944 08e3 00000000 		.4byte	.LFB610
 3945 08e7 B4030000 		.4byte	.LFE610-.LFB610
 3946 08eb 01       		.uleb128 0x1
 3947 08ec 9C       		.byte	0x9c
 3948 08ed 64090000 		.4byte	0x964
 3949 08f1 1B       		.uleb128 0x1b
 3950 08f2 0F050000 		.4byte	.LASF144
 3951 08f6 02       		.byte	0x2
 3952 08f7 C202     		.2byte	0x2c2
 3953 08f9 D5080000 		.4byte	0x8d5
 3954 08fd 02       		.uleb128 0x2
 3955 08fe 91       		.byte	0x91
 3956 08ff 5C       		.sleb128 -36
 3957 0900 1B       		.uleb128 0x1b
 3958 0901 E1050000 		.4byte	.LASF145
 3959 0905 02       		.byte	0x2
 3960 0906 C302     		.2byte	0x2c3
 3961 0908 D5080000 		.4byte	0x8d5
 3962 090c 02       		.uleb128 0x2
 3963 090d 91       		.byte	0x91
 3964 090e 58       		.sleb128 -40
 3965 090f 25       		.uleb128 0x25
 3966 0910 7800     		.ascii	"x\000"
 3967 0912 02       		.byte	0x2
 3968 0913 C602     		.2byte	0x2c6
 3969 0915 E5000000 		.4byte	0xe5
 3970 0919 02       		.uleb128 0x2
 3971 091a 91       		.byte	0x91
 3972 091b 6E       		.sleb128 -18
 3973 091c 25       		.uleb128 0x25
 3974 091d 7900     		.ascii	"y\000"
 3975 091f 02       		.byte	0x2
 3976 0920 C802     		.2byte	0x2c8
 3977 0922 E5000000 		.4byte	0xe5
 3978 0926 02       		.uleb128 0x2
 3979 0927 91       		.byte	0x91
 3980 0928 6C       		.sleb128 -20
 3981 0929 25       		.uleb128 0x25
 3982 092a 6B00     		.ascii	"k\000"
 3983 092c 02       		.byte	0x2
ARM GAS  C:\Users\rober\AppData\Local\Temp\ccAa3myu.s 			page 104


 3984 092d CA02     		.2byte	0x2ca
 3985 092f E5000000 		.4byte	0xe5
 3986 0933 02       		.uleb128 0x2
 3987 0934 91       		.byte	0x91
 3988 0935 6A       		.sleb128 -22
 3989 0936 22       		.uleb128 0x22
 3990 0937 2A060000 		.4byte	.LASF146
 3991 093b 02       		.byte	0x2
 3992 093c CD02     		.2byte	0x2cd
 3993 093e CF000000 		.4byte	0xcf
 3994 0942 02       		.uleb128 0x2
 3995 0943 91       		.byte	0x91
 3996 0944 67       		.sleb128 -25
 3997 0945 22       		.uleb128 0x22
 3998 0946 C4050000 		.4byte	.LASF147
 3999 094a 02       		.byte	0x2
 4000 094b CF02     		.2byte	0x2cf
 4001 094d CF000000 		.4byte	0xcf
 4002 0951 02       		.uleb128 0x2
 4003 0952 91       		.byte	0x91
 4004 0953 66       		.sleb128 -26
 4005 0954 22       		.uleb128 0x22
 4006 0955 F5070000 		.4byte	.LASF140
 4007 0959 02       		.byte	0x2
 4008 095a D202     		.2byte	0x2d2
 4009 095c C9020000 		.4byte	0x2c9
 4010 0960 02       		.uleb128 0x2
 4011 0961 91       		.byte	0x91
 4012 0962 68       		.sleb128 -24
 4013 0963 00       		.byte	0
 4014 0964 24       		.uleb128 0x24
 4015 0965 4D060000 		.4byte	.LASF148
 4016 0969 02       		.byte	0x2
 4017 096a 5C03     		.2byte	0x35c
 4018 096c 00000000 		.4byte	.LFB611
 4019 0970 98000000 		.4byte	.LFE611-.LFB611
 4020 0974 01       		.uleb128 0x1
 4021 0975 9C       		.byte	0x9c
 4022 0976 8A090000 		.4byte	0x98a
 4023 097a 22       		.uleb128 0x22
 4024 097b F9020000 		.4byte	.LASF149
 4025 097f 02       		.byte	0x2
 4026 0980 5F03     		.2byte	0x35f
 4027 0982 E5000000 		.4byte	0xe5
 4028 0986 02       		.uleb128 0x2
 4029 0987 91       		.byte	0x91
 4030 0988 76       		.sleb128 -10
 4031 0989 00       		.byte	0
 4032 098a 24       		.uleb128 0x24
 4033 098b 20010000 		.4byte	.LASF150
 4034 098f 02       		.byte	0x2
 4035 0990 8B03     		.2byte	0x38b
 4036 0992 00000000 		.4byte	.LFB612
 4037 0996 48000000 		.4byte	.LFE612-.LFB612
 4038 099a 01       		.uleb128 0x1
 4039 099b 9C       		.byte	0x9c
 4040 099c B0090000 		.4byte	0x9b0
ARM GAS  C:\Users\rober\AppData\Local\Temp\ccAa3myu.s 			page 105


 4041 09a0 22       		.uleb128 0x22
 4042 09a1 F9020000 		.4byte	.LASF149
 4043 09a5 02       		.byte	0x2
 4044 09a6 8E03     		.2byte	0x38e
 4045 09a8 CF000000 		.4byte	0xcf
 4046 09ac 02       		.uleb128 0x2
 4047 09ad 91       		.byte	0x91
 4048 09ae 77       		.sleb128 -9
 4049 09af 00       		.byte	0
 4050 09b0 26       		.uleb128 0x26
 4051 09b1 81050000 		.4byte	.LASF151
 4052 09b5 02       		.byte	0x2
 4053 09b6 B403     		.2byte	0x3b4
 4054 09b8 0A060000 		.4byte	0x60a
 4055 09bc 00000000 		.4byte	.LFB613
 4056 09c0 70000000 		.4byte	.LFE613-.LFB613
 4057 09c4 01       		.uleb128 0x1
 4058 09c5 9C       		.byte	0x9c
 4059 09c6 26       		.uleb128 0x26
 4060 09c7 EF080000 		.4byte	.LASF152
 4061 09cb 02       		.byte	0x2
 4062 09cc DD03     		.2byte	0x3dd
 4063 09ce 0A060000 		.4byte	0x60a
 4064 09d2 00000000 		.4byte	.LFB614
 4065 09d6 E0000000 		.4byte	.LFE614-.LFB614
 4066 09da 01       		.uleb128 0x1
 4067 09db 9C       		.byte	0x9c
 4068 09dc 1F       		.uleb128 0x1f
 4069 09dd A2070000 		.4byte	.LASF153
 4070 09e1 02       		.byte	0x2
 4071 09e2 54       		.byte	0x54
 4072 09e3 D1060000 		.4byte	0x6d1
 4073 09e7 05       		.uleb128 0x5
 4074 09e8 03       		.byte	0x3
 4075 09e9 00000000 		.4byte	driverPacket
 4076 09ed 1F       		.uleb128 0x1f
 4077 09ee 98020000 		.4byte	.LASF154
 4078 09f2 02       		.byte	0x2
 4079 09f3 5F       		.byte	0x5f
 4080 09f4 E5000000 		.4byte	0xe5
 4081 09f8 05       		.uleb128 0x5
 4082 09f9 03       		.byte	0x3
 4083 09fa 70000000 		.4byte	fullUpdateTime
 4084 09fe 1F       		.uleb128 0x1f
 4085 09ff 56030000 		.4byte	.LASF155
 4086 0a03 02       		.byte	0x2
 4087 0a04 60       		.byte	0x60
 4088 0a05 E5000000 		.4byte	0xe5
 4089 0a09 05       		.uleb128 0x5
 4090 0a0a 03       		.byte	0x3
 4091 0a0b 72000000 		.4byte	partialUpdateTime
 4092 0a0f 1F       		.uleb128 0x1f
 4093 0a10 CF040000 		.4byte	.LASF156
 4094 0a14 02       		.byte	0x2
 4095 0a15 63       		.byte	0x63
 4096 0a16 2D050000 		.4byte	0x52d
 4097 0a1a 05       		.uleb128 0x5
ARM GAS  C:\Users\rober\AppData\Local\Temp\ccAa3myu.s 			page 106


 4098 0a1b 03       		.byte	0x3
 4099 0a1c 74000000 		.4byte	dataLineEven
 4100 0a20 1F       		.uleb128 0x1f
 4101 0a21 DD010000 		.4byte	.LASF157
 4102 0a25 02       		.byte	0x2
 4103 0a26 64       		.byte	0x64
 4104 0a27 2D050000 		.4byte	0x52d
 4105 0a2b 05       		.uleb128 0x5
 4106 0a2c 03       		.byte	0x3
 4107 0a2d 78000000 		.4byte	dataLineOdd
 4108 0a31 1F       		.uleb128 0x1f
 4109 0a32 C3020000 		.4byte	.LASF158
 4110 0a36 02       		.byte	0x2
 4111 0a37 65       		.byte	0x65
 4112 0a38 2D050000 		.4byte	0x52d
 4113 0a3c 05       		.uleb128 0x5
 4114 0a3d 03       		.byte	0x3
 4115 0a3e 7C000000 		.4byte	dataLineScan
 4116 0a42 27       		.uleb128 0x27
 4117 0a43 13010000 		.4byte	.LASF159
 4118 0a47 0B       		.byte	0xb
 4119 0a48 EA07     		.2byte	0x7ea
 4120 0a4a 4E0A0000 		.4byte	0xa4e
 4121 0a4e 06       		.uleb128 0x6
 4122 0a4f F0000000 		.4byte	0xf0
 4123 0a53 28       		.uleb128 0x28
 4124 0a54 2C080000 		.4byte	.LASF160
 4125 0a58 0C       		.byte	0xc
 4126 0a59 5E       		.byte	0x5e
 4127 0a5a C2050000 		.4byte	0x5c2
 4128 0a5e 28       		.uleb128 0x28
 4129 0a5f B2080000 		.4byte	.LASF161
 4130 0a63 0D       		.byte	0xd
 4131 0a64 1F       		.byte	0x1f
 4132 0a65 690A0000 		.4byte	0xa69
 4133 0a69 07       		.uleb128 0x7
 4134 0a6a CD030000 		.4byte	0x3cd
 4135 0a6e 28       		.uleb128 0x28
 4136 0a6f 8D070000 		.4byte	.LASF162
 4137 0a73 0E       		.byte	0xe
 4138 0a74 1F       		.byte	0x1f
 4139 0a75 790A0000 		.4byte	0xa79
 4140 0a79 07       		.uleb128 0x7
 4141 0a7a 11050000 		.4byte	0x511
 4142 0a7e 28       		.uleb128 0x28
 4143 0a7f 32010000 		.4byte	.LASF163
 4144 0a83 0F       		.byte	0xf
 4145 0a84 1F       		.byte	0x1f
 4146 0a85 690A0000 		.4byte	0xa69
 4147 0a89 08       		.uleb128 0x8
 4148 0a8a D1060000 		.4byte	0x6d1
 4149 0a8e 990A0000 		.4byte	0xa99
 4150 0a92 09       		.uleb128 0x9
 4151 0a93 B4000000 		.4byte	0xb4
 4152 0a97 AF       		.byte	0xaf
 4153 0a98 00       		.byte	0
 4154 0a99 29       		.uleb128 0x29
ARM GAS  C:\Users\rober\AppData\Local\Temp\ccAa3myu.s 			page 107


 4155 0a9a DE020000 		.4byte	.LASF164
 4156 0a9e 02       		.byte	0x2
 4157 0a9f 50       		.byte	0x50
 4158 0aa0 890A0000 		.4byte	0xa89
 4159 0aa4 05       		.uleb128 0x5
 4160 0aa5 03       		.byte	0x3
 4161 0aa6 00000000 		.4byte	bulkDriverPacket
 4162 0aaa 08       		.uleb128 0x8
 4163 0aab BA0A0000 		.4byte	0xaba
 4164 0aaf BA0A0000 		.4byte	0xaba
 4165 0ab3 09       		.uleb128 0x9
 4166 0ab4 B4000000 		.4byte	0xb4
 4167 0ab8 03       		.byte	0x3
 4168 0ab9 00       		.byte	0
 4169 0aba 07       		.uleb128 0x7
 4170 0abb CF000000 		.4byte	0xcf
 4171 0abf 29       		.uleb128 0x29
 4172 0ac0 8E020000 		.4byte	.LASF165
 4173 0ac4 02       		.byte	0x2
 4174 0ac5 57       		.byte	0x57
 4175 0ac6 D00A0000 		.4byte	0xad0
 4176 0aca 05       		.uleb128 0x5
 4177 0acb 03       		.byte	0x3
 4178 0acc 00000000 		.4byte	scanTable
 4179 0ad0 07       		.uleb128 0x7
 4180 0ad1 AA0A0000 		.4byte	0xaaa
 4181 0ad5 08       		.uleb128 0x8
 4182 0ad6 BA0A0000 		.4byte	0xaba
 4183 0ada E50A0000 		.4byte	0xae5
 4184 0ade 09       		.uleb128 0x9
 4185 0adf B4000000 		.4byte	0xb4
 4186 0ae3 07       		.byte	0x7
 4187 0ae4 00       		.byte	0
 4188 0ae5 29       		.uleb128 0x29
 4189 0ae6 D0020000 		.4byte	.LASF166
 4190 0aea 02       		.byte	0x2
 4191 0aeb 5B       		.byte	0x5b
 4192 0aec F60A0000 		.4byte	0xaf6
 4193 0af0 05       		.uleb128 0x5
 4194 0af1 03       		.byte	0x3
 4195 0af2 00000000 		.4byte	channelSelect
 4196 0af6 07       		.uleb128 0x7
 4197 0af7 D50A0000 		.4byte	0xad5
 4198 0afb 00       		.byte	0
 4199              		.section	.debug_abbrev,"",%progbits
 4200              	.Ldebug_abbrev0:
 4201 0000 01       		.uleb128 0x1
 4202 0001 11       		.uleb128 0x11
 4203 0002 01       		.byte	0x1
 4204 0003 25       		.uleb128 0x25
 4205 0004 0E       		.uleb128 0xe
 4206 0005 13       		.uleb128 0x13
 4207 0006 0B       		.uleb128 0xb
 4208 0007 03       		.uleb128 0x3
 4209 0008 0E       		.uleb128 0xe
 4210 0009 1B       		.uleb128 0x1b
 4211 000a 0E       		.uleb128 0xe
ARM GAS  C:\Users\rober\AppData\Local\Temp\ccAa3myu.s 			page 108


 4212 000b 55       		.uleb128 0x55
 4213 000c 17       		.uleb128 0x17
 4214 000d 11       		.uleb128 0x11
 4215 000e 01       		.uleb128 0x1
 4216 000f 10       		.uleb128 0x10
 4217 0010 17       		.uleb128 0x17
 4218 0011 00       		.byte	0
 4219 0012 00       		.byte	0
 4220 0013 02       		.uleb128 0x2
 4221 0014 24       		.uleb128 0x24
 4222 0015 00       		.byte	0
 4223 0016 0B       		.uleb128 0xb
 4224 0017 0B       		.uleb128 0xb
 4225 0018 3E       		.uleb128 0x3e
 4226 0019 0B       		.uleb128 0xb
 4227 001a 03       		.uleb128 0x3
 4228 001b 08       		.uleb128 0x8
 4229 001c 00       		.byte	0
 4230 001d 00       		.byte	0
 4231 001e 03       		.uleb128 0x3
 4232 001f 24       		.uleb128 0x24
 4233 0020 00       		.byte	0
 4234 0021 0B       		.uleb128 0xb
 4235 0022 0B       		.uleb128 0xb
 4236 0023 3E       		.uleb128 0x3e
 4237 0024 0B       		.uleb128 0xb
 4238 0025 03       		.uleb128 0x3
 4239 0026 0E       		.uleb128 0xe
 4240 0027 00       		.byte	0
 4241 0028 00       		.byte	0
 4242 0029 04       		.uleb128 0x4
 4243 002a 16       		.uleb128 0x16
 4244 002b 00       		.byte	0
 4245 002c 03       		.uleb128 0x3
 4246 002d 0E       		.uleb128 0xe
 4247 002e 3A       		.uleb128 0x3a
 4248 002f 0B       		.uleb128 0xb
 4249 0030 3B       		.uleb128 0x3b
 4250 0031 0B       		.uleb128 0xb
 4251 0032 49       		.uleb128 0x49
 4252 0033 13       		.uleb128 0x13
 4253 0034 00       		.byte	0
 4254 0035 00       		.byte	0
 4255 0036 05       		.uleb128 0x5
 4256 0037 0F       		.uleb128 0xf
 4257 0038 00       		.byte	0
 4258 0039 0B       		.uleb128 0xb
 4259 003a 0B       		.uleb128 0xb
 4260 003b 00       		.byte	0
 4261 003c 00       		.byte	0
 4262 003d 06       		.uleb128 0x6
 4263 003e 35       		.uleb128 0x35
 4264 003f 00       		.byte	0
 4265 0040 49       		.uleb128 0x49
 4266 0041 13       		.uleb128 0x13
 4267 0042 00       		.byte	0
 4268 0043 00       		.byte	0
ARM GAS  C:\Users\rober\AppData\Local\Temp\ccAa3myu.s 			page 109


 4269 0044 07       		.uleb128 0x7
 4270 0045 26       		.uleb128 0x26
 4271 0046 00       		.byte	0
 4272 0047 49       		.uleb128 0x49
 4273 0048 13       		.uleb128 0x13
 4274 0049 00       		.byte	0
 4275 004a 00       		.byte	0
 4276 004b 08       		.uleb128 0x8
 4277 004c 01       		.uleb128 0x1
 4278 004d 01       		.byte	0x1
 4279 004e 49       		.uleb128 0x49
 4280 004f 13       		.uleb128 0x13
 4281 0050 01       		.uleb128 0x1
 4282 0051 13       		.uleb128 0x13
 4283 0052 00       		.byte	0
 4284 0053 00       		.byte	0
 4285 0054 09       		.uleb128 0x9
 4286 0055 21       		.uleb128 0x21
 4287 0056 00       		.byte	0
 4288 0057 49       		.uleb128 0x49
 4289 0058 13       		.uleb128 0x13
 4290 0059 2F       		.uleb128 0x2f
 4291 005a 0B       		.uleb128 0xb
 4292 005b 00       		.byte	0
 4293 005c 00       		.byte	0
 4294 005d 0A       		.uleb128 0xa
 4295 005e 13       		.uleb128 0x13
 4296 005f 01       		.byte	0x1
 4297 0060 0B       		.uleb128 0xb
 4298 0061 0B       		.uleb128 0xb
 4299 0062 3A       		.uleb128 0x3a
 4300 0063 0B       		.uleb128 0xb
 4301 0064 3B       		.uleb128 0x3b
 4302 0065 0B       		.uleb128 0xb
 4303 0066 01       		.uleb128 0x1
 4304 0067 13       		.uleb128 0x13
 4305 0068 00       		.byte	0
 4306 0069 00       		.byte	0
 4307 006a 0B       		.uleb128 0xb
 4308 006b 0D       		.uleb128 0xd
 4309 006c 00       		.byte	0
 4310 006d 03       		.uleb128 0x3
 4311 006e 08       		.uleb128 0x8
 4312 006f 3A       		.uleb128 0x3a
 4313 0070 0B       		.uleb128 0xb
 4314 0071 3B       		.uleb128 0x3b
 4315 0072 0B       		.uleb128 0xb
 4316 0073 49       		.uleb128 0x49
 4317 0074 13       		.uleb128 0x13
 4318 0075 38       		.uleb128 0x38
 4319 0076 0B       		.uleb128 0xb
 4320 0077 00       		.byte	0
 4321 0078 00       		.byte	0
 4322 0079 0C       		.uleb128 0xc
 4323 007a 0D       		.uleb128 0xd
 4324 007b 00       		.byte	0
 4325 007c 03       		.uleb128 0x3
ARM GAS  C:\Users\rober\AppData\Local\Temp\ccAa3myu.s 			page 110


 4326 007d 0E       		.uleb128 0xe
 4327 007e 3A       		.uleb128 0x3a
 4328 007f 0B       		.uleb128 0xb
 4329 0080 3B       		.uleb128 0x3b
 4330 0081 0B       		.uleb128 0xb
 4331 0082 49       		.uleb128 0x49
 4332 0083 13       		.uleb128 0x13
 4333 0084 38       		.uleb128 0x38
 4334 0085 0B       		.uleb128 0xb
 4335 0086 00       		.byte	0
 4336 0087 00       		.byte	0
 4337 0088 0D       		.uleb128 0xd
 4338 0089 13       		.uleb128 0x13
 4339 008a 01       		.byte	0x1
 4340 008b 0B       		.uleb128 0xb
 4341 008c 05       		.uleb128 0x5
 4342 008d 3A       		.uleb128 0x3a
 4343 008e 0B       		.uleb128 0xb
 4344 008f 3B       		.uleb128 0x3b
 4345 0090 0B       		.uleb128 0xb
 4346 0091 01       		.uleb128 0x1
 4347 0092 13       		.uleb128 0x13
 4348 0093 00       		.byte	0
 4349 0094 00       		.byte	0
 4350 0095 0E       		.uleb128 0xe
 4351 0096 0D       		.uleb128 0xd
 4352 0097 00       		.byte	0
 4353 0098 03       		.uleb128 0x3
 4354 0099 0E       		.uleb128 0xe
 4355 009a 3A       		.uleb128 0x3a
 4356 009b 0B       		.uleb128 0xb
 4357 009c 3B       		.uleb128 0x3b
 4358 009d 0B       		.uleb128 0xb
 4359 009e 49       		.uleb128 0x49
 4360 009f 13       		.uleb128 0x13
 4361 00a0 38       		.uleb128 0x38
 4362 00a1 05       		.uleb128 0x5
 4363 00a2 00       		.byte	0
 4364 00a3 00       		.byte	0
 4365 00a4 0F       		.uleb128 0xf
 4366 00a5 16       		.uleb128 0x16
 4367 00a6 00       		.byte	0
 4368 00a7 03       		.uleb128 0x3
 4369 00a8 0E       		.uleb128 0xe
 4370 00a9 3A       		.uleb128 0x3a
 4371 00aa 0B       		.uleb128 0xb
 4372 00ab 3B       		.uleb128 0x3b
 4373 00ac 05       		.uleb128 0x5
 4374 00ad 49       		.uleb128 0x49
 4375 00ae 13       		.uleb128 0x13
 4376 00af 00       		.byte	0
 4377 00b0 00       		.byte	0
 4378 00b1 10       		.uleb128 0x10
 4379 00b2 13       		.uleb128 0x13
 4380 00b3 01       		.byte	0x1
 4381 00b4 03       		.uleb128 0x3
 4382 00b5 0E       		.uleb128 0xe
ARM GAS  C:\Users\rober\AppData\Local\Temp\ccAa3myu.s 			page 111


 4383 00b6 0B       		.uleb128 0xb
 4384 00b7 0B       		.uleb128 0xb
 4385 00b8 3A       		.uleb128 0x3a
 4386 00b9 0B       		.uleb128 0xb
 4387 00ba 3B       		.uleb128 0x3b
 4388 00bb 0B       		.uleb128 0xb
 4389 00bc 01       		.uleb128 0x1
 4390 00bd 13       		.uleb128 0x13
 4391 00be 00       		.byte	0
 4392 00bf 00       		.byte	0
 4393 00c0 11       		.uleb128 0x11
 4394 00c1 0F       		.uleb128 0xf
 4395 00c2 00       		.byte	0
 4396 00c3 0B       		.uleb128 0xb
 4397 00c4 0B       		.uleb128 0xb
 4398 00c5 49       		.uleb128 0x49
 4399 00c6 13       		.uleb128 0x13
 4400 00c7 00       		.byte	0
 4401 00c8 00       		.byte	0
 4402 00c9 12       		.uleb128 0x12
 4403 00ca 15       		.uleb128 0x15
 4404 00cb 01       		.byte	0x1
 4405 00cc 27       		.uleb128 0x27
 4406 00cd 19       		.uleb128 0x19
 4407 00ce 01       		.uleb128 0x1
 4408 00cf 13       		.uleb128 0x13
 4409 00d0 00       		.byte	0
 4410 00d1 00       		.byte	0
 4411 00d2 13       		.uleb128 0x13
 4412 00d3 05       		.uleb128 0x5
 4413 00d4 00       		.byte	0
 4414 00d5 49       		.uleb128 0x49
 4415 00d6 13       		.uleb128 0x13
 4416 00d7 00       		.byte	0
 4417 00d8 00       		.byte	0
 4418 00d9 14       		.uleb128 0x14
 4419 00da 13       		.uleb128 0x13
 4420 00db 01       		.byte	0x1
 4421 00dc 03       		.uleb128 0x3
 4422 00dd 0E       		.uleb128 0xe
 4423 00de 0B       		.uleb128 0xb
 4424 00df 0B       		.uleb128 0xb
 4425 00e0 3A       		.uleb128 0x3a
 4426 00e1 0B       		.uleb128 0xb
 4427 00e2 3B       		.uleb128 0x3b
 4428 00e3 05       		.uleb128 0x5
 4429 00e4 01       		.uleb128 0x1
 4430 00e5 13       		.uleb128 0x13
 4431 00e6 00       		.byte	0
 4432 00e7 00       		.byte	0
 4433 00e8 15       		.uleb128 0x15
 4434 00e9 0D       		.uleb128 0xd
 4435 00ea 00       		.byte	0
 4436 00eb 03       		.uleb128 0x3
 4437 00ec 0E       		.uleb128 0xe
 4438 00ed 3A       		.uleb128 0x3a
 4439 00ee 0B       		.uleb128 0xb
ARM GAS  C:\Users\rober\AppData\Local\Temp\ccAa3myu.s 			page 112


 4440 00ef 3B       		.uleb128 0x3b
 4441 00f0 05       		.uleb128 0x5
 4442 00f1 49       		.uleb128 0x49
 4443 00f2 13       		.uleb128 0x13
 4444 00f3 38       		.uleb128 0x38
 4445 00f4 0B       		.uleb128 0xb
 4446 00f5 00       		.byte	0
 4447 00f6 00       		.byte	0
 4448 00f7 16       		.uleb128 0x16
 4449 00f8 04       		.uleb128 0x4
 4450 00f9 01       		.byte	0x1
 4451 00fa 0B       		.uleb128 0xb
 4452 00fb 0B       		.uleb128 0xb
 4453 00fc 49       		.uleb128 0x49
 4454 00fd 13       		.uleb128 0x13
 4455 00fe 3A       		.uleb128 0x3a
 4456 00ff 0B       		.uleb128 0xb
 4457 0100 3B       		.uleb128 0x3b
 4458 0101 0B       		.uleb128 0xb
 4459 0102 01       		.uleb128 0x1
 4460 0103 13       		.uleb128 0x13
 4461 0104 00       		.byte	0
 4462 0105 00       		.byte	0
 4463 0106 17       		.uleb128 0x17
 4464 0107 28       		.uleb128 0x28
 4465 0108 00       		.byte	0
 4466 0109 03       		.uleb128 0x3
 4467 010a 0E       		.uleb128 0xe
 4468 010b 1C       		.uleb128 0x1c
 4469 010c 0B       		.uleb128 0xb
 4470 010d 00       		.byte	0
 4471 010e 00       		.byte	0
 4472 010f 18       		.uleb128 0x18
 4473 0110 17       		.uleb128 0x17
 4474 0111 01       		.byte	0x1
 4475 0112 0B       		.uleb128 0xb
 4476 0113 0B       		.uleb128 0xb
 4477 0114 3A       		.uleb128 0x3a
 4478 0115 0B       		.uleb128 0xb
 4479 0116 3B       		.uleb128 0x3b
 4480 0117 0B       		.uleb128 0xb
 4481 0118 01       		.uleb128 0x1
 4482 0119 13       		.uleb128 0x13
 4483 011a 00       		.byte	0
 4484 011b 00       		.byte	0
 4485 011c 19       		.uleb128 0x19
 4486 011d 0D       		.uleb128 0xd
 4487 011e 00       		.byte	0
 4488 011f 03       		.uleb128 0x3
 4489 0120 0E       		.uleb128 0xe
 4490 0121 3A       		.uleb128 0x3a
 4491 0122 0B       		.uleb128 0xb
 4492 0123 3B       		.uleb128 0x3b
 4493 0124 0B       		.uleb128 0xb
 4494 0125 49       		.uleb128 0x49
 4495 0126 13       		.uleb128 0x13
 4496 0127 00       		.byte	0
ARM GAS  C:\Users\rober\AppData\Local\Temp\ccAa3myu.s 			page 113


 4497 0128 00       		.byte	0
 4498 0129 1A       		.uleb128 0x1a
 4499 012a 2E       		.uleb128 0x2e
 4500 012b 01       		.byte	0x1
 4501 012c 03       		.uleb128 0x3
 4502 012d 0E       		.uleb128 0xe
 4503 012e 3A       		.uleb128 0x3a
 4504 012f 0B       		.uleb128 0xb
 4505 0130 3B       		.uleb128 0x3b
 4506 0131 05       		.uleb128 0x5
 4507 0132 27       		.uleb128 0x27
 4508 0133 19       		.uleb128 0x19
 4509 0134 11       		.uleb128 0x11
 4510 0135 01       		.uleb128 0x1
 4511 0136 12       		.uleb128 0x12
 4512 0137 06       		.uleb128 0x6
 4513 0138 40       		.uleb128 0x40
 4514 0139 18       		.uleb128 0x18
 4515 013a 9642     		.uleb128 0x2116
 4516 013c 19       		.uleb128 0x19
 4517 013d 01       		.uleb128 0x1
 4518 013e 13       		.uleb128 0x13
 4519 013f 00       		.byte	0
 4520 0140 00       		.byte	0
 4521 0141 1B       		.uleb128 0x1b
 4522 0142 05       		.uleb128 0x5
 4523 0143 00       		.byte	0
 4524 0144 03       		.uleb128 0x3
 4525 0145 0E       		.uleb128 0xe
 4526 0146 3A       		.uleb128 0x3a
 4527 0147 0B       		.uleb128 0xb
 4528 0148 3B       		.uleb128 0x3b
 4529 0149 05       		.uleb128 0x5
 4530 014a 49       		.uleb128 0x49
 4531 014b 13       		.uleb128 0x13
 4532 014c 02       		.uleb128 0x2
 4533 014d 18       		.uleb128 0x18
 4534 014e 00       		.byte	0
 4535 014f 00       		.byte	0
 4536 0150 1C       		.uleb128 0x1c
 4537 0151 2E       		.uleb128 0x2e
 4538 0152 01       		.byte	0x1
 4539 0153 3F       		.uleb128 0x3f
 4540 0154 19       		.uleb128 0x19
 4541 0155 03       		.uleb128 0x3
 4542 0156 0E       		.uleb128 0xe
 4543 0157 3A       		.uleb128 0x3a
 4544 0158 0B       		.uleb128 0xb
 4545 0159 3B       		.uleb128 0x3b
 4546 015a 0B       		.uleb128 0xb
 4547 015b 27       		.uleb128 0x27
 4548 015c 19       		.uleb128 0x19
 4549 015d 11       		.uleb128 0x11
 4550 015e 01       		.uleb128 0x1
 4551 015f 12       		.uleb128 0x12
 4552 0160 06       		.uleb128 0x6
 4553 0161 40       		.uleb128 0x40
ARM GAS  C:\Users\rober\AppData\Local\Temp\ccAa3myu.s 			page 114


 4554 0162 18       		.uleb128 0x18
 4555 0163 9642     		.uleb128 0x2116
 4556 0165 19       		.uleb128 0x19
 4557 0166 01       		.uleb128 0x1
 4558 0167 13       		.uleb128 0x13
 4559 0168 00       		.byte	0
 4560 0169 00       		.byte	0
 4561 016a 1D       		.uleb128 0x1d
 4562 016b 05       		.uleb128 0x5
 4563 016c 00       		.byte	0
 4564 016d 03       		.uleb128 0x3
 4565 016e 0E       		.uleb128 0xe
 4566 016f 3A       		.uleb128 0x3a
 4567 0170 0B       		.uleb128 0xb
 4568 0171 3B       		.uleb128 0x3b
 4569 0172 0B       		.uleb128 0xb
 4570 0173 49       		.uleb128 0x49
 4571 0174 13       		.uleb128 0x13
 4572 0175 02       		.uleb128 0x2
 4573 0176 18       		.uleb128 0x18
 4574 0177 00       		.byte	0
 4575 0178 00       		.byte	0
 4576 0179 1E       		.uleb128 0x1e
 4577 017a 2E       		.uleb128 0x2e
 4578 017b 01       		.byte	0x1
 4579 017c 3F       		.uleb128 0x3f
 4580 017d 19       		.uleb128 0x19
 4581 017e 03       		.uleb128 0x3
 4582 017f 0E       		.uleb128 0xe
 4583 0180 3A       		.uleb128 0x3a
 4584 0181 0B       		.uleb128 0xb
 4585 0182 3B       		.uleb128 0x3b
 4586 0183 0B       		.uleb128 0xb
 4587 0184 27       		.uleb128 0x27
 4588 0185 19       		.uleb128 0x19
 4589 0186 49       		.uleb128 0x49
 4590 0187 13       		.uleb128 0x13
 4591 0188 11       		.uleb128 0x11
 4592 0189 01       		.uleb128 0x1
 4593 018a 12       		.uleb128 0x12
 4594 018b 06       		.uleb128 0x6
 4595 018c 40       		.uleb128 0x40
 4596 018d 18       		.uleb128 0x18
 4597 018e 9642     		.uleb128 0x2116
 4598 0190 19       		.uleb128 0x19
 4599 0191 01       		.uleb128 0x1
 4600 0192 13       		.uleb128 0x13
 4601 0193 00       		.byte	0
 4602 0194 00       		.byte	0
 4603 0195 1F       		.uleb128 0x1f
 4604 0196 34       		.uleb128 0x34
 4605 0197 00       		.byte	0
 4606 0198 03       		.uleb128 0x3
 4607 0199 0E       		.uleb128 0xe
 4608 019a 3A       		.uleb128 0x3a
 4609 019b 0B       		.uleb128 0xb
 4610 019c 3B       		.uleb128 0x3b
ARM GAS  C:\Users\rober\AppData\Local\Temp\ccAa3myu.s 			page 115


 4611 019d 0B       		.uleb128 0xb
 4612 019e 49       		.uleb128 0x49
 4613 019f 13       		.uleb128 0x13
 4614 01a0 02       		.uleb128 0x2
 4615 01a1 18       		.uleb128 0x18
 4616 01a2 00       		.byte	0
 4617 01a3 00       		.byte	0
 4618 01a4 20       		.uleb128 0x20
 4619 01a5 2E       		.uleb128 0x2e
 4620 01a6 00       		.byte	0
 4621 01a7 3F       		.uleb128 0x3f
 4622 01a8 19       		.uleb128 0x19
 4623 01a9 03       		.uleb128 0x3
 4624 01aa 0E       		.uleb128 0xe
 4625 01ab 3A       		.uleb128 0x3a
 4626 01ac 0B       		.uleb128 0xb
 4627 01ad 3B       		.uleb128 0x3b
 4628 01ae 0B       		.uleb128 0xb
 4629 01af 27       		.uleb128 0x27
 4630 01b0 19       		.uleb128 0x19
 4631 01b1 11       		.uleb128 0x11
 4632 01b2 01       		.uleb128 0x1
 4633 01b3 12       		.uleb128 0x12
 4634 01b4 06       		.uleb128 0x6
 4635 01b5 40       		.uleb128 0x40
 4636 01b6 18       		.uleb128 0x18
 4637 01b7 9642     		.uleb128 0x2116
 4638 01b9 19       		.uleb128 0x19
 4639 01ba 00       		.byte	0
 4640 01bb 00       		.byte	0
 4641 01bc 21       		.uleb128 0x21
 4642 01bd 2E       		.uleb128 0x2e
 4643 01be 01       		.byte	0x1
 4644 01bf 3F       		.uleb128 0x3f
 4645 01c0 19       		.uleb128 0x19
 4646 01c1 03       		.uleb128 0x3
 4647 01c2 0E       		.uleb128 0xe
 4648 01c3 3A       		.uleb128 0x3a
 4649 01c4 0B       		.uleb128 0xb
 4650 01c5 3B       		.uleb128 0x3b
 4651 01c6 05       		.uleb128 0x5
 4652 01c7 27       		.uleb128 0x27
 4653 01c8 19       		.uleb128 0x19
 4654 01c9 49       		.uleb128 0x49
 4655 01ca 13       		.uleb128 0x13
 4656 01cb 11       		.uleb128 0x11
 4657 01cc 01       		.uleb128 0x1
 4658 01cd 12       		.uleb128 0x12
 4659 01ce 06       		.uleb128 0x6
 4660 01cf 40       		.uleb128 0x40
 4661 01d0 18       		.uleb128 0x18
 4662 01d1 9642     		.uleb128 0x2116
 4663 01d3 19       		.uleb128 0x19
 4664 01d4 01       		.uleb128 0x1
 4665 01d5 13       		.uleb128 0x13
 4666 01d6 00       		.byte	0
 4667 01d7 00       		.byte	0
ARM GAS  C:\Users\rober\AppData\Local\Temp\ccAa3myu.s 			page 116


 4668 01d8 22       		.uleb128 0x22
 4669 01d9 34       		.uleb128 0x34
 4670 01da 00       		.byte	0
 4671 01db 03       		.uleb128 0x3
 4672 01dc 0E       		.uleb128 0xe
 4673 01dd 3A       		.uleb128 0x3a
 4674 01de 0B       		.uleb128 0xb
 4675 01df 3B       		.uleb128 0x3b
 4676 01e0 05       		.uleb128 0x5
 4677 01e1 49       		.uleb128 0x49
 4678 01e2 13       		.uleb128 0x13
 4679 01e3 02       		.uleb128 0x2
 4680 01e4 18       		.uleb128 0x18
 4681 01e5 00       		.byte	0
 4682 01e6 00       		.byte	0
 4683 01e7 23       		.uleb128 0x23
 4684 01e8 2E       		.uleb128 0x2e
 4685 01e9 01       		.byte	0x1
 4686 01ea 3F       		.uleb128 0x3f
 4687 01eb 19       		.uleb128 0x19
 4688 01ec 03       		.uleb128 0x3
 4689 01ed 0E       		.uleb128 0xe
 4690 01ee 3A       		.uleb128 0x3a
 4691 01ef 0B       		.uleb128 0xb
 4692 01f0 3B       		.uleb128 0x3b
 4693 01f1 05       		.uleb128 0x5
 4694 01f2 27       		.uleb128 0x27
 4695 01f3 19       		.uleb128 0x19
 4696 01f4 11       		.uleb128 0x11
 4697 01f5 01       		.uleb128 0x1
 4698 01f6 12       		.uleb128 0x12
 4699 01f7 06       		.uleb128 0x6
 4700 01f8 40       		.uleb128 0x40
 4701 01f9 18       		.uleb128 0x18
 4702 01fa 9742     		.uleb128 0x2117
 4703 01fc 19       		.uleb128 0x19
 4704 01fd 01       		.uleb128 0x1
 4705 01fe 13       		.uleb128 0x13
 4706 01ff 00       		.byte	0
 4707 0200 00       		.byte	0
 4708 0201 24       		.uleb128 0x24
 4709 0202 2E       		.uleb128 0x2e
 4710 0203 01       		.byte	0x1
 4711 0204 3F       		.uleb128 0x3f
 4712 0205 19       		.uleb128 0x19
 4713 0206 03       		.uleb128 0x3
 4714 0207 0E       		.uleb128 0xe
 4715 0208 3A       		.uleb128 0x3a
 4716 0209 0B       		.uleb128 0xb
 4717 020a 3B       		.uleb128 0x3b
 4718 020b 05       		.uleb128 0x5
 4719 020c 27       		.uleb128 0x27
 4720 020d 19       		.uleb128 0x19
 4721 020e 11       		.uleb128 0x11
 4722 020f 01       		.uleb128 0x1
 4723 0210 12       		.uleb128 0x12
 4724 0211 06       		.uleb128 0x6
ARM GAS  C:\Users\rober\AppData\Local\Temp\ccAa3myu.s 			page 117


 4725 0212 40       		.uleb128 0x40
 4726 0213 18       		.uleb128 0x18
 4727 0214 9642     		.uleb128 0x2116
 4728 0216 19       		.uleb128 0x19
 4729 0217 01       		.uleb128 0x1
 4730 0218 13       		.uleb128 0x13
 4731 0219 00       		.byte	0
 4732 021a 00       		.byte	0
 4733 021b 25       		.uleb128 0x25
 4734 021c 34       		.uleb128 0x34
 4735 021d 00       		.byte	0
 4736 021e 03       		.uleb128 0x3
 4737 021f 08       		.uleb128 0x8
 4738 0220 3A       		.uleb128 0x3a
 4739 0221 0B       		.uleb128 0xb
 4740 0222 3B       		.uleb128 0x3b
 4741 0223 05       		.uleb128 0x5
 4742 0224 49       		.uleb128 0x49
 4743 0225 13       		.uleb128 0x13
 4744 0226 02       		.uleb128 0x2
 4745 0227 18       		.uleb128 0x18
 4746 0228 00       		.byte	0
 4747 0229 00       		.byte	0
 4748 022a 26       		.uleb128 0x26
 4749 022b 2E       		.uleb128 0x2e
 4750 022c 00       		.byte	0
 4751 022d 3F       		.uleb128 0x3f
 4752 022e 19       		.uleb128 0x19
 4753 022f 03       		.uleb128 0x3
 4754 0230 0E       		.uleb128 0xe
 4755 0231 3A       		.uleb128 0x3a
 4756 0232 0B       		.uleb128 0xb
 4757 0233 3B       		.uleb128 0x3b
 4758 0234 05       		.uleb128 0x5
 4759 0235 27       		.uleb128 0x27
 4760 0236 19       		.uleb128 0x19
 4761 0237 49       		.uleb128 0x49
 4762 0238 13       		.uleb128 0x13
 4763 0239 11       		.uleb128 0x11
 4764 023a 01       		.uleb128 0x1
 4765 023b 12       		.uleb128 0x12
 4766 023c 06       		.uleb128 0x6
 4767 023d 40       		.uleb128 0x40
 4768 023e 18       		.uleb128 0x18
 4769 023f 9642     		.uleb128 0x2116
 4770 0241 19       		.uleb128 0x19
 4771 0242 00       		.byte	0
 4772 0243 00       		.byte	0
 4773 0244 27       		.uleb128 0x27
 4774 0245 34       		.uleb128 0x34
 4775 0246 00       		.byte	0
 4776 0247 03       		.uleb128 0x3
 4777 0248 0E       		.uleb128 0xe
 4778 0249 3A       		.uleb128 0x3a
 4779 024a 0B       		.uleb128 0xb
 4780 024b 3B       		.uleb128 0x3b
 4781 024c 05       		.uleb128 0x5
ARM GAS  C:\Users\rober\AppData\Local\Temp\ccAa3myu.s 			page 118


 4782 024d 49       		.uleb128 0x49
 4783 024e 13       		.uleb128 0x13
 4784 024f 3F       		.uleb128 0x3f
 4785 0250 19       		.uleb128 0x19
 4786 0251 3C       		.uleb128 0x3c
 4787 0252 19       		.uleb128 0x19
 4788 0253 00       		.byte	0
 4789 0254 00       		.byte	0
 4790 0255 28       		.uleb128 0x28
 4791 0256 34       		.uleb128 0x34
 4792 0257 00       		.byte	0
 4793 0258 03       		.uleb128 0x3
 4794 0259 0E       		.uleb128 0xe
 4795 025a 3A       		.uleb128 0x3a
 4796 025b 0B       		.uleb128 0xb
 4797 025c 3B       		.uleb128 0x3b
 4798 025d 0B       		.uleb128 0xb
 4799 025e 49       		.uleb128 0x49
 4800 025f 13       		.uleb128 0x13
 4801 0260 3F       		.uleb128 0x3f
 4802 0261 19       		.uleb128 0x19
 4803 0262 3C       		.uleb128 0x3c
 4804 0263 19       		.uleb128 0x19
 4805 0264 00       		.byte	0
 4806 0265 00       		.byte	0
 4807 0266 29       		.uleb128 0x29
 4808 0267 34       		.uleb128 0x34
 4809 0268 00       		.byte	0
 4810 0269 03       		.uleb128 0x3
 4811 026a 0E       		.uleb128 0xe
 4812 026b 3A       		.uleb128 0x3a
 4813 026c 0B       		.uleb128 0xb
 4814 026d 3B       		.uleb128 0x3b
 4815 026e 0B       		.uleb128 0xb
 4816 026f 49       		.uleb128 0x49
 4817 0270 13       		.uleb128 0x13
 4818 0271 3F       		.uleb128 0x3f
 4819 0272 19       		.uleb128 0x19
 4820 0273 02       		.uleb128 0x2
 4821 0274 18       		.uleb128 0x18
 4822 0275 00       		.byte	0
 4823 0276 00       		.byte	0
 4824 0277 00       		.byte	0
 4825              		.section	.debug_aranges,"",%progbits
 4826 0000 7C000000 		.4byte	0x7c
 4827 0004 0200     		.2byte	0x2
 4828 0006 00000000 		.4byte	.Ldebug_info0
 4829 000a 04       		.byte	0x4
 4830 000b 00       		.byte	0
 4831 000c 0000     		.2byte	0
 4832 000e 0000     		.2byte	0
 4833 0010 00000000 		.4byte	.LFB405
 4834 0014 54000000 		.4byte	.LFE405-.LFB405
 4835 0018 00000000 		.4byte	.LFB603
 4836 001c 64000000 		.4byte	.LFE603-.LFB603
 4837 0020 00000000 		.4byte	.LFB604
 4838 0024 24000000 		.4byte	.LFE604-.LFB604
ARM GAS  C:\Users\rober\AppData\Local\Temp\ccAa3myu.s 			page 119


 4839 0028 00000000 		.4byte	.LFB605
 4840 002c 68000000 		.4byte	.LFE605-.LFB605
 4841 0030 00000000 		.4byte	.LFB606
 4842 0034 58000000 		.4byte	.LFE606-.LFB606
 4843 0038 00000000 		.4byte	.LFB607
 4844 003c 48010000 		.4byte	.LFE607-.LFB607
 4845 0040 00000000 		.4byte	.LFB608
 4846 0044 9C000000 		.4byte	.LFE608-.LFB608
 4847 0048 00000000 		.4byte	.LFB609
 4848 004c DC060000 		.4byte	.LFE609-.LFB609
 4849 0050 00000000 		.4byte	.LFB610
 4850 0054 B4030000 		.4byte	.LFE610-.LFB610
 4851 0058 00000000 		.4byte	.LFB611
 4852 005c 98000000 		.4byte	.LFE611-.LFB611
 4853 0060 00000000 		.4byte	.LFB612
 4854 0064 48000000 		.4byte	.LFE612-.LFB612
 4855 0068 00000000 		.4byte	.LFB613
 4856 006c 70000000 		.4byte	.LFE613-.LFB613
 4857 0070 00000000 		.4byte	.LFB614
 4858 0074 E0000000 		.4byte	.LFE614-.LFB614
 4859 0078 00000000 		.4byte	0
 4860 007c 00000000 		.4byte	0
 4861              		.section	.debug_ranges,"",%progbits
 4862              	.Ldebug_ranges0:
 4863 0000 00000000 		.4byte	.LFB405
 4864 0004 54000000 		.4byte	.LFE405
 4865 0008 00000000 		.4byte	.LFB603
 4866 000c 64000000 		.4byte	.LFE603
 4867 0010 00000000 		.4byte	.LFB604
 4868 0014 24000000 		.4byte	.LFE604
 4869 0018 00000000 		.4byte	.LFB605
 4870 001c 68000000 		.4byte	.LFE605
 4871 0020 00000000 		.4byte	.LFB606
 4872 0024 58000000 		.4byte	.LFE606
 4873 0028 00000000 		.4byte	.LFB607
 4874 002c 48010000 		.4byte	.LFE607
 4875 0030 00000000 		.4byte	.LFB608
 4876 0034 9C000000 		.4byte	.LFE608
 4877 0038 00000000 		.4byte	.LFB609
 4878 003c DC060000 		.4byte	.LFE609
 4879 0040 00000000 		.4byte	.LFB610
 4880 0044 B4030000 		.4byte	.LFE610
 4881 0048 00000000 		.4byte	.LFB611
 4882 004c 98000000 		.4byte	.LFE611
 4883 0050 00000000 		.4byte	.LFB612
 4884 0054 48000000 		.4byte	.LFE612
 4885 0058 00000000 		.4byte	.LFB613
 4886 005c 70000000 		.4byte	.LFE613
 4887 0060 00000000 		.4byte	.LFB614
 4888 0064 E0000000 		.4byte	.LFE614
 4889 0068 00000000 		.4byte	0
 4890 006c 00000000 		.4byte	0
 4891              		.section	.debug_line,"",%progbits
 4892              	.Ldebug_line0:
 4893 0000 350A0000 		.section	.debug_str,"MS",%progbits,1
 4893      02004903 
 4893      00000201 
ARM GAS  C:\Users\rober\AppData\Local\Temp\ccAa3myu.s 			page 120


 4893      FB0E0D00 
 4893      01010101 
 4894              	.LASF56:
 4895 0000 72756E4D 		.ascii	"runMode\000"
 4895      6F646500 
 4896              	.LASF89:
 4897 0008 63795F73 		.ascii	"cy_stc_tcpwm_pwm_config_t\000"
 4897      74635F74 
 4897      6370776D 
 4897      5F70776D 
 4897      5F636F6E 
 4898              	.LASF88:
 4899 0022 6B696C6C 		.ascii	"killInput\000"
 4899      496E7075 
 4899      7400
 4900              	.LASF129:
 4901 002c 50765F45 		.ascii	"Pv_EINK_SendByte\000"
 4901      494E4B5F 
 4901      53656E64 
 4901      42797465 
 4901      00
 4902              	.LASF108:
 4903 003d 50565F45 		.ascii	"PV_EINK_ERROR_CHARGEPUMP\000"
 4903      494E4B5F 
 4903      4552524F 
 4903      525F4348 
 4903      41524745 
 4904              	.LASF77:
 4905 0056 70776D41 		.ascii	"pwmAlignment\000"
 4905      6C69676E 
 4905      6D656E74 
 4905      00
 4906              	.LASF133:
 4907 0063 6C6F6F70 		.ascii	"loopCounter\000"
 4907      436F756E 
 4907      74657200 
 4908              	.LASF3:
 4909 006f 7369676E 		.ascii	"signed char\000"
 4909      65642063 
 4909      68617200 
 4910              	.LASF5:
 4911 007b 5F5F7569 		.ascii	"__uint8_t\000"
 4911      6E74385F 
 4911      7400
 4912              	.LASF57:
 4913 0085 636F756E 		.ascii	"countDirection\000"
 4913      74446972 
 4913      65637469 
 4913      6F6E00
 4914              	.LASF69:
 4915 0094 73746F70 		.ascii	"stopInputMode\000"
 4915      496E7075 
 4915      744D6F64 
 4915      6500
 4916              	.LASF54:
 4917 00a2 70657269 		.ascii	"period\000"
 4917      6F6400
ARM GAS  C:\Users\rober\AppData\Local\Temp\ccAa3myu.s 			page 121


 4918              	.LASF45:
 4919 00a9 5644445F 		.ascii	"VDD_INTR_MASK\000"
 4919      494E5452 
 4919      5F4D4153 
 4919      4B00
 4920              	.LASF64:
 4921 00b7 63617074 		.ascii	"captureInput\000"
 4921      75726549 
 4921      6E707574 
 4921      00
 4922              	.LASF120:
 4923 00c4 6C696E65 		.ascii	"lineBuffer\000"
 4923      42756666 
 4923      657200
 4924              	.LASF15:
 4925 00cf 6C6F6E67 		.ascii	"long long unsigned int\000"
 4925      206C6F6E 
 4925      6720756E 
 4925      7369676E 
 4925      65642069 
 4926              	.LASF55:
 4927 00e6 636C6F63 		.ascii	"clockPrescaler\000"
 4927      6B507265 
 4927      7363616C 
 4927      657200
 4928              	.LASF102:
 4929 00f5 70765F65 		.ascii	"pv_eink_frame_data_t\000"
 4929      696E6B5F 
 4929      6672616D 
 4929      655F6461 
 4929      74615F74 
 4930              	.LASF4:
 4931 010a 5F5F696E 		.ascii	"__int8_t\000"
 4931      74385F74 
 4931      00
 4932              	.LASF159:
 4933 0113 49544D5F 		.ascii	"ITM_RxBuffer\000"
 4933      52784275 
 4933      66666572 
 4933      00
 4934              	.LASF150:
 4935 0120 50765F45 		.ascii	"Pv_EINK_DummyLine\000"
 4935      494E4B5F 
 4935      44756D6D 
 4935      794C696E 
 4935      6500
 4936              	.LASF163:
 4937 0132 54696D65 		.ascii	"Timer_config\000"
 4937      725F636F 
 4937      6E666967 
 4937      00
 4938              	.LASF80:
 4939 013f 70657269 		.ascii	"period1\000"
 4939      6F643100 
 4940              	.LASF20:
 4941 0147 696E7431 		.ascii	"int16_t\000"
 4941      365F7400 
ARM GAS  C:\Users\rober\AppData\Local\Temp\ccAa3myu.s 			page 122


 4942              	.LASF1:
 4943 014f 6C6F6E67 		.ascii	"long long int\000"
 4943      206C6F6E 
 4943      6720696E 
 4943      7400
 4944              	.LASF73:
 4945 015d 63795F73 		.ascii	"cy_stc_tcpwm_counter_config_t\000"
 4945      74635F74 
 4945      6370776D 
 4945      5F636F75 
 4945      6E746572 
 4946              	.LASF91:
 4947 017b 63795F73 		.ascii	"cy_stc_scb_spi_context\000"
 4947      74635F73 
 4947      63625F73 
 4947      70695F63 
 4947      6F6E7465 
 4948              	.LASF128:
 4949 0192 50765F45 		.ascii	"Pv_EINK_SendData\000"
 4949      494E4B5F 
 4949      53656E64 
 4949      44617461 
 4949      00
 4950              	.LASF170:
 4951 01a3 43795F47 		.ascii	"Cy_GPIO_Write\000"
 4951      50494F5F 
 4951      57726974 
 4951      6500
 4952              	.LASF90:
 4953 01b1 63795F63 		.ascii	"cy_cb_scb_spi_handle_events_t\000"
 4953      625F7363 
 4953      625F7370 
 4953      695F6861 
 4953      6E646C65 
 4954              	.LASF12:
 4955 01cf 6C6F6E67 		.ascii	"long int\000"
 4955      20696E74 
 4955      00
 4956              	.LASF118:
 4957 01d8 7363616E 		.ascii	"scan\000"
 4957      00
 4958              	.LASF157:
 4959 01dd 64617461 		.ascii	"dataLineOdd\000"
 4959      4C696E65 
 4959      4F646400 
 4960              	.LASF168:
 4961 01e9 65496E6B 		.ascii	"eInk Library\\pervasive_eink_hardware_driver.c\000"
 4961      204C6962 
 4961      72617279 
 4961      5C706572 
 4961      76617369 
 4962              	.LASF8:
 4963 0217 73686F72 		.ascii	"short int\000"
 4963      7420696E 
 4963      7400
 4964              	.LASF21:
 4965 0221 75696E74 		.ascii	"uint16_t\000"
ARM GAS  C:\Users\rober\AppData\Local\Temp\ccAa3myu.s 			page 123


 4965      31365F74 
 4965      00
 4966              	.LASF116:
 4967 022a 64756D6D 		.ascii	"dummyData\000"
 4967      79446174 
 4967      6100
 4968              	.LASF135:
 4969 0234 74656D70 		.ascii	"temperature\000"
 4969      65726174 
 4969      75726500 
 4970              	.LASF130:
 4971 0240 50765F45 		.ascii	"Pv_EINK_ReadByte\000"
 4971      494E4B5F 
 4971      52656164 
 4971      42797465 
 4971      00
 4972              	.LASF127:
 4973 0251 64617461 		.ascii	"dataLength\000"
 4973      4C656E67 
 4973      746800
 4974              	.LASF63:
 4975 025c 63617074 		.ascii	"captureInputMode\000"
 4975      75726549 
 4975      6E707574 
 4975      4D6F6465 
 4975      00
 4976              	.LASF139:
 4977 026d 73746167 		.ascii	"stageNumber\000"
 4977      654E756D 
 4977      62657200 
 4978              	.LASF94:
 4979 0279 72784275 		.ascii	"rxBufSize\000"
 4979      6653697A 
 4979      6500
 4980              	.LASF13:
 4981 0283 5F5F7569 		.ascii	"__uint32_t\000"
 4981      6E743332 
 4981      5F7400
 4982              	.LASF165:
 4983 028e 7363616E 		.ascii	"scanTable\000"
 4983      5461626C 
 4983      6500
 4984              	.LASF154:
 4985 0298 66756C6C 		.ascii	"fullUpdateTime\000"
 4985      55706461 
 4985      74655469 
 4985      6D6500
 4986              	.LASF141:
 4987 02a7 74656D70 		.ascii	"tempByte\000"
 4987      42797465 
 4987      00
 4988              	.LASF7:
 4989 02b0 5F5F696E 		.ascii	"__int16_t\000"
 4989      7431365F 
 4989      7400
 4990              	.LASF95:
 4991 02ba 72784275 		.ascii	"rxBufIdx\000"
ARM GAS  C:\Users\rober\AppData\Local\Temp\ccAa3myu.s 			page 124


 4991      66496478 
 4991      00
 4992              	.LASF158:
 4993 02c3 64617461 		.ascii	"dataLineScan\000"
 4993      4C696E65 
 4993      5363616E 
 4993      00
 4994              	.LASF166:
 4995 02d0 6368616E 		.ascii	"channelSelect\000"
 4995      6E656C53 
 4995      656C6563 
 4995      7400
 4996              	.LASF164:
 4997 02de 62756C6B 		.ascii	"bulkDriverPacket\000"
 4997      44726976 
 4997      65725061 
 4997      636B6574 
 4997      00
 4998              	.LASF97:
 4999 02ef 74784275 		.ascii	"txBufSize\000"
 4999      6653697A 
 4999      6500
 5000              	.LASF149:
 5001 02f9 62797465 		.ascii	"byteCounter\000"
 5001      436F756E 
 5001      74657200 
 5002              	.LASF26:
 5003 0305 4F55545F 		.ascii	"OUT_INV\000"
 5003      494E5600 
 5004              	.LASF49:
 5005 030d 63686172 		.ascii	"char_t\000"
 5005      5F7400
 5006              	.LASF14:
 5007 0314 6C6F6E67 		.ascii	"long unsigned int\000"
 5007      20756E73 
 5007      69676E65 
 5007      6420696E 
 5007      7400
 5008              	.LASF61:
 5009 0326 656E6162 		.ascii	"enableCompareSwap\000"
 5009      6C65436F 
 5009      6D706172 
 5009      65537761 
 5009      7000
 5010              	.LASF32:
 5011 0338 4346475F 		.ascii	"CFG_IN\000"
 5011      494E00
 5012              	.LASF28:
 5013 033f 494E5452 		.ascii	"INTR_MASK\000"
 5013      5F4D4153 
 5013      4B00
 5014              	.LASF47:
 5015 0349 5644445F 		.ascii	"VDD_INTR_SET\000"
 5015      494E5452 
 5015      5F534554 
 5015      00
 5016              	.LASF155:
ARM GAS  C:\Users\rober\AppData\Local\Temp\ccAa3myu.s 			page 125


 5017 0356 70617274 		.ascii	"partialUpdateTime\000"
 5017      69616C55 
 5017      70646174 
 5017      6554696D 
 5017      6500
 5018              	.LASF126:
 5019 0368 64617461 		.ascii	"data\000"
 5019      00
 5020              	.LASF85:
 5021 036d 73776170 		.ascii	"swapInputMode\000"
 5021      496E7075 
 5021      744D6F64 
 5021      6500
 5022              	.LASF10:
 5023 037b 73686F72 		.ascii	"short unsigned int\000"
 5023      7420756E 
 5023      7369676E 
 5023      65642069 
 5023      6E7400
 5024              	.LASF29:
 5025 038e 494E5452 		.ascii	"INTR_MASKED\000"
 5025      5F4D4153 
 5025      4B454400 
 5026              	.LASF134:
 5027 039a 50765F45 		.ascii	"Pv_EINK_SetTempFactor\000"
 5027      494E4B5F 
 5027      53657454 
 5027      656D7046 
 5027      6163746F 
 5028              	.LASF104:
 5029 03b0 50565F45 		.ascii	"PV_EINK_ERROR_BUSY\000"
 5029      494E4B5F 
 5029      4552524F 
 5029      525F4255 
 5029      535900
 5030              	.LASF25:
 5031 03c3 4F55545F 		.ascii	"OUT_SET\000"
 5031      53455400 
 5032              	.LASF87:
 5033 03cb 6B696C6C 		.ascii	"killInputMode\000"
 5033      496E7075 
 5033      744D6F64 
 5033      6500
 5034              	.LASF99:
 5035 03d9 63624576 		.ascii	"cbEvents\000"
 5035      656E7473 
 5035      00
 5036              	.LASF115:
 5037 03e2 65696E6B 		.ascii	"eink_lineData\000"
 5037      5F6C696E 
 5037      65446174 
 5037      6100
 5038              	.LASF96:
 5039 03f0 74784275 		.ascii	"txBuf\000"
 5039      6600
 5040              	.LASF110:
 5041 03f6 50565F45 		.ascii	"PV_EINK_STAGE1\000"
ARM GAS  C:\Users\rober\AppData\Local\Temp\ccAa3myu.s 			page 126


 5041      494E4B5F 
 5041      53544147 
 5041      453100
 5042              	.LASF111:
 5043 0405 50565F45 		.ascii	"PV_EINK_STAGE2\000"
 5043      494E4B5F 
 5043      53544147 
 5043      453200
 5044              	.LASF101:
 5045 0414 63795F73 		.ascii	"cy_stc_scb_spi_context_t\000"
 5045      74635F73 
 5045      63625F73 
 5045      70695F63 
 5045      6F6E7465 
 5046              	.LASF113:
 5047 042d 50565F45 		.ascii	"PV_EINK_STAGE4\000"
 5047      494E4B5F 
 5047      53544147 
 5047      453400
 5048              	.LASF82:
 5049 043c 696E7665 		.ascii	"invertPWMOut\000"
 5049      72745057 
 5049      4D4F7574 
 5049      00
 5050              	.LASF78:
 5051 0449 64656164 		.ascii	"deadTimeClocks\000"
 5051      54696D65 
 5051      436C6F63 
 5051      6B7300
 5052              	.LASF71:
 5053 0458 636F756E 		.ascii	"countInputMode\000"
 5053      74496E70 
 5053      75744D6F 
 5053      646500
 5054              	.LASF68:
 5055 0467 73746172 		.ascii	"startInput\000"
 5055      74496E70 
 5055      757400
 5056              	.LASF31:
 5057 0472 494E5452 		.ascii	"INTR_CFG\000"
 5057      5F434647 
 5057      00
 5058              	.LASF30:
 5059 047b 494E5452 		.ascii	"INTR_SET\000"
 5059      5F534554 
 5059      00
 5060              	.LASF125:
 5061 0484 72656741 		.ascii	"regAddr\000"
 5061      64647200 
 5062              	.LASF122:
 5063 048c 62617365 		.ascii	"base\000"
 5063      00
 5064              	.LASF114:
 5065 0491 70765F65 		.ascii	"pv_eink_stage_t\000"
 5065      696E6B5F 
 5065      73746167 
 5065      655F7400 
ARM GAS  C:\Users\rober\AppData\Local\Temp\ccAa3myu.s 			page 127


 5066              	.LASF43:
 5067 04a1 5644445F 		.ascii	"VDD_ACTIVE\000"
 5067      41435449 
 5067      564500
 5068              	.LASF74:
 5069 04ac 63795F73 		.ascii	"cy_stc_tcpwm_counter_config\000"
 5069      74635F74 
 5069      6370776D 
 5069      5F636F75 
 5069      6E746572 
 5070              	.LASF18:
 5071 04c8 696E7438 		.ascii	"int8_t\000"
 5071      5F7400
 5072              	.LASF156:
 5073 04cf 64617461 		.ascii	"dataLineEven\000"
 5073      4C696E65 
 5073      4576656E 
 5073      00
 5074              	.LASF16:
 5075 04dc 73697A65 		.ascii	"sizetype\000"
 5075      74797065 
 5075      00
 5076              	.LASF131:
 5077 04e5 50765F45 		.ascii	"Pv_EINK_InitDriver\000"
 5077      494E4B5F 
 5077      496E6974 
 5077      44726976 
 5077      657200
 5078              	.LASF117:
 5079 04f8 6576656E 		.ascii	"even\000"
 5079      00
 5080              	.LASF27:
 5081 04fd 494E5452 		.ascii	"INTR\000"
 5081      00
 5082              	.LASF171:
 5083 0502 50765F45 		.ascii	"Pv_EINK_Init\000"
 5083      494E4B5F 
 5083      496E6974 
 5083      00
 5084              	.LASF144:
 5085 050f 70726576 		.ascii	"previousImagePtr\000"
 5085      696F7573 
 5085      496D6167 
 5085      65507472 
 5085      00
 5086              	.LASF24:
 5087 0520 4F55545F 		.ascii	"OUT_CLR\000"
 5087      434C5200 
 5088              	.LASF76:
 5089 0528 70776D4D 		.ascii	"pwmMode\000"
 5089      6F646500 
 5090              	.LASF50:
 5091 0530 666C6F61 		.ascii	"float\000"
 5091      7400
 5092              	.LASF36:
 5093 0536 4346475F 		.ascii	"CFG_IN_GPIO5V\000"
 5093      494E5F47 
ARM GAS  C:\Users\rober\AppData\Local\Temp\ccAa3myu.s 			page 128


 5093      50494F35 
 5093      5600
 5094              	.LASF34:
 5095 0544 4346475F 		.ascii	"CFG_SIO\000"
 5095      53494F00 
 5096              	.LASF37:
 5097 054c 52455345 		.ascii	"RESERVED1\000"
 5097      52564544 
 5097      3100
 5098              	.LASF84:
 5099 0556 6B696C6C 		.ascii	"killMode\000"
 5099      4D6F6465 
 5099      00
 5100              	.LASF109:
 5101 055f 70765F65 		.ascii	"pv_eink_status_t\000"
 5101      696E6B5F 
 5101      73746174 
 5101      75735F74 
 5101      00
 5102              	.LASF105:
 5103 0570 50565F45 		.ascii	"PV_EINK_ERROR_ID\000"
 5103      494E4B5F 
 5103      4552524F 
 5103      525F4944 
 5103      00
 5104              	.LASF151:
 5105 0581 50765F45 		.ascii	"Pv_EINK_HardwarePowerOn\000"
 5105      494E4B5F 
 5105      48617264 
 5105      77617265 
 5105      506F7765 
 5106              	.LASF103:
 5107 0599 50565F45 		.ascii	"PV_EINK_RES_OK\000"
 5107      494E4B5F 
 5107      5245535F 
 5107      4F4B00
 5108              	.LASF53:
 5109 05a8 5F426F6F 		.ascii	"_Bool\000"
 5109      6C00
 5110              	.LASF22:
 5111 05ae 696E7433 		.ascii	"int32_t\000"
 5111      325F7400 
 5112              	.LASF6:
 5113 05b6 756E7369 		.ascii	"unsigned char\000"
 5113      676E6564 
 5113      20636861 
 5113      7200
 5114              	.LASF147:
 5115 05c4 6E657742 		.ascii	"newByte\000"
 5115      79746500 
 5116              	.LASF121:
 5117 05cc 64726976 		.ascii	"driver_data_packet_t\000"
 5117      65725F64 
 5117      6174615F 
 5117      7061636B 
 5117      65745F74 
 5118              	.LASF145:
ARM GAS  C:\Users\rober\AppData\Local\Temp\ccAa3myu.s 			page 129


 5119 05e1 6E657749 		.ascii	"newImagePtr\000"
 5119      6D616765 
 5119      50747200 
 5120              	.LASF143:
 5121 05ed 50765F45 		.ascii	"Pv_EINK_PartialStageHandler\000"
 5121      494E4B5F 
 5121      50617274 
 5121      69616C53 
 5121      74616765 
 5122              	.LASF119:
 5123 0609 6C696E65 		.ascii	"lineDataBySize\000"
 5123      44617461 
 5123      42795369 
 5123      7A6500
 5124              	.LASF142:
 5125 0618 626C6163 		.ascii	"blackOrWhiteFrame\000"
 5125      6B4F7257 
 5125      68697465 
 5125      4672616D 
 5125      6500
 5126              	.LASF146:
 5127 062a 6F6C6442 		.ascii	"oldByte\000"
 5127      79746500 
 5128              	.LASF35:
 5129 0632 52455345 		.ascii	"RESERVED\000"
 5129      52564544 
 5129      00
 5130              	.LASF138:
 5131 063b 696D6167 		.ascii	"imagePtr\000"
 5131      65507472 
 5131      00
 5132              	.LASF44:
 5133 0644 5644445F 		.ascii	"VDD_INTR\000"
 5133      494E5452 
 5133      00
 5134              	.LASF148:
 5135 064d 50765F45 		.ascii	"Pv_EINK_NothingFrame\000"
 5135      494E4B5F 
 5135      4E6F7468 
 5135      696E6746 
 5135      72616D65 
 5136              	.LASF81:
 5137 0662 656E6162 		.ascii	"enablePeriodSwap\000"
 5137      6C655065 
 5137      72696F64 
 5137      53776170 
 5137      00
 5138              	.LASF124:
 5139 0673 76616C75 		.ascii	"value\000"
 5139      6500
 5140              	.LASF58:
 5141 0679 636F6D70 		.ascii	"compareOrCapture\000"
 5141      6172654F 
 5141      72436170 
 5141      74757265 
 5141      00
 5142              	.LASF123:
ARM GAS  C:\Users\rober\AppData\Local\Temp\ccAa3myu.s 			page 130


 5143 068a 70696E4E 		.ascii	"pinNum\000"
 5143      756D00
 5144              	.LASF75:
 5145 0691 63795F73 		.ascii	"cy_stc_tcpwm_pwm_config\000"
 5145      74635F74 
 5145      6370776D 
 5145      5F70776D 
 5145      5F636F6E 
 5146              	.LASF23:
 5147 06a9 75696E74 		.ascii	"uint32_t\000"
 5147      33325F74 
 5147      00
 5148              	.LASF17:
 5149 06b2 63686172 		.ascii	"char\000"
 5149      00
 5150              	.LASF59:
 5151 06b7 636F6D70 		.ascii	"compare0\000"
 5151      61726530 
 5151      00
 5152              	.LASF2:
 5153 06c0 6C6F6E67 		.ascii	"long double\000"
 5153      20646F75 
 5153      626C6500 
 5154              	.LASF169:
 5155 06cc 433A5C55 		.ascii	"C:\\Users\\rober\\Desktop\\SMIW\\projekt_smiw\\CE22"
 5155      73657273 
 5155      5C726F62 
 5155      65725C44 
 5155      65736B74 
 5156 06f9 33373237 		.ascii	"3727_EmWin_EInk_Display01\\CE223727_EmWin_EInk_Disp"
 5156      5F456D57 
 5156      696E5F45 
 5156      496E6B5F 
 5156      44697370 
 5157 072b 6C617930 		.ascii	"lay01.cydsn\000"
 5157      312E6379 
 5157      64736E00 
 5158              	.LASF39:
 5159 0737 494E5452 		.ascii	"INTR_CAUSE0\000"
 5159      5F434155 
 5159      53453000 
 5160              	.LASF40:
 5161 0743 494E5452 		.ascii	"INTR_CAUSE1\000"
 5161      5F434155 
 5161      53453100 
 5162              	.LASF41:
 5163 074f 494E5452 		.ascii	"INTR_CAUSE2\000"
 5163      5F434155 
 5163      53453200 
 5164              	.LASF42:
 5165 075b 494E5452 		.ascii	"INTR_CAUSE3\000"
 5165      5F434155 
 5165      53453300 
 5166              	.LASF0:
 5167 0767 756E7369 		.ascii	"unsigned int\000"
 5167      676E6564 
 5167      20696E74 
ARM GAS  C:\Users\rober\AppData\Local\Temp\ccAa3myu.s 			page 131


 5167      00
 5168              	.LASF38:
 5169 0774 4750494F 		.ascii	"GPIO_PRT_Type\000"
 5169      5F505254 
 5169      5F547970 
 5169      6500
 5170              	.LASF9:
 5171 0782 5F5F7569 		.ascii	"__uint16_t\000"
 5171      6E743136 
 5171      5F7400
 5172              	.LASF162:
 5173 078d 50574D5F 		.ascii	"PWM_config\000"
 5173      636F6E66 
 5173      696700
 5174              	.LASF11:
 5175 0798 5F5F696E 		.ascii	"__int32_t\000"
 5175      7433325F 
 5175      7400
 5176              	.LASF153:
 5177 07a2 64726976 		.ascii	"driverPacket\000"
 5177      65725061 
 5177      636B6574 
 5177      00
 5178              	.LASF46:
 5179 07af 5644445F 		.ascii	"VDD_INTR_MASKED\000"
 5179      494E5452 
 5179      5F4D4153 
 5179      4B454400 
 5180              	.LASF62:
 5181 07bf 696E7465 		.ascii	"interruptSources\000"
 5181      72727570 
 5181      74536F75 
 5181      72636573 
 5181      00
 5182              	.LASF66:
 5183 07d0 72656C6F 		.ascii	"reloadInput\000"
 5183      6164496E 
 5183      70757400 
 5184              	.LASF70:
 5185 07dc 73746F70 		.ascii	"stopInput\000"
 5185      496E7075 
 5185      7400
 5186              	.LASF67:
 5187 07e6 73746172 		.ascii	"startInputMode\000"
 5187      74496E70 
 5187      75744D6F 
 5187      646500
 5188              	.LASF140:
 5189 07f5 7363616E 		.ascii	"scanlineNumber\000"
 5189      6C696E65 
 5189      4E756D62 
 5189      657200
 5190              	.LASF79:
 5191 0804 70657269 		.ascii	"period0\000"
 5191      6F643000 
 5192              	.LASF132:
 5193 080c 64617461 		.ascii	"dataRead\000"
ARM GAS  C:\Users\rober\AppData\Local\Temp\ccAa3myu.s 			page 132


 5193      52656164 
 5193      00
 5194              	.LASF60:
 5195 0815 636F6D70 		.ascii	"compare1\000"
 5195      61726531 
 5195      00
 5196              	.LASF100:
 5197 081e 696E6974 		.ascii	"initKey\000"
 5197      4B657900 
 5198              	.LASF93:
 5199 0826 72784275 		.ascii	"rxBuf\000"
 5199      6600
 5200              	.LASF160:
 5201 082c 43595F45 		.ascii	"CY_EINK_SPIM_context\000"
 5201      494E4B5F 
 5201      5350494D 
 5201      5F636F6E 
 5201      74657874 
 5202              	.LASF106:
 5203 0841 50565F45 		.ascii	"PV_EINK_ERROR_BREAKAGE\000"
 5203      494E4B5F 
 5203      4552524F 
 5203      525F4252 
 5203      45414B41 
 5204              	.LASF136:
 5205 0858 75706461 		.ascii	"updateTime\000"
 5205      74655469 
 5205      6D6500
 5206              	.LASF112:
 5207 0863 50565F45 		.ascii	"PV_EINK_STAGE3\000"
 5207      494E4B5F 
 5207      53544147 
 5207      453300
 5208              	.LASF92:
 5209 0872 73746174 		.ascii	"status\000"
 5209      757300
 5210              	.LASF83:
 5211 0879 696E7665 		.ascii	"invertPWMOutN\000"
 5211      72745057 
 5211      4D4F7574 
 5211      4E00
 5212              	.LASF19:
 5213 0887 75696E74 		.ascii	"uint8_t\000"
 5213      385F7400 
 5214              	.LASF137:
 5215 088f 50765F45 		.ascii	"Pv_EINK_FullStageHandler\000"
 5215      494E4B5F 
 5215      46756C6C 
 5215      53746167 
 5215      6548616E 
 5216              	.LASF86:
 5217 08a8 73776170 		.ascii	"swapInput\000"
 5217      496E7075 
 5217      7400
 5218              	.LASF161:
 5219 08b2 43595F45 		.ascii	"CY_EINK_Timer_config\000"
 5219      494E4B5F 
ARM GAS  C:\Users\rober\AppData\Local\Temp\ccAa3myu.s 			page 133


 5219      54696D65 
 5219      725F636F 
 5219      6E666967 
 5220              	.LASF52:
 5221 08c7 696E7431 		.ascii	"int16\000"
 5221      3600
 5222              	.LASF33:
 5223 08cd 4346475F 		.ascii	"CFG_OUT\000"
 5223      4F555400 
 5224              	.LASF48:
 5225 08d5 4750494F 		.ascii	"GPIO_Type\000"
 5225      5F547970 
 5225      6500
 5226              	.LASF65:
 5227 08df 72656C6F 		.ascii	"reloadInputMode\000"
 5227      6164496E 
 5227      7075744D 
 5227      6F646500 
 5228              	.LASF152:
 5229 08ef 50765F45 		.ascii	"Pv_EINK_HardwarePowerOff\000"
 5229      494E4B5F 
 5229      48617264 
 5229      77617265 
 5229      506F7765 
 5230              	.LASF167:
 5231 0908 474E5520 		.ascii	"GNU C11 5.4.1 20160609 (release) [ARM/embedded-5-br"
 5231      43313120 
 5231      352E342E 
 5231      31203230 
 5231      31363036 
 5232 093b 616E6368 		.ascii	"anch revision 237715] -mcpu=cortex-m4 -mfloat-abi=s"
 5232      20726576 
 5232      6973696F 
 5232      6E203233 
 5232      37373135 
 5233 096e 6F667466 		.ascii	"oftfp -mfpu=fpv4-sp-d16 -mthumb -g -O0 -ffunction-s"
 5233      70202D6D 
 5233      6670753D 
 5233      66707634 
 5233      2D73702D 
 5234 09a1 65637469 		.ascii	"ections -ffat-lto-objects\000"
 5234      6F6E7320 
 5234      2D666661 
 5234      742D6C74 
 5234      6F2D6F62 
 5235              	.LASF107:
 5236 09bb 50565F45 		.ascii	"PV_EINK_ERROR_DC\000"
 5236      494E4B5F 
 5236      4552524F 
 5236      525F4443 
 5236      00
 5237              	.LASF72:
 5238 09cc 636F756E 		.ascii	"countInput\000"
 5238      74496E70 
 5238      757400
 5239              	.LASF51:
 5240 09d7 646F7562 		.ascii	"double\000"
ARM GAS  C:\Users\rober\AppData\Local\Temp\ccAa3myu.s 			page 134


 5240      6C6500
 5241              	.LASF98:
 5242 09de 74784275 		.ascii	"txBufIdx\000"
 5242      66496478 
 5242      00
 5243              		.ident	"GCC: (GNU Tools for ARM Embedded Processors) 5.4.1 20160609 (release) [ARM/embedded-5-bran
