ARM GAS  C:\Users\rober\AppData\Local\Temp\ccBlBMtt.s 			page 1


   1              		.syntax unified
   2              		.cpu cortex-m4
   3              		.eabi_attribute 27, 1
   4              		.fpu fpv4-sp-d16
   5              		.eabi_attribute 20, 1
   6              		.eabi_attribute 21, 1
   7              		.eabi_attribute 23, 3
   8              		.eabi_attribute 24, 1
   9              		.eabi_attribute 25, 1
  10              		.eabi_attribute 26, 1
  11              		.eabi_attribute 30, 1
  12              		.eabi_attribute 34, 1
  13              		.eabi_attribute 18, 4
  14              		.thumb
  15              		.syntax unified
  16              		.file	"pervasive_eink_hardware_driver.c"
  17              		.text
  18              	.Ltext0:
  19              		.cfi_sections	.debug_frame
  20              		.section	.text.Pv_EINK_SendData,"ax",%progbits
  21              		.align	2
  22              		.global	Pv_EINK_SendData
  23              		.thumb
  24              		.thumb_func
  25              		.type	Pv_EINK_SendData, %function
  26              	Pv_EINK_SendData:
  27              	.LFB603:
  28              		.file 1 "eInk Library\\pervasive_eink_hardware_driver.c"
   1:eInk Library/pervasive_eink_hardware_driver.c **** /*******************************************************************************
   2:eInk Library/pervasive_eink_hardware_driver.c **** * Copyright (2017), Pervasive Displays Inc.
   3:eInk Library/pervasive_eink_hardware_driver.c **** *******************************************************************************
   4:eInk Library/pervasive_eink_hardware_driver.c **** *
   5:eInk Library/pervasive_eink_hardware_driver.c **** *  Authors: Pervasive Displays Inc.
   6:eInk Library/pervasive_eink_hardware_driver.c **** *
   7:eInk Library/pervasive_eink_hardware_driver.c **** *  Redistribution and use in source and binary forms, with or without
   8:eInk Library/pervasive_eink_hardware_driver.c **** *  modification, are permitted provided that the following conditions
   9:eInk Library/pervasive_eink_hardware_driver.c **** *  are met:
  10:eInk Library/pervasive_eink_hardware_driver.c **** *
  11:eInk Library/pervasive_eink_hardware_driver.c **** *  1. Redistributions of source code must retain the above copyright
  12:eInk Library/pervasive_eink_hardware_driver.c **** *     notice, this list of conditions and the following disclaimer.
  13:eInk Library/pervasive_eink_hardware_driver.c **** *  2. Redistributions in binary form must reproduce the above copyright
  14:eInk Library/pervasive_eink_hardware_driver.c **** *     notice, this list of conditions and the following disclaimer in
  15:eInk Library/pervasive_eink_hardware_driver.c **** *     the documentation and/or other materials provided with the
  16:eInk Library/pervasive_eink_hardware_driver.c **** *     distribution.
  17:eInk Library/pervasive_eink_hardware_driver.c **** *
  18:eInk Library/pervasive_eink_hardware_driver.c **** *  THIS SOFTWARE IS PROVIDED BY THE COPYRIGHT HOLDERS AND CONTRIBUTORS
  19:eInk Library/pervasive_eink_hardware_driver.c **** *  "AS IS" AND ANY EXPRESS OR IMPLIED WARRANTIES, INCLUDING, BUT NOT
  20:eInk Library/pervasive_eink_hardware_driver.c **** *  LIMITED TO, THE IMPLIED WARRANTIES OF MERCHANTABILITY AND FITNESS FOR
  21:eInk Library/pervasive_eink_hardware_driver.c **** *  A PARTICULAR PURPOSE ARE DISCLAIMED. IN NO EVENT SHALL THE COPYRIGHT
  22:eInk Library/pervasive_eink_hardware_driver.c **** *  OWNER OR CONTRIBUTORS BE LIABLE FOR ANY DIRECT, INDIRECT, INCIDENTAL,
  23:eInk Library/pervasive_eink_hardware_driver.c **** *  SPECIAL, EXEMPLARY, OR CONSEQUENTIAL DAMAGES (INCLUDING, BUT NOT
  24:eInk Library/pervasive_eink_hardware_driver.c **** *  LIMITED TO, PROCUREMENT OF SUBSTITUTE GOODS OR SERVICES; LOSS OF USE,
  25:eInk Library/pervasive_eink_hardware_driver.c **** *  DATA, OR PROFITS; OR BUSINESS INTERRUPTION) HOWEVER CAUSED AND ON ANY
  26:eInk Library/pervasive_eink_hardware_driver.c **** *  THEORY OF LIABILITY, WHETHER IN CONTRACT, STRICT LIABILITY, OR TORT
  27:eInk Library/pervasive_eink_hardware_driver.c **** *  (INCLUDING NEGLIGENCE OR OTHERWISE) ARISING IN ANY WAY OUT OF THE USE
  28:eInk Library/pervasive_eink_hardware_driver.c **** *  OF THIS SOFTWARE, EVEN IF ADVISED OF THE POSSIBILITY OF SUCH DAMAGE.
  29:eInk Library/pervasive_eink_hardware_driver.c **** *******************************************************************************/
ARM GAS  C:\Users\rober\AppData\Local\Temp\ccBlBMtt.s 			page 2


  30:eInk Library/pervasive_eink_hardware_driver.c **** /******************************************************************************
  31:eInk Library/pervasive_eink_hardware_driver.c **** * For the details of E-INK display hardware and driver, see the 2.7 inch display
  32:eInk Library/pervasive_eink_hardware_driver.c **** * product specification and G2 COG driver interface documents available at the
  33:eInk Library/pervasive_eink_hardware_driver.c **** * following location:
  34:eInk Library/pervasive_eink_hardware_driver.c **** * http://www.pervasivedisplays.com/products/271
  35:eInk Library/pervasive_eink_hardware_driver.c **** *******************************************************************************/
  36:eInk Library/pervasive_eink_hardware_driver.c **** 
  37:eInk Library/pervasive_eink_hardware_driver.c **** /* Header file includes */
  38:eInk Library/pervasive_eink_hardware_driver.c **** #include <string.h>
  39:eInk Library/pervasive_eink_hardware_driver.c **** #include "pervasive_eink_hardware_driver.h"
  40:eInk Library/pervasive_eink_hardware_driver.c **** 
  41:eInk Library/pervasive_eink_hardware_driver.c **** #define BUFFERED_WRITE  1
  42:eInk Library/pervasive_eink_hardware_driver.c **** 
  43:eInk Library/pervasive_eink_hardware_driver.c **** /* Macro for the dummy byte used in the line data */
  44:eInk Library/pervasive_eink_hardware_driver.c **** #define PV_EINK_DUMMY_BYTE     (uint8_t)(0x00u)
  45:eInk Library/pervasive_eink_hardware_driver.c **** 
  46:eInk Library/pervasive_eink_hardware_driver.c **** /* Data used to initialize the scan bytes */
  47:eInk Library/pervasive_eink_hardware_driver.c **** #define PV_EINK_SCAN_BYTE_INIT (uint8_t)(0x00u)
  48:eInk Library/pervasive_eink_hardware_driver.c **** 
  49:eInk Library/pervasive_eink_hardware_driver.c **** /* Line data structure of 2.7" display. Refer to driver document Section 5.1 
  50:eInk Library/pervasive_eink_hardware_driver.c ****    for details */
  51:eInk Library/pervasive_eink_hardware_driver.c **** struct eink_lineData
  52:eInk Library/pervasive_eink_hardware_driver.c **** {
  53:eInk Library/pervasive_eink_hardware_driver.c ****     /*  Dummy byte (0x00) */
  54:eInk Library/pervasive_eink_hardware_driver.c ****     uint8_t dummyData;
  55:eInk Library/pervasive_eink_hardware_driver.c **** 
  56:eInk Library/pervasive_eink_hardware_driver.c ****     /*  2.7" even byte array */
  57:eInk Library/pervasive_eink_hardware_driver.c ****     uint8_t even[PV_EINK_HORIZONTAL_SIZE];
  58:eInk Library/pervasive_eink_hardware_driver.c **** 
  59:eInk Library/pervasive_eink_hardware_driver.c ****     /*  2.7" scan byte array */
  60:eInk Library/pervasive_eink_hardware_driver.c ****     uint8_t scan[PV_EINK_SCAN_LINE_SIZE];
  61:eInk Library/pervasive_eink_hardware_driver.c **** 
  62:eInk Library/pervasive_eink_hardware_driver.c ****     /*  2.7" odd byte array */
  63:eInk Library/pervasive_eink_hardware_driver.c ****     uint8_t odd[PV_EINK_HORIZONTAL_SIZE];
  64:eInk Library/pervasive_eink_hardware_driver.c **** };
  65:eInk Library/pervasive_eink_hardware_driver.c **** 
  66:eInk Library/pervasive_eink_hardware_driver.c **** /* Packet structure of a line data */
  67:eInk Library/pervasive_eink_hardware_driver.c **** typedef union
  68:eInk Library/pervasive_eink_hardware_driver.c **** {
  69:eInk Library/pervasive_eink_hardware_driver.c ****     /* Line data structure of 2.7" E-INK display */
  70:eInk Library/pervasive_eink_hardware_driver.c ****     struct eink_lineData    lineDataBySize;
  71:eInk Library/pervasive_eink_hardware_driver.c **** 
  72:eInk Library/pervasive_eink_hardware_driver.c ****     /* Line buffer equal to the data line size */
  73:eInk Library/pervasive_eink_hardware_driver.c ****     uint8_t                 lineBuffer[PV_EINK_DATA_LINE_SIZE];
  74:eInk Library/pervasive_eink_hardware_driver.c **** 
  75:eInk Library/pervasive_eink_hardware_driver.c ****     /* The maximum line buffer data size as length */
  76:eInk Library/pervasive_eink_hardware_driver.c **** }   driver_data_packet_t;
  77:eInk Library/pervasive_eink_hardware_driver.c **** 
  78:eInk Library/pervasive_eink_hardware_driver.c **** /* Variable that stores the packets for one full drive frame. This variable
  79:eInk Library/pervasive_eink_hardware_driver.c ****    is used for full and partial updates */
  80:eInk Library/pervasive_eink_hardware_driver.c **** driver_data_packet_t  bulkDriverPacket[PV_EINK_VERTICAL_SIZE];
  81:eInk Library/pervasive_eink_hardware_driver.c **** 
  82:eInk Library/pervasive_eink_hardware_driver.c **** /* Variable that stores a single line data. This variable is used to prepare 
  83:eInk Library/pervasive_eink_hardware_driver.c ****    dummy frames */
  84:eInk Library/pervasive_eink_hardware_driver.c **** driver_data_packet_t  static driverPacket;
  85:eInk Library/pervasive_eink_hardware_driver.c **** 
  86:eInk Library/pervasive_eink_hardware_driver.c **** /* Scan table for the four stages of display update*/
ARM GAS  C:\Users\rober\AppData\Local\Temp\ccBlBMtt.s 			page 3


  87:eInk Library/pervasive_eink_hardware_driver.c **** uint8_t const               scanTable[PV_EINK_SCAN_TABLE_SIZE] =
  88:eInk Library/pervasive_eink_hardware_driver.c ****                             PV_EINK_SCAN_TABLE_DATA;
  89:eInk Library/pervasive_eink_hardware_driver.c **** 
  90:eInk Library/pervasive_eink_hardware_driver.c **** /* The SPI register addresses for Channel Select */
  91:eInk Library/pervasive_eink_hardware_driver.c **** uint8_t const               channelSelect[PV_EINK_CHANNEL_SEL_SIZE] =
  92:eInk Library/pervasive_eink_hardware_driver.c ****                             PV_EINK_CHANNEL_SEL_DATA;
  93:eInk Library/pervasive_eink_hardware_driver.c **** 
  94:eInk Library/pervasive_eink_hardware_driver.c **** /* Variables that store the driver timing information */
  95:eInk Library/pervasive_eink_hardware_driver.c **** uint16_t static             fullUpdateTime;
  96:eInk Library/pervasive_eink_hardware_driver.c **** uint16_t static             partialUpdateTime;
  97:eInk Library/pervasive_eink_hardware_driver.c **** 
  98:eInk Library/pervasive_eink_hardware_driver.c **** /* Pointers for the data structures used by the driver */
  99:eInk Library/pervasive_eink_hardware_driver.c **** uint8_t static*             dataLineEven;
 100:eInk Library/pervasive_eink_hardware_driver.c **** uint8_t static*             dataLineOdd;
 101:eInk Library/pervasive_eink_hardware_driver.c **** uint8_t static*             dataLineScan;
 102:eInk Library/pervasive_eink_hardware_driver.c **** 
 103:eInk Library/pervasive_eink_hardware_driver.c **** /*******************************************************************************
 104:eInk Library/pervasive_eink_hardware_driver.c **** * Function Name: void Pv_EINK_SendData(uint8_t regAddr, uint8_t* data, 
 105:eInk Library/pervasive_eink_hardware_driver.c **** *                                   uint16_t dataLength)
 106:eInk Library/pervasive_eink_hardware_driver.c **** ********************************************************************************
 107:eInk Library/pervasive_eink_hardware_driver.c **** *
 108:eInk Library/pervasive_eink_hardware_driver.c **** * Summary: Sends an array of data to the E-INK driver.
 109:eInk Library/pervasive_eink_hardware_driver.c **** *
 110:eInk Library/pervasive_eink_hardware_driver.c **** * Parameters:
 111:eInk Library/pervasive_eink_hardware_driver.c **** *  uint8_t regAddr    : Display driver register address
 112:eInk Library/pervasive_eink_hardware_driver.c **** *  uint8_t* data      : Pointer to the data array that will be sent to the driver
 113:eInk Library/pervasive_eink_hardware_driver.c **** *  uint16_t dataLength: Length of the data array
 114:eInk Library/pervasive_eink_hardware_driver.c **** *
 115:eInk Library/pervasive_eink_hardware_driver.c **** * Return:
 116:eInk Library/pervasive_eink_hardware_driver.c **** *  None
 117:eInk Library/pervasive_eink_hardware_driver.c **** *
 118:eInk Library/pervasive_eink_hardware_driver.c **** * Side Effects:
 119:eInk Library/pervasive_eink_hardware_driver.c **** *  None
 120:eInk Library/pervasive_eink_hardware_driver.c **** *******************************************************************************/
 121:eInk Library/pervasive_eink_hardware_driver.c **** void Pv_EINK_SendData(uint8_t regAddr, uint8_t* data, uint16_t dataLength)
 122:eInk Library/pervasive_eink_hardware_driver.c **** {
  29              		.loc 1 122 0
  30              		.cfi_startproc
  31              		@ args = 0, pretend = 0, frame = 0
  32              		@ frame_needed = 0, uses_anonymous_args = 0
  33              	.LVL0:
  34 0000 2DE9F041 		push	{r4, r5, r6, r7, r8, lr}
  35              		.cfi_def_cfa_offset 24
  36              		.cfi_offset 4, -24
  37              		.cfi_offset 5, -20
  38              		.cfi_offset 6, -16
  39              		.cfi_offset 7, -12
  40              		.cfi_offset 8, -8
  41              		.cfi_offset 14, -4
  42 0004 8046     		mov	r8, r0
  43 0006 0E46     		mov	r6, r1
  44 0008 1746     		mov	r7, r2
  45              	.LVL1:
  46              	.LBB58:
  47              	.LBB59:
  48              		.file 2 "Generated_Source\\PSoC6\\pdl\\drivers/peripheral/gpio/cy_gpio.h"
   1:Generated_Source\PSoC6\pdl\drivers/peripheral/gpio/cy_gpio.h **** /***************************************************************************//**
ARM GAS  C:\Users\rober\AppData\Local\Temp\ccBlBMtt.s 			page 4


   2:Generated_Source\PSoC6\pdl\drivers/peripheral/gpio/cy_gpio.h **** * \file cy_gpio.h
   3:Generated_Source\PSoC6\pdl\drivers/peripheral/gpio/cy_gpio.h **** * \version 1.10.1
   4:Generated_Source\PSoC6\pdl\drivers/peripheral/gpio/cy_gpio.h **** *
   5:Generated_Source\PSoC6\pdl\drivers/peripheral/gpio/cy_gpio.h **** * \brief
   6:Generated_Source\PSoC6\pdl\drivers/peripheral/gpio/cy_gpio.h **** * Provides an API declaration of the GPIO driver
   7:Generated_Source\PSoC6\pdl\drivers/peripheral/gpio/cy_gpio.h **** *
   8:Generated_Source\PSoC6\pdl\drivers/peripheral/gpio/cy_gpio.h **** ********************************************************************************
   9:Generated_Source\PSoC6\pdl\drivers/peripheral/gpio/cy_gpio.h **** * \copyright
  10:Generated_Source\PSoC6\pdl\drivers/peripheral/gpio/cy_gpio.h **** * Copyright 2016-2018, Cypress Semiconductor Corporation. All rights reserved.
  11:Generated_Source\PSoC6\pdl\drivers/peripheral/gpio/cy_gpio.h **** * You may use this file only in accordance with the license, terms, conditions,
  12:Generated_Source\PSoC6\pdl\drivers/peripheral/gpio/cy_gpio.h **** * disclaimers, and limitations in the end user license agreement accompanying
  13:Generated_Source\PSoC6\pdl\drivers/peripheral/gpio/cy_gpio.h **** * the software package with which this file was provided.
  14:Generated_Source\PSoC6\pdl\drivers/peripheral/gpio/cy_gpio.h **** *******************************************************************************/
  15:Generated_Source\PSoC6\pdl\drivers/peripheral/gpio/cy_gpio.h **** 
  16:Generated_Source\PSoC6\pdl\drivers/peripheral/gpio/cy_gpio.h **** /**
  17:Generated_Source\PSoC6\pdl\drivers/peripheral/gpio/cy_gpio.h **** * \defgroup group_gpio General Purpose Input Output (GPIO)
  18:Generated_Source\PSoC6\pdl\drivers/peripheral/gpio/cy_gpio.h **** * \{
  19:Generated_Source\PSoC6\pdl\drivers/peripheral/gpio/cy_gpio.h **** * The GPIO driver provides an API to configure and access device Input/Output pins.
  20:Generated_Source\PSoC6\pdl\drivers/peripheral/gpio/cy_gpio.h **** * IO pins include all general purpose types such as GPIO, SIO, HSIO, AUXIO, and
  21:Generated_Source\PSoC6\pdl\drivers/peripheral/gpio/cy_gpio.h **** * their variants.
  22:Generated_Source\PSoC6\pdl\drivers/peripheral/gpio/cy_gpio.h **** *
  23:Generated_Source\PSoC6\pdl\drivers/peripheral/gpio/cy_gpio.h **** * Initialization can be performed either at the port level or by configuring the
  24:Generated_Source\PSoC6\pdl\drivers/peripheral/gpio/cy_gpio.h **** * individual pins. For efficient use of code space, port
  25:Generated_Source\PSoC6\pdl\drivers/peripheral/gpio/cy_gpio.h **** * configuration should be used in the field. Refer to the product device header files 
  26:Generated_Source\PSoC6\pdl\drivers/peripheral/gpio/cy_gpio.h **** * for the list of supported ports and pins.
  27:Generated_Source\PSoC6\pdl\drivers/peripheral/gpio/cy_gpio.h **** * 
  28:Generated_Source\PSoC6\pdl\drivers/peripheral/gpio/cy_gpio.h **** * - Single pin configuration is performed by using \ref Cy_GPIO_Pin_FastInit 
  29:Generated_Source\PSoC6\pdl\drivers/peripheral/gpio/cy_gpio.h **** *   (provide specific values) or \ref Cy_GPIO_Pin_Init (provide a filled
  30:Generated_Source\PSoC6\pdl\drivers/peripheral/gpio/cy_gpio.h **** *   cy_stc_gpio_pin_config_t structure).
  31:Generated_Source\PSoC6\pdl\drivers/peripheral/gpio/cy_gpio.h **** * - An entire port can be configured using \ref Cy_GPIO_Port_Init. Provide a filled 
  32:Generated_Source\PSoC6\pdl\drivers/peripheral/gpio/cy_gpio.h **** *   cy_stc_gpio_prt_config_t structure. The values in the structure are 
  33:Generated_Source\PSoC6\pdl\drivers/peripheral/gpio/cy_gpio.h **** *   bitfields representing the desired value for each pin in the port.
  34:Generated_Source\PSoC6\pdl\drivers/peripheral/gpio/cy_gpio.h **** * - Pin configuration and management is based on the port address and pin number.
  35:Generated_Source\PSoC6\pdl\drivers/peripheral/gpio/cy_gpio.h **** *   \ref Cy_GPIO_PortToAddr function can optionally be used to calculate the port
  36:Generated_Source\PSoC6\pdl\drivers/peripheral/gpio/cy_gpio.h **** *   address from the port number at run-time.
  37:Generated_Source\PSoC6\pdl\drivers/peripheral/gpio/cy_gpio.h **** *
  38:Generated_Source\PSoC6\pdl\drivers/peripheral/gpio/cy_gpio.h **** * Once the pin/port initialization is complete, each pin can be accessed by 
  39:Generated_Source\PSoC6\pdl\drivers/peripheral/gpio/cy_gpio.h **** * specifying the port (GPIO_PRT_Type) and the pin (0-7) in the provided API 
  40:Generated_Source\PSoC6\pdl\drivers/peripheral/gpio/cy_gpio.h **** * functions.
  41:Generated_Source\PSoC6\pdl\drivers/peripheral/gpio/cy_gpio.h **** *
  42:Generated_Source\PSoC6\pdl\drivers/peripheral/gpio/cy_gpio.h **** * \section group_gpio_configuration Configuration Considerations
  43:Generated_Source\PSoC6\pdl\drivers/peripheral/gpio/cy_gpio.h **** *
  44:Generated_Source\PSoC6\pdl\drivers/peripheral/gpio/cy_gpio.h **** * 1. Pin multiplexing is controlled through the High-Speed IO Matrix (HSIOM) selection.
  45:Generated_Source\PSoC6\pdl\drivers/peripheral/gpio/cy_gpio.h **** *    This allows the pin to connect to signal sources/sinks throughout the device,
  46:Generated_Source\PSoC6\pdl\drivers/peripheral/gpio/cy_gpio.h **** *    as defined by the pin HSIOM selection options (en_hsiom_sel_t).
  47:Generated_Source\PSoC6\pdl\drivers/peripheral/gpio/cy_gpio.h **** * 2. All pins are initialized to High-Z drive mode with HSIOM connected to CPU (SW
  48:Generated_Source\PSoC6\pdl\drivers/peripheral/gpio/cy_gpio.h **** *    control digital pin only) at Power-On-Reset(POR).
  49:Generated_Source\PSoC6\pdl\drivers/peripheral/gpio/cy_gpio.h **** * 3. Some API functions perform read-modify-write operations on shared port
  50:Generated_Source\PSoC6\pdl\drivers/peripheral/gpio/cy_gpio.h **** *    registers. These functions are not thread safe and care must be taken when
  51:Generated_Source\PSoC6\pdl\drivers/peripheral/gpio/cy_gpio.h **** *    called by the application.
  52:Generated_Source\PSoC6\pdl\drivers/peripheral/gpio/cy_gpio.h **** *
  53:Generated_Source\PSoC6\pdl\drivers/peripheral/gpio/cy_gpio.h **** * Multiple pins on a port can be updated using direct port register writes with an
  54:Generated_Source\PSoC6\pdl\drivers/peripheral/gpio/cy_gpio.h **** * appropriate port mask. An example is shown below, highlighting the different ways of 
  55:Generated_Source\PSoC6\pdl\drivers/peripheral/gpio/cy_gpio.h **** * configuring Port 1 pins using,
  56:Generated_Source\PSoC6\pdl\drivers/peripheral/gpio/cy_gpio.h **** * 
  57:Generated_Source\PSoC6\pdl\drivers/peripheral/gpio/cy_gpio.h **** * - Port output data register
  58:Generated_Source\PSoC6\pdl\drivers/peripheral/gpio/cy_gpio.h **** * - Port output data set register
ARM GAS  C:\Users\rober\AppData\Local\Temp\ccBlBMtt.s 			page 5


  59:Generated_Source\PSoC6\pdl\drivers/peripheral/gpio/cy_gpio.h **** * - Port output data clear register
  60:Generated_Source\PSoC6\pdl\drivers/peripheral/gpio/cy_gpio.h **** *
  61:Generated_Source\PSoC6\pdl\drivers/peripheral/gpio/cy_gpio.h **** * \snippet gpio/gpio_v1_10_sut_01.cydsn/main_cm4.c Cy_GPIO_Snippet
  62:Generated_Source\PSoC6\pdl\drivers/peripheral/gpio/cy_gpio.h **** *
  63:Generated_Source\PSoC6\pdl\drivers/peripheral/gpio/cy_gpio.h **** * \section group_gpio_more_information More Information
  64:Generated_Source\PSoC6\pdl\drivers/peripheral/gpio/cy_gpio.h **** *
  65:Generated_Source\PSoC6\pdl\drivers/peripheral/gpio/cy_gpio.h **** * Refer to the technical reference manual (TRM) and the device datasheet.
  66:Generated_Source\PSoC6\pdl\drivers/peripheral/gpio/cy_gpio.h **** *
  67:Generated_Source\PSoC6\pdl\drivers/peripheral/gpio/cy_gpio.h **** * \section group_gpio_MISRA MISRA-C Compliance]
  68:Generated_Source\PSoC6\pdl\drivers/peripheral/gpio/cy_gpio.h **** * <table class="doxtable">
  69:Generated_Source\PSoC6\pdl\drivers/peripheral/gpio/cy_gpio.h **** *   <tr>
  70:Generated_Source\PSoC6\pdl\drivers/peripheral/gpio/cy_gpio.h **** *     <th>MISRA Rule</th>
  71:Generated_Source\PSoC6\pdl\drivers/peripheral/gpio/cy_gpio.h **** *     <th>Rule Class (Required/Advisory)</th>
  72:Generated_Source\PSoC6\pdl\drivers/peripheral/gpio/cy_gpio.h **** *     <th>Rule Description</th>
  73:Generated_Source\PSoC6\pdl\drivers/peripheral/gpio/cy_gpio.h **** *     <th>Description of Deviation(s)</th>
  74:Generated_Source\PSoC6\pdl\drivers/peripheral/gpio/cy_gpio.h **** *   </tr>
  75:Generated_Source\PSoC6\pdl\drivers/peripheral/gpio/cy_gpio.h **** *   <tr>
  76:Generated_Source\PSoC6\pdl\drivers/peripheral/gpio/cy_gpio.h **** *     <td>16.7</td>
  77:Generated_Source\PSoC6\pdl\drivers/peripheral/gpio/cy_gpio.h **** *     <td>A</td>
  78:Generated_Source\PSoC6\pdl\drivers/peripheral/gpio/cy_gpio.h **** *     <td>A pointer parameter in a function prototype should be declared as pointer 
  79:Generated_Source\PSoC6\pdl\drivers/peripheral/gpio/cy_gpio.h **** *         to const if the pointer is not used to modify the addressed object.</td>
  80:Generated_Source\PSoC6\pdl\drivers/peripheral/gpio/cy_gpio.h **** *     <td>The objects pointed to by the base addresses of the GPIO port are not always modified.
  81:Generated_Source\PSoC6\pdl\drivers/peripheral/gpio/cy_gpio.h **** *         While a const qualifier can be used in select scenarios, it brings little benefit
  82:Generated_Source\PSoC6\pdl\drivers/peripheral/gpio/cy_gpio.h **** *         in adding this to the affected functions. </td>
  83:Generated_Source\PSoC6\pdl\drivers/peripheral/gpio/cy_gpio.h **** *   </tr>
  84:Generated_Source\PSoC6\pdl\drivers/peripheral/gpio/cy_gpio.h **** * </table>
  85:Generated_Source\PSoC6\pdl\drivers/peripheral/gpio/cy_gpio.h **** *
  86:Generated_Source\PSoC6\pdl\drivers/peripheral/gpio/cy_gpio.h **** * \section group_gpio_changelog Changelog
  87:Generated_Source\PSoC6\pdl\drivers/peripheral/gpio/cy_gpio.h **** * <table class="doxtable">
  88:Generated_Source\PSoC6\pdl\drivers/peripheral/gpio/cy_gpio.h **** *   <tr><th>Version</th><th>Changes</th><th>Reason for Change</th></tr>
  89:Generated_Source\PSoC6\pdl\drivers/peripheral/gpio/cy_gpio.h **** *   <tr>
  90:Generated_Source\PSoC6\pdl\drivers/peripheral/gpio/cy_gpio.h **** *     <td>1.10.1</td>
  91:Generated_Source\PSoC6\pdl\drivers/peripheral/gpio/cy_gpio.h **** *     <td>Updated description for the functions: \ref Cy_GPIO_GetInterruptStatus, 
  92:Generated_Source\PSoC6\pdl\drivers/peripheral/gpio/cy_gpio.h **** *         \ref Cy_GPIO_GetInterruptMask, \ref Cy_GPIO_GetInterruptStatusMasked.
  93:Generated_Source\PSoC6\pdl\drivers/peripheral/gpio/cy_gpio.h **** *         Minor documentation edits.
  94:Generated_Source\PSoC6\pdl\drivers/peripheral/gpio/cy_gpio.h **** *     </td>
  95:Generated_Source\PSoC6\pdl\drivers/peripheral/gpio/cy_gpio.h **** *     <td>Documentation update and clarification</td>
  96:Generated_Source\PSoC6\pdl\drivers/peripheral/gpio/cy_gpio.h **** *   </tr>
  97:Generated_Source\PSoC6\pdl\drivers/peripheral/gpio/cy_gpio.h **** *   <tr>
  98:Generated_Source\PSoC6\pdl\drivers/peripheral/gpio/cy_gpio.h **** *     <td>1.10</td>
  99:Generated_Source\PSoC6\pdl\drivers/peripheral/gpio/cy_gpio.h **** *     <td>Added input parameter validation to the API functions</td>
 100:Generated_Source\PSoC6\pdl\drivers/peripheral/gpio/cy_gpio.h **** *     <td></td>
 101:Generated_Source\PSoC6\pdl\drivers/peripheral/gpio/cy_gpio.h **** *   </tr>
 102:Generated_Source\PSoC6\pdl\drivers/peripheral/gpio/cy_gpio.h **** *   <tr>
 103:Generated_Source\PSoC6\pdl\drivers/peripheral/gpio/cy_gpio.h **** *     <td>1.0</td>
 104:Generated_Source\PSoC6\pdl\drivers/peripheral/gpio/cy_gpio.h **** *     <td>Initial version</td>
 105:Generated_Source\PSoC6\pdl\drivers/peripheral/gpio/cy_gpio.h **** *     <td></td>
 106:Generated_Source\PSoC6\pdl\drivers/peripheral/gpio/cy_gpio.h **** *   </tr>
 107:Generated_Source\PSoC6\pdl\drivers/peripheral/gpio/cy_gpio.h **** * </table>
 108:Generated_Source\PSoC6\pdl\drivers/peripheral/gpio/cy_gpio.h **** *
 109:Generated_Source\PSoC6\pdl\drivers/peripheral/gpio/cy_gpio.h **** * \defgroup group_gpio_macros Macros
 110:Generated_Source\PSoC6\pdl\drivers/peripheral/gpio/cy_gpio.h **** * \defgroup group_gpio_functions Functions
 111:Generated_Source\PSoC6\pdl\drivers/peripheral/gpio/cy_gpio.h **** * \{
 112:Generated_Source\PSoC6\pdl\drivers/peripheral/gpio/cy_gpio.h **** *   \defgroup group_gpio_functions_init       Initialization Functions
 113:Generated_Source\PSoC6\pdl\drivers/peripheral/gpio/cy_gpio.h **** *   \defgroup group_gpio_functions_gpio       GPIO Functions
 114:Generated_Source\PSoC6\pdl\drivers/peripheral/gpio/cy_gpio.h **** *   \defgroup group_gpio_functions_sio        SIO Functions
 115:Generated_Source\PSoC6\pdl\drivers/peripheral/gpio/cy_gpio.h **** *   \defgroup group_gpio_functions_interrupt  Port Interrupt Functions
ARM GAS  C:\Users\rober\AppData\Local\Temp\ccBlBMtt.s 			page 6


 116:Generated_Source\PSoC6\pdl\drivers/peripheral/gpio/cy_gpio.h **** * \}
 117:Generated_Source\PSoC6\pdl\drivers/peripheral/gpio/cy_gpio.h **** * \defgroup group_gpio_data_structures Data Structures
 118:Generated_Source\PSoC6\pdl\drivers/peripheral/gpio/cy_gpio.h **** * \defgroup group_gpio_enums Enumerated Types
 119:Generated_Source\PSoC6\pdl\drivers/peripheral/gpio/cy_gpio.h **** */
 120:Generated_Source\PSoC6\pdl\drivers/peripheral/gpio/cy_gpio.h **** 
 121:Generated_Source\PSoC6\pdl\drivers/peripheral/gpio/cy_gpio.h **** #if !defined(CY_GPIO_H)
 122:Generated_Source\PSoC6\pdl\drivers/peripheral/gpio/cy_gpio.h **** #define CY_GPIO_H
 123:Generated_Source\PSoC6\pdl\drivers/peripheral/gpio/cy_gpio.h **** 
 124:Generated_Source\PSoC6\pdl\drivers/peripheral/gpio/cy_gpio.h **** #include <stddef.h>
 125:Generated_Source\PSoC6\pdl\drivers/peripheral/gpio/cy_gpio.h **** #include "syslib/cy_syslib.h"
 126:Generated_Source\PSoC6\pdl\drivers/peripheral/gpio/cy_gpio.h **** #include "cy_device_headers.h"
 127:Generated_Source\PSoC6\pdl\drivers/peripheral/gpio/cy_gpio.h **** 
 128:Generated_Source\PSoC6\pdl\drivers/peripheral/gpio/cy_gpio.h **** #if defined(__cplusplus)
 129:Generated_Source\PSoC6\pdl\drivers/peripheral/gpio/cy_gpio.h **** extern "C" {
 130:Generated_Source\PSoC6\pdl\drivers/peripheral/gpio/cy_gpio.h **** #endif
 131:Generated_Source\PSoC6\pdl\drivers/peripheral/gpio/cy_gpio.h **** 
 132:Generated_Source\PSoC6\pdl\drivers/peripheral/gpio/cy_gpio.h **** /** \addtogroup group_gpio_macros
 133:Generated_Source\PSoC6\pdl\drivers/peripheral/gpio/cy_gpio.h **** * \{
 134:Generated_Source\PSoC6\pdl\drivers/peripheral/gpio/cy_gpio.h **** */
 135:Generated_Source\PSoC6\pdl\drivers/peripheral/gpio/cy_gpio.h **** 
 136:Generated_Source\PSoC6\pdl\drivers/peripheral/gpio/cy_gpio.h **** /** Driver major version */
 137:Generated_Source\PSoC6\pdl\drivers/peripheral/gpio/cy_gpio.h **** #define CY_GPIO_DRV_VERSION_MAJOR       1
 138:Generated_Source\PSoC6\pdl\drivers/peripheral/gpio/cy_gpio.h **** 
 139:Generated_Source\PSoC6\pdl\drivers/peripheral/gpio/cy_gpio.h **** /** Driver minor version */
 140:Generated_Source\PSoC6\pdl\drivers/peripheral/gpio/cy_gpio.h **** #define CY_GPIO_DRV_VERSION_MINOR       10
 141:Generated_Source\PSoC6\pdl\drivers/peripheral/gpio/cy_gpio.h **** 
 142:Generated_Source\PSoC6\pdl\drivers/peripheral/gpio/cy_gpio.h **** /** GPIO driver ID */
 143:Generated_Source\PSoC6\pdl\drivers/peripheral/gpio/cy_gpio.h **** #define CY_GPIO_ID CY_PDL_DRV_ID(0x16u)
 144:Generated_Source\PSoC6\pdl\drivers/peripheral/gpio/cy_gpio.h **** 
 145:Generated_Source\PSoC6\pdl\drivers/peripheral/gpio/cy_gpio.h **** /** \} group_gpio_macros */
 146:Generated_Source\PSoC6\pdl\drivers/peripheral/gpio/cy_gpio.h **** 
 147:Generated_Source\PSoC6\pdl\drivers/peripheral/gpio/cy_gpio.h **** 
 148:Generated_Source\PSoC6\pdl\drivers/peripheral/gpio/cy_gpio.h **** /***************************************
 149:Generated_Source\PSoC6\pdl\drivers/peripheral/gpio/cy_gpio.h **** *       Enumerations
 150:Generated_Source\PSoC6\pdl\drivers/peripheral/gpio/cy_gpio.h **** ***************************************/
 151:Generated_Source\PSoC6\pdl\drivers/peripheral/gpio/cy_gpio.h **** /**
 152:Generated_Source\PSoC6\pdl\drivers/peripheral/gpio/cy_gpio.h **** * \addtogroup group_gpio_enums
 153:Generated_Source\PSoC6\pdl\drivers/peripheral/gpio/cy_gpio.h **** * \{
 154:Generated_Source\PSoC6\pdl\drivers/peripheral/gpio/cy_gpio.h **** */
 155:Generated_Source\PSoC6\pdl\drivers/peripheral/gpio/cy_gpio.h **** 
 156:Generated_Source\PSoC6\pdl\drivers/peripheral/gpio/cy_gpio.h **** /**
 157:Generated_Source\PSoC6\pdl\drivers/peripheral/gpio/cy_gpio.h **** * GPIO Driver error codes
 158:Generated_Source\PSoC6\pdl\drivers/peripheral/gpio/cy_gpio.h **** */
 159:Generated_Source\PSoC6\pdl\drivers/peripheral/gpio/cy_gpio.h **** typedef enum 
 160:Generated_Source\PSoC6\pdl\drivers/peripheral/gpio/cy_gpio.h **** {
 161:Generated_Source\PSoC6\pdl\drivers/peripheral/gpio/cy_gpio.h ****     CY_GPIO_SUCCESS   = 0x00u,                                    /**< Returned successful */
 162:Generated_Source\PSoC6\pdl\drivers/peripheral/gpio/cy_gpio.h ****     CY_GPIO_BAD_PARAM = CY_GPIO_ID | CY_PDL_STATUS_ERROR | 0x01u, /**< Bad parameter was passed */
 163:Generated_Source\PSoC6\pdl\drivers/peripheral/gpio/cy_gpio.h **** } cy_en_gpio_status_t;
 164:Generated_Source\PSoC6\pdl\drivers/peripheral/gpio/cy_gpio.h **** 
 165:Generated_Source\PSoC6\pdl\drivers/peripheral/gpio/cy_gpio.h **** /** \} group_gpio_enums */
 166:Generated_Source\PSoC6\pdl\drivers/peripheral/gpio/cy_gpio.h **** 
 167:Generated_Source\PSoC6\pdl\drivers/peripheral/gpio/cy_gpio.h **** 
 168:Generated_Source\PSoC6\pdl\drivers/peripheral/gpio/cy_gpio.h **** /***************************************
 169:Generated_Source\PSoC6\pdl\drivers/peripheral/gpio/cy_gpio.h **** *       Configuration Structures
 170:Generated_Source\PSoC6\pdl\drivers/peripheral/gpio/cy_gpio.h **** ***************************************/
 171:Generated_Source\PSoC6\pdl\drivers/peripheral/gpio/cy_gpio.h **** 
 172:Generated_Source\PSoC6\pdl\drivers/peripheral/gpio/cy_gpio.h **** /**
ARM GAS  C:\Users\rober\AppData\Local\Temp\ccBlBMtt.s 			page 7


 173:Generated_Source\PSoC6\pdl\drivers/peripheral/gpio/cy_gpio.h **** * \addtogroup group_gpio_data_structures
 174:Generated_Source\PSoC6\pdl\drivers/peripheral/gpio/cy_gpio.h **** * \{
 175:Generated_Source\PSoC6\pdl\drivers/peripheral/gpio/cy_gpio.h **** */
 176:Generated_Source\PSoC6\pdl\drivers/peripheral/gpio/cy_gpio.h **** 
 177:Generated_Source\PSoC6\pdl\drivers/peripheral/gpio/cy_gpio.h **** /** This structure is used to initialize a port of GPIO pins */
 178:Generated_Source\PSoC6\pdl\drivers/peripheral/gpio/cy_gpio.h **** typedef struct {
 179:Generated_Source\PSoC6\pdl\drivers/peripheral/gpio/cy_gpio.h ****     uint32_t out;           /**< Initial output data for the IO pins in the port */
 180:Generated_Source\PSoC6\pdl\drivers/peripheral/gpio/cy_gpio.h ****     uint32_t intrMask;      /**< Interrupt enable mask for the port interrupt */
 181:Generated_Source\PSoC6\pdl\drivers/peripheral/gpio/cy_gpio.h ****     uint32_t intrCfg;       /**< Port pin interrupt edge detection configuration */
 182:Generated_Source\PSoC6\pdl\drivers/peripheral/gpio/cy_gpio.h ****     uint32_t cfg;           /**< Port pin drive modes and input buffer enable configuration */
 183:Generated_Source\PSoC6\pdl\drivers/peripheral/gpio/cy_gpio.h ****     uint32_t cfgIn;         /**< Port pin input buffer configuration */
 184:Generated_Source\PSoC6\pdl\drivers/peripheral/gpio/cy_gpio.h ****     uint32_t cfgOut;        /**< Port pin output buffer configuration */
 185:Generated_Source\PSoC6\pdl\drivers/peripheral/gpio/cy_gpio.h ****     uint32_t cfgSIO;        /**< Port SIO pins configuration */
 186:Generated_Source\PSoC6\pdl\drivers/peripheral/gpio/cy_gpio.h ****     uint32_t sel0Active;    /**< HSIOM selection for port pins 0,1,2,3 */
 187:Generated_Source\PSoC6\pdl\drivers/peripheral/gpio/cy_gpio.h ****     uint32_t sel1Active;    /**< HSIOM selection for port pins 4,5,6,7 */
 188:Generated_Source\PSoC6\pdl\drivers/peripheral/gpio/cy_gpio.h **** } cy_stc_gpio_prt_config_t;
 189:Generated_Source\PSoC6\pdl\drivers/peripheral/gpio/cy_gpio.h **** 
 190:Generated_Source\PSoC6\pdl\drivers/peripheral/gpio/cy_gpio.h **** /** This structure is used to initialize a single GPIO pin */
 191:Generated_Source\PSoC6\pdl\drivers/peripheral/gpio/cy_gpio.h **** typedef struct {
 192:Generated_Source\PSoC6\pdl\drivers/peripheral/gpio/cy_gpio.h ****     uint32_t outVal;         /**< Pin output state */
 193:Generated_Source\PSoC6\pdl\drivers/peripheral/gpio/cy_gpio.h ****     uint32_t driveMode;      /**< Drive mode */
 194:Generated_Source\PSoC6\pdl\drivers/peripheral/gpio/cy_gpio.h ****     en_hsiom_sel_t hsiom;   /**< HSIOM selection */
 195:Generated_Source\PSoC6\pdl\drivers/peripheral/gpio/cy_gpio.h ****     uint32_t intEdge;        /**< Interrupt Edge type */
 196:Generated_Source\PSoC6\pdl\drivers/peripheral/gpio/cy_gpio.h ****     uint32_t intMask;        /**< Interrupt enable mask */
 197:Generated_Source\PSoC6\pdl\drivers/peripheral/gpio/cy_gpio.h ****     uint32_t vtrip;          /**< Input buffer voltage trip type */
 198:Generated_Source\PSoC6\pdl\drivers/peripheral/gpio/cy_gpio.h ****     uint32_t slewRate;       /**< Output buffer slew rate */
 199:Generated_Source\PSoC6\pdl\drivers/peripheral/gpio/cy_gpio.h ****     uint32_t driveSel;       /**< Drive strength */
 200:Generated_Source\PSoC6\pdl\drivers/peripheral/gpio/cy_gpio.h ****     uint32_t vregEn;         /**< SIO pair output buffer mode */
 201:Generated_Source\PSoC6\pdl\drivers/peripheral/gpio/cy_gpio.h ****     uint32_t ibufMode;       /**< SIO pair input buffer mode */
 202:Generated_Source\PSoC6\pdl\drivers/peripheral/gpio/cy_gpio.h ****     uint32_t vtripSel;       /**< SIO pair input buffer trip point */
 203:Generated_Source\PSoC6\pdl\drivers/peripheral/gpio/cy_gpio.h ****     uint32_t vrefSel;        /**< SIO pair reference voltage for input buffer trip point */
 204:Generated_Source\PSoC6\pdl\drivers/peripheral/gpio/cy_gpio.h ****     uint32_t vohSel;         /**< SIO pair regulated voltage output level */
 205:Generated_Source\PSoC6\pdl\drivers/peripheral/gpio/cy_gpio.h **** } cy_stc_gpio_pin_config_t;
 206:Generated_Source\PSoC6\pdl\drivers/peripheral/gpio/cy_gpio.h **** 
 207:Generated_Source\PSoC6\pdl\drivers/peripheral/gpio/cy_gpio.h **** /** \} group_gpio_data_structures */
 208:Generated_Source\PSoC6\pdl\drivers/peripheral/gpio/cy_gpio.h **** 
 209:Generated_Source\PSoC6\pdl\drivers/peripheral/gpio/cy_gpio.h **** /***************************************
 210:Generated_Source\PSoC6\pdl\drivers/peripheral/gpio/cy_gpio.h **** *        Constants
 211:Generated_Source\PSoC6\pdl\drivers/peripheral/gpio/cy_gpio.h **** ***************************************/
 212:Generated_Source\PSoC6\pdl\drivers/peripheral/gpio/cy_gpio.h **** 
 213:Generated_Source\PSoC6\pdl\drivers/peripheral/gpio/cy_gpio.h **** /** \cond INTERNAL */
 214:Generated_Source\PSoC6\pdl\drivers/peripheral/gpio/cy_gpio.h **** 
 215:Generated_Source\PSoC6\pdl\drivers/peripheral/gpio/cy_gpio.h **** /* General Constants */
 216:Generated_Source\PSoC6\pdl\drivers/peripheral/gpio/cy_gpio.h **** #define CY_GPIO_PRT_HALF                       (4UL)      /**< Half-way point of a GPIO port */
 217:Generated_Source\PSoC6\pdl\drivers/peripheral/gpio/cy_gpio.h **** #define CY_GPIO_PRT_DEINIT                     (0UL)      /**< De-init value for port registers */
 218:Generated_Source\PSoC6\pdl\drivers/peripheral/gpio/cy_gpio.h **** 
 219:Generated_Source\PSoC6\pdl\drivers/peripheral/gpio/cy_gpio.h **** /* GPIO Masks */
 220:Generated_Source\PSoC6\pdl\drivers/peripheral/gpio/cy_gpio.h **** #define CY_GPIO_HSIOM_MASK                     (0x1FUL)   /**< HSIOM selection mask */
 221:Generated_Source\PSoC6\pdl\drivers/peripheral/gpio/cy_gpio.h **** #define CY_GPIO_OUT_MASK                       (0x01UL)   /**< Single pin mask for OUT register */
 222:Generated_Source\PSoC6\pdl\drivers/peripheral/gpio/cy_gpio.h **** #define CY_GPIO_IN_MASK                        (0x01UL)   /**< Single pin mask for IN register */
 223:Generated_Source\PSoC6\pdl\drivers/peripheral/gpio/cy_gpio.h **** #define CY_GPIO_CFG_DM_MASK                    (0x0FUL)   /**< Single pin mask for drive mode in CF
 224:Generated_Source\PSoC6\pdl\drivers/peripheral/gpio/cy_gpio.h **** #define CY_GPIO_CFG_IN_VTRIP_SEL_MASK          (0x01UL)   /**< Single pin mask for VTRIP selection 
 225:Generated_Source\PSoC6\pdl\drivers/peripheral/gpio/cy_gpio.h **** #define CY_GPIO_CFG_OUT_SLOW_MASK              (0x01UL)   /**< Single pin mask for slew rate in CFG
 226:Generated_Source\PSoC6\pdl\drivers/peripheral/gpio/cy_gpio.h **** #define CY_GPIO_CFG_OUT_DRIVE_SEL_MASK         (0x03UL)   /**< Single pin mask for drive strength i
 227:Generated_Source\PSoC6\pdl\drivers/peripheral/gpio/cy_gpio.h **** #define CY_GPIO_INTR_STATUS_MASK               (0x01UL)   /**< Single pin mask for interrupt status
 228:Generated_Source\PSoC6\pdl\drivers/peripheral/gpio/cy_gpio.h **** #define CY_GPIO_INTR_EN_MASK                   (0x01UL)   /**< Single pin mask for interrupt status
 229:Generated_Source\PSoC6\pdl\drivers/peripheral/gpio/cy_gpio.h **** #define CY_GPIO_INTR_MASKED_MASK               (0x01UL)   /**< Single pin mask for masked interrupt
ARM GAS  C:\Users\rober\AppData\Local\Temp\ccBlBMtt.s 			page 8


 230:Generated_Source\PSoC6\pdl\drivers/peripheral/gpio/cy_gpio.h **** #define CY_GPIO_INTR_SET_MASK                  (0x01UL)   /**< Single pin mask for setting the inte
 231:Generated_Source\PSoC6\pdl\drivers/peripheral/gpio/cy_gpio.h **** #define CY_GPIO_INTR_EDGE_MASK                 (0x03UL)   /**< Single pin mask for interrupt edge t
 232:Generated_Source\PSoC6\pdl\drivers/peripheral/gpio/cy_gpio.h **** #define CY_GPIO_INTR_FLT_EDGE_MASK             (0x07UL)   /**< Single pin mask for setting filtered
 233:Generated_Source\PSoC6\pdl\drivers/peripheral/gpio/cy_gpio.h **** 
 234:Generated_Source\PSoC6\pdl\drivers/peripheral/gpio/cy_gpio.h **** /* SIO Masks */
 235:Generated_Source\PSoC6\pdl\drivers/peripheral/gpio/cy_gpio.h **** #define CY_GPIO_VREG_EN_MASK                   (0x01UL)   /**< Single SIO pin mask for voltage regu
 236:Generated_Source\PSoC6\pdl\drivers/peripheral/gpio/cy_gpio.h **** #define CY_GPIO_IBUF_MASK                      (0x01UL)   /**< Single SIO pin mask for input buffer
 237:Generated_Source\PSoC6\pdl\drivers/peripheral/gpio/cy_gpio.h **** #define CY_GPIO_IBUF_SHIFT                     (0x01UL)   /**< Single SIO pin shift for input buffe
 238:Generated_Source\PSoC6\pdl\drivers/peripheral/gpio/cy_gpio.h **** #define CY_GPIO_VTRIP_SEL_MASK                 (0x01UL)   /**< Single SIO pin mask for the input bu
 239:Generated_Source\PSoC6\pdl\drivers/peripheral/gpio/cy_gpio.h **** #define CY_GPIO_VTRIP_SEL_SHIFT                (0x02UL)   /**< Single SIO pin shift for the input b
 240:Generated_Source\PSoC6\pdl\drivers/peripheral/gpio/cy_gpio.h **** #define CY_GPIO_VREF_SEL_MASK                  (0x03UL)   /**< Single SIO pin mask for voltage refe
 241:Generated_Source\PSoC6\pdl\drivers/peripheral/gpio/cy_gpio.h **** #define CY_GPIO_VREF_SEL_SHIFT                 (0x03UL)   /**< Single SIO pin shift for voltage ref
 242:Generated_Source\PSoC6\pdl\drivers/peripheral/gpio/cy_gpio.h **** #define CY_GPIO_VOH_SEL_MASK                   (0x07UL)   /**< Single SIO pin mask for VOH */
 243:Generated_Source\PSoC6\pdl\drivers/peripheral/gpio/cy_gpio.h **** #define CY_GPIO_VOH_SEL_SHIFT                  (0x05UL)   /**< Single SIO pin shift for VOH */
 244:Generated_Source\PSoC6\pdl\drivers/peripheral/gpio/cy_gpio.h **** 
 245:Generated_Source\PSoC6\pdl\drivers/peripheral/gpio/cy_gpio.h **** /* Special mask for SIO pin pair setting */
 246:Generated_Source\PSoC6\pdl\drivers/peripheral/gpio/cy_gpio.h **** #define CY_GPIO_SIO_ODD_PIN_MASK               (0x00FEUL) /**< SIO pin pair selection mask */
 247:Generated_Source\PSoC6\pdl\drivers/peripheral/gpio/cy_gpio.h **** #define CY_GPIO_SIO_PIN_MASK                   (0x00FFUL) /**< SIO pin pair mask */
 248:Generated_Source\PSoC6\pdl\drivers/peripheral/gpio/cy_gpio.h **** 
 249:Generated_Source\PSoC6\pdl\drivers/peripheral/gpio/cy_gpio.h **** /* Offsets */
 250:Generated_Source\PSoC6\pdl\drivers/peripheral/gpio/cy_gpio.h **** #define CY_GPIO_HSIOM_OFFSET                   (3UL)      /**< Offset for HSIOM */
 251:Generated_Source\PSoC6\pdl\drivers/peripheral/gpio/cy_gpio.h **** #define CY_GPIO_DRIVE_MODE_OFFSET              (2UL)      /**< Offset for Drive mode */
 252:Generated_Source\PSoC6\pdl\drivers/peripheral/gpio/cy_gpio.h **** #define CY_GPIO_INBUF_OFFSET                   (3UL)      /**< Offset for input buffer */
 253:Generated_Source\PSoC6\pdl\drivers/peripheral/gpio/cy_gpio.h **** #define CY_GPIO_CFG_OUT_DRIVE_OFFSET           (16UL)     /**< Offset for drive strength */
 254:Generated_Source\PSoC6\pdl\drivers/peripheral/gpio/cy_gpio.h **** #define CY_GPIO_INTR_CFG_OFFSET                (1UL)      /**< Offset for interrupt config */
 255:Generated_Source\PSoC6\pdl\drivers/peripheral/gpio/cy_gpio.h **** #define CY_GPIO_INTR_FILT_OFFSET               (18UL)     /**< Offset for filtered interrupt config
 256:Generated_Source\PSoC6\pdl\drivers/peripheral/gpio/cy_gpio.h **** #define CY_GPIO_CFG_SIO_OFFSET                 (2UL)      /**< Offset for SIO config */
 257:Generated_Source\PSoC6\pdl\drivers/peripheral/gpio/cy_gpio.h **** 
 258:Generated_Source\PSoC6\pdl\drivers/peripheral/gpio/cy_gpio.h **** /* Parameter validation constants */
 259:Generated_Source\PSoC6\pdl\drivers/peripheral/gpio/cy_gpio.h **** #define CY_GPIO_PINS_MAX                       (8UL)      /**< Number of pins in the port */
 260:Generated_Source\PSoC6\pdl\drivers/peripheral/gpio/cy_gpio.h **** #define CY_GPIO_PRT_PINS_MASK                  (0x0000000FFUL)
 261:Generated_Source\PSoC6\pdl\drivers/peripheral/gpio/cy_gpio.h **** #define CY_GPIO_PRT_INTR_CFG_EDGE_SEL_MASK     (GPIO_PRT_INTR_CFG_EDGE0_SEL_Msk | \
 262:Generated_Source\PSoC6\pdl\drivers/peripheral/gpio/cy_gpio.h ****                                                 GPIO_PRT_INTR_CFG_EDGE1_SEL_Msk | \
 263:Generated_Source\PSoC6\pdl\drivers/peripheral/gpio/cy_gpio.h ****                                                 GPIO_PRT_INTR_CFG_EDGE2_SEL_Msk | \
 264:Generated_Source\PSoC6\pdl\drivers/peripheral/gpio/cy_gpio.h ****                                                 GPIO_PRT_INTR_CFG_EDGE3_SEL_Msk | \
 265:Generated_Source\PSoC6\pdl\drivers/peripheral/gpio/cy_gpio.h ****                                                 GPIO_PRT_INTR_CFG_EDGE4_SEL_Msk | \
 266:Generated_Source\PSoC6\pdl\drivers/peripheral/gpio/cy_gpio.h ****                                                 GPIO_PRT_INTR_CFG_EDGE5_SEL_Msk | \
 267:Generated_Source\PSoC6\pdl\drivers/peripheral/gpio/cy_gpio.h ****                                                 GPIO_PRT_INTR_CFG_EDGE6_SEL_Msk | \
 268:Generated_Source\PSoC6\pdl\drivers/peripheral/gpio/cy_gpio.h ****                                                 GPIO_PRT_INTR_CFG_EDGE7_SEL_Msk)            
 269:Generated_Source\PSoC6\pdl\drivers/peripheral/gpio/cy_gpio.h **** #define CY_GPIO_PRT_INTR_CFG_RANGE_MASK        (CY_GPIO_PRT_INTR_CFG_EDGE_SEL_MASK | \
 270:Generated_Source\PSoC6\pdl\drivers/peripheral/gpio/cy_gpio.h ****                                                 GPIO_PRT_INTR_CFG_FLT_EDGE_SEL_Msk | \
 271:Generated_Source\PSoC6\pdl\drivers/peripheral/gpio/cy_gpio.h ****                                                 GPIO_PRT_INTR_CFG_FLT_SEL_Msk)
 272:Generated_Source\PSoC6\pdl\drivers/peripheral/gpio/cy_gpio.h **** #define CY_GPIO_PRT_INT_MASK_MASK              (0x0000001FFUL)
 273:Generated_Source\PSoC6\pdl\drivers/peripheral/gpio/cy_gpio.h **** #define CY_GPIO_PRT_SEL_ACTIVE_MASK            (0x1FFFFFFFUL)
 274:Generated_Source\PSoC6\pdl\drivers/peripheral/gpio/cy_gpio.h **** 
 275:Generated_Source\PSoC6\pdl\drivers/peripheral/gpio/cy_gpio.h **** /* Parameter validation macros */
 276:Generated_Source\PSoC6\pdl\drivers/peripheral/gpio/cy_gpio.h **** #define CY_GPIO_IS_PIN_VALID(pinNum)           (CY_GPIO_PINS_MAX > (pinNum))
 277:Generated_Source\PSoC6\pdl\drivers/peripheral/gpio/cy_gpio.h **** #define CY_GPIO_IS_FILTER_PIN_VALID(pinNum)    (CY_GPIO_PINS_MAX >= (pinNum))
 278:Generated_Source\PSoC6\pdl\drivers/peripheral/gpio/cy_gpio.h **** #define CY_GPIO_IS_VALUE_VALID(outVal)         (1UL >= (outVal))
 279:Generated_Source\PSoC6\pdl\drivers/peripheral/gpio/cy_gpio.h **** #define CY_GPIO_IS_DM_VALID(driveMode)         (0U == ((driveMode) & (uint32_t)~CY_GPIO_CFG_DM_MASK
 280:Generated_Source\PSoC6\pdl\drivers/peripheral/gpio/cy_gpio.h **** 
 281:Generated_Source\PSoC6\pdl\drivers/peripheral/gpio/cy_gpio.h **** #define CY_GPIO_IS_HSIOM_VALID(hsiom)          (0U == ((hsiom) & (uint32_t)~CY_GPIO_HSIOM_MASK))
 282:Generated_Source\PSoC6\pdl\drivers/peripheral/gpio/cy_gpio.h **** 
 283:Generated_Source\PSoC6\pdl\drivers/peripheral/gpio/cy_gpio.h **** #define CY_GPIO_IS_INT_EDGE_VALID(intEdge)     ((CY_GPIO_INTR_DISABLE  == (intEdge)) || \
 284:Generated_Source\PSoC6\pdl\drivers/peripheral/gpio/cy_gpio.h ****                                                 (CY_GPIO_INTR_RISING   == (intEdge)) || \
 285:Generated_Source\PSoC6\pdl\drivers/peripheral/gpio/cy_gpio.h ****                                                 (CY_GPIO_INTR_FALLING  == (intEdge)) || \
 286:Generated_Source\PSoC6\pdl\drivers/peripheral/gpio/cy_gpio.h ****                                                 (CY_GPIO_INTR_BOTH     == (intEdge)))
ARM GAS  C:\Users\rober\AppData\Local\Temp\ccBlBMtt.s 			page 9


 287:Generated_Source\PSoC6\pdl\drivers/peripheral/gpio/cy_gpio.h **** 
 288:Generated_Source\PSoC6\pdl\drivers/peripheral/gpio/cy_gpio.h **** #define CY_GPIO_IS_DRIVE_SEL_VALID(driveSel)   ((CY_GPIO_DRIVE_FULL    == (driveSel)) || \
 289:Generated_Source\PSoC6\pdl\drivers/peripheral/gpio/cy_gpio.h ****                                                 (CY_GPIO_DRIVE_1_2     == (driveSel)) || \
 290:Generated_Source\PSoC6\pdl\drivers/peripheral/gpio/cy_gpio.h ****                                                 (CY_GPIO_DRIVE_1_4     == (driveSel)) || \
 291:Generated_Source\PSoC6\pdl\drivers/peripheral/gpio/cy_gpio.h ****                                                 (CY_GPIO_DRIVE_1_8     == (driveSel)))
 292:Generated_Source\PSoC6\pdl\drivers/peripheral/gpio/cy_gpio.h **** 
 293:Generated_Source\PSoC6\pdl\drivers/peripheral/gpio/cy_gpio.h **** #define CY_GPIO_IS_VREF_SEL_VALID(vrefSel)     ((CY_SIO_VREF_PINREF    == (vrefSel)) || \
 294:Generated_Source\PSoC6\pdl\drivers/peripheral/gpio/cy_gpio.h ****                                                 (CY_SIO_VREF_1_2V      == (vrefSel)) || \
 295:Generated_Source\PSoC6\pdl\drivers/peripheral/gpio/cy_gpio.h ****                                                 (CY_SIO_VREF_AMUX_A    == (vrefSel)) || \
 296:Generated_Source\PSoC6\pdl\drivers/peripheral/gpio/cy_gpio.h ****                                                 (CY_SIO_VREF_AMUX_B    == (vrefSel)))
 297:Generated_Source\PSoC6\pdl\drivers/peripheral/gpio/cy_gpio.h **** 
 298:Generated_Source\PSoC6\pdl\drivers/peripheral/gpio/cy_gpio.h **** #define CY_GPIO_IS_VOH_SEL_VALID(vrefSel)      ((CY_SIO_VOH_1_00       == (vrefSel)) || \
 299:Generated_Source\PSoC6\pdl\drivers/peripheral/gpio/cy_gpio.h ****                                                 (CY_SIO_VOH_1_25       == (vrefSel)) || \
 300:Generated_Source\PSoC6\pdl\drivers/peripheral/gpio/cy_gpio.h ****                                                 (CY_SIO_VOH_1_49       == (vrefSel)) || \
 301:Generated_Source\PSoC6\pdl\drivers/peripheral/gpio/cy_gpio.h ****                                                 (CY_SIO_VOH_1_67       == (vrefSel)) || \
 302:Generated_Source\PSoC6\pdl\drivers/peripheral/gpio/cy_gpio.h ****                                                 (CY_SIO_VOH_2_08       == (vrefSel)) || \
 303:Generated_Source\PSoC6\pdl\drivers/peripheral/gpio/cy_gpio.h ****                                                 (CY_SIO_VOH_2_50       == (vrefSel)) || \
 304:Generated_Source\PSoC6\pdl\drivers/peripheral/gpio/cy_gpio.h ****                                                 (CY_SIO_VOH_2_78       == (vrefSel)) || \
 305:Generated_Source\PSoC6\pdl\drivers/peripheral/gpio/cy_gpio.h ****                                                 (CY_SIO_VOH_4_16       == (vrefSel)))
 306:Generated_Source\PSoC6\pdl\drivers/peripheral/gpio/cy_gpio.h ****                    
 307:Generated_Source\PSoC6\pdl\drivers/peripheral/gpio/cy_gpio.h **** #define CY_GPIO_IS_PIN_BIT_VALID(pinBit)       (0U == ((pinBit) & (uint32_t)~CY_GPIO_PRT_PINS_MASK)
 308:Generated_Source\PSoC6\pdl\drivers/peripheral/gpio/cy_gpio.h **** #define CY_GPIO_IS_INTR_CFG_VALID(intrCfg)     (0U == ((intrCfg) & (uint32_t)~CY_GPIO_PRT_INTR_CFG_
 309:Generated_Source\PSoC6\pdl\drivers/peripheral/gpio/cy_gpio.h **** #define CY_GPIO_IS_INTR_MASK_VALID(intrMask)   (0U == ((intrMask) & (uint32_t)~CY_GPIO_PRT_INT_MASK
 310:Generated_Source\PSoC6\pdl\drivers/peripheral/gpio/cy_gpio.h **** #define CY_GPIO_IS_SEL_ACT_VALID(selActive)    (0U == ((selActive) & (uint32_t)~CY_GPIO_PRT_SEL_ACT
 311:Generated_Source\PSoC6\pdl\drivers/peripheral/gpio/cy_gpio.h **** 
 312:Generated_Source\PSoC6\pdl\drivers/peripheral/gpio/cy_gpio.h **** /** \endcond */
 313:Generated_Source\PSoC6\pdl\drivers/peripheral/gpio/cy_gpio.h **** 
 314:Generated_Source\PSoC6\pdl\drivers/peripheral/gpio/cy_gpio.h **** 
 315:Generated_Source\PSoC6\pdl\drivers/peripheral/gpio/cy_gpio.h **** /***************************************
 316:Generated_Source\PSoC6\pdl\drivers/peripheral/gpio/cy_gpio.h **** *        Function Constants
 317:Generated_Source\PSoC6\pdl\drivers/peripheral/gpio/cy_gpio.h **** ***************************************/
 318:Generated_Source\PSoC6\pdl\drivers/peripheral/gpio/cy_gpio.h **** 
 319:Generated_Source\PSoC6\pdl\drivers/peripheral/gpio/cy_gpio.h **** /**
 320:Generated_Source\PSoC6\pdl\drivers/peripheral/gpio/cy_gpio.h **** * \addtogroup group_gpio_macros
 321:Generated_Source\PSoC6\pdl\drivers/peripheral/gpio/cy_gpio.h **** * \{
 322:Generated_Source\PSoC6\pdl\drivers/peripheral/gpio/cy_gpio.h **** */
 323:Generated_Source\PSoC6\pdl\drivers/peripheral/gpio/cy_gpio.h **** 
 324:Generated_Source\PSoC6\pdl\drivers/peripheral/gpio/cy_gpio.h **** /**
 325:Generated_Source\PSoC6\pdl\drivers/peripheral/gpio/cy_gpio.h **** * \defgroup group_gpio_driveModes Pin drive mode
 326:Generated_Source\PSoC6\pdl\drivers/peripheral/gpio/cy_gpio.h **** * \{
 327:Generated_Source\PSoC6\pdl\drivers/peripheral/gpio/cy_gpio.h **** * Constants to be used for setting the drive mode of the pin.
 328:Generated_Source\PSoC6\pdl\drivers/peripheral/gpio/cy_gpio.h **** */
 329:Generated_Source\PSoC6\pdl\drivers/peripheral/gpio/cy_gpio.h **** #define CY_GPIO_DM_ANALOG                      (0x00UL) /**< \brief Analog High-Z. Input buffer off
 330:Generated_Source\PSoC6\pdl\drivers/peripheral/gpio/cy_gpio.h **** #define CY_GPIO_DM_PULLUP_IN_OFF               (0x02UL) /**< \brief Resistive Pull-Up. Input buffer
 331:Generated_Source\PSoC6\pdl\drivers/peripheral/gpio/cy_gpio.h **** #define CY_GPIO_DM_PULLDOWN_IN_OFF             (0x03UL) /**< \brief Resistive Pull-Down. Input buff
 332:Generated_Source\PSoC6\pdl\drivers/peripheral/gpio/cy_gpio.h **** #define CY_GPIO_DM_OD_DRIVESLOW_IN_OFF         (0x04UL) /**< \brief Open Drain, Drives Low. Input b
 333:Generated_Source\PSoC6\pdl\drivers/peripheral/gpio/cy_gpio.h **** #define CY_GPIO_DM_OD_DRIVESHIGH_IN_OFF        (0x05UL) /**< \brief Open Drain, Drives High. Input 
 334:Generated_Source\PSoC6\pdl\drivers/peripheral/gpio/cy_gpio.h **** #define CY_GPIO_DM_STRONG_IN_OFF               (0x06UL) /**< \brief Strong Drive. Input buffer off 
 335:Generated_Source\PSoC6\pdl\drivers/peripheral/gpio/cy_gpio.h **** #define CY_GPIO_DM_PULLUP_DOWN_IN_OFF          (0x07UL) /**< \brief Resistive Pull-Up/Down. Input b
 336:Generated_Source\PSoC6\pdl\drivers/peripheral/gpio/cy_gpio.h **** #define CY_GPIO_DM_HIGHZ                       (0x08UL) /**< \brief Digital High-Z. Input buffer on
 337:Generated_Source\PSoC6\pdl\drivers/peripheral/gpio/cy_gpio.h **** #define CY_GPIO_DM_PULLUP                      (0x0AUL) /**< \brief Resistive Pull-Up. Input buffer
 338:Generated_Source\PSoC6\pdl\drivers/peripheral/gpio/cy_gpio.h **** #define CY_GPIO_DM_PULLDOWN                    (0x0BUL) /**< \brief Resistive Pull-Down. Input buff
 339:Generated_Source\PSoC6\pdl\drivers/peripheral/gpio/cy_gpio.h **** #define CY_GPIO_DM_OD_DRIVESLOW                (0x0CUL) /**< \brief Open Drain, Drives Low. Input b
 340:Generated_Source\PSoC6\pdl\drivers/peripheral/gpio/cy_gpio.h **** #define CY_GPIO_DM_OD_DRIVESHIGH               (0x0DUL) /**< \brief Open Drain, Drives High. Input 
 341:Generated_Source\PSoC6\pdl\drivers/peripheral/gpio/cy_gpio.h **** #define CY_GPIO_DM_STRONG                      (0x0EUL) /**< \brief Strong Drive. Input buffer on *
 342:Generated_Source\PSoC6\pdl\drivers/peripheral/gpio/cy_gpio.h **** #define CY_GPIO_DM_PULLUP_DOWN                 (0x0FUL) /**< \brief Resistive Pull-Up/Down. Input b
 343:Generated_Source\PSoC6\pdl\drivers/peripheral/gpio/cy_gpio.h **** /** \} */
ARM GAS  C:\Users\rober\AppData\Local\Temp\ccBlBMtt.s 			page 10


 344:Generated_Source\PSoC6\pdl\drivers/peripheral/gpio/cy_gpio.h **** 
 345:Generated_Source\PSoC6\pdl\drivers/peripheral/gpio/cy_gpio.h **** /**
 346:Generated_Source\PSoC6\pdl\drivers/peripheral/gpio/cy_gpio.h **** * \defgroup group_gpio_vtrip Voltage trip mode
 347:Generated_Source\PSoC6\pdl\drivers/peripheral/gpio/cy_gpio.h **** * \{
 348:Generated_Source\PSoC6\pdl\drivers/peripheral/gpio/cy_gpio.h **** * Constants to be used for setting the voltage trip type on the pin.
 349:Generated_Source\PSoC6\pdl\drivers/peripheral/gpio/cy_gpio.h **** */
 350:Generated_Source\PSoC6\pdl\drivers/peripheral/gpio/cy_gpio.h **** #define CY_GPIO_VTRIP_CMOS                     (0x00UL) /**< \brief Input buffer compatible with CM
 351:Generated_Source\PSoC6\pdl\drivers/peripheral/gpio/cy_gpio.h **** #define CY_GPIO_VTRIP_TTL                      (0x01UL) /**< \brief Input buffer compatible with TT
 352:Generated_Source\PSoC6\pdl\drivers/peripheral/gpio/cy_gpio.h **** /** \} */
 353:Generated_Source\PSoC6\pdl\drivers/peripheral/gpio/cy_gpio.h **** 
 354:Generated_Source\PSoC6\pdl\drivers/peripheral/gpio/cy_gpio.h **** /**
 355:Generated_Source\PSoC6\pdl\drivers/peripheral/gpio/cy_gpio.h **** * \defgroup group_gpio_slewRate Slew Rate Mode
 356:Generated_Source\PSoC6\pdl\drivers/peripheral/gpio/cy_gpio.h **** * \{
 357:Generated_Source\PSoC6\pdl\drivers/peripheral/gpio/cy_gpio.h **** * Constants to be used for setting the slew rate of the pin.
 358:Generated_Source\PSoC6\pdl\drivers/peripheral/gpio/cy_gpio.h **** */
 359:Generated_Source\PSoC6\pdl\drivers/peripheral/gpio/cy_gpio.h **** #define CY_GPIO_SLEW_FAST                      (0x00UL) /**< \brief Fast slew rate */
 360:Generated_Source\PSoC6\pdl\drivers/peripheral/gpio/cy_gpio.h **** #define CY_GPIO_SLEW_SLOW                      (0x01UL) /**< \brief Slow slew rate */
 361:Generated_Source\PSoC6\pdl\drivers/peripheral/gpio/cy_gpio.h **** /** \} */
 362:Generated_Source\PSoC6\pdl\drivers/peripheral/gpio/cy_gpio.h **** 
 363:Generated_Source\PSoC6\pdl\drivers/peripheral/gpio/cy_gpio.h **** /**
 364:Generated_Source\PSoC6\pdl\drivers/peripheral/gpio/cy_gpio.h **** * \defgroup group_gpio_driveStrength Pin drive strength
 365:Generated_Source\PSoC6\pdl\drivers/peripheral/gpio/cy_gpio.h **** * \{
 366:Generated_Source\PSoC6\pdl\drivers/peripheral/gpio/cy_gpio.h **** * Constants to be used for setting the drive strength of the pin.
 367:Generated_Source\PSoC6\pdl\drivers/peripheral/gpio/cy_gpio.h **** */
 368:Generated_Source\PSoC6\pdl\drivers/peripheral/gpio/cy_gpio.h **** #define CY_GPIO_DRIVE_FULL                     (0x00UL) /**< \brief Full drive strength: Max drive 
 369:Generated_Source\PSoC6\pdl\drivers/peripheral/gpio/cy_gpio.h **** #define CY_GPIO_DRIVE_1_2                      (0x01UL) /**< \brief 1/2 drive strength: 1/2 drive c
 370:Generated_Source\PSoC6\pdl\drivers/peripheral/gpio/cy_gpio.h **** #define CY_GPIO_DRIVE_1_4                      (0x02UL) /**< \brief 1/4 drive strength: 1/4 drive c
 371:Generated_Source\PSoC6\pdl\drivers/peripheral/gpio/cy_gpio.h **** #define CY_GPIO_DRIVE_1_8                      (0x03UL) /**< \brief 1/8 drive strength: 1/8 drive c
 372:Generated_Source\PSoC6\pdl\drivers/peripheral/gpio/cy_gpio.h **** /** \} */
 373:Generated_Source\PSoC6\pdl\drivers/peripheral/gpio/cy_gpio.h **** 
 374:Generated_Source\PSoC6\pdl\drivers/peripheral/gpio/cy_gpio.h **** /**
 375:Generated_Source\PSoC6\pdl\drivers/peripheral/gpio/cy_gpio.h **** * \defgroup group_gpio_interruptTrigger Interrupt trigger type
 376:Generated_Source\PSoC6\pdl\drivers/peripheral/gpio/cy_gpio.h **** * \{
 377:Generated_Source\PSoC6\pdl\drivers/peripheral/gpio/cy_gpio.h **** * Constants to be used for setting the interrupt trigger type on the pin.
 378:Generated_Source\PSoC6\pdl\drivers/peripheral/gpio/cy_gpio.h **** */
 379:Generated_Source\PSoC6\pdl\drivers/peripheral/gpio/cy_gpio.h **** #define CY_GPIO_INTR_DISABLE                   (0x00UL) /**< \brief Disable the pin interrupt gener
 380:Generated_Source\PSoC6\pdl\drivers/peripheral/gpio/cy_gpio.h **** #define CY_GPIO_INTR_RISING                    (0x01UL) /**< \brief Rising-Edge interrupt */
 381:Generated_Source\PSoC6\pdl\drivers/peripheral/gpio/cy_gpio.h **** #define CY_GPIO_INTR_FALLING                   (0x02UL) /**< \brief Falling-Edge interrupt */
 382:Generated_Source\PSoC6\pdl\drivers/peripheral/gpio/cy_gpio.h **** #define CY_GPIO_INTR_BOTH                      (0x03UL) /**< \brief Both-Edge interrupt */
 383:Generated_Source\PSoC6\pdl\drivers/peripheral/gpio/cy_gpio.h **** /** \} */
 384:Generated_Source\PSoC6\pdl\drivers/peripheral/gpio/cy_gpio.h **** 
 385:Generated_Source\PSoC6\pdl\drivers/peripheral/gpio/cy_gpio.h **** /**
 386:Generated_Source\PSoC6\pdl\drivers/peripheral/gpio/cy_gpio.h **** * \defgroup group_gpio_sioVreg SIO output buffer mode
 387:Generated_Source\PSoC6\pdl\drivers/peripheral/gpio/cy_gpio.h **** * \{
 388:Generated_Source\PSoC6\pdl\drivers/peripheral/gpio/cy_gpio.h **** * Constants to be used for setting the SIO output buffer mode on the pin.
 389:Generated_Source\PSoC6\pdl\drivers/peripheral/gpio/cy_gpio.h **** */
 390:Generated_Source\PSoC6\pdl\drivers/peripheral/gpio/cy_gpio.h **** #define CY_SIO_VREG_UNREGULATED                (0x00UL) /**< \brief Unregulated output buffer */
 391:Generated_Source\PSoC6\pdl\drivers/peripheral/gpio/cy_gpio.h **** #define CY_SIO_VREG_REGULATED                  (0x01UL) /**< \brief Regulated output buffer */
 392:Generated_Source\PSoC6\pdl\drivers/peripheral/gpio/cy_gpio.h **** /** \} */
 393:Generated_Source\PSoC6\pdl\drivers/peripheral/gpio/cy_gpio.h **** 
 394:Generated_Source\PSoC6\pdl\drivers/peripheral/gpio/cy_gpio.h **** /**
 395:Generated_Source\PSoC6\pdl\drivers/peripheral/gpio/cy_gpio.h **** * \defgroup group_gpio_sioIbuf SIO input buffer mode
 396:Generated_Source\PSoC6\pdl\drivers/peripheral/gpio/cy_gpio.h **** * \{
 397:Generated_Source\PSoC6\pdl\drivers/peripheral/gpio/cy_gpio.h **** * Constants to be used for setting the SIO input buffer mode on the pin.
 398:Generated_Source\PSoC6\pdl\drivers/peripheral/gpio/cy_gpio.h **** */
 399:Generated_Source\PSoC6\pdl\drivers/peripheral/gpio/cy_gpio.h **** #define CY_SIO_IBUF_SINGLEENDED                (0x00UL) /**< \brief Single ended input buffer */
 400:Generated_Source\PSoC6\pdl\drivers/peripheral/gpio/cy_gpio.h **** #define CY_SIO_IBUF_DIFFERENTIAL               (0x01UL) /**< \brief Differential input buffer */
ARM GAS  C:\Users\rober\AppData\Local\Temp\ccBlBMtt.s 			page 11


 401:Generated_Source\PSoC6\pdl\drivers/peripheral/gpio/cy_gpio.h **** /** \} */
 402:Generated_Source\PSoC6\pdl\drivers/peripheral/gpio/cy_gpio.h **** 
 403:Generated_Source\PSoC6\pdl\drivers/peripheral/gpio/cy_gpio.h **** /**
 404:Generated_Source\PSoC6\pdl\drivers/peripheral/gpio/cy_gpio.h **** * \defgroup group_gpio_sioVtrip SIO input buffer trip-point
 405:Generated_Source\PSoC6\pdl\drivers/peripheral/gpio/cy_gpio.h **** * \{
 406:Generated_Source\PSoC6\pdl\drivers/peripheral/gpio/cy_gpio.h **** * Constants to be used for setting the SIO input buffer trip-point of the pin.
 407:Generated_Source\PSoC6\pdl\drivers/peripheral/gpio/cy_gpio.h **** */
 408:Generated_Source\PSoC6\pdl\drivers/peripheral/gpio/cy_gpio.h **** #define CY_SIO_VTRIP_CMOS                      (0x00UL) /**< \brief CMOS input buffer (single-ended
 409:Generated_Source\PSoC6\pdl\drivers/peripheral/gpio/cy_gpio.h **** #define CY_SIO_VTRIP_TTL                       (0x01UL) /**< \brief TTL input buffer (single-ended)
 410:Generated_Source\PSoC6\pdl\drivers/peripheral/gpio/cy_gpio.h **** #define CY_SIO_VTRIP_0_5VDDIO_0_5VOH           (0x00UL) /**< \brief 0.5xVddio or 0.5xVoh (different
 411:Generated_Source\PSoC6\pdl\drivers/peripheral/gpio/cy_gpio.h **** #define CY_SIO_VTRIP_0_4VDDIO_1_0VREF          (0x01UL) /**< \brief 0.4xVddio or 0.4xVoh (different
 412:Generated_Source\PSoC6\pdl\drivers/peripheral/gpio/cy_gpio.h **** /** \} */
 413:Generated_Source\PSoC6\pdl\drivers/peripheral/gpio/cy_gpio.h **** 
 414:Generated_Source\PSoC6\pdl\drivers/peripheral/gpio/cy_gpio.h **** /**
 415:Generated_Source\PSoC6\pdl\drivers/peripheral/gpio/cy_gpio.h **** * \defgroup group_gpio_sioVref SIO reference voltage for input buffer trip-point
 416:Generated_Source\PSoC6\pdl\drivers/peripheral/gpio/cy_gpio.h **** * \{
 417:Generated_Source\PSoC6\pdl\drivers/peripheral/gpio/cy_gpio.h **** * Constants to be used for setting the reference voltage of SIO input buffer trip-point.
 418:Generated_Source\PSoC6\pdl\drivers/peripheral/gpio/cy_gpio.h **** */
 419:Generated_Source\PSoC6\pdl\drivers/peripheral/gpio/cy_gpio.h **** #define CY_SIO_VREF_PINREF                     (0x00UL) /**< \brief Vref from analog pin */
 420:Generated_Source\PSoC6\pdl\drivers/peripheral/gpio/cy_gpio.h **** #define CY_SIO_VREF_1_2V                       (0x01UL) /**< \brief Vref from internal 1.2V referen
 421:Generated_Source\PSoC6\pdl\drivers/peripheral/gpio/cy_gpio.h **** #define CY_SIO_VREF_AMUX_A                     (0x02UL) /**< \brief Vref from AMUXBUS_A */
 422:Generated_Source\PSoC6\pdl\drivers/peripheral/gpio/cy_gpio.h **** #define CY_SIO_VREF_AMUX_B                     (0x03UL) /**< \brief Vref from AMUXBUS_B */
 423:Generated_Source\PSoC6\pdl\drivers/peripheral/gpio/cy_gpio.h **** /** \} */
 424:Generated_Source\PSoC6\pdl\drivers/peripheral/gpio/cy_gpio.h **** 
 425:Generated_Source\PSoC6\pdl\drivers/peripheral/gpio/cy_gpio.h **** /**
 426:Generated_Source\PSoC6\pdl\drivers/peripheral/gpio/cy_gpio.h **** * \defgroup group_gpio_sioVoh Regulated output voltage level (Voh) and input buffer trip-point of a
 427:Generated_Source\PSoC6\pdl\drivers/peripheral/gpio/cy_gpio.h **** * \{
 428:Generated_Source\PSoC6\pdl\drivers/peripheral/gpio/cy_gpio.h **** * Constants to be used for setting the Voh and input buffer trip-point of an SIO pair
 429:Generated_Source\PSoC6\pdl\drivers/peripheral/gpio/cy_gpio.h **** */
 430:Generated_Source\PSoC6\pdl\drivers/peripheral/gpio/cy_gpio.h **** #define CY_SIO_VOH_1_00                        (0x00UL) /**< \brief Voh = 1 x Reference */
 431:Generated_Source\PSoC6\pdl\drivers/peripheral/gpio/cy_gpio.h **** #define CY_SIO_VOH_1_25                        (0x01UL) /**< \brief Voh = 1.25 x Reference */
 432:Generated_Source\PSoC6\pdl\drivers/peripheral/gpio/cy_gpio.h **** #define CY_SIO_VOH_1_49                        (0x02UL) /**< \brief Voh = 1.49 x Reference */
 433:Generated_Source\PSoC6\pdl\drivers/peripheral/gpio/cy_gpio.h **** #define CY_SIO_VOH_1_67                        (0x03UL) /**< \brief Voh = 1.67 x Reference */
 434:Generated_Source\PSoC6\pdl\drivers/peripheral/gpio/cy_gpio.h **** #define CY_SIO_VOH_2_08                        (0x04UL) /**< \brief Voh = 2.08 x Reference */
 435:Generated_Source\PSoC6\pdl\drivers/peripheral/gpio/cy_gpio.h **** #define CY_SIO_VOH_2_50                        (0x05UL) /**< \brief Voh = 2.50 x Reference */
 436:Generated_Source\PSoC6\pdl\drivers/peripheral/gpio/cy_gpio.h **** #define CY_SIO_VOH_2_78                        (0x06UL) /**< \brief Voh = 2.78 x Reference */
 437:Generated_Source\PSoC6\pdl\drivers/peripheral/gpio/cy_gpio.h **** #define CY_SIO_VOH_4_16                        (0x07UL) /**< \brief Voh = 4.16 x Reference */
 438:Generated_Source\PSoC6\pdl\drivers/peripheral/gpio/cy_gpio.h **** /** \} */
 439:Generated_Source\PSoC6\pdl\drivers/peripheral/gpio/cy_gpio.h **** 
 440:Generated_Source\PSoC6\pdl\drivers/peripheral/gpio/cy_gpio.h **** /** \} group_gpio_macros */
 441:Generated_Source\PSoC6\pdl\drivers/peripheral/gpio/cy_gpio.h **** 
 442:Generated_Source\PSoC6\pdl\drivers/peripheral/gpio/cy_gpio.h **** /***************************************
 443:Generated_Source\PSoC6\pdl\drivers/peripheral/gpio/cy_gpio.h **** *        Function Prototypes
 444:Generated_Source\PSoC6\pdl\drivers/peripheral/gpio/cy_gpio.h **** ***************************************/
 445:Generated_Source\PSoC6\pdl\drivers/peripheral/gpio/cy_gpio.h **** 
 446:Generated_Source\PSoC6\pdl\drivers/peripheral/gpio/cy_gpio.h **** /**
 447:Generated_Source\PSoC6\pdl\drivers/peripheral/gpio/cy_gpio.h **** * \addtogroup group_gpio_functions
 448:Generated_Source\PSoC6\pdl\drivers/peripheral/gpio/cy_gpio.h **** * \{
 449:Generated_Source\PSoC6\pdl\drivers/peripheral/gpio/cy_gpio.h **** */
 450:Generated_Source\PSoC6\pdl\drivers/peripheral/gpio/cy_gpio.h **** 
 451:Generated_Source\PSoC6\pdl\drivers/peripheral/gpio/cy_gpio.h **** /**
 452:Generated_Source\PSoC6\pdl\drivers/peripheral/gpio/cy_gpio.h **** * \addtogroup group_gpio_functions_init
 453:Generated_Source\PSoC6\pdl\drivers/peripheral/gpio/cy_gpio.h **** * \{
 454:Generated_Source\PSoC6\pdl\drivers/peripheral/gpio/cy_gpio.h **** */
 455:Generated_Source\PSoC6\pdl\drivers/peripheral/gpio/cy_gpio.h **** 
 456:Generated_Source\PSoC6\pdl\drivers/peripheral/gpio/cy_gpio.h **** cy_en_gpio_status_t Cy_GPIO_Pin_Init(GPIO_PRT_Type* base, uint32_t pinNum, const cy_stc_gpio_pin_co
 457:Generated_Source\PSoC6\pdl\drivers/peripheral/gpio/cy_gpio.h **** cy_en_gpio_status_t Cy_GPIO_Port_Init(GPIO_PRT_Type* base, const cy_stc_gpio_prt_config_t *config);
ARM GAS  C:\Users\rober\AppData\Local\Temp\ccBlBMtt.s 			page 12


 458:Generated_Source\PSoC6\pdl\drivers/peripheral/gpio/cy_gpio.h **** void Cy_GPIO_Pin_FastInit(GPIO_PRT_Type* base, uint32_t pinNum, uint32_t driveMode, uint32_t outVal
 459:Generated_Source\PSoC6\pdl\drivers/peripheral/gpio/cy_gpio.h **** void Cy_GPIO_Port_Deinit(GPIO_PRT_Type* base);
 460:Generated_Source\PSoC6\pdl\drivers/peripheral/gpio/cy_gpio.h **** __STATIC_INLINE void Cy_GPIO_SetHSIOM(GPIO_PRT_Type* base, uint32_t pinNum, en_hsiom_sel_t value);
 461:Generated_Source\PSoC6\pdl\drivers/peripheral/gpio/cy_gpio.h **** __STATIC_INLINE en_hsiom_sel_t Cy_GPIO_GetHSIOM(GPIO_PRT_Type* base, uint32_t pinNum);
 462:Generated_Source\PSoC6\pdl\drivers/peripheral/gpio/cy_gpio.h **** __STATIC_INLINE GPIO_PRT_Type* Cy_GPIO_PortToAddr(uint32_t portNum);
 463:Generated_Source\PSoC6\pdl\drivers/peripheral/gpio/cy_gpio.h **** 
 464:Generated_Source\PSoC6\pdl\drivers/peripheral/gpio/cy_gpio.h **** /** \} group_gpio_functions_init */
 465:Generated_Source\PSoC6\pdl\drivers/peripheral/gpio/cy_gpio.h **** 
 466:Generated_Source\PSoC6\pdl\drivers/peripheral/gpio/cy_gpio.h **** /**
 467:Generated_Source\PSoC6\pdl\drivers/peripheral/gpio/cy_gpio.h **** * \addtogroup group_gpio_functions_gpio
 468:Generated_Source\PSoC6\pdl\drivers/peripheral/gpio/cy_gpio.h **** * \{
 469:Generated_Source\PSoC6\pdl\drivers/peripheral/gpio/cy_gpio.h **** */
 470:Generated_Source\PSoC6\pdl\drivers/peripheral/gpio/cy_gpio.h **** 
 471:Generated_Source\PSoC6\pdl\drivers/peripheral/gpio/cy_gpio.h **** __STATIC_INLINE uint32_t Cy_GPIO_Read(GPIO_PRT_Type* base, uint32_t pinNum);
 472:Generated_Source\PSoC6\pdl\drivers/peripheral/gpio/cy_gpio.h **** __STATIC_INLINE void Cy_GPIO_Write(GPIO_PRT_Type* base, uint32_t pinNum, uint32_t value);
 473:Generated_Source\PSoC6\pdl\drivers/peripheral/gpio/cy_gpio.h **** __STATIC_INLINE uint32_t Cy_GPIO_ReadOut(GPIO_PRT_Type* base, uint32_t pinNum);
 474:Generated_Source\PSoC6\pdl\drivers/peripheral/gpio/cy_gpio.h **** __STATIC_INLINE void Cy_GPIO_Set(GPIO_PRT_Type* base, uint32_t pinNum);
 475:Generated_Source\PSoC6\pdl\drivers/peripheral/gpio/cy_gpio.h **** __STATIC_INLINE void Cy_GPIO_Clr(GPIO_PRT_Type* base, uint32_t pinNum);
 476:Generated_Source\PSoC6\pdl\drivers/peripheral/gpio/cy_gpio.h **** __STATIC_INLINE void Cy_GPIO_Inv(GPIO_PRT_Type* base, uint32_t pinNum);
 477:Generated_Source\PSoC6\pdl\drivers/peripheral/gpio/cy_gpio.h **** __STATIC_INLINE void Cy_GPIO_SetDrivemode(GPIO_PRT_Type* base, uint32_t pinNum, uint32_t value);
 478:Generated_Source\PSoC6\pdl\drivers/peripheral/gpio/cy_gpio.h **** __STATIC_INLINE uint32_t Cy_GPIO_GetDrivemode(GPIO_PRT_Type* base, uint32_t pinNum);
 479:Generated_Source\PSoC6\pdl\drivers/peripheral/gpio/cy_gpio.h **** __STATIC_INLINE void Cy_GPIO_SetVtrip(GPIO_PRT_Type* base, uint32_t pinNum, uint32_t value);
 480:Generated_Source\PSoC6\pdl\drivers/peripheral/gpio/cy_gpio.h **** __STATIC_INLINE uint32_t Cy_GPIO_GetVtrip(GPIO_PRT_Type* base, uint32_t pinNum);
 481:Generated_Source\PSoC6\pdl\drivers/peripheral/gpio/cy_gpio.h **** __STATIC_INLINE void Cy_GPIO_SetSlewRate(GPIO_PRT_Type* base, uint32_t pinNum, uint32_t value);
 482:Generated_Source\PSoC6\pdl\drivers/peripheral/gpio/cy_gpio.h **** __STATIC_INLINE uint32_t Cy_GPIO_GetSlewRate(GPIO_PRT_Type* base, uint32_t pinNum);
 483:Generated_Source\PSoC6\pdl\drivers/peripheral/gpio/cy_gpio.h **** __STATIC_INLINE void Cy_GPIO_SetDriveSel(GPIO_PRT_Type* base, uint32_t pinNum, uint32_t value);
 484:Generated_Source\PSoC6\pdl\drivers/peripheral/gpio/cy_gpio.h **** __STATIC_INLINE uint32_t Cy_GPIO_GetDriveSel(GPIO_PRT_Type* base, uint32_t pinNum);
 485:Generated_Source\PSoC6\pdl\drivers/peripheral/gpio/cy_gpio.h **** 
 486:Generated_Source\PSoC6\pdl\drivers/peripheral/gpio/cy_gpio.h **** /** \} group_gpio_functions_gpio */
 487:Generated_Source\PSoC6\pdl\drivers/peripheral/gpio/cy_gpio.h **** 
 488:Generated_Source\PSoC6\pdl\drivers/peripheral/gpio/cy_gpio.h **** /**
 489:Generated_Source\PSoC6\pdl\drivers/peripheral/gpio/cy_gpio.h **** * \addtogroup group_gpio_functions_sio
 490:Generated_Source\PSoC6\pdl\drivers/peripheral/gpio/cy_gpio.h **** * \{
 491:Generated_Source\PSoC6\pdl\drivers/peripheral/gpio/cy_gpio.h **** */
 492:Generated_Source\PSoC6\pdl\drivers/peripheral/gpio/cy_gpio.h **** 
 493:Generated_Source\PSoC6\pdl\drivers/peripheral/gpio/cy_gpio.h **** __STATIC_INLINE void Cy_GPIO_SetVregEn(GPIO_PRT_Type* base, uint32_t pinNum, uint32_t value);
 494:Generated_Source\PSoC6\pdl\drivers/peripheral/gpio/cy_gpio.h **** __STATIC_INLINE uint32_t Cy_GPIO_GetVregEn(GPIO_PRT_Type* base, uint32_t pinNum);
 495:Generated_Source\PSoC6\pdl\drivers/peripheral/gpio/cy_gpio.h **** __STATIC_INLINE void Cy_GPIO_SetIbufMode(GPIO_PRT_Type* base, uint32_t pinNum, uint32_t value);
 496:Generated_Source\PSoC6\pdl\drivers/peripheral/gpio/cy_gpio.h **** __STATIC_INLINE uint32_t Cy_GPIO_GetIbufMode(GPIO_PRT_Type* base, uint32_t pinNum);
 497:Generated_Source\PSoC6\pdl\drivers/peripheral/gpio/cy_gpio.h **** __STATIC_INLINE void Cy_GPIO_SetVtripSel(GPIO_PRT_Type* base, uint32_t pinNum, uint32_t value);
 498:Generated_Source\PSoC6\pdl\drivers/peripheral/gpio/cy_gpio.h **** __STATIC_INLINE uint32_t Cy_GPIO_GetVtripSel(GPIO_PRT_Type* base, uint32_t pinNum);
 499:Generated_Source\PSoC6\pdl\drivers/peripheral/gpio/cy_gpio.h **** __STATIC_INLINE void Cy_GPIO_SetVrefSel(GPIO_PRT_Type* base, uint32_t pinNum, uint32_t value);
 500:Generated_Source\PSoC6\pdl\drivers/peripheral/gpio/cy_gpio.h **** __STATIC_INLINE uint32_t Cy_GPIO_GetVrefSel(GPIO_PRT_Type* base, uint32_t pinNum);
 501:Generated_Source\PSoC6\pdl\drivers/peripheral/gpio/cy_gpio.h **** __STATIC_INLINE void Cy_GPIO_SetVohSel(GPIO_PRT_Type* base, uint32_t pinNum, uint32_t value);
 502:Generated_Source\PSoC6\pdl\drivers/peripheral/gpio/cy_gpio.h **** __STATIC_INLINE uint32_t Cy_GPIO_GetVohSel(GPIO_PRT_Type* base, uint32_t pinNum);
 503:Generated_Source\PSoC6\pdl\drivers/peripheral/gpio/cy_gpio.h **** 
 504:Generated_Source\PSoC6\pdl\drivers/peripheral/gpio/cy_gpio.h **** /** \} group_gpio_functions_sio */
 505:Generated_Source\PSoC6\pdl\drivers/peripheral/gpio/cy_gpio.h **** 
 506:Generated_Source\PSoC6\pdl\drivers/peripheral/gpio/cy_gpio.h **** /**
 507:Generated_Source\PSoC6\pdl\drivers/peripheral/gpio/cy_gpio.h **** * \addtogroup group_gpio_functions_interrupt
 508:Generated_Source\PSoC6\pdl\drivers/peripheral/gpio/cy_gpio.h **** * \{
 509:Generated_Source\PSoC6\pdl\drivers/peripheral/gpio/cy_gpio.h **** */
 510:Generated_Source\PSoC6\pdl\drivers/peripheral/gpio/cy_gpio.h **** 
 511:Generated_Source\PSoC6\pdl\drivers/peripheral/gpio/cy_gpio.h **** __STATIC_INLINE uint32_t Cy_GPIO_GetInterruptStatus(GPIO_PRT_Type* base, uint32_t pinNum);
 512:Generated_Source\PSoC6\pdl\drivers/peripheral/gpio/cy_gpio.h **** __STATIC_INLINE void Cy_GPIO_ClearInterrupt(GPIO_PRT_Type* base, uint32_t pinNum);
 513:Generated_Source\PSoC6\pdl\drivers/peripheral/gpio/cy_gpio.h **** __STATIC_INLINE void Cy_GPIO_SetInterruptMask(GPIO_PRT_Type* base, uint32_t pinNum, uint32_t value)
 514:Generated_Source\PSoC6\pdl\drivers/peripheral/gpio/cy_gpio.h **** __STATIC_INLINE uint32_t Cy_GPIO_GetInterruptMask(GPIO_PRT_Type* base, uint32_t pinNum);
ARM GAS  C:\Users\rober\AppData\Local\Temp\ccBlBMtt.s 			page 13


 515:Generated_Source\PSoC6\pdl\drivers/peripheral/gpio/cy_gpio.h **** __STATIC_INLINE uint32_t Cy_GPIO_GetInterruptStatusMasked(GPIO_PRT_Type* base, uint32_t pinNum);
 516:Generated_Source\PSoC6\pdl\drivers/peripheral/gpio/cy_gpio.h **** __STATIC_INLINE void Cy_GPIO_SetSwInterrupt(GPIO_PRT_Type* base, uint32_t pinNum);
 517:Generated_Source\PSoC6\pdl\drivers/peripheral/gpio/cy_gpio.h **** __STATIC_INLINE void Cy_GPIO_SetInterruptEdge(GPIO_PRT_Type* base, uint32_t pinNum, uint32_t value)
 518:Generated_Source\PSoC6\pdl\drivers/peripheral/gpio/cy_gpio.h **** __STATIC_INLINE uint32_t Cy_GPIO_GetInterruptEdge(GPIO_PRT_Type* base, uint32_t pinNum);
 519:Generated_Source\PSoC6\pdl\drivers/peripheral/gpio/cy_gpio.h **** __STATIC_INLINE void Cy_GPIO_SetFilter(GPIO_PRT_Type* base, uint32_t value);
 520:Generated_Source\PSoC6\pdl\drivers/peripheral/gpio/cy_gpio.h **** __STATIC_INLINE uint32_t Cy_GPIO_GetFilter(GPIO_PRT_Type* base);
 521:Generated_Source\PSoC6\pdl\drivers/peripheral/gpio/cy_gpio.h **** 
 522:Generated_Source\PSoC6\pdl\drivers/peripheral/gpio/cy_gpio.h **** #if (IOSS_GPIO_GPIO_PORT_NR_0_31 != 0) || defined (CY_DOXYGEN)
 523:Generated_Source\PSoC6\pdl\drivers/peripheral/gpio/cy_gpio.h **** __STATIC_INLINE uint32_t Cy_GPIO_GetInterruptCause0(void);
 524:Generated_Source\PSoC6\pdl\drivers/peripheral/gpio/cy_gpio.h **** #endif /* (IOSS_GPIO_GPIO_PORT_NR_0_31 != 0) */
 525:Generated_Source\PSoC6\pdl\drivers/peripheral/gpio/cy_gpio.h **** 
 526:Generated_Source\PSoC6\pdl\drivers/peripheral/gpio/cy_gpio.h **** #if (IOSS_GPIO_GPIO_PORT_NR_32_63 != 0) || defined (CY_DOXYGEN)
 527:Generated_Source\PSoC6\pdl\drivers/peripheral/gpio/cy_gpio.h **** __STATIC_INLINE uint32_t Cy_GPIO_GetInterruptCause1(void);
 528:Generated_Source\PSoC6\pdl\drivers/peripheral/gpio/cy_gpio.h **** #endif /* (IOSS_GPIO_GPIO_PORT_NR_32_63 != 0) */
 529:Generated_Source\PSoC6\pdl\drivers/peripheral/gpio/cy_gpio.h **** 
 530:Generated_Source\PSoC6\pdl\drivers/peripheral/gpio/cy_gpio.h **** #if (IOSS_GPIO_GPIO_PORT_NR_64_95 != 0) || defined (CY_DOXYGEN)
 531:Generated_Source\PSoC6\pdl\drivers/peripheral/gpio/cy_gpio.h **** __STATIC_INLINE uint32_t Cy_GPIO_GetInterruptCause2(void);
 532:Generated_Source\PSoC6\pdl\drivers/peripheral/gpio/cy_gpio.h **** #endif /* (IOSS_GPIO_GPIO_PORT_NR_64_95 != 0) */
 533:Generated_Source\PSoC6\pdl\drivers/peripheral/gpio/cy_gpio.h **** 
 534:Generated_Source\PSoC6\pdl\drivers/peripheral/gpio/cy_gpio.h **** #if (IOSS_GPIO_GPIO_PORT_NR_96_127 != 0) || defined (CY_DOXYGEN)
 535:Generated_Source\PSoC6\pdl\drivers/peripheral/gpio/cy_gpio.h **** __STATIC_INLINE uint32_t Cy_GPIO_GetInterruptCause3(void);
 536:Generated_Source\PSoC6\pdl\drivers/peripheral/gpio/cy_gpio.h **** #endif /* (IOSS_GPIO_GPIO_PORT_NR_96_127 != 0) */
 537:Generated_Source\PSoC6\pdl\drivers/peripheral/gpio/cy_gpio.h **** 
 538:Generated_Source\PSoC6\pdl\drivers/peripheral/gpio/cy_gpio.h **** /** \} group_gpio_functions_interrupt */
 539:Generated_Source\PSoC6\pdl\drivers/peripheral/gpio/cy_gpio.h **** 
 540:Generated_Source\PSoC6\pdl\drivers/peripheral/gpio/cy_gpio.h **** 
 541:Generated_Source\PSoC6\pdl\drivers/peripheral/gpio/cy_gpio.h **** /**
 542:Generated_Source\PSoC6\pdl\drivers/peripheral/gpio/cy_gpio.h **** * \addtogroup group_gpio_functions_init
 543:Generated_Source\PSoC6\pdl\drivers/peripheral/gpio/cy_gpio.h **** * \{
 544:Generated_Source\PSoC6\pdl\drivers/peripheral/gpio/cy_gpio.h **** */
 545:Generated_Source\PSoC6\pdl\drivers/peripheral/gpio/cy_gpio.h **** 
 546:Generated_Source\PSoC6\pdl\drivers/peripheral/gpio/cy_gpio.h **** /*******************************************************************************
 547:Generated_Source\PSoC6\pdl\drivers/peripheral/gpio/cy_gpio.h **** * Function Name: Cy_GPIO_SetHSIOM
 548:Generated_Source\PSoC6\pdl\drivers/peripheral/gpio/cy_gpio.h **** ****************************************************************************//**
 549:Generated_Source\PSoC6\pdl\drivers/peripheral/gpio/cy_gpio.h **** *
 550:Generated_Source\PSoC6\pdl\drivers/peripheral/gpio/cy_gpio.h **** * \brief Configures the HSIOM connection to the pin.
 551:Generated_Source\PSoC6\pdl\drivers/peripheral/gpio/cy_gpio.h **** *
 552:Generated_Source\PSoC6\pdl\drivers/peripheral/gpio/cy_gpio.h **** * Connects the specified High-Speed Input Output Multiplexer (HSIOM) selection
 553:Generated_Source\PSoC6\pdl\drivers/peripheral/gpio/cy_gpio.h **** * to the pin.
 554:Generated_Source\PSoC6\pdl\drivers/peripheral/gpio/cy_gpio.h **** *
 555:Generated_Source\PSoC6\pdl\drivers/peripheral/gpio/cy_gpio.h **** * \param base
 556:Generated_Source\PSoC6\pdl\drivers/peripheral/gpio/cy_gpio.h **** * Pointer to the pin's port register base address
 557:Generated_Source\PSoC6\pdl\drivers/peripheral/gpio/cy_gpio.h **** *
 558:Generated_Source\PSoC6\pdl\drivers/peripheral/gpio/cy_gpio.h **** * \param pinNum
 559:Generated_Source\PSoC6\pdl\drivers/peripheral/gpio/cy_gpio.h **** * Position of the pin bit-field within the port register
 560:Generated_Source\PSoC6\pdl\drivers/peripheral/gpio/cy_gpio.h **** *
 561:Generated_Source\PSoC6\pdl\drivers/peripheral/gpio/cy_gpio.h **** * \param value
 562:Generated_Source\PSoC6\pdl\drivers/peripheral/gpio/cy_gpio.h **** * HSIOM input selection
 563:Generated_Source\PSoC6\pdl\drivers/peripheral/gpio/cy_gpio.h **** *
 564:Generated_Source\PSoC6\pdl\drivers/peripheral/gpio/cy_gpio.h **** * \return
 565:Generated_Source\PSoC6\pdl\drivers/peripheral/gpio/cy_gpio.h **** * void
 566:Generated_Source\PSoC6\pdl\drivers/peripheral/gpio/cy_gpio.h **** *
 567:Generated_Source\PSoC6\pdl\drivers/peripheral/gpio/cy_gpio.h **** * \note 
 568:Generated_Source\PSoC6\pdl\drivers/peripheral/gpio/cy_gpio.h **** * This function modifies a port register in a read-modify-write operation. It is
 569:Generated_Source\PSoC6\pdl\drivers/peripheral/gpio/cy_gpio.h **** * not thread safe as the resource is shared among multiple pins on a port.
 570:Generated_Source\PSoC6\pdl\drivers/peripheral/gpio/cy_gpio.h **** *
 571:Generated_Source\PSoC6\pdl\drivers/peripheral/gpio/cy_gpio.h **** * \funcusage
ARM GAS  C:\Users\rober\AppData\Local\Temp\ccBlBMtt.s 			page 14


 572:Generated_Source\PSoC6\pdl\drivers/peripheral/gpio/cy_gpio.h **** * \snippet gpio/gpio_v1_10_sut_01.cydsn/main_cm4.c snippet_Cy_GPIO_SetHSIOM
 573:Generated_Source\PSoC6\pdl\drivers/peripheral/gpio/cy_gpio.h **** *
 574:Generated_Source\PSoC6\pdl\drivers/peripheral/gpio/cy_gpio.h **** *******************************************************************************/
 575:Generated_Source\PSoC6\pdl\drivers/peripheral/gpio/cy_gpio.h **** __STATIC_INLINE void Cy_GPIO_SetHSIOM(GPIO_PRT_Type* base, uint32_t pinNum, en_hsiom_sel_t value)
 576:Generated_Source\PSoC6\pdl\drivers/peripheral/gpio/cy_gpio.h **** {
 577:Generated_Source\PSoC6\pdl\drivers/peripheral/gpio/cy_gpio.h ****     uint32_t portNum;
 578:Generated_Source\PSoC6\pdl\drivers/peripheral/gpio/cy_gpio.h ****     uint32_t tempReg;
 579:Generated_Source\PSoC6\pdl\drivers/peripheral/gpio/cy_gpio.h ****     HSIOM_PRT_Type* portAddrHSIOM;
 580:Generated_Source\PSoC6\pdl\drivers/peripheral/gpio/cy_gpio.h **** 
 581:Generated_Source\PSoC6\pdl\drivers/peripheral/gpio/cy_gpio.h ****     CY_ASSERT_L2(CY_GPIO_IS_PIN_VALID(pinNum));
 582:Generated_Source\PSoC6\pdl\drivers/peripheral/gpio/cy_gpio.h ****     CY_ASSERT_L2(CY_GPIO_IS_HSIOM_VALID(value));
 583:Generated_Source\PSoC6\pdl\drivers/peripheral/gpio/cy_gpio.h **** 
 584:Generated_Source\PSoC6\pdl\drivers/peripheral/gpio/cy_gpio.h ****     portNum = ((uint32_t)(base) - GPIO_BASE) / GPIO_PRT_SECTION_SIZE;
 585:Generated_Source\PSoC6\pdl\drivers/peripheral/gpio/cy_gpio.h ****     portAddrHSIOM = (HSIOM_PRT_Type*)(HSIOM_BASE + (HSIOM_PRT_SECTION_SIZE * portNum));
 586:Generated_Source\PSoC6\pdl\drivers/peripheral/gpio/cy_gpio.h **** 
 587:Generated_Source\PSoC6\pdl\drivers/peripheral/gpio/cy_gpio.h ****     if(pinNum < CY_GPIO_PRT_HALF)
 588:Generated_Source\PSoC6\pdl\drivers/peripheral/gpio/cy_gpio.h ****     {
 589:Generated_Source\PSoC6\pdl\drivers/peripheral/gpio/cy_gpio.h ****         tempReg = portAddrHSIOM->PORT_SEL0 & ~(CY_GPIO_HSIOM_MASK << (pinNum << CY_GPIO_HSIOM_OFFSE
 590:Generated_Source\PSoC6\pdl\drivers/peripheral/gpio/cy_gpio.h ****         portAddrHSIOM->PORT_SEL0 = tempReg | ((value & CY_GPIO_HSIOM_MASK) << (pinNum << CY_GPIO_HS
 591:Generated_Source\PSoC6\pdl\drivers/peripheral/gpio/cy_gpio.h ****     }
 592:Generated_Source\PSoC6\pdl\drivers/peripheral/gpio/cy_gpio.h ****     else
 593:Generated_Source\PSoC6\pdl\drivers/peripheral/gpio/cy_gpio.h ****     {
 594:Generated_Source\PSoC6\pdl\drivers/peripheral/gpio/cy_gpio.h ****         pinNum -= CY_GPIO_PRT_HALF;
 595:Generated_Source\PSoC6\pdl\drivers/peripheral/gpio/cy_gpio.h ****         tempReg = portAddrHSIOM->PORT_SEL1 & ~(CY_GPIO_HSIOM_MASK << (pinNum << CY_GPIO_HSIOM_OFFSE
 596:Generated_Source\PSoC6\pdl\drivers/peripheral/gpio/cy_gpio.h ****         portAddrHSIOM->PORT_SEL1 = tempReg | ((value & CY_GPIO_HSIOM_MASK) << (pinNum << CY_GPIO_HS
 597:Generated_Source\PSoC6\pdl\drivers/peripheral/gpio/cy_gpio.h ****     }
 598:Generated_Source\PSoC6\pdl\drivers/peripheral/gpio/cy_gpio.h **** }
 599:Generated_Source\PSoC6\pdl\drivers/peripheral/gpio/cy_gpio.h **** 
 600:Generated_Source\PSoC6\pdl\drivers/peripheral/gpio/cy_gpio.h **** 
 601:Generated_Source\PSoC6\pdl\drivers/peripheral/gpio/cy_gpio.h **** /*******************************************************************************
 602:Generated_Source\PSoC6\pdl\drivers/peripheral/gpio/cy_gpio.h **** * Function Name: Cy_GPIO_GetHSIOM
 603:Generated_Source\PSoC6\pdl\drivers/peripheral/gpio/cy_gpio.h **** ****************************************************************************//**
 604:Generated_Source\PSoC6\pdl\drivers/peripheral/gpio/cy_gpio.h **** *
 605:Generated_Source\PSoC6\pdl\drivers/peripheral/gpio/cy_gpio.h **** * \brief Returns the current HSIOM multiplexer connection to the pin.
 606:Generated_Source\PSoC6\pdl\drivers/peripheral/gpio/cy_gpio.h **** *
 607:Generated_Source\PSoC6\pdl\drivers/peripheral/gpio/cy_gpio.h **** * \param base
 608:Generated_Source\PSoC6\pdl\drivers/peripheral/gpio/cy_gpio.h **** * Pointer to the pin's port register base address
 609:Generated_Source\PSoC6\pdl\drivers/peripheral/gpio/cy_gpio.h **** *
 610:Generated_Source\PSoC6\pdl\drivers/peripheral/gpio/cy_gpio.h **** * \param pinNum
 611:Generated_Source\PSoC6\pdl\drivers/peripheral/gpio/cy_gpio.h **** * Position of the pin bit-field within the port register
 612:Generated_Source\PSoC6\pdl\drivers/peripheral/gpio/cy_gpio.h **** *
 613:Generated_Source\PSoC6\pdl\drivers/peripheral/gpio/cy_gpio.h **** * \return
 614:Generated_Source\PSoC6\pdl\drivers/peripheral/gpio/cy_gpio.h **** * HSIOM input selection
 615:Generated_Source\PSoC6\pdl\drivers/peripheral/gpio/cy_gpio.h **** *
 616:Generated_Source\PSoC6\pdl\drivers/peripheral/gpio/cy_gpio.h **** * \funcusage
 617:Generated_Source\PSoC6\pdl\drivers/peripheral/gpio/cy_gpio.h **** * \snippet gpio/gpio_v1_10_sut_01.cydsn/main_cm4.c snippet_Cy_GPIO_SetHSIOM
 618:Generated_Source\PSoC6\pdl\drivers/peripheral/gpio/cy_gpio.h **** *
 619:Generated_Source\PSoC6\pdl\drivers/peripheral/gpio/cy_gpio.h **** *******************************************************************************/
 620:Generated_Source\PSoC6\pdl\drivers/peripheral/gpio/cy_gpio.h **** __STATIC_INLINE en_hsiom_sel_t Cy_GPIO_GetHSIOM(GPIO_PRT_Type* base, uint32_t pinNum)
 621:Generated_Source\PSoC6\pdl\drivers/peripheral/gpio/cy_gpio.h **** {
 622:Generated_Source\PSoC6\pdl\drivers/peripheral/gpio/cy_gpio.h ****     uint32_t returnValue;
 623:Generated_Source\PSoC6\pdl\drivers/peripheral/gpio/cy_gpio.h ****     uint32_t portNum;
 624:Generated_Source\PSoC6\pdl\drivers/peripheral/gpio/cy_gpio.h ****     HSIOM_PRT_Type* portAddrHSIOM;
 625:Generated_Source\PSoC6\pdl\drivers/peripheral/gpio/cy_gpio.h ****     
 626:Generated_Source\PSoC6\pdl\drivers/peripheral/gpio/cy_gpio.h ****     CY_ASSERT_L2(CY_GPIO_IS_PIN_VALID(pinNum));
 627:Generated_Source\PSoC6\pdl\drivers/peripheral/gpio/cy_gpio.h **** 
 628:Generated_Source\PSoC6\pdl\drivers/peripheral/gpio/cy_gpio.h ****     portNum = ((uint32_t)(base) - GPIO_BASE) / GPIO_PRT_SECTION_SIZE;
ARM GAS  C:\Users\rober\AppData\Local\Temp\ccBlBMtt.s 			page 15


 629:Generated_Source\PSoC6\pdl\drivers/peripheral/gpio/cy_gpio.h ****     portAddrHSIOM = (HSIOM_PRT_Type*)(HSIOM_BASE + (HSIOM_PRT_SECTION_SIZE * portNum));
 630:Generated_Source\PSoC6\pdl\drivers/peripheral/gpio/cy_gpio.h **** 
 631:Generated_Source\PSoC6\pdl\drivers/peripheral/gpio/cy_gpio.h ****     if(pinNum < CY_GPIO_PRT_HALF)
 632:Generated_Source\PSoC6\pdl\drivers/peripheral/gpio/cy_gpio.h ****     {
 633:Generated_Source\PSoC6\pdl\drivers/peripheral/gpio/cy_gpio.h ****         returnValue = (portAddrHSIOM->PORT_SEL0 >> (pinNum << CY_GPIO_HSIOM_OFFSET)) & CY_GPIO_HSIO
 634:Generated_Source\PSoC6\pdl\drivers/peripheral/gpio/cy_gpio.h ****     }
 635:Generated_Source\PSoC6\pdl\drivers/peripheral/gpio/cy_gpio.h ****     else
 636:Generated_Source\PSoC6\pdl\drivers/peripheral/gpio/cy_gpio.h ****     {
 637:Generated_Source\PSoC6\pdl\drivers/peripheral/gpio/cy_gpio.h ****         pinNum -= CY_GPIO_PRT_HALF;
 638:Generated_Source\PSoC6\pdl\drivers/peripheral/gpio/cy_gpio.h ****         returnValue = (portAddrHSIOM->PORT_SEL1 >> (pinNum << CY_GPIO_HSIOM_OFFSET)) & CY_GPIO_HSIO
 639:Generated_Source\PSoC6\pdl\drivers/peripheral/gpio/cy_gpio.h ****     }
 640:Generated_Source\PSoC6\pdl\drivers/peripheral/gpio/cy_gpio.h **** 
 641:Generated_Source\PSoC6\pdl\drivers/peripheral/gpio/cy_gpio.h ****     return (en_hsiom_sel_t)returnValue;
 642:Generated_Source\PSoC6\pdl\drivers/peripheral/gpio/cy_gpio.h **** }
 643:Generated_Source\PSoC6\pdl\drivers/peripheral/gpio/cy_gpio.h **** 
 644:Generated_Source\PSoC6\pdl\drivers/peripheral/gpio/cy_gpio.h **** 
 645:Generated_Source\PSoC6\pdl\drivers/peripheral/gpio/cy_gpio.h **** /*******************************************************************************
 646:Generated_Source\PSoC6\pdl\drivers/peripheral/gpio/cy_gpio.h **** * Function Name: Cy_GPIO_PortToAddr
 647:Generated_Source\PSoC6\pdl\drivers/peripheral/gpio/cy_gpio.h **** ****************************************************************************//**
 648:Generated_Source\PSoC6\pdl\drivers/peripheral/gpio/cy_gpio.h **** *
 649:Generated_Source\PSoC6\pdl\drivers/peripheral/gpio/cy_gpio.h **** * \brief Retrieves the port address based on the given port number.
 650:Generated_Source\PSoC6\pdl\drivers/peripheral/gpio/cy_gpio.h **** *
 651:Generated_Source\PSoC6\pdl\drivers/peripheral/gpio/cy_gpio.h **** * This is a helper function to calculate the port base address when given a port
 652:Generated_Source\PSoC6\pdl\drivers/peripheral/gpio/cy_gpio.h **** * number. It is to be used when pin access needs to be calculated at runtime.
 653:Generated_Source\PSoC6\pdl\drivers/peripheral/gpio/cy_gpio.h **** *
 654:Generated_Source\PSoC6\pdl\drivers/peripheral/gpio/cy_gpio.h **** * \param portNum
 655:Generated_Source\PSoC6\pdl\drivers/peripheral/gpio/cy_gpio.h **** * Port number
 656:Generated_Source\PSoC6\pdl\drivers/peripheral/gpio/cy_gpio.h **** *
 657:Generated_Source\PSoC6\pdl\drivers/peripheral/gpio/cy_gpio.h **** * \return
 658:Generated_Source\PSoC6\pdl\drivers/peripheral/gpio/cy_gpio.h **** * Base address of the port register structure
 659:Generated_Source\PSoC6\pdl\drivers/peripheral/gpio/cy_gpio.h **** *
 660:Generated_Source\PSoC6\pdl\drivers/peripheral/gpio/cy_gpio.h **** * \funcusage
 661:Generated_Source\PSoC6\pdl\drivers/peripheral/gpio/cy_gpio.h **** * \snippet gpio/gpio_v1_10_sut_01.cydsn/main_cm4.c snippet_Cy_GPIO_PortToAddr
 662:Generated_Source\PSoC6\pdl\drivers/peripheral/gpio/cy_gpio.h **** *
 663:Generated_Source\PSoC6\pdl\drivers/peripheral/gpio/cy_gpio.h **** *******************************************************************************/
 664:Generated_Source\PSoC6\pdl\drivers/peripheral/gpio/cy_gpio.h **** __STATIC_INLINE GPIO_PRT_Type* Cy_GPIO_PortToAddr(uint32_t portNum)
 665:Generated_Source\PSoC6\pdl\drivers/peripheral/gpio/cy_gpio.h **** {
 666:Generated_Source\PSoC6\pdl\drivers/peripheral/gpio/cy_gpio.h ****     GPIO_PRT_Type* base;
 667:Generated_Source\PSoC6\pdl\drivers/peripheral/gpio/cy_gpio.h ****     
 668:Generated_Source\PSoC6\pdl\drivers/peripheral/gpio/cy_gpio.h ****     if(portNum < (uint32_t)IOSS_GPIO_GPIO_PORT_NR)
 669:Generated_Source\PSoC6\pdl\drivers/peripheral/gpio/cy_gpio.h ****     {
 670:Generated_Source\PSoC6\pdl\drivers/peripheral/gpio/cy_gpio.h ****          base = (GPIO_PRT_Type *)(GPIO_BASE + (GPIO_PRT_SECTION_SIZE * portNum));
 671:Generated_Source\PSoC6\pdl\drivers/peripheral/gpio/cy_gpio.h ****     }
 672:Generated_Source\PSoC6\pdl\drivers/peripheral/gpio/cy_gpio.h ****     else
 673:Generated_Source\PSoC6\pdl\drivers/peripheral/gpio/cy_gpio.h ****     {
 674:Generated_Source\PSoC6\pdl\drivers/peripheral/gpio/cy_gpio.h ****         /* Error: Return default base address */
 675:Generated_Source\PSoC6\pdl\drivers/peripheral/gpio/cy_gpio.h ****         base = (GPIO_PRT_Type *)(GPIO_BASE);
 676:Generated_Source\PSoC6\pdl\drivers/peripheral/gpio/cy_gpio.h ****     }
 677:Generated_Source\PSoC6\pdl\drivers/peripheral/gpio/cy_gpio.h **** 
 678:Generated_Source\PSoC6\pdl\drivers/peripheral/gpio/cy_gpio.h ****     return (base);
 679:Generated_Source\PSoC6\pdl\drivers/peripheral/gpio/cy_gpio.h **** }
 680:Generated_Source\PSoC6\pdl\drivers/peripheral/gpio/cy_gpio.h **** 
 681:Generated_Source\PSoC6\pdl\drivers/peripheral/gpio/cy_gpio.h **** /** \} group_gpio_functions_init */
 682:Generated_Source\PSoC6\pdl\drivers/peripheral/gpio/cy_gpio.h **** 
 683:Generated_Source\PSoC6\pdl\drivers/peripheral/gpio/cy_gpio.h **** /**
 684:Generated_Source\PSoC6\pdl\drivers/peripheral/gpio/cy_gpio.h **** * \addtogroup group_gpio_functions_gpio
 685:Generated_Source\PSoC6\pdl\drivers/peripheral/gpio/cy_gpio.h **** * \{
ARM GAS  C:\Users\rober\AppData\Local\Temp\ccBlBMtt.s 			page 16


 686:Generated_Source\PSoC6\pdl\drivers/peripheral/gpio/cy_gpio.h **** */
 687:Generated_Source\PSoC6\pdl\drivers/peripheral/gpio/cy_gpio.h **** 
 688:Generated_Source\PSoC6\pdl\drivers/peripheral/gpio/cy_gpio.h **** /*******************************************************************************
 689:Generated_Source\PSoC6\pdl\drivers/peripheral/gpio/cy_gpio.h **** * Function Name: Cy_GPIO_Read
 690:Generated_Source\PSoC6\pdl\drivers/peripheral/gpio/cy_gpio.h **** ****************************************************************************//**
 691:Generated_Source\PSoC6\pdl\drivers/peripheral/gpio/cy_gpio.h **** *
 692:Generated_Source\PSoC6\pdl\drivers/peripheral/gpio/cy_gpio.h **** * \brief Reads the current logic level on the input buffer of the pin.
 693:Generated_Source\PSoC6\pdl\drivers/peripheral/gpio/cy_gpio.h **** *
 694:Generated_Source\PSoC6\pdl\drivers/peripheral/gpio/cy_gpio.h **** * \param base
 695:Generated_Source\PSoC6\pdl\drivers/peripheral/gpio/cy_gpio.h **** * Pointer to the pin's port register base address
 696:Generated_Source\PSoC6\pdl\drivers/peripheral/gpio/cy_gpio.h **** *
 697:Generated_Source\PSoC6\pdl\drivers/peripheral/gpio/cy_gpio.h **** * \param pinNum
 698:Generated_Source\PSoC6\pdl\drivers/peripheral/gpio/cy_gpio.h **** * Position of the pin bit-field within the port register.
 699:Generated_Source\PSoC6\pdl\drivers/peripheral/gpio/cy_gpio.h **** * Bit position 8 is the routed pin through the port glitch filter.
 700:Generated_Source\PSoC6\pdl\drivers/peripheral/gpio/cy_gpio.h **** *
 701:Generated_Source\PSoC6\pdl\drivers/peripheral/gpio/cy_gpio.h **** * \return
 702:Generated_Source\PSoC6\pdl\drivers/peripheral/gpio/cy_gpio.h **** * Logic level present on the pin
 703:Generated_Source\PSoC6\pdl\drivers/peripheral/gpio/cy_gpio.h **** *
 704:Generated_Source\PSoC6\pdl\drivers/peripheral/gpio/cy_gpio.h **** * \funcusage
 705:Generated_Source\PSoC6\pdl\drivers/peripheral/gpio/cy_gpio.h **** * \snippet gpio/gpio_v1_10_sut_01.cydsn/main_cm4.c snippet_Cy_GPIO_Read
 706:Generated_Source\PSoC6\pdl\drivers/peripheral/gpio/cy_gpio.h **** *
 707:Generated_Source\PSoC6\pdl\drivers/peripheral/gpio/cy_gpio.h **** *******************************************************************************/
 708:Generated_Source\PSoC6\pdl\drivers/peripheral/gpio/cy_gpio.h **** __STATIC_INLINE uint32_t Cy_GPIO_Read(GPIO_PRT_Type* base, uint32_t pinNum)
 709:Generated_Source\PSoC6\pdl\drivers/peripheral/gpio/cy_gpio.h **** {
 710:Generated_Source\PSoC6\pdl\drivers/peripheral/gpio/cy_gpio.h ****     CY_ASSERT_L2(CY_GPIO_IS_FILTER_PIN_VALID(pinNum));
 711:Generated_Source\PSoC6\pdl\drivers/peripheral/gpio/cy_gpio.h ****     
 712:Generated_Source\PSoC6\pdl\drivers/peripheral/gpio/cy_gpio.h ****     return (base->IN >> (pinNum)) & CY_GPIO_IN_MASK;
 713:Generated_Source\PSoC6\pdl\drivers/peripheral/gpio/cy_gpio.h **** }
 714:Generated_Source\PSoC6\pdl\drivers/peripheral/gpio/cy_gpio.h **** 
 715:Generated_Source\PSoC6\pdl\drivers/peripheral/gpio/cy_gpio.h **** 
 716:Generated_Source\PSoC6\pdl\drivers/peripheral/gpio/cy_gpio.h **** /*******************************************************************************
 717:Generated_Source\PSoC6\pdl\drivers/peripheral/gpio/cy_gpio.h **** * Function Name: Cy_GPIO_Write
 718:Generated_Source\PSoC6\pdl\drivers/peripheral/gpio/cy_gpio.h **** ****************************************************************************//**
 719:Generated_Source\PSoC6\pdl\drivers/peripheral/gpio/cy_gpio.h **** *
 720:Generated_Source\PSoC6\pdl\drivers/peripheral/gpio/cy_gpio.h **** * \brief Write a logic 0 or logic 1 state to the output driver.
 721:Generated_Source\PSoC6\pdl\drivers/peripheral/gpio/cy_gpio.h **** *
 722:Generated_Source\PSoC6\pdl\drivers/peripheral/gpio/cy_gpio.h **** * This function should be used only for software driven pins. It does not have
 723:Generated_Source\PSoC6\pdl\drivers/peripheral/gpio/cy_gpio.h **** * any effect on peripheral driven pins.
 724:Generated_Source\PSoC6\pdl\drivers/peripheral/gpio/cy_gpio.h **** *
 725:Generated_Source\PSoC6\pdl\drivers/peripheral/gpio/cy_gpio.h **** * \param base
 726:Generated_Source\PSoC6\pdl\drivers/peripheral/gpio/cy_gpio.h **** * Pointer to the pin's port register base address
 727:Generated_Source\PSoC6\pdl\drivers/peripheral/gpio/cy_gpio.h **** *
 728:Generated_Source\PSoC6\pdl\drivers/peripheral/gpio/cy_gpio.h **** * \param pinNum
 729:Generated_Source\PSoC6\pdl\drivers/peripheral/gpio/cy_gpio.h **** * Position of the pin bit-field within the port register
 730:Generated_Source\PSoC6\pdl\drivers/peripheral/gpio/cy_gpio.h **** *
 731:Generated_Source\PSoC6\pdl\drivers/peripheral/gpio/cy_gpio.h **** * \param value
 732:Generated_Source\PSoC6\pdl\drivers/peripheral/gpio/cy_gpio.h **** * Logic level to drive out on the pin
 733:Generated_Source\PSoC6\pdl\drivers/peripheral/gpio/cy_gpio.h **** *
 734:Generated_Source\PSoC6\pdl\drivers/peripheral/gpio/cy_gpio.h **** * \return
 735:Generated_Source\PSoC6\pdl\drivers/peripheral/gpio/cy_gpio.h **** * void
 736:Generated_Source\PSoC6\pdl\drivers/peripheral/gpio/cy_gpio.h **** *
 737:Generated_Source\PSoC6\pdl\drivers/peripheral/gpio/cy_gpio.h **** * \funcusage
 738:Generated_Source\PSoC6\pdl\drivers/peripheral/gpio/cy_gpio.h **** * \snippet gpio/gpio_v1_10_sut_01.cydsn/main_cm4.c snippet_Cy_GPIO_Write
 739:Generated_Source\PSoC6\pdl\drivers/peripheral/gpio/cy_gpio.h **** *
 740:Generated_Source\PSoC6\pdl\drivers/peripheral/gpio/cy_gpio.h **** *******************************************************************************/
 741:Generated_Source\PSoC6\pdl\drivers/peripheral/gpio/cy_gpio.h **** __STATIC_INLINE void Cy_GPIO_Write(GPIO_PRT_Type* base, uint32_t pinNum, uint32_t value)
 742:Generated_Source\PSoC6\pdl\drivers/peripheral/gpio/cy_gpio.h **** {
ARM GAS  C:\Users\rober\AppData\Local\Temp\ccBlBMtt.s 			page 17


 743:Generated_Source\PSoC6\pdl\drivers/peripheral/gpio/cy_gpio.h ****     CY_ASSERT_L2(CY_GPIO_IS_PIN_VALID(pinNum));
 744:Generated_Source\PSoC6\pdl\drivers/peripheral/gpio/cy_gpio.h ****     CY_ASSERT_L2(CY_GPIO_IS_VALUE_VALID(value));
 745:Generated_Source\PSoC6\pdl\drivers/peripheral/gpio/cy_gpio.h **** 
 746:Generated_Source\PSoC6\pdl\drivers/peripheral/gpio/cy_gpio.h ****     /* Thread-safe: Directly access the pin registers instead of base->OUT */
 747:Generated_Source\PSoC6\pdl\drivers/peripheral/gpio/cy_gpio.h ****     if(0UL == value)
 748:Generated_Source\PSoC6\pdl\drivers/peripheral/gpio/cy_gpio.h ****     {
 749:Generated_Source\PSoC6\pdl\drivers/peripheral/gpio/cy_gpio.h ****         base->OUT_CLR = CY_GPIO_OUT_MASK << pinNum;
  49              		.loc 2 749 0
  50 000a 0A4C     		ldr	r4, .L3
  51 000c 0825     		movs	r5, #8
  52 000e 6560     		str	r5, [r4, #4]
  53              	.LVL2:
  54              	.LBE59:
  55              	.LBE58:
 123:eInk Library/pervasive_eink_hardware_driver.c ****     /* Pull the chip select line LOW to begin communication */
 124:eInk Library/pervasive_eink_hardware_driver.c ****     CY_EINK_CsLow;
 125:eInk Library/pervasive_eink_hardware_driver.c ****     /* Send the header of register address index */
 126:eInk Library/pervasive_eink_hardware_driver.c ****     Cy_EINK_WriteSPI(PV_EINK_REG_INDEX_HEADER);
  56              		.loc 1 126 0
  57 0010 7020     		movs	r0, #112
  58              	.LVL3:
  59 0012 FFF7FEFF 		bl	Cy_EINK_WriteSPI
  60              	.LVL4:
 127:eInk Library/pervasive_eink_hardware_driver.c ****     /* Send the register address */
 128:eInk Library/pervasive_eink_hardware_driver.c ****     Cy_EINK_WriteSPI(regAddr);
  61              		.loc 1 128 0
  62 0016 4046     		mov	r0, r8
  63 0018 FFF7FEFF 		bl	Cy_EINK_WriteSPI
  64              	.LVL5:
  65              	.LBB60:
  66              	.LBB61:
 750:Generated_Source\PSoC6\pdl\drivers/peripheral/gpio/cy_gpio.h ****     }
 751:Generated_Source\PSoC6\pdl\drivers/peripheral/gpio/cy_gpio.h ****     else
 752:Generated_Source\PSoC6\pdl\drivers/peripheral/gpio/cy_gpio.h ****     {
 753:Generated_Source\PSoC6\pdl\drivers/peripheral/gpio/cy_gpio.h ****         base->OUT_SET = CY_GPIO_OUT_MASK << pinNum;
  67              		.loc 2 753 0
  68 001c A560     		str	r5, [r4, #8]
  69              	.LVL6:
  70              	.LBE61:
  71              	.LBE60:
  72              	.LBB62:
  73              	.LBB63:
 749:Generated_Source\PSoC6\pdl\drivers/peripheral/gpio/cy_gpio.h ****     }
  74              		.loc 2 749 0
  75 001e 6560     		str	r5, [r4, #4]
  76              	.LVL7:
  77              	.LBE63:
  78              	.LBE62:
 129:eInk Library/pervasive_eink_hardware_driver.c ****     /* Push the chip select line HIGH to end communication */
 130:eInk Library/pervasive_eink_hardware_driver.c ****     CY_EINK_CsHigh;
 131:eInk Library/pervasive_eink_hardware_driver.c ****     
 132:eInk Library/pervasive_eink_hardware_driver.c ****     /* Wait for 10uS before the next transmission */
 133:eInk Library/pervasive_eink_hardware_driver.c ****     CY_EINK_Wait10uS;
 134:eInk Library/pervasive_eink_hardware_driver.c ****     
 135:eInk Library/pervasive_eink_hardware_driver.c ****     /* Pull the chip select line LOW to begin communication */
 136:eInk Library/pervasive_eink_hardware_driver.c ****     CY_EINK_CsLow;
 137:eInk Library/pervasive_eink_hardware_driver.c ****     
ARM GAS  C:\Users\rober\AppData\Local\Temp\ccBlBMtt.s 			page 18


 138:eInk Library/pervasive_eink_hardware_driver.c ****     /* Send the header of data write index */
 139:eInk Library/pervasive_eink_hardware_driver.c ****     Cy_EINK_WriteSPI(PV_EINK_REG_DATA_WRITE);
  79              		.loc 1 139 0
  80 0020 7220     		movs	r0, #114
  81 0022 FFF7FEFF 		bl	Cy_EINK_WriteSPI
  82              	.LVL8:
 140:eInk Library/pervasive_eink_hardware_driver.c **** 
 141:eInk Library/pervasive_eink_hardware_driver.c **** #if (BUFFERED_WRITE == 1)    
 142:eInk Library/pervasive_eink_hardware_driver.c ****     Cy_EINK_WriteSPIBuffer(data, dataLength);
  83              		.loc 1 142 0
  84 0026 3946     		mov	r1, r7
  85 0028 3046     		mov	r0, r6
  86 002a FFF7FEFF 		bl	Cy_EINK_WriteSPIBuffer
  87              	.LVL9:
  88              	.LBB64:
  89              	.LBB65:
  90              		.loc 2 753 0
  91 002e A560     		str	r5, [r4, #8]
  92              	.LVL10:
  93 0030 BDE8F081 		pop	{r4, r5, r6, r7, r8, pc}
  94              	.LVL11:
  95              	.L4:
  96              		.align	2
  97              	.L3:
  98 0034 00063240 		.word	1077020160
  99              	.LBE65:
 100              	.LBE64:
 101              		.cfi_endproc
 102              	.LFE603:
 103              		.size	Pv_EINK_SendData, .-Pv_EINK_SendData
 104              		.section	.text.Pv_EINK_SendByte,"ax",%progbits
 105              		.align	2
 106              		.global	Pv_EINK_SendByte
 107              		.thumb
 108              		.thumb_func
 109              		.type	Pv_EINK_SendByte, %function
 110              	Pv_EINK_SendByte:
 111              	.LFB604:
 143:eInk Library/pervasive_eink_hardware_driver.c **** #else    
 144:eInk Library/pervasive_eink_hardware_driver.c ****     //    /* Send the array of data */
 145:eInk Library/pervasive_eink_hardware_driver.c ****     while (dataLength--)
 146:eInk Library/pervasive_eink_hardware_driver.c ****     {
 147:eInk Library/pervasive_eink_hardware_driver.c ****         Cy_EINK_WriteSPI(*data++);
 148:eInk Library/pervasive_eink_hardware_driver.c ****     }
 149:eInk Library/pervasive_eink_hardware_driver.c **** #endif
 150:eInk Library/pervasive_eink_hardware_driver.c **** 
 151:eInk Library/pervasive_eink_hardware_driver.c ****     /* Push the chip select line HIGH to end communication */
 152:eInk Library/pervasive_eink_hardware_driver.c ****     CY_EINK_CsHigh;
 153:eInk Library/pervasive_eink_hardware_driver.c **** }
 154:eInk Library/pervasive_eink_hardware_driver.c **** 
 155:eInk Library/pervasive_eink_hardware_driver.c **** /*******************************************************************************
 156:eInk Library/pervasive_eink_hardware_driver.c **** * Function Name: void Pv_EINK_SendByte(uint8_t regAddr, uint8_t data)
 157:eInk Library/pervasive_eink_hardware_driver.c **** ********************************************************************************
 158:eInk Library/pervasive_eink_hardware_driver.c **** *
 159:eInk Library/pervasive_eink_hardware_driver.c **** * Summary: Sends a byte of data to the E-INK driver.
 160:eInk Library/pervasive_eink_hardware_driver.c **** *
 161:eInk Library/pervasive_eink_hardware_driver.c **** * Parameters:
ARM GAS  C:\Users\rober\AppData\Local\Temp\ccBlBMtt.s 			page 19


 162:eInk Library/pervasive_eink_hardware_driver.c **** *  uint8_t regAddr: Display driver register address
 163:eInk Library/pervasive_eink_hardware_driver.c **** *  uint8_t data   : Data byte that will be sent to the driver
 164:eInk Library/pervasive_eink_hardware_driver.c **** *
 165:eInk Library/pervasive_eink_hardware_driver.c **** * Return:
 166:eInk Library/pervasive_eink_hardware_driver.c **** *  None
 167:eInk Library/pervasive_eink_hardware_driver.c **** *
 168:eInk Library/pervasive_eink_hardware_driver.c **** * Side Effects:
 169:eInk Library/pervasive_eink_hardware_driver.c **** *  None
 170:eInk Library/pervasive_eink_hardware_driver.c **** *******************************************************************************/
 171:eInk Library/pervasive_eink_hardware_driver.c **** void Pv_EINK_SendByte(uint8_t regAddr, uint8_t data)
 172:eInk Library/pervasive_eink_hardware_driver.c **** {
 112              		.loc 1 172 0
 113              		.cfi_startproc
 114              		@ args = 0, pretend = 0, frame = 8
 115              		@ frame_needed = 0, uses_anonymous_args = 0
 116              	.LVL12:
 117 0000 00B5     		push	{lr}
 118              		.cfi_def_cfa_offset 4
 119              		.cfi_offset 14, -4
 120 0002 83B0     		sub	sp, sp, #12
 121              		.cfi_def_cfa_offset 16
 122 0004 02AB     		add	r3, sp, #8
 123 0006 03F8011D 		strb	r1, [r3, #-1]!
 173:eInk Library/pervasive_eink_hardware_driver.c ****     /* Send a single byte of data */
 174:eInk Library/pervasive_eink_hardware_driver.c ****     Pv_EINK_SendData(regAddr, &data, CY_EINK_SINGLE_BYTE);
 124              		.loc 1 174 0
 125 000a 0122     		movs	r2, #1
 126 000c 1946     		mov	r1, r3
 127              	.LVL13:
 128 000e FFF7FEFF 		bl	Pv_EINK_SendData
 129              	.LVL14:
 175:eInk Library/pervasive_eink_hardware_driver.c **** }
 130              		.loc 1 175 0
 131 0012 03B0     		add	sp, sp, #12
 132              		.cfi_def_cfa_offset 4
 133              		@ sp needed
 134 0014 5DF804FB 		ldr	pc, [sp], #4
 135              		.cfi_endproc
 136              	.LFE604:
 137              		.size	Pv_EINK_SendByte, .-Pv_EINK_SendByte
 138              		.section	.text.Pv_EINK_ReadByte,"ax",%progbits
 139              		.align	2
 140              		.global	Pv_EINK_ReadByte
 141              		.thumb
 142              		.thumb_func
 143              		.type	Pv_EINK_ReadByte, %function
 144              	Pv_EINK_ReadByte:
 145              	.LFB605:
 176:eInk Library/pervasive_eink_hardware_driver.c **** 
 177:eInk Library/pervasive_eink_hardware_driver.c **** /*******************************************************************************
 178:eInk Library/pervasive_eink_hardware_driver.c **** * Function Name: uint8_t Pv_EINK_ReadByte(uint8_t regAddr, uint8_t data)
 179:eInk Library/pervasive_eink_hardware_driver.c **** ********************************************************************************
 180:eInk Library/pervasive_eink_hardware_driver.c **** *
 181:eInk Library/pervasive_eink_hardware_driver.c **** * Summary: Sends a read command to the E-INK driver and receives a byte of data
 182:eInk Library/pervasive_eink_hardware_driver.c **** *  from the driver.
 183:eInk Library/pervasive_eink_hardware_driver.c **** *
 184:eInk Library/pervasive_eink_hardware_driver.c **** * Parameters:
ARM GAS  C:\Users\rober\AppData\Local\Temp\ccBlBMtt.s 			page 20


 185:eInk Library/pervasive_eink_hardware_driver.c **** *  uint8_t regAddr: Display driver register address
 186:eInk Library/pervasive_eink_hardware_driver.c **** *  uint8_t data   : Data command that will be sent to the driver
 187:eInk Library/pervasive_eink_hardware_driver.c **** *
 188:eInk Library/pervasive_eink_hardware_driver.c **** * Return:
 189:eInk Library/pervasive_eink_hardware_driver.c **** *  uint8_t :  Data received from the display driver
 190:eInk Library/pervasive_eink_hardware_driver.c **** *
 191:eInk Library/pervasive_eink_hardware_driver.c **** * Side Effects:
 192:eInk Library/pervasive_eink_hardware_driver.c **** *  None
 193:eInk Library/pervasive_eink_hardware_driver.c **** *******************************************************************************/
 194:eInk Library/pervasive_eink_hardware_driver.c **** uint8_t Pv_EINK_ReadByte(uint8_t regAddr, uint8_t data)
 195:eInk Library/pervasive_eink_hardware_driver.c **** {
 146              		.loc 1 195 0
 147              		.cfi_startproc
 148              		@ args = 0, pretend = 0, frame = 0
 149              		@ frame_needed = 0, uses_anonymous_args = 0
 150              	.LVL15:
 151 0000 F8B5     		push	{r3, r4, r5, r6, r7, lr}
 152              		.cfi_def_cfa_offset 24
 153              		.cfi_offset 3, -24
 154              		.cfi_offset 4, -20
 155              		.cfi_offset 5, -16
 156              		.cfi_offset 6, -12
 157              		.cfi_offset 7, -8
 158              		.cfi_offset 14, -4
 159 0002 0746     		mov	r7, r0
 160 0004 0E46     		mov	r6, r1
 161              	.LVL16:
 162              	.LBB66:
 163              	.LBB67:
 749:Generated_Source\PSoC6\pdl\drivers/peripheral/gpio/cy_gpio.h ****     }
 164              		.loc 2 749 0
 165 0006 094C     		ldr	r4, .L9
 166 0008 0825     		movs	r5, #8
 167 000a 6560     		str	r5, [r4, #4]
 168              	.LVL17:
 169              	.LBE67:
 170              	.LBE66:
 196:eInk Library/pervasive_eink_hardware_driver.c ****     /* Variable that stores received data */
 197:eInk Library/pervasive_eink_hardware_driver.c ****     uint8_t dataRead;
 198:eInk Library/pervasive_eink_hardware_driver.c ****     
 199:eInk Library/pervasive_eink_hardware_driver.c ****     /* Pull the chip select line LOW to begin communication */
 200:eInk Library/pervasive_eink_hardware_driver.c ****     CY_EINK_CsLow;
 201:eInk Library/pervasive_eink_hardware_driver.c ****     /* Send the header of register address index */
 202:eInk Library/pervasive_eink_hardware_driver.c ****     Cy_EINK_WriteSPI(PV_EINK_REG_INDEX_HEADER);
 171              		.loc 1 202 0
 172 000c 7020     		movs	r0, #112
 173              	.LVL18:
 174 000e FFF7FEFF 		bl	Cy_EINK_WriteSPI
 175              	.LVL19:
 203:eInk Library/pervasive_eink_hardware_driver.c ****     /* Send the register address */
 204:eInk Library/pervasive_eink_hardware_driver.c ****     Cy_EINK_WriteSPI(regAddr);
 176              		.loc 1 204 0
 177 0012 3846     		mov	r0, r7
 178 0014 FFF7FEFF 		bl	Cy_EINK_WriteSPI
 179              	.LVL20:
 180              	.LBB68:
 181              	.LBB69:
ARM GAS  C:\Users\rober\AppData\Local\Temp\ccBlBMtt.s 			page 21


 182              		.loc 2 753 0
 183 0018 A560     		str	r5, [r4, #8]
 184              	.LVL21:
 185              	.LBE69:
 186              	.LBE68:
 187              	.LBB70:
 188              	.LBB71:
 749:Generated_Source\PSoC6\pdl\drivers/peripheral/gpio/cy_gpio.h ****     }
 189              		.loc 2 749 0
 190 001a 6560     		str	r5, [r4, #4]
 191              	.LVL22:
 192              	.LBE71:
 193              	.LBE70:
 205:eInk Library/pervasive_eink_hardware_driver.c ****     /* Push the chip select line HIGH to end communication */
 206:eInk Library/pervasive_eink_hardware_driver.c ****     CY_EINK_CsHigh;
 207:eInk Library/pervasive_eink_hardware_driver.c ****     
 208:eInk Library/pervasive_eink_hardware_driver.c ****     /* Wait for 10uS before the next transmission */
 209:eInk Library/pervasive_eink_hardware_driver.c ****     CY_EINK_Wait10uS;
 210:eInk Library/pervasive_eink_hardware_driver.c ****     
 211:eInk Library/pervasive_eink_hardware_driver.c ****     /* Pull the chip select line LOW to begin communication */
 212:eInk Library/pervasive_eink_hardware_driver.c ****     CY_EINK_CsLow;
 213:eInk Library/pervasive_eink_hardware_driver.c ****     /* Send the header of data read index */
 214:eInk Library/pervasive_eink_hardware_driver.c ****     Cy_EINK_WriteSPI(PV_EINK_REG_DATA_READ);
 194              		.loc 1 214 0
 195 001c 7320     		movs	r0, #115
 196 001e FFF7FEFF 		bl	Cy_EINK_WriteSPI
 197              	.LVL23:
 215:eInk Library/pervasive_eink_hardware_driver.c ****     /* Send the command to receive a byte of data */
 216:eInk Library/pervasive_eink_hardware_driver.c ****     dataRead = Cy_EINK_ReadSPI(data);
 198              		.loc 1 216 0
 199 0022 3046     		mov	r0, r6
 200 0024 FFF7FEFF 		bl	Cy_EINK_ReadSPI
 201              	.LVL24:
 202              	.LBB72:
 203              	.LBB73:
 204              		.loc 2 753 0
 205 0028 A560     		str	r5, [r4, #8]
 206              	.LVL25:
 207              	.LBE73:
 208              	.LBE72:
 217:eInk Library/pervasive_eink_hardware_driver.c ****     /* Push the chip select line HIGH to end communication*/
 218:eInk Library/pervasive_eink_hardware_driver.c ****     CY_EINK_CsHigh;
 219:eInk Library/pervasive_eink_hardware_driver.c ****     
 220:eInk Library/pervasive_eink_hardware_driver.c ****     /* Return the received data */
 221:eInk Library/pervasive_eink_hardware_driver.c ****     return(dataRead);
 222:eInk Library/pervasive_eink_hardware_driver.c **** }
 209              		.loc 1 222 0
 210 002a F8BD     		pop	{r3, r4, r5, r6, r7, pc}
 211              	.L10:
 212              		.align	2
 213              	.L9:
 214 002c 00063240 		.word	1077020160
 215              		.cfi_endproc
 216              	.LFE605:
 217              		.size	Pv_EINK_ReadByte, .-Pv_EINK_ReadByte
 218              		.section	.text.Pv_EINK_Init,"ax",%progbits
 219              		.align	2
ARM GAS  C:\Users\rober\AppData\Local\Temp\ccBlBMtt.s 			page 22


 220              		.global	Pv_EINK_Init
 221              		.thumb
 222              		.thumb_func
 223              		.type	Pv_EINK_Init, %function
 224              	Pv_EINK_Init:
 225              	.LFB606:
 223:eInk Library/pervasive_eink_hardware_driver.c **** 
 224:eInk Library/pervasive_eink_hardware_driver.c **** /*******************************************************************************
 225:eInk Library/pervasive_eink_hardware_driver.c **** * Function Name: void  Pv_EINK_Init()
 226:eInk Library/pervasive_eink_hardware_driver.c **** ********************************************************************************
 227:eInk Library/pervasive_eink_hardware_driver.c **** *
 228:eInk Library/pervasive_eink_hardware_driver.c **** * Summary: Initialize the E-INK display hardware and associated PSoC components.
 229:eInk Library/pervasive_eink_hardware_driver.c **** *
 230:eInk Library/pervasive_eink_hardware_driver.c **** * Parameters:
 231:eInk Library/pervasive_eink_hardware_driver.c **** *  None
 232:eInk Library/pervasive_eink_hardware_driver.c **** *
 233:eInk Library/pervasive_eink_hardware_driver.c **** * Return:
 234:eInk Library/pervasive_eink_hardware_driver.c **** *  None
 235:eInk Library/pervasive_eink_hardware_driver.c **** *
 236:eInk Library/pervasive_eink_hardware_driver.c **** * Side Effects:
 237:eInk Library/pervasive_eink_hardware_driver.c **** *  None
 238:eInk Library/pervasive_eink_hardware_driver.c **** *******************************************************************************/
 239:eInk Library/pervasive_eink_hardware_driver.c **** void Pv_EINK_Init(void)
 240:eInk Library/pervasive_eink_hardware_driver.c **** {
 226              		.loc 1 240 0
 227              		.cfi_startproc
 228              		@ args = 0, pretend = 0, frame = 0
 229              		@ frame_needed = 0, uses_anonymous_args = 0
 230 0000 38B5     		push	{r3, r4, r5, lr}
 231              		.cfi_def_cfa_offset 16
 232              		.cfi_offset 3, -16
 233              		.cfi_offset 4, -12
 234              		.cfi_offset 5, -8
 235              		.cfi_offset 14, -4
 236              	.LVL26:
 237              	.LBB74:
 238              	.LBB75:
 749:Generated_Source\PSoC6\pdl\drivers/peripheral/gpio/cy_gpio.h ****     }
 239              		.loc 2 749 0
 240 0002 0425     		movs	r5, #4
 241 0004 084B     		ldr	r3, .L13
 242 0006 5D60     		str	r5, [r3, #4]
 243              	.LVL27:
 244              	.LBE75:
 245              	.LBE74:
 246              	.LBB76:
 247              	.LBB77:
 248 0008 084C     		ldr	r4, .L13+4
 249 000a 4023     		movs	r3, #64
 250 000c 6360     		str	r3, [r4, #4]
 251              	.LVL28:
 252              	.LBE77:
 253              	.LBE76:
 254              	.LBB78:
 255              	.LBB79:
 256 000e 1023     		movs	r3, #16
 257 0010 6360     		str	r3, [r4, #4]
ARM GAS  C:\Users\rober\AppData\Local\Temp\ccBlBMtt.s 			page 23


 258              	.LVL29:
 259              	.LBE79:
 260              	.LBE78:
 241:eInk Library/pervasive_eink_hardware_driver.c ****     /* Enable the level translator located between PSoC and the E-INK display */
 242:eInk Library/pervasive_eink_hardware_driver.c ****     CY_EINK_EnableIO;
 243:eInk Library/pervasive_eink_hardware_driver.c ****     /* Pull the Border pin to LOW */
 244:eInk Library/pervasive_eink_hardware_driver.c ****     CY_EINK_BorderLow;
 245:eInk Library/pervasive_eink_hardware_driver.c ****     /* Disable the load switch connected to E-INK display's Vcc */
 246:eInk Library/pervasive_eink_hardware_driver.c ****     CY_EINK_TurnOffVcc;
 247:eInk Library/pervasive_eink_hardware_driver.c ****     
 248:eInk Library/pervasive_eink_hardware_driver.c ****     /* Initialize the PSoC SPI */
 249:eInk Library/pervasive_eink_hardware_driver.c ****     Cy_EINK_InitSPI();
 261              		.loc 1 249 0
 262 0012 FFF7FEFF 		bl	Cy_EINK_InitSPI
 263              	.LVL30:
 264              	.LBB80:
 265              	.LBB81:
 749:Generated_Source\PSoC6\pdl\drivers/peripheral/gpio/cy_gpio.h ****     }
 266              		.loc 2 749 0
 267 0016 0822     		movs	r2, #8
 268 0018 054B     		ldr	r3, .L13+8
 269 001a 5A60     		str	r2, [r3, #4]
 270              	.LVL31:
 271              	.LBE81:
 272              	.LBE80:
 273              	.LBB82:
 274              	.LBB83:
 275 001c 6560     		str	r5, [r4, #4]
 276              	.LVL32:
 277              	.LBE83:
 278              	.LBE82:
 279              	.LBB84:
 280              	.LBB85:
 281 001e 2023     		movs	r3, #32
 282 0020 6360     		str	r3, [r4, #4]
 283              	.LVL33:
 284              	.LBE85:
 285              	.LBE84:
 250:eInk Library/pervasive_eink_hardware_driver.c ****     /* Pull the chip select, reset and discharge pins to LOW */
 251:eInk Library/pervasive_eink_hardware_driver.c ****     CY_EINK_CsLow;
 252:eInk Library/pervasive_eink_hardware_driver.c ****     CY_EINK_RstLow;
 253:eInk Library/pervasive_eink_hardware_driver.c ****     CY_EINK_DischargeLow;
 254:eInk Library/pervasive_eink_hardware_driver.c ****     
 255:eInk Library/pervasive_eink_hardware_driver.c ****     /* Initialize the E-INK display Timer */
 256:eInk Library/pervasive_eink_hardware_driver.c ****     Cy_EINK_TimerInit();
 286              		.loc 1 256 0
 287 0022 FFF7FEFF 		bl	Cy_EINK_TimerInit
 288              	.LVL34:
 289 0026 38BD     		pop	{r3, r4, r5, pc}
 290              	.L14:
 291              		.align	2
 292              	.L13:
 293 0028 00003240 		.word	1077018624
 294 002c 80023240 		.word	1077019264
 295 0030 00063240 		.word	1077020160
 296              		.cfi_endproc
 297              	.LFE606:
ARM GAS  C:\Users\rober\AppData\Local\Temp\ccBlBMtt.s 			page 24


 298              		.size	Pv_EINK_Init, .-Pv_EINK_Init
 299              		.section	.text.Pv_EINK_InitDriver,"ax",%progbits
 300              		.align	2
 301              		.global	Pv_EINK_InitDriver
 302              		.thumb
 303              		.thumb_func
 304              		.type	Pv_EINK_InitDriver, %function
 305              	Pv_EINK_InitDriver:
 306              	.LFB607:
 257:eInk Library/pervasive_eink_hardware_driver.c **** }
 258:eInk Library/pervasive_eink_hardware_driver.c **** 
 259:eInk Library/pervasive_eink_hardware_driver.c **** /*******************************************************************************
 260:eInk Library/pervasive_eink_hardware_driver.c **** * Function Name: Cy_EINK_Status PV_EINK_InitDriver(void)
 261:eInk Library/pervasive_eink_hardware_driver.c **** ********************************************************************************
 262:eInk Library/pervasive_eink_hardware_driver.c **** *
 263:eInk Library/pervasive_eink_hardware_driver.c **** * Summary: Initialize E-INK Driver. For detailed flow and description, please 
 264:eInk Library/pervasive_eink_hardware_driver.c **** * refer to the driver G2 document Section 4.
 265:eInk Library/pervasive_eink_hardware_driver.c **** *
 266:eInk Library/pervasive_eink_hardware_driver.c **** * Parameters:
 267:eInk Library/pervasive_eink_hardware_driver.c **** *  None
 268:eInk Library/pervasive_eink_hardware_driver.c **** *
 269:eInk Library/pervasive_eink_hardware_driver.c **** * Return:
 270:eInk Library/pervasive_eink_hardware_driver.c **** *  pv_eink_status_t: Status of the initialization
 271:eInk Library/pervasive_eink_hardware_driver.c **** *
 272:eInk Library/pervasive_eink_hardware_driver.c **** * Side Effects:
 273:eInk Library/pervasive_eink_hardware_driver.c **** *  None
 274:eInk Library/pervasive_eink_hardware_driver.c **** *******************************************************************************/
 275:eInk Library/pervasive_eink_hardware_driver.c **** pv_eink_status_t Pv_EINK_InitDriver(void)
 276:eInk Library/pervasive_eink_hardware_driver.c **** {
 307              		.loc 1 276 0
 308              		.cfi_startproc
 309              		@ args = 0, pretend = 0, frame = 0
 310              		@ frame_needed = 0, uses_anonymous_args = 0
 311 0000 10B5     		push	{r4, lr}
 312              		.cfi_def_cfa_offset 8
 313              		.cfi_offset 4, -8
 314              		.cfi_offset 14, -4
 315              	.LVL35:
 277:eInk Library/pervasive_eink_hardware_driver.c ****     /* Variable used to count the number of loops */
 278:eInk Library/pervasive_eink_hardware_driver.c ****     uint16_t    loopCounter = 0;
 279:eInk Library/pervasive_eink_hardware_driver.c ****     
 280:eInk Library/pervasive_eink_hardware_driver.c ****     /* Clear the line buffer with all zeros */
 281:eInk Library/pervasive_eink_hardware_driver.c ****     memset(&driverPacket.lineBuffer, 0, sizeof(driverPacket.lineBuffer)) ;
 316              		.loc 1 281 0
 317 0002 434C     		ldr	r4, .L28
 318 0004 6F22     		movs	r2, #111
 319 0006 0021     		movs	r1, #0
 320 0008 2046     		mov	r0, r4
 321 000a FFF7FEFF 		bl	memset
 322              	.LVL36:
 282:eInk Library/pervasive_eink_hardware_driver.c ****     
 283:eInk Library/pervasive_eink_hardware_driver.c ****     /* Initialize the even data, odd data and scan data pointers */
 284:eInk Library/pervasive_eink_hardware_driver.c ****     dataLineEven = &driverPacket.lineDataBySize.even[0];
 323              		.loc 1 284 0
 324 000e 631C     		adds	r3, r4, #1
 325 0010 2367     		str	r3, [r4, #112]
 285:eInk Library/pervasive_eink_hardware_driver.c ****     dataLineOdd  = &driverPacket.lineDataBySize.odd[0];
ARM GAS  C:\Users\rober\AppData\Local\Temp\ccBlBMtt.s 			page 25


 326              		.loc 1 285 0
 327 0012 04F14E03 		add	r3, r4, #78
 328 0016 6367     		str	r3, [r4, #116]
 286:eInk Library/pervasive_eink_hardware_driver.c ****     dataLineScan = &driverPacket.lineDataBySize.scan[0];
 329              		.loc 1 286 0
 330 0018 04F12203 		add	r3, r4, #34
 331 001c A367     		str	r3, [r4, #120]
 287:eInk Library/pervasive_eink_hardware_driver.c ****     
 288:eInk Library/pervasive_eink_hardware_driver.c ****     /* Initialize and start the E-INK Timer   */
 289:eInk Library/pervasive_eink_hardware_driver.c ****     Cy_EINK_TimerInit();
 332              		.loc 1 289 0
 333 001e FFF7FEFF 		bl	Cy_EINK_TimerInit
 334              	.LVL37:
 290:eInk Library/pervasive_eink_hardware_driver.c ****         
 291:eInk Library/pervasive_eink_hardware_driver.c ****     /* Check if E-INK driver is busy */
 292:eInk Library/pervasive_eink_hardware_driver.c ****     while (Cy_EINK_IsBusy())
 335              		.loc 1 292 0
 336 0022 03E0     		b	.L16
 337              	.L18:
 293:eInk Library/pervasive_eink_hardware_driver.c ****     {
 294:eInk Library/pervasive_eink_hardware_driver.c ****         /* If the E-INK driver is busy for more than maximum allowed time,
 295:eInk Library/pervasive_eink_hardware_driver.c ****            return an error message */
 296:eInk Library/pervasive_eink_hardware_driver.c ****         if (Cy_EINK_GetTimeTick() >= PV_EINK_MAX_PV_EINK_BUSY_TIME)
 338              		.loc 1 296 0
 339 0024 FFF7FEFF 		bl	Cy_EINK_GetTimeTick
 340              	.LVL38:
 341 0028 0328     		cmp	r0, #3
 342 002a 68D8     		bhi	.L22
 343              	.L16:
 292:eInk Library/pervasive_eink_hardware_driver.c ****     {
 344              		.loc 1 292 0
 345 002c FFF7FEFF 		bl	Cy_EINK_IsBusy
 346              	.LVL39:
 347 0030 0028     		cmp	r0, #0
 348 0032 F7D1     		bne	.L18
 297:eInk Library/pervasive_eink_hardware_driver.c ****         {
 298:eInk Library/pervasive_eink_hardware_driver.c ****             return(PV_EINK_ERROR_BUSY);
 299:eInk Library/pervasive_eink_hardware_driver.c ****         }
 300:eInk Library/pervasive_eink_hardware_driver.c ****     }
 301:eInk Library/pervasive_eink_hardware_driver.c ****     
 302:eInk Library/pervasive_eink_hardware_driver.c ****     /* Stop the E-INK Timer */
 303:eInk Library/pervasive_eink_hardware_driver.c ****     Cy_EINK_TimerStop();
 349              		.loc 1 303 0
 350 0034 FFF7FEFF 		bl	Cy_EINK_TimerStop
 351              	.LVL40:
 304:eInk Library/pervasive_eink_hardware_driver.c ****     
 305:eInk Library/pervasive_eink_hardware_driver.c ****     /* Check the driver ID */
 306:eInk Library/pervasive_eink_hardware_driver.c ****     if ((Pv_EINK_ReadByte(PV_EINK_DRIVER_ID_COMMAND_INDEX, 
 352              		.loc 1 306 0
 353 0038 0021     		movs	r1, #0
 354 003a 7220     		movs	r0, #114
 355 003c FFF7FEFF 		bl	Pv_EINK_ReadByte
 356              	.LVL41:
 357 0040 00F00F00 		and	r0, r0, #15
 358 0044 0228     		cmp	r0, #2
 359 0046 5CD1     		bne	.L23
 307:eInk Library/pervasive_eink_hardware_driver.c ****                           PV_EINK_DRIVER_ID_COMMAND_DATA)
ARM GAS  C:\Users\rober\AppData\Local\Temp\ccBlBMtt.s 			page 26


 308:eInk Library/pervasive_eink_hardware_driver.c ****                           & PV_EINK_DRIVER_ID_MASK)
 309:eInk Library/pervasive_eink_hardware_driver.c ****                           != PV_EINK_DRIVER_ID_CHECK)
 310:eInk Library/pervasive_eink_hardware_driver.c ****     {
 311:eInk Library/pervasive_eink_hardware_driver.c ****         /* Return an error message if incorrect driver ID is received */
 312:eInk Library/pervasive_eink_hardware_driver.c ****         return(PV_EINK_ERROR_ID);
 313:eInk Library/pervasive_eink_hardware_driver.c ****     }
 314:eInk Library/pervasive_eink_hardware_driver.c ****     /* Disable OE */
 315:eInk Library/pervasive_eink_hardware_driver.c ****     Pv_EINK_SendByte(PV_EINK_DISABLE_OE_COMMAND_INDEX, 
 360              		.loc 1 315 0
 361 0048 4021     		movs	r1, #64
 362 004a FFF7FEFF 		bl	Pv_EINK_SendByte
 363              	.LVL42:
 316:eInk Library/pervasive_eink_hardware_driver.c ****                      PV_EINK_DISABLE_OE_COMMAND_DATA);
 317:eInk Library/pervasive_eink_hardware_driver.c ****     
 318:eInk Library/pervasive_eink_hardware_driver.c ****     /* Check Breakage */
 319:eInk Library/pervasive_eink_hardware_driver.c ****     if ((Pv_EINK_ReadByte(PV_EINK_TEST_BREAKAGE_COMMAND_INDEX,
 364              		.loc 1 319 0
 365 004e 0021     		movs	r1, #0
 366 0050 0F20     		movs	r0, #15
 367 0052 FFF7FEFF 		bl	Pv_EINK_ReadByte
 368              	.LVL43:
 369 0056 10F0800F 		tst	r0, #128
 370 005a 54D0     		beq	.L24
 320:eInk Library/pervasive_eink_hardware_driver.c ****                           PV_EINK_TEST_BREAKAGE_COMMAND_DATA) & 
 321:eInk Library/pervasive_eink_hardware_driver.c ****                           PV_EINK_TEST_BREAKAGE_MASK)
 322:eInk Library/pervasive_eink_hardware_driver.c ****                           != PV_EINK_TEST_BREAKAGE_CHECK)
 323:eInk Library/pervasive_eink_hardware_driver.c ****     {
 324:eInk Library/pervasive_eink_hardware_driver.c ****         /* Send the error message for breakage */
 325:eInk Library/pervasive_eink_hardware_driver.c ****         return(PV_EINK_ERROR_BREAKAGE);
 326:eInk Library/pervasive_eink_hardware_driver.c ****     }
 327:eInk Library/pervasive_eink_hardware_driver.c ****     /* Power Saving Mode */
 328:eInk Library/pervasive_eink_hardware_driver.c ****     Pv_EINK_SendByte(PV_EINK_PWR_SAVING_COMMAND_INDEX, 
 371              		.loc 1 328 0
 372 005c 0221     		movs	r1, #2
 373 005e 0B20     		movs	r0, #11
 374 0060 FFF7FEFF 		bl	Pv_EINK_SendByte
 375              	.LVL44:
 329:eInk Library/pervasive_eink_hardware_driver.c ****                   PV_EINK_PWR1_SAVING_COMMAND_DATA);
 330:eInk Library/pervasive_eink_hardware_driver.c ****     
 331:eInk Library/pervasive_eink_hardware_driver.c ****     /* Channel Select */
 332:eInk Library/pervasive_eink_hardware_driver.c ****     Pv_EINK_SendData(PV_EINK_CHANNEL_SEL_COMMAND_INDEX, 
 376              		.loc 1 332 0
 377 0064 0822     		movs	r2, #8
 378 0066 2B49     		ldr	r1, .L28+4
 379 0068 0120     		movs	r0, #1
 380 006a FFF7FEFF 		bl	Pv_EINK_SendData
 381              	.LVL45:
 333:eInk Library/pervasive_eink_hardware_driver.c ****                     (uint8_t*) &channelSelect,
 334:eInk Library/pervasive_eink_hardware_driver.c ****                      PV_EINK_CHANNEL_SEL_SIZE);
 335:eInk Library/pervasive_eink_hardware_driver.c ****     
 336:eInk Library/pervasive_eink_hardware_driver.c ****     /* High Power Mode Oscillator Setting */
 337:eInk Library/pervasive_eink_hardware_driver.c ****     Pv_EINK_SendByte(PV_EINK_OSC_SETTING_COMMAND_INDEX, 
 382              		.loc 1 337 0
 383 006e D121     		movs	r1, #209
 384 0070 0720     		movs	r0, #7
 385 0072 FFF7FEFF 		bl	Pv_EINK_SendByte
 386              	.LVL46:
ARM GAS  C:\Users\rober\AppData\Local\Temp\ccBlBMtt.s 			page 27


 338:eInk Library/pervasive_eink_hardware_driver.c ****                      PV_EINK_OSC_SETTING_COMMAND_DATA);
 339:eInk Library/pervasive_eink_hardware_driver.c ****     /* Power Setting */
 340:eInk Library/pervasive_eink_hardware_driver.c ****     Pv_EINK_SendByte(PV_EINK_PWR1_SETTING_COMMAND_INDEX,
 387              		.loc 1 340 0
 388 0076 0221     		movs	r1, #2
 389 0078 0820     		movs	r0, #8
 390 007a FFF7FEFF 		bl	Pv_EINK_SendByte
 391              	.LVL47:
 341:eInk Library/pervasive_eink_hardware_driver.c ****                      PV_EINK_PWR1_SETTING_COMMAND_DATA);
 342:eInk Library/pervasive_eink_hardware_driver.c ****     /* Set Vcom level */
 343:eInk Library/pervasive_eink_hardware_driver.c ****     Pv_EINK_SendByte(PV_EINK_VCOM1_LEVEL_COMMAND_INDEX, 
 392              		.loc 1 343 0
 393 007e C221     		movs	r1, #194
 394 0080 0920     		movs	r0, #9
 395 0082 FFF7FEFF 		bl	Pv_EINK_SendByte
 396              	.LVL48:
 344:eInk Library/pervasive_eink_hardware_driver.c ****                      PV_EINK_VCOM1_LEVEL_COMMAND_DATA);
 345:eInk Library/pervasive_eink_hardware_driver.c ****     /* Power Setting */
 346:eInk Library/pervasive_eink_hardware_driver.c ****     Pv_EINK_SendByte(PV_EINK_PWR2_SETTING_COMMAND_INDEX,
 397              		.loc 1 346 0
 398 0086 0321     		movs	r1, #3
 399 0088 0420     		movs	r0, #4
 400 008a FFF7FEFF 		bl	Pv_EINK_SendByte
 401              	.LVL49:
 347:eInk Library/pervasive_eink_hardware_driver.c ****                      PV_EINK_PWR2_SETTING_COMMAND_DATA);
 348:eInk Library/pervasive_eink_hardware_driver.c ****                   
 349:eInk Library/pervasive_eink_hardware_driver.c ****     /* Driver latch on */
 350:eInk Library/pervasive_eink_hardware_driver.c ****     Pv_EINK_SendByte(PV_EINK_LATCH_OFF_COMMAND_INDEX,
 402              		.loc 1 350 0
 403 008e 0121     		movs	r1, #1
 404 0090 0320     		movs	r0, #3
 405 0092 FFF7FEFF 		bl	Pv_EINK_SendByte
 406              	.LVL50:
 351:eInk Library/pervasive_eink_hardware_driver.c ****                      PV_EINK_LATCH_ON_COMMAND_DATA);
 352:eInk Library/pervasive_eink_hardware_driver.c ****     /* Driver latch off */
 353:eInk Library/pervasive_eink_hardware_driver.c ****     Pv_EINK_SendByte(PV_EINK_LATCH_OFF_COMMAND_INDEX, 
 407              		.loc 1 353 0
 408 0096 0021     		movs	r1, #0
 409 0098 0320     		movs	r0, #3
 410 009a FFF7FEFF 		bl	Pv_EINK_SendByte
 411              	.LVL51:
 354:eInk Library/pervasive_eink_hardware_driver.c ****                      PV_EINK_LATCH_OFF_COMMAND_DATA);
 355:eInk Library/pervasive_eink_hardware_driver.c ****     CY_EINK_Delay(PV_EINK_PIN_DELAY);
 412              		.loc 1 355 0
 413 009e 0A20     		movs	r0, #10
 414 00a0 FFF7FEFF 		bl	Cy_SysLib_Delay
 415              	.LVL52:
 278:eInk Library/pervasive_eink_hardware_driver.c ****     
 416              		.loc 1 278 0
 417 00a4 0024     		movs	r4, #0
 418 00a6 00E0     		b	.L21
 419              	.LVL53:
 420              	.L25:
 356:eInk Library/pervasive_eink_hardware_driver.c ****     
 357:eInk Library/pervasive_eink_hardware_driver.c ****     /* Start the charge pump */
 358:eInk Library/pervasive_eink_hardware_driver.c ****     do
 359:eInk Library/pervasive_eink_hardware_driver.c ****     {
ARM GAS  C:\Users\rober\AppData\Local\Temp\ccBlBMtt.s 			page 28


 360:eInk Library/pervasive_eink_hardware_driver.c ****         /* Start charge pump positive voltage (VGH & VDH on) */
 361:eInk Library/pervasive_eink_hardware_driver.c ****         Pv_EINK_SendByte(PV_EINK_VGH_VDH_ON_COMMAND_INDEX,
 362:eInk Library/pervasive_eink_hardware_driver.c ****                       PV_EINK_VGH_VDH_ON_COMMAND_DATA);
 363:eInk Library/pervasive_eink_hardware_driver.c ****         CY_EINK_Delay(PV_EINK_POSITIVE_V_DELAY);
 364:eInk Library/pervasive_eink_hardware_driver.c ****         
 365:eInk Library/pervasive_eink_hardware_driver.c ****         /* Start charge pump negative voltage (VGL & VDL on) */
 366:eInk Library/pervasive_eink_hardware_driver.c ****         Pv_EINK_SendByte(PV_EINK_VGH_VDH_ON_COMMAND_INDEX,
 367:eInk Library/pervasive_eink_hardware_driver.c ****                       PV_EINK_VGL_VDL_ON_COMMAND_DATA);
 368:eInk Library/pervasive_eink_hardware_driver.c ****         CY_EINK_Delay(PV_EINK_PWR_CTRL_DELAY);
 369:eInk Library/pervasive_eink_hardware_driver.c ****         
 370:eInk Library/pervasive_eink_hardware_driver.c ****         /* Set charge pump (Vcom_Driver on) */
 371:eInk Library/pervasive_eink_hardware_driver.c ****         Pv_EINK_SendByte(PV_EINK_VCOM_DRIVE_ON_COMMAND_INDEX,
 372:eInk Library/pervasive_eink_hardware_driver.c ****                       PV_EINK_VCOM_DRIVE_ON_COMMAND_DATA);
 373:eInk Library/pervasive_eink_hardware_driver.c ****         CY_EINK_Delay(PV_EINK_PWR_CTRL_DELAY);
 374:eInk Library/pervasive_eink_hardware_driver.c ****         
 375:eInk Library/pervasive_eink_hardware_driver.c ****         /* Check DC level */
 376:eInk Library/pervasive_eink_hardware_driver.c ****         if ((Pv_EINK_ReadByte(PV_EINK_DC_LEVEL_READ_COMMAND_INDEX,
 377:eInk Library/pervasive_eink_hardware_driver.c ****                            PV_EINK_DC_LEVEL_READ_COMMAND_DATA) & 
 378:eInk Library/pervasive_eink_hardware_driver.c ****                            PV_EINK_DC_LEVEL_MASK)
 379:eInk Library/pervasive_eink_hardware_driver.c ****                            != PV_EINK_DC_LEVEL_CHECK)
 380:eInk Library/pervasive_eink_hardware_driver.c ****         {
 381:eInk Library/pervasive_eink_hardware_driver.c ****             /* Disable OLE */
 382:eInk Library/pervasive_eink_hardware_driver.c ****             Pv_EINK_SendByte(PV_EINK_DISABLE_OE_COMMAND_INDEX,
 383:eInk Library/pervasive_eink_hardware_driver.c ****                           PV_EINK_DISABLE_OE_COMMAND_DATA);
 384:eInk Library/pervasive_eink_hardware_driver.c ****             break;
 385:eInk Library/pervasive_eink_hardware_driver.c ****         }
 386:eInk Library/pervasive_eink_hardware_driver.c ****     }
 387:eInk Library/pervasive_eink_hardware_driver.c ****     /* Perform this operation for required charge pump write cycles */
 388:eInk Library/pervasive_eink_hardware_driver.c ****     while ((loopCounter++) != PV_EINK_CHARGE_PUMP_MAX_WRITE);
 421              		.loc 1 388 0
 422 00a8 1C46     		mov	r4, r3
 423              	.LVL54:
 424              	.L21:
 361:eInk Library/pervasive_eink_hardware_driver.c ****                       PV_EINK_VGH_VDH_ON_COMMAND_DATA);
 425              		.loc 1 361 0
 426 00aa 0121     		movs	r1, #1
 427 00ac 0520     		movs	r0, #5
 428 00ae FFF7FEFF 		bl	Pv_EINK_SendByte
 429              	.LVL55:
 363:eInk Library/pervasive_eink_hardware_driver.c ****         
 430              		.loc 1 363 0
 431 00b2 6420     		movs	r0, #100
 432 00b4 FFF7FEFF 		bl	Cy_SysLib_Delay
 433              	.LVL56:
 366:eInk Library/pervasive_eink_hardware_driver.c ****                       PV_EINK_VGL_VDL_ON_COMMAND_DATA);
 434              		.loc 1 366 0
 435 00b8 0321     		movs	r1, #3
 436 00ba 0520     		movs	r0, #5
 437 00bc FFF7FEFF 		bl	Pv_EINK_SendByte
 438              	.LVL57:
 368:eInk Library/pervasive_eink_hardware_driver.c ****         
 439              		.loc 1 368 0
 440 00c0 3220     		movs	r0, #50
 441 00c2 FFF7FEFF 		bl	Cy_SysLib_Delay
 442              	.LVL58:
 371:eInk Library/pervasive_eink_hardware_driver.c ****                       PV_EINK_VCOM_DRIVE_ON_COMMAND_DATA);
 443              		.loc 1 371 0
ARM GAS  C:\Users\rober\AppData\Local\Temp\ccBlBMtt.s 			page 29


 444 00c6 0F21     		movs	r1, #15
 445 00c8 0520     		movs	r0, #5
 446 00ca FFF7FEFF 		bl	Pv_EINK_SendByte
 447              	.LVL59:
 373:eInk Library/pervasive_eink_hardware_driver.c ****         
 448              		.loc 1 373 0
 449 00ce 3220     		movs	r0, #50
 450 00d0 FFF7FEFF 		bl	Cy_SysLib_Delay
 451              	.LVL60:
 376:eInk Library/pervasive_eink_hardware_driver.c ****                            PV_EINK_DC_LEVEL_READ_COMMAND_DATA) & 
 452              		.loc 1 376 0
 453 00d4 0021     		movs	r1, #0
 454 00d6 0F20     		movs	r0, #15
 455 00d8 FFF7FEFF 		bl	Pv_EINK_ReadByte
 456              	.LVL61:
 457 00dc 10F0400F 		tst	r0, #64
 458 00e0 05D0     		beq	.L19
 382:eInk Library/pervasive_eink_hardware_driver.c ****                           PV_EINK_DISABLE_OE_COMMAND_DATA);
 459              		.loc 1 382 0
 460 00e2 4021     		movs	r1, #64
 461 00e4 0220     		movs	r0, #2
 462 00e6 FFF7FEFF 		bl	Pv_EINK_SendByte
 463              	.LVL62:
 384:eInk Library/pervasive_eink_hardware_driver.c ****         }
 464              		.loc 1 384 0
 465 00ea 2346     		mov	r3, r4
 466 00ec 03E0     		b	.L20
 467              	.L19:
 468              		.loc 1 388 0
 469 00ee 631C     		adds	r3, r4, #1
 470 00f0 9BB2     		uxth	r3, r3
 471              	.LVL63:
 472 00f2 042C     		cmp	r4, #4
 473 00f4 D8D1     		bne	.L25
 474              	.LVL64:
 475              	.L20:
 389:eInk Library/pervasive_eink_hardware_driver.c ****     
 390:eInk Library/pervasive_eink_hardware_driver.c ****     /* If the operation not completed within the required write cycles, send an 
 391:eInk Library/pervasive_eink_hardware_driver.c ****        error message */
 392:eInk Library/pervasive_eink_hardware_driver.c ****     if (loopCounter >= PV_EINK_CHARGE_PUMP_MAX_WRITE)
 476              		.loc 1 392 0
 477 00f6 032B     		cmp	r3, #3
 478 00f8 07D9     		bls	.L26
 393:eInk Library/pervasive_eink_hardware_driver.c ****     {
 394:eInk Library/pervasive_eink_hardware_driver.c ****         CY_EINK_Wait10uS;
 395:eInk Library/pervasive_eink_hardware_driver.c ****         return(PV_EINK_ERROR_CHARGEPUMP);
 479              		.loc 1 395 0
 480 00fa 0520     		movs	r0, #5
 481 00fc 10BD     		pop	{r4, pc}
 482              	.LVL65:
 483              	.L22:
 298:eInk Library/pervasive_eink_hardware_driver.c ****         }
 484              		.loc 1 298 0
 485 00fe 0120     		movs	r0, #1
 486 0100 10BD     		pop	{r4, pc}
 487              	.L23:
 312:eInk Library/pervasive_eink_hardware_driver.c ****     }
ARM GAS  C:\Users\rober\AppData\Local\Temp\ccBlBMtt.s 			page 30


 488              		.loc 1 312 0
 489 0102 0220     		movs	r0, #2
 490 0104 10BD     		pop	{r4, pc}
 491              	.L24:
 325:eInk Library/pervasive_eink_hardware_driver.c ****     }
 492              		.loc 1 325 0
 493 0106 0320     		movs	r0, #3
 494 0108 10BD     		pop	{r4, pc}
 495              	.LVL66:
 496              	.L26:
 396:eInk Library/pervasive_eink_hardware_driver.c ****     }
 397:eInk Library/pervasive_eink_hardware_driver.c ****     /* If all operations completed successfully, send the corresponding status 
 398:eInk Library/pervasive_eink_hardware_driver.c ****        message */
 399:eInk Library/pervasive_eink_hardware_driver.c ****     return(PV_EINK_RES_OK);
 497              		.loc 1 399 0
 498 010a 0020     		movs	r0, #0
 400:eInk Library/pervasive_eink_hardware_driver.c **** }
 499              		.loc 1 400 0
 500 010c 10BD     		pop	{r4, pc}
 501              	.L29:
 502 010e 00BF     		.align	2
 503              	.L28:
 504 0110 00000000 		.word	.LANCHOR0
 505 0114 00000000 		.word	.LANCHOR1
 506              		.cfi_endproc
 507              	.LFE607:
 508              		.size	Pv_EINK_InitDriver, .-Pv_EINK_InitDriver
 509              		.section	.text.Pv_EINK_SetTempFactor,"ax",%progbits
 510              		.align	2
 511              		.global	Pv_EINK_SetTempFactor
 512              		.thumb
 513              		.thumb_func
 514              		.type	Pv_EINK_SetTempFactor, %function
 515              	Pv_EINK_SetTempFactor:
 516              	.LFB608:
 401:eInk Library/pervasive_eink_hardware_driver.c **** 
 402:eInk Library/pervasive_eink_hardware_driver.c **** /*******************************************************************************
 403:eInk Library/pervasive_eink_hardware_driver.c **** * Function Name: void Pv_EINK_SetTempFactor(int8_t temperature)
 404:eInk Library/pervasive_eink_hardware_driver.c **** ********************************************************************************
 405:eInk Library/pervasive_eink_hardware_driver.c **** *
 406:eInk Library/pervasive_eink_hardware_driver.c **** * Summary: Set the E-INK update times per the ambient temperature. For detailed
 407:eInk Library/pervasive_eink_hardware_driver.c **** * flow and description, please refer to the driver G2 document Section 5.4.
 408:eInk Library/pervasive_eink_hardware_driver.c **** *
 409:eInk Library/pervasive_eink_hardware_driver.c **** * Parameters:
 410:eInk Library/pervasive_eink_hardware_driver.c **** * int8_t temperature: Ambient temperature in degree Celsius
 411:eInk Library/pervasive_eink_hardware_driver.c **** *
 412:eInk Library/pervasive_eink_hardware_driver.c **** * Return:
 413:eInk Library/pervasive_eink_hardware_driver.c **** *  None
 414:eInk Library/pervasive_eink_hardware_driver.c **** *
 415:eInk Library/pervasive_eink_hardware_driver.c **** * Side Effects:
 416:eInk Library/pervasive_eink_hardware_driver.c **** *  None
 417:eInk Library/pervasive_eink_hardware_driver.c **** *******************************************************************************/
 418:eInk Library/pervasive_eink_hardware_driver.c **** void Pv_EINK_SetTempFactor(int8_t temperature)
 419:eInk Library/pervasive_eink_hardware_driver.c **** {
 517              		.loc 1 419 0
 518              		.cfi_startproc
 519              		@ args = 0, pretend = 0, frame = 0
ARM GAS  C:\Users\rober\AppData\Local\Temp\ccBlBMtt.s 			page 31


 520              		@ frame_needed = 0, uses_anonymous_args = 0
 521              		@ link register save eliminated.
 522              	.LVL67:
 420:eInk Library/pervasive_eink_hardware_driver.c ****     /* Variable used to store the update time */
 421:eInk Library/pervasive_eink_hardware_driver.c ****     uint16_t    updateTime;
 422:eInk Library/pervasive_eink_hardware_driver.c ****     /* Set the update time per the temperature table */
 423:eInk Library/pervasive_eink_hardware_driver.c ****     if (PV_EINK_TEMP_DEG_M10 >= temperature)
 523              		.loc 1 423 0
 524 0000 10F1090F 		cmn	r0, #9
 525 0004 0EDB     		blt	.L32
 424:eInk Library/pervasive_eink_hardware_driver.c ****     {
 425:eInk Library/pervasive_eink_hardware_driver.c ****         updateTime = PV_EINK_TEMP_SEL0;
 426:eInk Library/pervasive_eink_hardware_driver.c ****     }
 427:eInk Library/pervasive_eink_hardware_driver.c ****     else if (PV_EINK_TEMP_DEG_M5 >= temperature)
 526              		.loc 1 427 0
 527 0006 10F1040F 		cmn	r0, #4
 528 000a 0EDB     		blt	.L33
 428:eInk Library/pervasive_eink_hardware_driver.c ****     {
 429:eInk Library/pervasive_eink_hardware_driver.c ****         updateTime = PV_EINK_TEMP_SEL1;
 430:eInk Library/pervasive_eink_hardware_driver.c ****     }
 431:eInk Library/pervasive_eink_hardware_driver.c ****     else if (PV_EINK_TEMP_DEG_5 >= temperature)
 529              		.loc 1 431 0
 530 000c 0528     		cmp	r0, #5
 531 000e 0FDD     		ble	.L34
 432:eInk Library/pervasive_eink_hardware_driver.c ****     {
 433:eInk Library/pervasive_eink_hardware_driver.c ****         updateTime = PV_EINK_TEMP_SEL2;
 434:eInk Library/pervasive_eink_hardware_driver.c ****     }
 435:eInk Library/pervasive_eink_hardware_driver.c ****     else if (PV_EINK_TEMP_DEG_10 >= temperature)
 532              		.loc 1 435 0
 533 0010 0A28     		cmp	r0, #10
 534 0012 10DD     		ble	.L35
 436:eInk Library/pervasive_eink_hardware_driver.c ****     {
 437:eInk Library/pervasive_eink_hardware_driver.c ****         updateTime = PV_EINK_TEMP_SEL3;
 438:eInk Library/pervasive_eink_hardware_driver.c ****     }
 439:eInk Library/pervasive_eink_hardware_driver.c ****     else if (PV_EINK_TEMP_DEG_15 >= temperature)
 535              		.loc 1 439 0
 536 0014 0F28     		cmp	r0, #15
 537 0016 11DD     		ble	.L36
 440:eInk Library/pervasive_eink_hardware_driver.c ****     {
 441:eInk Library/pervasive_eink_hardware_driver.c ****         updateTime = PV_EINK_TEMP_SEL4;
 442:eInk Library/pervasive_eink_hardware_driver.c ****     }
 443:eInk Library/pervasive_eink_hardware_driver.c ****     else if (PV_EINK_TEMP_DEG_20 >= temperature)
 538              		.loc 1 443 0
 539 0018 1428     		cmp	r0, #20
 540 001a 11DD     		ble	.L37
 444:eInk Library/pervasive_eink_hardware_driver.c ****     {
 445:eInk Library/pervasive_eink_hardware_driver.c ****         updateTime = PV_EINK_TEMP_SEL5;
 446:eInk Library/pervasive_eink_hardware_driver.c ****     }
 447:eInk Library/pervasive_eink_hardware_driver.c ****     else if (PV_EINK_TEMP_DEG_40 >= temperature)
 541              		.loc 1 447 0
 542 001c 2828     		cmp	r0, #40
 543 001e 11DC     		bgt	.L38
 448:eInk Library/pervasive_eink_hardware_driver.c ****     {
 449:eInk Library/pervasive_eink_hardware_driver.c ****         updateTime = PV_EINK_TEMP_SEL6;
 544              		.loc 1 449 0
 545 0020 5A22     		movs	r2, #90
 546 0022 10E0     		b	.L31
ARM GAS  C:\Users\rober\AppData\Local\Temp\ccBlBMtt.s 			page 32


 547              	.L32:
 425:eInk Library/pervasive_eink_hardware_driver.c ****     }
 548              		.loc 1 425 0
 549 0024 4FF49662 		mov	r2, #1200
 550 0028 0DE0     		b	.L31
 551              	.L33:
 429:eInk Library/pervasive_eink_hardware_driver.c ****     }
 552              		.loc 1 429 0
 553 002a 4FF46172 		mov	r2, #900
 554 002e 0AE0     		b	.L31
 555              	.L34:
 433:eInk Library/pervasive_eink_hardware_driver.c ****     }
 556              		.loc 1 433 0
 557 0030 4FF41672 		mov	r2, #600
 558 0034 07E0     		b	.L31
 559              	.L35:
 437:eInk Library/pervasive_eink_hardware_driver.c ****     }
 560              		.loc 1 437 0
 561 0036 4FF4A572 		mov	r2, #330
 562 003a 04E0     		b	.L31
 563              	.L36:
 441:eInk Library/pervasive_eink_hardware_driver.c ****     }
 564              		.loc 1 441 0
 565 003c DC22     		movs	r2, #220
 566 003e 02E0     		b	.L31
 567              	.L37:
 445:eInk Library/pervasive_eink_hardware_driver.c ****     }
 568              		.loc 1 445 0
 569 0040 B422     		movs	r2, #180
 570 0042 00E0     		b	.L31
 571              	.L38:
 450:eInk Library/pervasive_eink_hardware_driver.c ****     }
 451:eInk Library/pervasive_eink_hardware_driver.c ****     else
 452:eInk Library/pervasive_eink_hardware_driver.c ****     {
 453:eInk Library/pervasive_eink_hardware_driver.c ****         updateTime = PV_EINK_TEMP_SEL7;
 572              		.loc 1 453 0
 573 0044 3C22     		movs	r2, #60
 574              	.L31:
 575              	.LVL68:
 454:eInk Library/pervasive_eink_hardware_driver.c ****     }
 455:eInk Library/pervasive_eink_hardware_driver.c ****     /* Scale the update times : this is a speed-contrast trade-off */
 456:eInk Library/pervasive_eink_hardware_driver.c ****     fullUpdateTime = updateTime * PV_EINK_SCALING_FULL;
 576              		.loc 1 456 0
 577 0046 034B     		ldr	r3, .L39
 578 0048 A3F87C20 		strh	r2, [r3, #124]	@ movhi
 457:eInk Library/pervasive_eink_hardware_driver.c ****     partialUpdateTime = updateTime * PV_EINK_SCALING_PARTIAL;
 579              		.loc 1 457 0
 580 004c A3F87E20 		strh	r2, [r3, #126]	@ movhi
 581 0050 7047     		bx	lr
 582              	.L40:
 583 0052 00BF     		.align	2
 584              	.L39:
 585 0054 00000000 		.word	.LANCHOR0
 586              		.cfi_endproc
 587              	.LFE608:
 588              		.size	Pv_EINK_SetTempFactor, .-Pv_EINK_SetTempFactor
 589              		.section	.text.Pv_EINK_FullStageHandler,"ax",%progbits
ARM GAS  C:\Users\rober\AppData\Local\Temp\ccBlBMtt.s 			page 33


 590              		.align	2
 591              		.global	Pv_EINK_FullStageHandler
 592              		.thumb
 593              		.thumb_func
 594              		.type	Pv_EINK_FullStageHandler, %function
 595              	Pv_EINK_FullStageHandler:
 596              	.LFB609:
 458:eInk Library/pervasive_eink_hardware_driver.c **** }
 459:eInk Library/pervasive_eink_hardware_driver.c **** 
 460:eInk Library/pervasive_eink_hardware_driver.c **** /*******************************************************************************
 461:eInk Library/pervasive_eink_hardware_driver.c **** * Function Name: void Pv_EINK_FullStageHandler(pv_eink_frame_data_t* imagePtr,
 462:eInk Library/pervasive_eink_hardware_driver.c **** *                                              pv_eink_stage_t stageNumber)
 463:eInk Library/pervasive_eink_hardware_driver.c **** ********************************************************************************
 464:eInk Library/pervasive_eink_hardware_driver.c **** *
 465:eInk Library/pervasive_eink_hardware_driver.c **** * Summary: The full update driving stages for getting Odd and Even bytes, and
 466:eInk Library/pervasive_eink_hardware_driver.c **** * then writing the data from memory array to E-INK driver.
 467:eInk Library/pervasive_eink_hardware_driver.c **** *
 468:eInk Library/pervasive_eink_hardware_driver.c **** * One dot/pixel is comprised of 2 bits that can be White(10), Black(11) or 
 469:eInk Library/pervasive_eink_hardware_driver.c **** * Nothing * (01 or 00). The image data bytes must be divided into Odd and Even 
 470:eInk Library/pervasive_eink_hardware_driver.c **** * bytes.
 471:eInk Library/pervasive_eink_hardware_driver.c **** * Line data flow is first half of data bytes -> scan bytes -> second half of data
 472:eInk Library/pervasive_eink_hardware_driver.c **** * bytes. For more details on the driving stages, please refer to the driver G2
 473:eInk Library/pervasive_eink_hardware_driver.c **** * document Section 5.
 474:eInk Library/pervasive_eink_hardware_driver.c **** *
 475:eInk Library/pervasive_eink_hardware_driver.c **** * Parameters:
 476:eInk Library/pervasive_eink_hardware_driver.c **** * pv_eink_frame_data_t* imagePtr    : The pointer to the memory that contains a
 477:eInk Library/pervasive_eink_hardware_driver.c **** *                                     frame
 478:eInk Library/pervasive_eink_hardware_driver.c **** * pv_eink_stage_t stageNumber       : The assigned stage number
 479:eInk Library/pervasive_eink_hardware_driver.c **** *
 480:eInk Library/pervasive_eink_hardware_driver.c **** * Return:
 481:eInk Library/pervasive_eink_hardware_driver.c **** *  None
 482:eInk Library/pervasive_eink_hardware_driver.c **** *
 483:eInk Library/pervasive_eink_hardware_driver.c **** * Side Effects:
 484:eInk Library/pervasive_eink_hardware_driver.c **** *  This is a blocking function. CPU will be busy during the entire operation,
 485:eInk Library/pervasive_eink_hardware_driver.c **** * which can be 1 to 2 seconds.
 486:eInk Library/pervasive_eink_hardware_driver.c **** *******************************************************************************/
 487:eInk Library/pervasive_eink_hardware_driver.c **** void Pv_EINK_FullStageHandler(pv_eink_frame_data_t* imagePtr, 
 488:eInk Library/pervasive_eink_hardware_driver.c ****                               pv_eink_stage_t stageNumber)
 489:eInk Library/pervasive_eink_hardware_driver.c **** {
 597              		.loc 1 489 0
 598              		.cfi_startproc
 599              		@ args = 0, pretend = 0, frame = 0
 600              		@ frame_needed = 0, uses_anonymous_args = 0
 601              	.LVL69:
 602 0000 2DE9F84F 		push	{r3, r4, r5, r6, r7, r8, r9, r10, fp, lr}
 603              		.cfi_def_cfa_offset 40
 604              		.cfi_offset 3, -40
 605              		.cfi_offset 4, -36
 606              		.cfi_offset 5, -32
 607              		.cfi_offset 6, -28
 608              		.cfi_offset 7, -24
 609              		.cfi_offset 8, -20
 610              		.cfi_offset 9, -16
 611              		.cfi_offset 10, -12
 612              		.cfi_offset 11, -8
 613              		.cfi_offset 14, -4
 614 0004 0646     		mov	r6, r0
ARM GAS  C:\Users\rober\AppData\Local\Temp\ccBlBMtt.s 			page 34


 615 0006 0D46     		mov	r5, r1
 616              	.LVL70:
 490:eInk Library/pervasive_eink_hardware_driver.c ****     /* Counter variable for the horizontal pixel loop */
 491:eInk Library/pervasive_eink_hardware_driver.c ****     uint16_t    x;
 492:eInk Library/pervasive_eink_hardware_driver.c ****     /* Counter variable for the vertical pixel loop */
 493:eInk Library/pervasive_eink_hardware_driver.c ****     uint16_t    y;
 494:eInk Library/pervasive_eink_hardware_driver.c ****     /* Counter variable for the horizontal byte loop */
 495:eInk Library/pervasive_eink_hardware_driver.c ****     uint16_t    k;
 496:eInk Library/pervasive_eink_hardware_driver.c ****       
 497:eInk Library/pervasive_eink_hardware_driver.c ****     /* Variable for storing the line number under scan */
 498:eInk Library/pervasive_eink_hardware_driver.c ****     int16       scanlineNumber = 0;
 499:eInk Library/pervasive_eink_hardware_driver.c ****     
 500:eInk Library/pervasive_eink_hardware_driver.c ****     /* Temporary storage for image data byte */
 501:eInk Library/pervasive_eink_hardware_driver.c ****     uint8_t     tempByte = *imagePtr;
 617              		.loc 1 501 0
 618 0008 0478     		ldrb	r4, [r0]	@ zero_extendqisi2
 619              	.LVL71:
 502:eInk Library/pervasive_eink_hardware_driver.c ****     
 503:eInk Library/pervasive_eink_hardware_driver.c ****     /* Flag to check if the current pointer is a macro of white/black frame */
 504:eInk Library/pervasive_eink_hardware_driver.c ****     bool        blackOrWhiteFrame;
 505:eInk Library/pervasive_eink_hardware_driver.c ****     
 506:eInk Library/pervasive_eink_hardware_driver.c ****     /* If the current pointer is a macro of the white frame */
 507:eInk Library/pervasive_eink_hardware_driver.c ****     if (imagePtr == PV_EINK_WHITE_FRAME_ADDRESS)
 620              		.loc 1 507 0
 621 000a 28B1     		cbz	r0, .L90
 508:eInk Library/pervasive_eink_hardware_driver.c ****     {
 509:eInk Library/pervasive_eink_hardware_driver.c ****         /* Set the white/black frame flag */
 510:eInk Library/pervasive_eink_hardware_driver.c ****         blackOrWhiteFrame = true;
 511:eInk Library/pervasive_eink_hardware_driver.c ****         /* Set the tempByte to white pixel byte */
 512:eInk Library/pervasive_eink_hardware_driver.c ****         tempByte = PV_EINK_WHITE_PIXEL_BYTE;
 513:eInk Library/pervasive_eink_hardware_driver.c ****         
 514:eInk Library/pervasive_eink_hardware_driver.c ****     }
 515:eInk Library/pervasive_eink_hardware_driver.c ****     /* If the current pointer is a macro of the black frame */
 516:eInk Library/pervasive_eink_hardware_driver.c ****     else if (imagePtr == PV_EINK_BLACK_FRAME_ADDRESS)
 622              		.loc 1 516 0
 623 000c CA4B     		ldr	r3, .L125
 624 000e 9842     		cmp	r0, r3
 625 0010 05D1     		bne	.L91
 517:eInk Library/pervasive_eink_hardware_driver.c ****     {
 518:eInk Library/pervasive_eink_hardware_driver.c ****          /* Set the white/black frame flag */
 519:eInk Library/pervasive_eink_hardware_driver.c ****         blackOrWhiteFrame = true;
 626              		.loc 1 519 0
 627 0012 0127     		movs	r7, #1
 520:eInk Library/pervasive_eink_hardware_driver.c ****         /* set the tempByte to black pixel byte */
 521:eInk Library/pervasive_eink_hardware_driver.c ****         tempByte = PV_EINK_BLACK_PIXEL_BYTE;
 628              		.loc 1 521 0
 629 0014 0024     		movs	r4, #0
 630              	.LVL72:
 631 0016 03E0     		b	.L42
 632              	.LVL73:
 633              	.L90:
 510:eInk Library/pervasive_eink_hardware_driver.c ****         /* Set the tempByte to white pixel byte */
 634              		.loc 1 510 0
 635 0018 0127     		movs	r7, #1
 512:eInk Library/pervasive_eink_hardware_driver.c ****         
 636              		.loc 1 512 0
 637 001a FF24     		movs	r4, #255
ARM GAS  C:\Users\rober\AppData\Local\Temp\ccBlBMtt.s 			page 35


 638              	.LVL74:
 639 001c 00E0     		b	.L42
 640              	.LVL75:
 641              	.L91:
 522:eInk Library/pervasive_eink_hardware_driver.c ****     }
 523:eInk Library/pervasive_eink_hardware_driver.c ****     /* If the current pointer is of an image stored in flash */
 524:eInk Library/pervasive_eink_hardware_driver.c ****     else
 525:eInk Library/pervasive_eink_hardware_driver.c ****     {
 526:eInk Library/pervasive_eink_hardware_driver.c ****         /* Clear the white/black frame flag */
 527:eInk Library/pervasive_eink_hardware_driver.c ****         blackOrWhiteFrame = false;
 642              		.loc 1 527 0
 643 001e 0027     		movs	r7, #0
 644              	.LVL76:
 645              	.L42:
 528:eInk Library/pervasive_eink_hardware_driver.c ****     }
 529:eInk Library/pervasive_eink_hardware_driver.c **** 
 530:eInk Library/pervasive_eink_hardware_driver.c ****     /* Re-initialize E-INK timer to ensure the same duration of each stage */
 531:eInk Library/pervasive_eink_hardware_driver.c ****     Cy_EINK_TimerInit();
 646              		.loc 1 531 0
 647 0020 FFF7FEFF 		bl	Cy_EINK_TimerInit
 648              	.LVL77:
 532:eInk Library/pervasive_eink_hardware_driver.c **** 
 533:eInk Library/pervasive_eink_hardware_driver.c ****     /* Vertical pixel loop */
 534:eInk Library/pervasive_eink_hardware_driver.c ****     for (y = 0; y < PV_EINK_VERTICAL_SIZE; y++)
 649              		.loc 1 534 0
 650 0024 4FF00008 		mov	r8, #0
 651 0028 D0E1     		b	.L43
 652              	.LVL78:
 653              	.L86:
 535:eInk Library/pervasive_eink_hardware_driver.c ****     {
 536:eInk Library/pervasive_eink_hardware_driver.c ****         /* Clear the line buffer with all zeros */
 537:eInk Library/pervasive_eink_hardware_driver.c ****         memset(&bulkDriverPacket[y].lineBuffer, 0, 
 654              		.loc 1 537 0
 655 002a C8EBC80A 		rsb	r10, r8, r8, lsl #3
 656 002e C8EB0A1A 		rsb	r10, r8, r10, lsl #4
 657 0032 DFF80C93 		ldr	r9, .L125+8
 658 0036 0AEB090B 		add	fp, r10, r9
 659 003a 6F22     		movs	r2, #111
 660 003c 0021     		movs	r1, #0
 661 003e 5846     		mov	r0, fp
 662 0040 FFF7FEFF 		bl	memset
 663              	.LVL79:
 538:eInk Library/pervasive_eink_hardware_driver.c ****                sizeof(bulkDriverPacket[y].lineBuffer)) ;
 539:eInk Library/pervasive_eink_hardware_driver.c **** 
 540:eInk Library/pervasive_eink_hardware_driver.c ****         /* Initialize the even data, odd data and scan data pointers */
 541:eInk Library/pervasive_eink_hardware_driver.c ****         dataLineEven = &bulkDriverPacket[y].lineDataBySize.even[0];
 664              		.loc 1 541 0
 665 0044 0BF1010E 		add	lr, fp, #1
 666 0048 BC4B     		ldr	r3, .L125+4
 667 004a C3F870E0 		str	lr, [r3, #112]
 542:eInk Library/pervasive_eink_hardware_driver.c ****         dataLineOdd  = &bulkDriverPacket[y].lineDataBySize.odd[0];
 668              		.loc 1 542 0
 669 004e 0AF14800 		add	r0, r10, #72
 670 0052 4844     		add	r0, r0, r9
 671 0054 0630     		adds	r0, r0, #6
 672 0056 5867     		str	r0, [r3, #116]
 543:eInk Library/pervasive_eink_hardware_driver.c ****         dataLineScan = &bulkDriverPacket[y].lineDataBySize.scan[0];
ARM GAS  C:\Users\rober\AppData\Local\Temp\ccBlBMtt.s 			page 36


 673              		.loc 1 543 0
 674 0058 0AF1200A 		add	r10, r10, #32
 675 005c D144     		add	r9, r9, r10
 676 005e 09F10209 		add	r9, r9, #2
 677 0062 C3F87890 		str	r9, [r3, #120]
 678              	.LVL80:
 544:eInk Library/pervasive_eink_hardware_driver.c ****         
 545:eInk Library/pervasive_eink_hardware_driver.c ****         /* Horizontal bytes initialization */
 546:eInk Library/pervasive_eink_hardware_driver.c ****         k = PV_EINK_HORIZONTAL_SIZE;
 547:eInk Library/pervasive_eink_hardware_driver.c ****         k--;
 679              		.loc 1 547 0
 680 0066 2022     		movs	r2, #32
 548:eInk Library/pervasive_eink_hardware_driver.c ****         
 549:eInk Library/pervasive_eink_hardware_driver.c ****         /* Horizontal pixel loop */
 550:eInk Library/pervasive_eink_hardware_driver.c ****         for (x = 0; x < PV_EINK_HORIZONTAL_SIZE; x++)
 681              		.loc 1 550 0
 682 0068 0023     		movs	r3, #0
 683 006a 97E1     		b	.L44
 684              	.LVL81:
 685              	.L84:
 551:eInk Library/pervasive_eink_hardware_driver.c ****         {
 552:eInk Library/pervasive_eink_hardware_driver.c ****             /* If the current pointer is of an image stored in flash */
 553:eInk Library/pervasive_eink_hardware_driver.c ****             if(!blackOrWhiteFrame)
 686              		.loc 1 553 0
 687 006c 0FB9     		cbnz	r7, .L45
 688              	.LVL82:
 554:eInk Library/pervasive_eink_hardware_driver.c ****             {
 555:eInk Library/pervasive_eink_hardware_driver.c ****                 /* Fetch successive data bytes */
 556:eInk Library/pervasive_eink_hardware_driver.c ****                 tempByte = *imagePtr++;
 689              		.loc 1 556 0
 690 006e 3478     		ldrb	r4, [r6]	@ zero_extendqisi2
 691              	.LVL83:
 692 0070 0136     		adds	r6, r6, #1
 693              	.LVL84:
 694              	.L45:
 557:eInk Library/pervasive_eink_hardware_driver.c ****             }
 558:eInk Library/pervasive_eink_hardware_driver.c ****             /* Perform one of the four stage operations */
 559:eInk Library/pervasive_eink_hardware_driver.c ****             switch (stageNumber)
 695              		.loc 1 559 0
 696 0072 032D     		cmp	r5, #3
 697 0074 00F29081 		bhi	.L46
 698 0078 DFE815F0 		tbh	[pc, r5, lsl #1]
 699              	.L48:
 700 007c 0400     		.2byte	(.L47-.L48)/2
 701 007e 6500     		.2byte	(.L49-.L48)/2
 702 0080 C600     		.2byte	(.L50-.L48)/2
 703 0082 2701     		.2byte	(.L51-.L48)/2
 704              		.p2align 1
 705              	.L47:
 560:eInk Library/pervasive_eink_hardware_driver.c ****             {
 561:eInk Library/pervasive_eink_hardware_driver.c ****             /* Stage 1: Calculate the inverted Even and Odd bytes of 
 562:eInk Library/pervasive_eink_hardware_driver.c ****                the previous image data */
 563:eInk Library/pervasive_eink_hardware_driver.c ****             case PV_EINK_STAGE1:
 564:eInk Library/pervasive_eink_hardware_driver.c ****                 dataLineOdd[x]       = ((tempByte & PV_EINK_ODD_MASK_A)  ? 
 706              		.loc 1 564 0
 707 0084 00EB030C 		add	ip, r0, r3
 708 0088 14F0400F 		tst	r4, #64
ARM GAS  C:\Users\rober\AppData\Local\Temp\ccBlBMtt.s 			page 37


 709 008c 01D0     		beq	.L92
 710 008e C021     		movs	r1, #192
 711 0090 00E0     		b	.L52
 712              	.L92:
 713 0092 8021     		movs	r1, #128
 714              	.L52:
 715              		.loc 1 564 0 is_stmt 0 discriminator 4
 716 0094 8CF80010 		strb	r1, [ip]
 565:eInk Library/pervasive_eink_hardware_driver.c ****                                         PV_EINK_BLACK3 : PV_EINK_WHITE3);
 566:eInk Library/pervasive_eink_hardware_driver.c ****                 dataLineOdd[x]      |= ((tempByte & PV_EINK_ODD_MASK_B)  ? 
 717              		.loc 1 566 0 is_stmt 1 discriminator 4
 718 0098 49B2     		sxtb	r1, r1
 719 009a 14F0100F 		tst	r4, #16
 720 009e 02D0     		beq	.L93
 721              		.loc 1 566 0 is_stmt 0
 722 00a0 4FF0300A 		mov	r10, #48
 723 00a4 01E0     		b	.L53
 724              	.L93:
 725 00a6 4FF0200A 		mov	r10, #32
 726              	.L53:
 727              		.loc 1 566 0 discriminator 4
 728 00aa 4AEA0101 		orr	r1, r10, r1
 729 00ae 8CF80010 		strb	r1, [ip]
 567:eInk Library/pervasive_eink_hardware_driver.c ****                                         PV_EINK_BLACK2 : PV_EINK_WHITE2);
 568:eInk Library/pervasive_eink_hardware_driver.c ****                 dataLineOdd[x]      |= ((tempByte & PV_EINK_ODD_MASK_C)  ? 
 730              		.loc 1 568 0 is_stmt 1 discriminator 4
 731 00b2 14F0040F 		tst	r4, #4
 732 00b6 02D0     		beq	.L94
 733              		.loc 1 568 0 is_stmt 0
 734 00b8 4FF00C0A 		mov	r10, #12
 735 00bc 01E0     		b	.L54
 736              	.L94:
 737 00be 4FF0080A 		mov	r10, #8
 738              	.L54:
 739              		.loc 1 568 0 discriminator 4
 740 00c2 4AEA0101 		orr	r1, r10, r1
 741 00c6 8CF80010 		strb	r1, [ip]
 569:eInk Library/pervasive_eink_hardware_driver.c ****                                         PV_EINK_BLACK1 : PV_EINK_WHITE1);
 570:eInk Library/pervasive_eink_hardware_driver.c ****                 dataLineOdd[x]      |= ((tempByte & PV_EINK_ODD_MASK_D)  ? 
 742              		.loc 1 570 0 is_stmt 1 discriminator 4
 743 00ca 14F0010F 		tst	r4, #1
 744 00ce 02D0     		beq	.L95
 745              		.loc 1 570 0 is_stmt 0
 746 00d0 4FF0030A 		mov	r10, #3
 747 00d4 01E0     		b	.L55
 748              	.L95:
 749 00d6 4FF0020A 		mov	r10, #2
 750              	.L55:
 751              		.loc 1 570 0 discriminator 4
 752 00da 4AEA0101 		orr	r1, r10, r1
 753 00de 8CF80010 		strb	r1, [ip]
 571:eInk Library/pervasive_eink_hardware_driver.c ****                                         PV_EINK_BLACK0 : PV_EINK_WHITE0);
 572:eInk Library/pervasive_eink_hardware_driver.c ****                 dataLineEven[k]      = ((tempByte & PV_EINK_EVEN_MASK_A) ? 
 754              		.loc 1 572 0 is_stmt 1 discriminator 4
 755 00e2 0EEB020C 		add	ip, lr, r2
 756 00e6 14F0800F 		tst	r4, #128
 757 00ea 01D0     		beq	.L96
ARM GAS  C:\Users\rober\AppData\Local\Temp\ccBlBMtt.s 			page 38


 758              		.loc 1 572 0 is_stmt 0
 759 00ec 0321     		movs	r1, #3
 760 00ee 00E0     		b	.L56
 761              	.L96:
 762 00f0 0221     		movs	r1, #2
 763              	.L56:
 764              		.loc 1 572 0 discriminator 4
 765 00f2 8CF80010 		strb	r1, [ip]
 573:eInk Library/pervasive_eink_hardware_driver.c ****                                         PV_EINK_BLACK0 : PV_EINK_WHITE0);
 574:eInk Library/pervasive_eink_hardware_driver.c ****                 dataLineEven[k]     |= ((tempByte & PV_EINK_EVEN_MASK_B) ? 
 766              		.loc 1 574 0 is_stmt 1 discriminator 4
 767 00f6 49B2     		sxtb	r1, r1
 768 00f8 14F0200F 		tst	r4, #32
 769 00fc 02D0     		beq	.L97
 770              		.loc 1 574 0 is_stmt 0
 771 00fe 4FF00C0A 		mov	r10, #12
 772 0102 01E0     		b	.L57
 773              	.L97:
 774 0104 4FF0080A 		mov	r10, #8
 775              	.L57:
 776              		.loc 1 574 0 discriminator 4
 777 0108 4AEA0101 		orr	r1, r10, r1
 778 010c 8CF80010 		strb	r1, [ip]
 575:eInk Library/pervasive_eink_hardware_driver.c ****                                         PV_EINK_BLACK1 : PV_EINK_WHITE1);
 576:eInk Library/pervasive_eink_hardware_driver.c ****                 dataLineEven[k]     |= ((tempByte & PV_EINK_EVEN_MASK_C) ? 
 779              		.loc 1 576 0 is_stmt 1 discriminator 4
 780 0110 14F0080F 		tst	r4, #8
 781 0114 02D0     		beq	.L98
 782              		.loc 1 576 0 is_stmt 0
 783 0116 4FF0300A 		mov	r10, #48
 784 011a 01E0     		b	.L58
 785              	.L98:
 786 011c 4FF0200A 		mov	r10, #32
 787              	.L58:
 788              		.loc 1 576 0 discriminator 4
 789 0120 4AEA0101 		orr	r1, r10, r1
 790 0124 8CF80010 		strb	r1, [ip]
 577:eInk Library/pervasive_eink_hardware_driver.c ****                                         PV_EINK_BLACK2 : PV_EINK_WHITE2);
 578:eInk Library/pervasive_eink_hardware_driver.c ****                 dataLineEven[k--]   |= ((tempByte & PV_EINK_EVEN_MASK_D) ? 
 791              		.loc 1 578 0 is_stmt 1 discriminator 4
 792 0128 013A     		subs	r2, r2, #1
 793              	.LVL85:
 794 012a 92B2     		uxth	r2, r2
 795              	.LVL86:
 796 012c 14F0020F 		tst	r4, #2
 797 0130 02D0     		beq	.L99
 798              		.loc 1 578 0 is_stmt 0
 799 0132 6FF03F0A 		mvn	r10, #63
 800 0136 01E0     		b	.L59
 801              	.L99:
 802 0138 6FF07F0A 		mvn	r10, #127
 803              	.L59:
 804              		.loc 1 578 0 discriminator 4
 805 013c 4AEA0101 		orr	r1, r10, r1
 806 0140 8CF80010 		strb	r1, [ip]
 579:eInk Library/pervasive_eink_hardware_driver.c ****                                         PV_EINK_BLACK3 : PV_EINK_WHITE3);
 580:eInk Library/pervasive_eink_hardware_driver.c ****                 break;
ARM GAS  C:\Users\rober\AppData\Local\Temp\ccBlBMtt.s 			page 39


 807              		.loc 1 580 0 is_stmt 1 discriminator 4
 808 0144 28E1     		b	.L46
 809              	.L49:
 581:eInk Library/pervasive_eink_hardware_driver.c ****             /* Stage 2: Calculate the Even and Odd bytes of an all-white
 582:eInk Library/pervasive_eink_hardware_driver.c ****                frame */
 583:eInk Library/pervasive_eink_hardware_driver.c ****             case PV_EINK_STAGE2:
 584:eInk Library/pervasive_eink_hardware_driver.c ****                 dataLineOdd[x]       = ((tempByte & PV_EINK_ODD_MASK_A)  ? 
 810              		.loc 1 584 0
 811 0146 00EB030C 		add	ip, r0, r3
 812 014a 14F0400F 		tst	r4, #64
 813 014e 01D0     		beq	.L100
 814 0150 8021     		movs	r1, #128
 815 0152 00E0     		b	.L60
 816              	.L100:
 817 0154 4021     		movs	r1, #64
 818              	.L60:
 819              		.loc 1 584 0 is_stmt 0 discriminator 4
 820 0156 8CF80010 		strb	r1, [ip]
 585:eInk Library/pervasive_eink_hardware_driver.c ****                                         PV_EINK_WHITE3 : PV_EINK_NOTHING3);
 586:eInk Library/pervasive_eink_hardware_driver.c ****                 dataLineOdd[x]      |= ((tempByte & PV_EINK_ODD_MASK_B)  ? 
 821              		.loc 1 586 0 is_stmt 1 discriminator 4
 822 015a 49B2     		sxtb	r1, r1
 823 015c 14F0100F 		tst	r4, #16
 824 0160 02D0     		beq	.L101
 825              		.loc 1 586 0 is_stmt 0
 826 0162 4FF0200A 		mov	r10, #32
 827 0166 01E0     		b	.L61
 828              	.L101:
 829 0168 4FF0100A 		mov	r10, #16
 830              	.L61:
 831              		.loc 1 586 0 discriminator 4
 832 016c 4AEA0101 		orr	r1, r10, r1
 833 0170 8CF80010 		strb	r1, [ip]
 587:eInk Library/pervasive_eink_hardware_driver.c ****                                         PV_EINK_WHITE2 : PV_EINK_NOTHING2);
 588:eInk Library/pervasive_eink_hardware_driver.c ****                 dataLineOdd[x]      |= ((tempByte & PV_EINK_ODD_MASK_C)  ? 
 834              		.loc 1 588 0 is_stmt 1 discriminator 4
 835 0174 14F0040F 		tst	r4, #4
 836 0178 02D0     		beq	.L102
 837              		.loc 1 588 0 is_stmt 0
 838 017a 4FF0080A 		mov	r10, #8
 839 017e 01E0     		b	.L62
 840              	.L102:
 841 0180 4FF0040A 		mov	r10, #4
 842              	.L62:
 843              		.loc 1 588 0 discriminator 4
 844 0184 4AEA0101 		orr	r1, r10, r1
 845 0188 8CF80010 		strb	r1, [ip]
 589:eInk Library/pervasive_eink_hardware_driver.c ****                                         PV_EINK_WHITE1 : PV_EINK_NOTHING1);
 590:eInk Library/pervasive_eink_hardware_driver.c ****                 dataLineOdd[x]      |= ((tempByte & PV_EINK_ODD_MASK_D)  ? 
 846              		.loc 1 590 0 is_stmt 1 discriminator 4
 847 018c 14F0010F 		tst	r4, #1
 848 0190 02D0     		beq	.L103
 849              		.loc 1 590 0 is_stmt 0
 850 0192 4FF0020A 		mov	r10, #2
 851 0196 01E0     		b	.L63
 852              	.L103:
 853 0198 4FF0010A 		mov	r10, #1
ARM GAS  C:\Users\rober\AppData\Local\Temp\ccBlBMtt.s 			page 40


 854              	.L63:
 855              		.loc 1 590 0 discriminator 4
 856 019c 4AEA0101 		orr	r1, r10, r1
 857 01a0 8CF80010 		strb	r1, [ip]
 591:eInk Library/pervasive_eink_hardware_driver.c ****                                         PV_EINK_WHITE0 : PV_EINK_NOTHING0);
 592:eInk Library/pervasive_eink_hardware_driver.c ****                 dataLineEven[k]      = ((tempByte & PV_EINK_EVEN_MASK_A) ?
 858              		.loc 1 592 0 is_stmt 1 discriminator 4
 859 01a4 0EEB020C 		add	ip, lr, r2
 860 01a8 14F0800F 		tst	r4, #128
 861 01ac 01D0     		beq	.L104
 862              		.loc 1 592 0 is_stmt 0
 863 01ae 0221     		movs	r1, #2
 864 01b0 00E0     		b	.L64
 865              	.L104:
 866 01b2 0121     		movs	r1, #1
 867              	.L64:
 868              		.loc 1 592 0 discriminator 4
 869 01b4 8CF80010 		strb	r1, [ip]
 593:eInk Library/pervasive_eink_hardware_driver.c ****                                         PV_EINK_WHITE0 : PV_EINK_NOTHING0);
 594:eInk Library/pervasive_eink_hardware_driver.c ****                 dataLineEven[k]     |= ((tempByte & PV_EINK_EVEN_MASK_B) ? 
 870              		.loc 1 594 0 is_stmt 1 discriminator 4
 871 01b8 49B2     		sxtb	r1, r1
 872 01ba 14F0200F 		tst	r4, #32
 873 01be 02D0     		beq	.L105
 874              		.loc 1 594 0 is_stmt 0
 875 01c0 4FF0080A 		mov	r10, #8
 876 01c4 01E0     		b	.L65
 877              	.L105:
 878 01c6 4FF0040A 		mov	r10, #4
 879              	.L65:
 880              		.loc 1 594 0 discriminator 4
 881 01ca 4AEA0101 		orr	r1, r10, r1
 882 01ce 8CF80010 		strb	r1, [ip]
 595:eInk Library/pervasive_eink_hardware_driver.c ****                                         PV_EINK_WHITE1 : PV_EINK_NOTHING1);
 596:eInk Library/pervasive_eink_hardware_driver.c ****                 dataLineEven[k]     |= ((tempByte & PV_EINK_EVEN_MASK_C) ? 
 883              		.loc 1 596 0 is_stmt 1 discriminator 4
 884 01d2 14F0080F 		tst	r4, #8
 885 01d6 02D0     		beq	.L106
 886              		.loc 1 596 0 is_stmt 0
 887 01d8 4FF0200A 		mov	r10, #32
 888 01dc 01E0     		b	.L66
 889              	.L106:
 890 01de 4FF0100A 		mov	r10, #16
 891              	.L66:
 892              		.loc 1 596 0 discriminator 4
 893 01e2 4AEA0101 		orr	r1, r10, r1
 894 01e6 8CF80010 		strb	r1, [ip]
 597:eInk Library/pervasive_eink_hardware_driver.c ****                                         PV_EINK_WHITE2 : PV_EINK_NOTHING2);
 598:eInk Library/pervasive_eink_hardware_driver.c ****                 dataLineEven[k--]   |= ((tempByte & PV_EINK_EVEN_MASK_D) ? 
 895              		.loc 1 598 0 is_stmt 1 discriminator 4
 896 01ea 013A     		subs	r2, r2, #1
 897              	.LVL87:
 898 01ec 92B2     		uxth	r2, r2
 899              	.LVL88:
 900 01ee 14F0020F 		tst	r4, #2
 901 01f2 02D0     		beq	.L107
 902              		.loc 1 598 0 is_stmt 0
ARM GAS  C:\Users\rober\AppData\Local\Temp\ccBlBMtt.s 			page 41


 903 01f4 6FF07F0A 		mvn	r10, #127
 904 01f8 01E0     		b	.L67
 905              	.L107:
 906 01fa 4FF0400A 		mov	r10, #64
 907              	.L67:
 908              		.loc 1 598 0 discriminator 4
 909 01fe 4AEA0101 		orr	r1, r10, r1
 910 0202 8CF80010 		strb	r1, [ip]
 599:eInk Library/pervasive_eink_hardware_driver.c ****                                         PV_EINK_WHITE3 : PV_EINK_NOTHING3);
 600:eInk Library/pervasive_eink_hardware_driver.c ****                 break;
 911              		.loc 1 600 0 is_stmt 1 discriminator 4
 912 0206 C7E0     		b	.L46
 913              	.L50:
 601:eInk Library/pervasive_eink_hardware_driver.c ****             /* Stage 3: Calculate the inverted Even and Odd bytes of the
 602:eInk Library/pervasive_eink_hardware_driver.c ****                new image data */
 603:eInk Library/pervasive_eink_hardware_driver.c ****             case PV_EINK_STAGE3:
 604:eInk Library/pervasive_eink_hardware_driver.c ****                 dataLineOdd[x]       = ((tempByte & PV_EINK_ODD_MASK_A)  ? 
 914              		.loc 1 604 0
 915 0208 00EB030C 		add	ip, r0, r3
 916 020c 14F0400F 		tst	r4, #64
 917 0210 01D0     		beq	.L108
 918 0212 C021     		movs	r1, #192
 919 0214 00E0     		b	.L68
 920              	.L108:
 921 0216 4021     		movs	r1, #64
 922              	.L68:
 923              		.loc 1 604 0 is_stmt 0 discriminator 4
 924 0218 8CF80010 		strb	r1, [ip]
 605:eInk Library/pervasive_eink_hardware_driver.c ****                                         PV_EINK_BLACK3 : PV_EINK_NOTHING3);
 606:eInk Library/pervasive_eink_hardware_driver.c ****                 dataLineOdd[x]      |= ((tempByte & PV_EINK_ODD_MASK_B)  ? 
 925              		.loc 1 606 0 is_stmt 1 discriminator 4
 926 021c 49B2     		sxtb	r1, r1
 927 021e 14F0100F 		tst	r4, #16
 928 0222 02D0     		beq	.L109
 929              		.loc 1 606 0 is_stmt 0
 930 0224 4FF0300A 		mov	r10, #48
 931 0228 01E0     		b	.L69
 932              	.L109:
 933 022a 4FF0100A 		mov	r10, #16
 934              	.L69:
 935              		.loc 1 606 0 discriminator 4
 936 022e 4AEA0101 		orr	r1, r10, r1
 937 0232 8CF80010 		strb	r1, [ip]
 607:eInk Library/pervasive_eink_hardware_driver.c ****                                         PV_EINK_BLACK2 : PV_EINK_NOTHING2);
 608:eInk Library/pervasive_eink_hardware_driver.c ****                 dataLineOdd[x]      |= ((tempByte & PV_EINK_ODD_MASK_C)  ?
 938              		.loc 1 608 0 is_stmt 1 discriminator 4
 939 0236 14F0040F 		tst	r4, #4
 940 023a 02D0     		beq	.L110
 941              		.loc 1 608 0 is_stmt 0
 942 023c 4FF00C0A 		mov	r10, #12
 943 0240 01E0     		b	.L70
 944              	.L110:
 945 0242 4FF0040A 		mov	r10, #4
 946              	.L70:
 947              		.loc 1 608 0 discriminator 4
 948 0246 4AEA0101 		orr	r1, r10, r1
 949 024a 8CF80010 		strb	r1, [ip]
ARM GAS  C:\Users\rober\AppData\Local\Temp\ccBlBMtt.s 			page 42


 609:eInk Library/pervasive_eink_hardware_driver.c ****                                         PV_EINK_BLACK1 : PV_EINK_NOTHING1);
 610:eInk Library/pervasive_eink_hardware_driver.c ****                 dataLineOdd[x]      |= ((tempByte & PV_EINK_ODD_MASK_D)  ?
 950              		.loc 1 610 0 is_stmt 1 discriminator 4
 951 024e 14F0010F 		tst	r4, #1
 952 0252 02D0     		beq	.L111
 953              		.loc 1 610 0 is_stmt 0
 954 0254 4FF0030A 		mov	r10, #3
 955 0258 01E0     		b	.L71
 956              	.L111:
 957 025a 4FF0010A 		mov	r10, #1
 958              	.L71:
 959              		.loc 1 610 0 discriminator 4
 960 025e 4AEA0101 		orr	r1, r10, r1
 961 0262 8CF80010 		strb	r1, [ip]
 611:eInk Library/pervasive_eink_hardware_driver.c ****                                         PV_EINK_BLACK0 : PV_EINK_NOTHING0);
 612:eInk Library/pervasive_eink_hardware_driver.c ****                 dataLineEven[k]      = ((tempByte & PV_EINK_EVEN_MASK_A) ?
 962              		.loc 1 612 0 is_stmt 1 discriminator 4
 963 0266 0EEB020C 		add	ip, lr, r2
 964 026a 14F0800F 		tst	r4, #128
 965 026e 01D0     		beq	.L112
 966              		.loc 1 612 0 is_stmt 0
 967 0270 0321     		movs	r1, #3
 968 0272 00E0     		b	.L72
 969              	.L112:
 970 0274 0121     		movs	r1, #1
 971              	.L72:
 972              		.loc 1 612 0 discriminator 4
 973 0276 8CF80010 		strb	r1, [ip]
 613:eInk Library/pervasive_eink_hardware_driver.c ****                                         PV_EINK_BLACK0 : PV_EINK_NOTHING0);
 614:eInk Library/pervasive_eink_hardware_driver.c ****                 dataLineEven[k]     |= ((tempByte & PV_EINK_EVEN_MASK_B) ? 
 974              		.loc 1 614 0 is_stmt 1 discriminator 4
 975 027a 49B2     		sxtb	r1, r1
 976 027c 14F0200F 		tst	r4, #32
 977 0280 02D0     		beq	.L113
 978              		.loc 1 614 0 is_stmt 0
 979 0282 4FF00C0A 		mov	r10, #12
 980 0286 01E0     		b	.L73
 981              	.L113:
 982 0288 4FF0040A 		mov	r10, #4
 983              	.L73:
 984              		.loc 1 614 0 discriminator 4
 985 028c 4AEA0101 		orr	r1, r10, r1
 986 0290 8CF80010 		strb	r1, [ip]
 615:eInk Library/pervasive_eink_hardware_driver.c ****                                         PV_EINK_BLACK1 : PV_EINK_NOTHING1);
 616:eInk Library/pervasive_eink_hardware_driver.c ****                 dataLineEven[k]     |= ((tempByte & PV_EINK_EVEN_MASK_C) ? 
 987              		.loc 1 616 0 is_stmt 1 discriminator 4
 988 0294 14F0080F 		tst	r4, #8
 989 0298 02D0     		beq	.L114
 990              		.loc 1 616 0 is_stmt 0
 991 029a 4FF0300A 		mov	r10, #48
 992 029e 01E0     		b	.L74
 993              	.L114:
 994 02a0 4FF0100A 		mov	r10, #16
 995              	.L74:
 996              		.loc 1 616 0 discriminator 4
 997 02a4 4AEA0101 		orr	r1, r10, r1
 998 02a8 8CF80010 		strb	r1, [ip]
ARM GAS  C:\Users\rober\AppData\Local\Temp\ccBlBMtt.s 			page 43


 617:eInk Library/pervasive_eink_hardware_driver.c ****                                         PV_EINK_BLACK2 : PV_EINK_NOTHING2);
 618:eInk Library/pervasive_eink_hardware_driver.c ****                 dataLineEven[k--]   |= ((tempByte & PV_EINK_EVEN_MASK_D) ? 
 999              		.loc 1 618 0 is_stmt 1 discriminator 4
 1000 02ac 013A     		subs	r2, r2, #1
 1001              	.LVL89:
 1002 02ae 92B2     		uxth	r2, r2
 1003              	.LVL90:
 1004 02b0 14F0020F 		tst	r4, #2
 1005 02b4 02D0     		beq	.L115
 1006              		.loc 1 618 0 is_stmt 0
 1007 02b6 6FF03F0A 		mvn	r10, #63
 1008 02ba 01E0     		b	.L75
 1009              	.L115:
 1010 02bc 4FF0400A 		mov	r10, #64
 1011              	.L75:
 1012              		.loc 1 618 0 discriminator 4
 1013 02c0 4AEA0101 		orr	r1, r10, r1
 1014 02c4 8CF80010 		strb	r1, [ip]
 619:eInk Library/pervasive_eink_hardware_driver.c ****                                         PV_EINK_BLACK3 : PV_EINK_NOTHING3);
 620:eInk Library/pervasive_eink_hardware_driver.c ****                 break;
 1015              		.loc 1 620 0 is_stmt 1 discriminator 4
 1016 02c8 66E0     		b	.L46
 1017              	.L51:
 621:eInk Library/pervasive_eink_hardware_driver.c ****             /* Stage 4: Calculate the Even and Odd bytes of new image 
 622:eInk Library/pervasive_eink_hardware_driver.c ****                data */
 623:eInk Library/pervasive_eink_hardware_driver.c ****             case PV_EINK_STAGE4:
 624:eInk Library/pervasive_eink_hardware_driver.c ****                 dataLineOdd[x]       = ((tempByte & PV_EINK_ODD_MASK_A)  ? 
 1018              		.loc 1 624 0
 1019 02ca 00EB030C 		add	ip, r0, r3
 1020 02ce 14F0400F 		tst	r4, #64
 1021 02d2 01D0     		beq	.L116
 1022 02d4 8021     		movs	r1, #128
 1023 02d6 00E0     		b	.L76
 1024              	.L116:
 1025 02d8 C021     		movs	r1, #192
 1026              	.L76:
 1027              		.loc 1 624 0 is_stmt 0 discriminator 4
 1028 02da 8CF80010 		strb	r1, [ip]
 625:eInk Library/pervasive_eink_hardware_driver.c ****                                         PV_EINK_WHITE3 : PV_EINK_BLACK3);
 626:eInk Library/pervasive_eink_hardware_driver.c ****                 dataLineOdd[x]      |= ((tempByte & PV_EINK_ODD_MASK_B)  ?
 1029              		.loc 1 626 0 is_stmt 1 discriminator 4
 1030 02de 49B2     		sxtb	r1, r1
 1031 02e0 14F0100F 		tst	r4, #16
 1032 02e4 02D0     		beq	.L117
 1033              		.loc 1 626 0 is_stmt 0
 1034 02e6 4FF0200A 		mov	r10, #32
 1035 02ea 01E0     		b	.L77
 1036              	.L117:
 1037 02ec 4FF0300A 		mov	r10, #48
 1038              	.L77:
 1039              		.loc 1 626 0 discriminator 4
 1040 02f0 4AEA0101 		orr	r1, r10, r1
 1041 02f4 8CF80010 		strb	r1, [ip]
 627:eInk Library/pervasive_eink_hardware_driver.c ****                                         PV_EINK_WHITE2 : PV_EINK_BLACK2);
 628:eInk Library/pervasive_eink_hardware_driver.c ****                 dataLineOdd[x]      |= ((tempByte & PV_EINK_ODD_MASK_C)  ? 
 1042              		.loc 1 628 0 is_stmt 1 discriminator 4
 1043 02f8 14F0040F 		tst	r4, #4
ARM GAS  C:\Users\rober\AppData\Local\Temp\ccBlBMtt.s 			page 44


 1044 02fc 02D0     		beq	.L118
 1045              		.loc 1 628 0 is_stmt 0
 1046 02fe 4FF0080A 		mov	r10, #8
 1047 0302 01E0     		b	.L78
 1048              	.L118:
 1049 0304 4FF00C0A 		mov	r10, #12
 1050              	.L78:
 1051              		.loc 1 628 0 discriminator 4
 1052 0308 4AEA0101 		orr	r1, r10, r1
 1053 030c 8CF80010 		strb	r1, [ip]
 629:eInk Library/pervasive_eink_hardware_driver.c ****                                         PV_EINK_WHITE1 : PV_EINK_BLACK1);
 630:eInk Library/pervasive_eink_hardware_driver.c ****                 dataLineOdd[x]      |= ((tempByte & PV_EINK_ODD_MASK_D)  ? 
 1054              		.loc 1 630 0 is_stmt 1 discriminator 4
 1055 0310 14F0010F 		tst	r4, #1
 1056 0314 02D0     		beq	.L119
 1057              		.loc 1 630 0 is_stmt 0
 1058 0316 4FF0020A 		mov	r10, #2
 1059 031a 01E0     		b	.L79
 1060              	.L119:
 1061 031c 4FF0030A 		mov	r10, #3
 1062              	.L79:
 1063              		.loc 1 630 0 discriminator 4
 1064 0320 4AEA0101 		orr	r1, r10, r1
 1065 0324 8CF80010 		strb	r1, [ip]
 631:eInk Library/pervasive_eink_hardware_driver.c ****                                         PV_EINK_WHITE0 : PV_EINK_BLACK0);
 632:eInk Library/pervasive_eink_hardware_driver.c ****                 dataLineEven[k]     = ((tempByte & PV_EINK_EVEN_MASK_A)  ? 
 1066              		.loc 1 632 0 is_stmt 1 discriminator 4
 1067 0328 0EEB020C 		add	ip, lr, r2
 1068 032c 14F0800F 		tst	r4, #128
 1069 0330 08D0     		beq	.L120
 1070              		.loc 1 632 0 is_stmt 0
 1071 0332 0221     		movs	r1, #2
 1072 0334 07E0     		b	.L80
 1073              	.L126:
 1074 0336 00BF     		.align	2
 1075              	.L125:
 1076 0338 FFFF0F10 		.word	269484031
 1077 033c 00000000 		.word	.LANCHOR0
 1078 0340 00000000 		.word	bulkDriverPacket
 1079              	.L120:
 1080 0344 0321     		movs	r1, #3
 1081              	.L80:
 1082              		.loc 1 632 0 discriminator 4
 1083 0346 8CF80010 		strb	r1, [ip]
 633:eInk Library/pervasive_eink_hardware_driver.c ****                                         PV_EINK_WHITE0 : PV_EINK_BLACK0);
 634:eInk Library/pervasive_eink_hardware_driver.c ****                 dataLineEven[k]     |= ((tempByte & PV_EINK_EVEN_MASK_B) ? 
 1084              		.loc 1 634 0 is_stmt 1 discriminator 4
 1085 034a 49B2     		sxtb	r1, r1
 1086 034c 14F0200F 		tst	r4, #32
 1087 0350 02D0     		beq	.L121
 1088              		.loc 1 634 0 is_stmt 0
 1089 0352 4FF0080A 		mov	r10, #8
 1090 0356 01E0     		b	.L81
 1091              	.L121:
 1092 0358 4FF00C0A 		mov	r10, #12
 1093              	.L81:
 1094              		.loc 1 634 0 discriminator 4
ARM GAS  C:\Users\rober\AppData\Local\Temp\ccBlBMtt.s 			page 45


 1095 035c 4AEA0101 		orr	r1, r10, r1
 1096 0360 8CF80010 		strb	r1, [ip]
 635:eInk Library/pervasive_eink_hardware_driver.c ****                                         PV_EINK_WHITE1 : PV_EINK_BLACK1);
 636:eInk Library/pervasive_eink_hardware_driver.c ****                 dataLineEven[k]     |= ((tempByte & PV_EINK_EVEN_MASK_C) ?
 1097              		.loc 1 636 0 is_stmt 1 discriminator 4
 1098 0364 14F0080F 		tst	r4, #8
 1099 0368 02D0     		beq	.L122
 1100              		.loc 1 636 0 is_stmt 0
 1101 036a 4FF0200A 		mov	r10, #32
 1102 036e 01E0     		b	.L82
 1103              	.L122:
 1104 0370 4FF0300A 		mov	r10, #48
 1105              	.L82:
 1106              		.loc 1 636 0 discriminator 4
 1107 0374 4AEA0101 		orr	r1, r10, r1
 1108 0378 8CF80010 		strb	r1, [ip]
 637:eInk Library/pervasive_eink_hardware_driver.c ****                                         PV_EINK_WHITE2 : PV_EINK_BLACK2);
 638:eInk Library/pervasive_eink_hardware_driver.c ****                 dataLineEven[k--]   |= ((tempByte & PV_EINK_EVEN_MASK_D) ? 
 1109              		.loc 1 638 0 is_stmt 1 discriminator 4
 1110 037c 013A     		subs	r2, r2, #1
 1111              	.LVL91:
 1112 037e 92B2     		uxth	r2, r2
 1113              	.LVL92:
 1114 0380 14F0020F 		tst	r4, #2
 1115 0384 02D0     		beq	.L123
 1116              		.loc 1 638 0 is_stmt 0
 1117 0386 6FF07F0A 		mvn	r10, #127
 1118 038a 01E0     		b	.L83
 1119              	.L123:
 1120 038c 6FF03F0A 		mvn	r10, #63
 1121              	.L83:
 1122              		.loc 1 638 0 discriminator 4
 1123 0390 4AEA0101 		orr	r1, r10, r1
 1124 0394 8CF80010 		strb	r1, [ip]
 1125              	.L46:
 550:eInk Library/pervasive_eink_hardware_driver.c ****         {
 1126              		.loc 1 550 0 is_stmt 1 discriminator 2
 1127 0398 0133     		adds	r3, r3, #1
 1128              	.LVL93:
 1129 039a 9BB2     		uxth	r3, r3
 1130              	.LVL94:
 1131              	.L44:
 550:eInk Library/pervasive_eink_hardware_driver.c ****         {
 1132              		.loc 1 550 0 is_stmt 0 discriminator 1
 1133 039c 202B     		cmp	r3, #32
 1134 039e 7FF665AE 		bls	.L84
 1135              	.LVL95:
 639:eInk Library/pervasive_eink_hardware_driver.c ****                                         PV_EINK_WHITE3 : PV_EINK_BLACK3);
 640:eInk Library/pervasive_eink_hardware_driver.c ****                 break;
 641:eInk Library/pervasive_eink_hardware_driver.c ****             }
 642:eInk Library/pervasive_eink_hardware_driver.c ****         }
 643:eInk Library/pervasive_eink_hardware_driver.c ****         /* Move onto the next line */
 644:eInk Library/pervasive_eink_hardware_driver.c ****         scanlineNumber = PV_EINK_VERTICAL_SIZE - y;
 645:eInk Library/pervasive_eink_hardware_driver.c ****         scanlineNumber--;
 1136              		.loc 1 645 0 is_stmt 1 discriminator 2
 1137 03a2 C8F1AF03 		rsb	r3, r8, #175
 1138              	.LVL96:
ARM GAS  C:\Users\rober\AppData\Local\Temp\ccBlBMtt.s 			page 46


 1139 03a6 1BB2     		sxth	r3, r3
 1140              	.LVL97:
 646:eInk Library/pervasive_eink_hardware_driver.c ****         
 647:eInk Library/pervasive_eink_hardware_driver.c ****         /* Shift Scan byte according to the data line */
 648:eInk Library/pervasive_eink_hardware_driver.c ****         dataLineScan[(scanlineNumber >> PV_EINK_PIXEL_SIZE)] = scanTable
 1141              		.loc 1 648 0 discriminator 2
 1142 03a8 9910     		asrs	r1, r3, #2
 649:eInk Library/pervasive_eink_hardware_driver.c ****                             [(scanlineNumber % PV_EINK_SCAN_TABLE_SIZE)];
 1143              		.loc 1 649 0 discriminator 2
 1144 03aa 1A4A     		ldr	r2, .L127
 1145              	.LVL98:
 1146 03ac 1340     		ands	r3, r3, r2
 1147              	.LVL99:
 1148 03ae 03D5     		bpl	.L85
 1149 03b0 013B     		subs	r3, r3, #1
 1150 03b2 63F00303 		orn	r3, r3, #3
 1151 03b6 0133     		adds	r3, r3, #1
 1152              	.L85:
 1153 03b8 174A     		ldr	r2, .L127+4
 1154 03ba 02FA83F3 		sxtah	r3, r2, r3
 1155 03be 1B7A     		ldrb	r3, [r3, #8]	@ zero_extendqisi2
 648:eInk Library/pervasive_eink_hardware_driver.c ****                             [(scanlineNumber % PV_EINK_SCAN_TABLE_SIZE)];
 1156              		.loc 1 648 0 discriminator 2
 1157 03c0 09F80130 		strb	r3, [r9, r1]
 534:eInk Library/pervasive_eink_hardware_driver.c ****     {
 1158              		.loc 1 534 0 discriminator 2
 1159 03c4 08F10108 		add	r8, r8, #1
 1160              	.LVL100:
 1161 03c8 1FFA88F8 		uxth	r8, r8
 1162              	.LVL101:
 1163              	.L43:
 534:eInk Library/pervasive_eink_hardware_driver.c ****     {
 1164              		.loc 1 534 0 is_stmt 0 discriminator 1
 1165 03cc B8F1AF0F 		cmp	r8, #175
 1166 03d0 7FF62BAE 		bls	.L86
 1167              	.LVL102:
 1168              	.L89:
 650:eInk Library/pervasive_eink_hardware_driver.c ****             
 651:eInk Library/pervasive_eink_hardware_driver.c ****     }
 652:eInk Library/pervasive_eink_hardware_driver.c ****             
 653:eInk Library/pervasive_eink_hardware_driver.c ****     /* Perform the update operation until the total time of frames exceed 
 654:eInk Library/pervasive_eink_hardware_driver.c ****        stage time */
 655:eInk Library/pervasive_eink_hardware_driver.c ****     do
 656:eInk Library/pervasive_eink_hardware_driver.c ****     {
 657:eInk Library/pervasive_eink_hardware_driver.c ****         /* Perform a line by line update */
 658:eInk Library/pervasive_eink_hardware_driver.c ****         for (y = 0; y < PV_EINK_VERTICAL_SIZE; y++)
 1169              		.loc 1 658 0 is_stmt 1
 1170 03d4 0024     		movs	r4, #0
 1171 03d6 0FE0     		b	.L87
 1172              	.LVL103:
 1173              	.L88:
 659:eInk Library/pervasive_eink_hardware_driver.c ****         {
 660:eInk Library/pervasive_eink_hardware_driver.c ****                 /* Send the prepared data to the E-INK display */
 661:eInk Library/pervasive_eink_hardware_driver.c ****             Pv_EINK_SendData(PV_EINK_PIXEL_DATA_COMMAND_INDEX,
 662:eInk Library/pervasive_eink_hardware_driver.c ****                           (uint8_t*) &bulkDriverPacket[y].lineBuffer,
 1174              		.loc 1 662 0 discriminator 3
 1175 03d8 C4EBC403 		rsb	r3, r4, r4, lsl #3
ARM GAS  C:\Users\rober\AppData\Local\Temp\ccBlBMtt.s 			page 47


 1176 03dc C4EB0313 		rsb	r3, r4, r3, lsl #4
 661:eInk Library/pervasive_eink_hardware_driver.c ****                           (uint8_t*) &bulkDriverPacket[y].lineBuffer,
 1177              		.loc 1 661 0 discriminator 3
 1178 03e0 6F22     		movs	r2, #111
 1179 03e2 0E49     		ldr	r1, .L127+8
 1180 03e4 1944     		add	r1, r1, r3
 1181 03e6 0A20     		movs	r0, #10
 1182 03e8 FFF7FEFF 		bl	Pv_EINK_SendData
 1183              	.LVL104:
 663:eInk Library/pervasive_eink_hardware_driver.c ****                           PV_EINK_DATA_LINE_SIZE);
 664:eInk Library/pervasive_eink_hardware_driver.c ****                           
 665:eInk Library/pervasive_eink_hardware_driver.c ****             /* Turn on Output Enable to latch the frame */
 666:eInk Library/pervasive_eink_hardware_driver.c ****             Pv_EINK_SendByte(PV_EINK_ENABLE_OE_COMMAND_INDEX,
 1184              		.loc 1 666 0 discriminator 3
 1185 03ec 0721     		movs	r1, #7
 1186 03ee 0220     		movs	r0, #2
 1187 03f0 FFF7FEFF 		bl	Pv_EINK_SendByte
 1188              	.LVL105:
 658:eInk Library/pervasive_eink_hardware_driver.c ****         {
 1189              		.loc 1 658 0 discriminator 3
 1190 03f4 0134     		adds	r4, r4, #1
 1191              	.LVL106:
 1192 03f6 A4B2     		uxth	r4, r4
 1193              	.LVL107:
 1194              	.L87:
 658:eInk Library/pervasive_eink_hardware_driver.c ****         {
 1195              		.loc 1 658 0 is_stmt 0 discriminator 1
 1196 03f8 AF2C     		cmp	r4, #175
 1197 03fa EDD9     		bls	.L88
 667:eInk Library/pervasive_eink_hardware_driver.c ****                           PV_EINK_ENABLE_OE_COMMAND_DATA);
 668:eInk Library/pervasive_eink_hardware_driver.c ****         }
 669:eInk Library/pervasive_eink_hardware_driver.c ****     
 670:eInk Library/pervasive_eink_hardware_driver.c ****     }
 671:eInk Library/pervasive_eink_hardware_driver.c ****     /* Loop until the total time of frames exceed stage time */
 672:eInk Library/pervasive_eink_hardware_driver.c ****     while (fullUpdateTime > Cy_EINK_GetTimeTick());
 1198              		.loc 1 672 0 is_stmt 1
 1199 03fc 084B     		ldr	r3, .L127+12
 1200 03fe B3F87C40 		ldrh	r4, [r3, #124]
 1201              	.LVL108:
 1202 0402 FFF7FEFF 		bl	Cy_EINK_GetTimeTick
 1203              	.LVL109:
 1204 0406 8442     		cmp	r4, r0
 1205 0408 E4D8     		bhi	.L89
 673:eInk Library/pervasive_eink_hardware_driver.c ****     
 674:eInk Library/pervasive_eink_hardware_driver.c ****     /* Stop the E-INK Timer */
 675:eInk Library/pervasive_eink_hardware_driver.c ****     Cy_EINK_TimerStop();
 1206              		.loc 1 675 0
 1207 040a FFF7FEFF 		bl	Cy_EINK_TimerStop
 1208              	.LVL110:
 1209 040e BDE8F88F 		pop	{r3, r4, r5, r6, r7, r8, r9, r10, fp, pc}
 1210              	.LVL111:
 1211              	.L128:
 1212 0412 00BF     		.align	2
 1213              	.L127:
 1214 0414 03000080 		.word	-2147483645
 1215 0418 00000000 		.word	.LANCHOR1
 1216 041c 00000000 		.word	bulkDriverPacket
ARM GAS  C:\Users\rober\AppData\Local\Temp\ccBlBMtt.s 			page 48


 1217 0420 00000000 		.word	.LANCHOR0
 1218              		.cfi_endproc
 1219              	.LFE609:
 1220              		.size	Pv_EINK_FullStageHandler, .-Pv_EINK_FullStageHandler
 1221              		.section	.text.Pv_EINK_PartialStageHandler,"ax",%progbits
 1222              		.align	2
 1223              		.global	Pv_EINK_PartialStageHandler
 1224              		.thumb
 1225              		.thumb_func
 1226              		.type	Pv_EINK_PartialStageHandler, %function
 1227              	Pv_EINK_PartialStageHandler:
 1228              	.LFB610:
 676:eInk Library/pervasive_eink_hardware_driver.c **** }
 677:eInk Library/pervasive_eink_hardware_driver.c **** 
 678:eInk Library/pervasive_eink_hardware_driver.c **** /*******************************************************************************
 679:eInk Library/pervasive_eink_hardware_driver.c **** * Function Name:  void Pv_EINK_PartialStageHandler(pv_eink_frame_data_t* 
 680:eInk Library/pervasive_eink_hardware_driver.c ****                             previousImagePtr, pv_eink_frame_data_t* newImagePtr)
 681:eInk Library/pervasive_eink_hardware_driver.c **** ********************************************************************************
 682:eInk Library/pervasive_eink_hardware_driver.c **** *
 683:eInk Library/pervasive_eink_hardware_driver.c **** * Summary: The partial update driving stage for getting Odd and Even bytes, and
 684:eInk Library/pervasive_eink_hardware_driver.c **** * then writing the data from memory array to E-INK driver.
 685:eInk Library/pervasive_eink_hardware_driver.c **** *
 686:eInk Library/pervasive_eink_hardware_driver.c **** * Partial update is similar to the last stage of full update. If the new data byte
 687:eInk Library/pervasive_eink_hardware_driver.c **** * is same as previous data byte, send a "nothing" pixel, so that E-INK pixel won't
 688:eInk Library/pervasive_eink_hardware_driver.c **** * be altered. If the new data byte is different from the previous data byte, send
 689:eInk Library/pervasive_eink_hardware_driver.c **** * the new data byte.
 690:eInk Library/pervasive_eink_hardware_driver.c **** * For more details on the driving stages, please refer to the driver G2 document
 691:eInk Library/pervasive_eink_hardware_driver.c **** * Section 5.
 692:eInk Library/pervasive_eink_hardware_driver.c **** *
 693:eInk Library/pervasive_eink_hardware_driver.c **** * Parameters:
 694:eInk Library/pervasive_eink_hardware_driver.c **** * pv_eink_frame_data_t* previousImagePtr : The pointer of memory that contains 
 695:eInk Library/pervasive_eink_hardware_driver.c **** *                                    previous frame written to the E-INK display
 696:eInk Library/pervasive_eink_hardware_driver.c **** * pv_eink_frame_data_t* newImagePtr      : The pointer of memory that contains a 
 697:eInk Library/pervasive_eink_hardware_driver.c **** *                       new frame which needs to be written to the E-INK display
 698:eInk Library/pervasive_eink_hardware_driver.c **** *
 699:eInk Library/pervasive_eink_hardware_driver.c **** * Return:
 700:eInk Library/pervasive_eink_hardware_driver.c **** *  None
 701:eInk Library/pervasive_eink_hardware_driver.c **** *
 702:eInk Library/pervasive_eink_hardware_driver.c **** * Side Effects:
 703:eInk Library/pervasive_eink_hardware_driver.c **** *  This is a blocking function. CPU will be busy during the entire operation,
 704:eInk Library/pervasive_eink_hardware_driver.c **** *  which can be 1 to 2 seconds. 
 705:eInk Library/pervasive_eink_hardware_driver.c **** *******************************************************************************/
 706:eInk Library/pervasive_eink_hardware_driver.c **** void Pv_EINK_PartialStageHandler(pv_eink_frame_data_t* previousImagePtr, 
 707:eInk Library/pervasive_eink_hardware_driver.c ****                                  pv_eink_frame_data_t* newImagePtr)
 708:eInk Library/pervasive_eink_hardware_driver.c **** {
 1229              		.loc 1 708 0
 1230              		.cfi_startproc
 1231              		@ args = 0, pretend = 0, frame = 0
 1232              		@ frame_needed = 0, uses_anonymous_args = 0
 1233              	.LVL112:
 1234 0000 2DE9F047 		push	{r4, r5, r6, r7, r8, r9, r10, lr}
 1235              		.cfi_def_cfa_offset 32
 1236              		.cfi_offset 4, -32
 1237              		.cfi_offset 5, -28
 1238              		.cfi_offset 6, -24
 1239              		.cfi_offset 7, -20
 1240              		.cfi_offset 8, -16
ARM GAS  C:\Users\rober\AppData\Local\Temp\ccBlBMtt.s 			page 49


 1241              		.cfi_offset 9, -12
 1242              		.cfi_offset 10, -8
 1243              		.cfi_offset 14, -4
 1244 0004 0646     		mov	r6, r0
 1245 0006 0D46     		mov	r5, r1
 1246              	.LVL113:
 709:eInk Library/pervasive_eink_hardware_driver.c ****     /* Counter variable for the horizontal pixel loop */
 710:eInk Library/pervasive_eink_hardware_driver.c ****     uint16_t    x;
 711:eInk Library/pervasive_eink_hardware_driver.c ****     /* Counter variable for the vertical pixel loop */
 712:eInk Library/pervasive_eink_hardware_driver.c ****     uint16_t    y;
 713:eInk Library/pervasive_eink_hardware_driver.c ****     /* Counter variable for the horizontal byte loop */
 714:eInk Library/pervasive_eink_hardware_driver.c ****     uint16_t    k;
 715:eInk Library/pervasive_eink_hardware_driver.c ****     
 716:eInk Library/pervasive_eink_hardware_driver.c ****     /* Temporary storage for image data bytes */
 717:eInk Library/pervasive_eink_hardware_driver.c ****     uint8_t     oldByte;
 718:eInk Library/pervasive_eink_hardware_driver.c ****     /* Temporary storage for image data bytes */
 719:eInk Library/pervasive_eink_hardware_driver.c ****     uint8_t     newByte;
 720:eInk Library/pervasive_eink_hardware_driver.c ****     
 721:eInk Library/pervasive_eink_hardware_driver.c ****     /* Variable for storing the line number under scan */
 722:eInk Library/pervasive_eink_hardware_driver.c ****     int16       scanlineNumber = 0;
 723:eInk Library/pervasive_eink_hardware_driver.c ****     
 724:eInk Library/pervasive_eink_hardware_driver.c ****     /* Re-initialize E-INK timer to ensure the same duration of each stage  */
 725:eInk Library/pervasive_eink_hardware_driver.c ****     Cy_EINK_TimerInit();
 1247              		.loc 1 725 0
 1248 0008 FFF7FEFF 		bl	Cy_EINK_TimerInit
 1249              	.LVL114:
 726:eInk Library/pervasive_eink_hardware_driver.c ****     
 727:eInk Library/pervasive_eink_hardware_driver.c ****     /* Vcom level adjust */
 728:eInk Library/pervasive_eink_hardware_driver.c ****     Pv_EINK_SendByte(PV_EINK_VCOM2_LEVEL_COMMAND_INDEX,
 1250              		.loc 1 728 0
 1251 000c D221     		movs	r1, #210
 1252 000e 0920     		movs	r0, #9
 1253 0010 FFF7FEFF 		bl	Pv_EINK_SendByte
 1254              	.LVL115:
 729:eInk Library/pervasive_eink_hardware_driver.c ****                      PV_EINK_VCOM2_LEVEL_COMMAND_DATA);
 730:eInk Library/pervasive_eink_hardware_driver.c ****      
 731:eInk Library/pervasive_eink_hardware_driver.c ****     /* Vertical pixel loop */
 732:eInk Library/pervasive_eink_hardware_driver.c ****     for (y = 0; y < PV_EINK_VERTICAL_SIZE; y++)
 1255              		.loc 1 732 0
 1256 0014 0024     		movs	r4, #0
 1257 0016 C6E0     		b	.L130
 1258              	.LVL116:
 1259              	.L142:
 733:eInk Library/pervasive_eink_hardware_driver.c ****     {
 734:eInk Library/pervasive_eink_hardware_driver.c ****         /* Clear the line buffer with all zeros */
 735:eInk Library/pervasive_eink_hardware_driver.c ****         memset(&bulkDriverPacket[y].lineBuffer, 0, 
 1260              		.loc 1 735 0
 1261 0018 C4EBC407 		rsb	r7, r4, r4, lsl #3
 1262 001c C4EB0717 		rsb	r7, r4, r7, lsl #4
 1263 0020 DFF80082 		ldr	r8, .L163+12
 1264 0024 07EB0809 		add	r9, r7, r8
 1265 0028 6F22     		movs	r2, #111
 1266 002a 0021     		movs	r1, #0
 1267 002c 4846     		mov	r0, r9
 1268 002e FFF7FEFF 		bl	memset
 1269              	.LVL117:
 736:eInk Library/pervasive_eink_hardware_driver.c ****                sizeof(bulkDriverPacket[y].lineBuffer)) ;
ARM GAS  C:\Users\rober\AppData\Local\Temp\ccBlBMtt.s 			page 50


 737:eInk Library/pervasive_eink_hardware_driver.c **** 
 738:eInk Library/pervasive_eink_hardware_driver.c ****         /* Initialize the even data, odd data and scan data pointers */
 739:eInk Library/pervasive_eink_hardware_driver.c ****         dataLineEven = &bulkDriverPacket[y].lineDataBySize.even[0];
 1270              		.loc 1 739 0
 1271 0032 09F1010C 		add	ip, r9, #1
 1272 0036 784B     		ldr	r3, .L163
 1273 0038 C3F870C0 		str	ip, [r3, #112]
 740:eInk Library/pervasive_eink_hardware_driver.c ****         dataLineOdd  = &bulkDriverPacket[y].lineDataBySize.odd[0];
 1274              		.loc 1 740 0
 1275 003c 07F1480E 		add	lr, r7, #72
 1276 0040 C644     		add	lr, lr, r8
 1277 0042 0EF1060E 		add	lr, lr, #6
 1278 0046 C3F874E0 		str	lr, [r3, #116]
 741:eInk Library/pervasive_eink_hardware_driver.c ****         dataLineScan = &bulkDriverPacket[y].lineDataBySize.scan[0];
 1279              		.loc 1 741 0
 1280 004a 2037     		adds	r7, r7, #32
 1281 004c B844     		add	r8, r8, r7
 1282 004e 08F10208 		add	r8, r8, #2
 1283 0052 C3F87880 		str	r8, [r3, #120]
 1284              	.LVL118:
 742:eInk Library/pervasive_eink_hardware_driver.c **** 
 743:eInk Library/pervasive_eink_hardware_driver.c ****         /* Horizontal bytes initialization */
 744:eInk Library/pervasive_eink_hardware_driver.c ****         k = PV_EINK_HORIZONTAL_SIZE;
 745:eInk Library/pervasive_eink_hardware_driver.c ****         k--;
 1285              		.loc 1 745 0
 1286 0056 2020     		movs	r0, #32
 746:eInk Library/pervasive_eink_hardware_driver.c ****         
 747:eInk Library/pervasive_eink_hardware_driver.c ****         /* Horizontal pixel loop */
 748:eInk Library/pervasive_eink_hardware_driver.c ****         for (x = 0; x < PV_EINK_HORIZONTAL_SIZE; x++)
 1287              		.loc 1 748 0
 1288 0058 0021     		movs	r1, #0
 1289 005a 8EE0     		b	.L131
 1290              	.LVL119:
 1291              	.L140:
 749:eInk Library/pervasive_eink_hardware_driver.c ****         {
 750:eInk Library/pervasive_eink_hardware_driver.c ****             /* Fetch successive data bytes */
 751:eInk Library/pervasive_eink_hardware_driver.c ****             oldByte = *previousImagePtr++;
 1292              		.loc 1 751 0
 1293 005c 771C     		adds	r7, r6, #1
 1294              	.LVL120:
 1295 005e 3278     		ldrb	r2, [r6]	@ zero_extendqisi2
 1296              	.LVL121:
 752:eInk Library/pervasive_eink_hardware_driver.c ****             newByte = *newImagePtr++;
 1297              		.loc 1 752 0
 1298 0060 6E1C     		adds	r6, r5, #1
 1299              	.LVL122:
 1300 0062 95F80090 		ldrb	r9, [r5]	@ zero_extendqisi2
 1301              	.LVL123:
 753:eInk Library/pervasive_eink_hardware_driver.c ****             
 754:eInk Library/pervasive_eink_hardware_driver.c ****             /* Calculate the Even and Odd bytes for partial update stage. Also, 
 755:eInk Library/pervasive_eink_hardware_driver.c ****                if the new data byte is same as the previous data byte, store a 
 756:eInk Library/pervasive_eink_hardware_driver.c ****                "nothing" pixel, so that the E-INK pixel won't be altered.
 757:eInk Library/pervasive_eink_hardware_driver.c ****                If the new data byte is different from the previous data byte, 
 758:eInk Library/pervasive_eink_hardware_driver.c ****                store the new data byte */
 759:eInk Library/pervasive_eink_hardware_driver.c ****             dataLineOdd[x]       = ((oldByte ^ newByte) & PV_EINK_ODD_MASK_A)
 1302              		.loc 1 759 0
 1303 0066 0EEB0105 		add	r5, lr, r1
ARM GAS  C:\Users\rober\AppData\Local\Temp\ccBlBMtt.s 			page 51


 1304 006a 82EA0902 		eor	r2, r2, r9
 1305              	.LVL124:
 1306 006e 12F0400F 		tst	r2, #64
 1307 0072 04D0     		beq	.L146
 1308              		.loc 1 759 0 is_stmt 0 discriminator 1
 1309 0074 19F0400F 		tst	r9, #64
 1310 0078 03D0     		beq	.L147
 1311              		.loc 1 759 0
 1312 007a 8023     		movs	r3, #128
 1313 007c 02E0     		b	.L132
 1314              	.L146:
 1315 007e 4023     		movs	r3, #64
 1316 0080 00E0     		b	.L132
 1317              	.L147:
 1318 0082 C023     		movs	r3, #192
 1319              	.L132:
 1320              		.loc 1 759 0 discriminator 8
 1321 0084 2B70     		strb	r3, [r5]
 1322              	.LVL125:
 760:eInk Library/pervasive_eink_hardware_driver.c ****                                     ?((newByte & PV_EINK_ODD_MASK_A)
 761:eInk Library/pervasive_eink_hardware_driver.c ****                                     ? PV_EINK_WHITE3
 762:eInk Library/pervasive_eink_hardware_driver.c ****                                     : PV_EINK_BLACK3) : PV_EINK_NOTHING3;
 763:eInk Library/pervasive_eink_hardware_driver.c ****             dataLineOdd[x]      |= ((oldByte ^ newByte) & PV_EINK_ODD_MASK_B)
 1323              		.loc 1 763 0 is_stmt 1 discriminator 8
 1324 0086 5BB2     		sxtb	r3, r3
 1325 0088 12F0100F 		tst	r2, #16
 1326 008c 05D0     		beq	.L148
 1327              		.loc 1 763 0 is_stmt 0 discriminator 1
 1328 008e 19F0100F 		tst	r9, #16
 1329 0092 05D0     		beq	.L149
 1330              		.loc 1 763 0
 1331 0094 4FF0200A 		mov	r10, #32
 1332 0098 04E0     		b	.L133
 1333              	.L148:
 1334 009a 4FF0100A 		mov	r10, #16
 1335 009e 01E0     		b	.L133
 1336              	.L149:
 1337 00a0 4FF0300A 		mov	r10, #48
 1338              	.L133:
 1339              		.loc 1 763 0 discriminator 8
 1340 00a4 4AEA0303 		orr	r3, r10, r3
 1341 00a8 2B70     		strb	r3, [r5]
 764:eInk Library/pervasive_eink_hardware_driver.c ****                                     ?((newByte & PV_EINK_ODD_MASK_B) 
 765:eInk Library/pervasive_eink_hardware_driver.c ****                                     ? PV_EINK_WHITE2 
 766:eInk Library/pervasive_eink_hardware_driver.c ****                                     : PV_EINK_BLACK2) : PV_EINK_NOTHING2;
 767:eInk Library/pervasive_eink_hardware_driver.c ****             dataLineOdd[x]      |= ((oldByte ^ newByte) & PV_EINK_ODD_MASK_C)
 1342              		.loc 1 767 0 is_stmt 1 discriminator 8
 1343 00aa 12F0040F 		tst	r2, #4
 1344 00ae 05D0     		beq	.L150
 1345              		.loc 1 767 0 is_stmt 0 discriminator 1
 1346 00b0 19F0040F 		tst	r9, #4
 1347 00b4 05D0     		beq	.L151
 1348              		.loc 1 767 0
 1349 00b6 4FF0080A 		mov	r10, #8
 1350 00ba 04E0     		b	.L134
 1351              	.L150:
 1352 00bc 4FF0040A 		mov	r10, #4
ARM GAS  C:\Users\rober\AppData\Local\Temp\ccBlBMtt.s 			page 52


 1353 00c0 01E0     		b	.L134
 1354              	.L151:
 1355 00c2 4FF00C0A 		mov	r10, #12
 1356              	.L134:
 1357              		.loc 1 767 0 discriminator 8
 1358 00c6 4AEA0303 		orr	r3, r10, r3
 1359 00ca 2B70     		strb	r3, [r5]
 768:eInk Library/pervasive_eink_hardware_driver.c ****                                     ?((newByte & PV_EINK_ODD_MASK_C) 
 769:eInk Library/pervasive_eink_hardware_driver.c ****                                     ? PV_EINK_WHITE1
 770:eInk Library/pervasive_eink_hardware_driver.c ****                                     : PV_EINK_BLACK1) : PV_EINK_NOTHING1;
 771:eInk Library/pervasive_eink_hardware_driver.c ****             dataLineOdd[x]      |= ((oldByte ^ newByte) & PV_EINK_ODD_MASK_D)
 1360              		.loc 1 771 0 is_stmt 1 discriminator 8
 1361 00cc 12F0010F 		tst	r2, #1
 1362 00d0 05D0     		beq	.L152
 1363              		.loc 1 771 0 is_stmt 0 discriminator 1
 1364 00d2 19F0010F 		tst	r9, #1
 1365 00d6 05D0     		beq	.L153
 1366              		.loc 1 771 0
 1367 00d8 4FF0020A 		mov	r10, #2
 1368 00dc 04E0     		b	.L135
 1369              	.L152:
 1370 00de 4FF0010A 		mov	r10, #1
 1371 00e2 01E0     		b	.L135
 1372              	.L153:
 1373 00e4 4FF0030A 		mov	r10, #3
 1374              	.L135:
 1375              		.loc 1 771 0 discriminator 8
 1376 00e8 4AEA0303 		orr	r3, r10, r3
 1377 00ec 2B70     		strb	r3, [r5]
 772:eInk Library/pervasive_eink_hardware_driver.c ****                                     ?((newByte & PV_EINK_ODD_MASK_D) 
 773:eInk Library/pervasive_eink_hardware_driver.c ****                                     ? PV_EINK_WHITE0 
 774:eInk Library/pervasive_eink_hardware_driver.c ****                                     : PV_EINK_BLACK0) : PV_EINK_NOTHING0;
 775:eInk Library/pervasive_eink_hardware_driver.c ****             dataLineEven[k]      = ((oldByte ^ newByte) & PV_EINK_EVEN_MASK_A)
 1378              		.loc 1 775 0 is_stmt 1 discriminator 8
 1379 00ee 0CEB0005 		add	r5, ip, r0
 1380 00f2 12F0800F 		tst	r2, #128
 1381 00f6 04D0     		beq	.L154
 1382              		.loc 1 775 0 is_stmt 0 discriminator 1
 1383 00f8 19F0800F 		tst	r9, #128
 1384 00fc 03D0     		beq	.L155
 1385              		.loc 1 775 0
 1386 00fe 0223     		movs	r3, #2
 1387 0100 02E0     		b	.L136
 1388              	.L154:
 1389 0102 0123     		movs	r3, #1
 1390 0104 00E0     		b	.L136
 1391              	.L155:
 1392 0106 0323     		movs	r3, #3
 1393              	.L136:
 1394              		.loc 1 775 0 discriminator 8
 1395 0108 2B70     		strb	r3, [r5]
 776:eInk Library/pervasive_eink_hardware_driver.c ****                                     ?((newByte & PV_EINK_EVEN_MASK_A) 
 777:eInk Library/pervasive_eink_hardware_driver.c ****                                     ? PV_EINK_WHITE0
 778:eInk Library/pervasive_eink_hardware_driver.c ****                                     : PV_EINK_BLACK0) : PV_EINK_NOTHING0;
 779:eInk Library/pervasive_eink_hardware_driver.c ****             dataLineEven[k]     |= ((oldByte ^ newByte) & PV_EINK_EVEN_MASK_B) 
 1396              		.loc 1 779 0 is_stmt 1 discriminator 8
 1397 010a 5BB2     		sxtb	r3, r3
ARM GAS  C:\Users\rober\AppData\Local\Temp\ccBlBMtt.s 			page 53


 1398 010c 12F0200F 		tst	r2, #32
 1399 0110 05D0     		beq	.L156
 1400              		.loc 1 779 0 is_stmt 0 discriminator 1
 1401 0112 19F0200F 		tst	r9, #32
 1402 0116 05D0     		beq	.L157
 1403              		.loc 1 779 0
 1404 0118 4FF0080A 		mov	r10, #8
 1405 011c 04E0     		b	.L137
 1406              	.L156:
 1407 011e 4FF0040A 		mov	r10, #4
 1408 0122 01E0     		b	.L137
 1409              	.L157:
 1410 0124 4FF00C0A 		mov	r10, #12
 1411              	.L137:
 1412              		.loc 1 779 0 discriminator 8
 1413 0128 4AEA0303 		orr	r3, r10, r3
 1414 012c 2B70     		strb	r3, [r5]
 780:eInk Library/pervasive_eink_hardware_driver.c ****                                     ?((newByte & PV_EINK_EVEN_MASK_B) 
 781:eInk Library/pervasive_eink_hardware_driver.c ****                                     ? PV_EINK_WHITE1
 782:eInk Library/pervasive_eink_hardware_driver.c ****                                     : PV_EINK_BLACK1) : PV_EINK_NOTHING1;
 783:eInk Library/pervasive_eink_hardware_driver.c ****             dataLineEven[k]     |= ((oldByte ^ newByte) & PV_EINK_EVEN_MASK_C)
 1415              		.loc 1 783 0 is_stmt 1 discriminator 8
 1416 012e 12F0080F 		tst	r2, #8
 1417 0132 05D0     		beq	.L158
 1418              		.loc 1 783 0 is_stmt 0 discriminator 1
 1419 0134 19F0080F 		tst	r9, #8
 1420 0138 05D0     		beq	.L159
 1421              		.loc 1 783 0
 1422 013a 4FF0200A 		mov	r10, #32
 1423 013e 04E0     		b	.L138
 1424              	.L158:
 1425 0140 4FF0100A 		mov	r10, #16
 1426 0144 01E0     		b	.L138
 1427              	.L159:
 1428 0146 4FF0300A 		mov	r10, #48
 1429              	.L138:
 1430              		.loc 1 783 0 discriminator 8
 1431 014a 4AEA0303 		orr	r3, r10, r3
 1432 014e 2B70     		strb	r3, [r5]
 784:eInk Library/pervasive_eink_hardware_driver.c ****                                     ?((newByte & PV_EINK_EVEN_MASK_C) 
 785:eInk Library/pervasive_eink_hardware_driver.c ****                                     ? PV_EINK_WHITE2 
 786:eInk Library/pervasive_eink_hardware_driver.c ****                                     : PV_EINK_BLACK2) : PV_EINK_NOTHING2;
 787:eInk Library/pervasive_eink_hardware_driver.c ****             dataLineEven[k--]   |= ((oldByte ^ newByte) & PV_EINK_EVEN_MASK_D)
 1433              		.loc 1 787 0 is_stmt 1 discriminator 8
 1434 0150 0138     		subs	r0, r0, #1
 1435              	.LVL126:
 1436 0152 80B2     		uxth	r0, r0
 1437              	.LVL127:
 1438 0154 12F0020F 		tst	r2, #2
 1439 0158 05D0     		beq	.L160
 1440              		.loc 1 787 0 is_stmt 0 discriminator 1
 1441 015a 19F0020F 		tst	r9, #2
 1442 015e 04D0     		beq	.L161
 1443              		.loc 1 787 0
 1444 0160 6FF07F02 		mvn	r2, #127
 1445 0164 03E0     		b	.L139
 1446              	.L160:
ARM GAS  C:\Users\rober\AppData\Local\Temp\ccBlBMtt.s 			page 54


 1447 0166 4022     		movs	r2, #64
 1448 0168 01E0     		b	.L139
 1449              	.L161:
 1450 016a 6FF03F02 		mvn	r2, #63
 1451              	.L139:
 1452              		.loc 1 787 0 discriminator 8
 1453 016e 1343     		orrs	r3, r3, r2
 1454 0170 2B70     		strb	r3, [r5]
 748:eInk Library/pervasive_eink_hardware_driver.c ****         {
 1455              		.loc 1 748 0 is_stmt 1 discriminator 8
 1456 0172 0131     		adds	r1, r1, #1
 1457              	.LVL128:
 1458 0174 89B2     		uxth	r1, r1
 1459              	.LVL129:
 752:eInk Library/pervasive_eink_hardware_driver.c ****             
 1460              		.loc 1 752 0 discriminator 8
 1461 0176 3546     		mov	r5, r6
 751:eInk Library/pervasive_eink_hardware_driver.c ****             newByte = *newImagePtr++;
 1462              		.loc 1 751 0 discriminator 8
 1463 0178 3E46     		mov	r6, r7
 1464              	.LVL130:
 1465              	.L131:
 748:eInk Library/pervasive_eink_hardware_driver.c ****         {
 1466              		.loc 1 748 0 discriminator 2
 1467 017a 2029     		cmp	r1, #32
 1468 017c 7FF66EAF 		bls	.L140
 1469              	.LVL131:
 788:eInk Library/pervasive_eink_hardware_driver.c ****                                     ?((newByte & PV_EINK_EVEN_MASK_D) 
 789:eInk Library/pervasive_eink_hardware_driver.c ****                                     ? PV_EINK_WHITE3 
 790:eInk Library/pervasive_eink_hardware_driver.c ****                                     : PV_EINK_BLACK3) : PV_EINK_NOTHING3;
 791:eInk Library/pervasive_eink_hardware_driver.c ****         }
 792:eInk Library/pervasive_eink_hardware_driver.c ****         /* Move onto the next line */
 793:eInk Library/pervasive_eink_hardware_driver.c ****         scanlineNumber = PV_EINK_VERTICAL_SIZE - y;
 794:eInk Library/pervasive_eink_hardware_driver.c ****         scanlineNumber--;
 1470              		.loc 1 794 0 discriminator 2
 1471 0180 C4F1AF03 		rsb	r3, r4, #175
 1472 0184 1BB2     		sxth	r3, r3
 1473              	.LVL132:
 795:eInk Library/pervasive_eink_hardware_driver.c ****         
 796:eInk Library/pervasive_eink_hardware_driver.c ****         /* Shift Scan byte according to the data line */
 797:eInk Library/pervasive_eink_hardware_driver.c ****         dataLineScan[(scanlineNumber >> PV_EINK_PIXEL_SIZE)] = scanTable
 1474              		.loc 1 797 0 discriminator 2
 1475 0186 9910     		asrs	r1, r3, #2
 1476              	.LVL133:
 798:eInk Library/pervasive_eink_hardware_driver.c ****                             [(scanlineNumber % PV_EINK_SCAN_TABLE_SIZE)];
 1477              		.loc 1 798 0 discriminator 2
 1478 0188 244A     		ldr	r2, .L163+4
 1479 018a 1340     		ands	r3, r3, r2
 1480              	.LVL134:
 1481 018c 03D5     		bpl	.L141
 1482 018e 013B     		subs	r3, r3, #1
 1483 0190 63F00303 		orn	r3, r3, #3
 1484 0194 0133     		adds	r3, r3, #1
 1485              	.L141:
 1486 0196 224A     		ldr	r2, .L163+8
 1487 0198 02FA83F3 		sxtah	r3, r2, r3
 1488 019c 1B7A     		ldrb	r3, [r3, #8]	@ zero_extendqisi2
ARM GAS  C:\Users\rober\AppData\Local\Temp\ccBlBMtt.s 			page 55


 797:eInk Library/pervasive_eink_hardware_driver.c ****                             [(scanlineNumber % PV_EINK_SCAN_TABLE_SIZE)];
 1489              		.loc 1 797 0 discriminator 2
 1490 019e 08F80130 		strb	r3, [r8, r1]
 732:eInk Library/pervasive_eink_hardware_driver.c ****     {
 1491              		.loc 1 732 0 discriminator 2
 1492 01a2 0134     		adds	r4, r4, #1
 1493              	.LVL135:
 1494 01a4 A4B2     		uxth	r4, r4
 1495              	.LVL136:
 1496              	.L130:
 732:eInk Library/pervasive_eink_hardware_driver.c ****     {
 1497              		.loc 1 732 0 is_stmt 0 discriminator 1
 1498 01a6 AF2C     		cmp	r4, #175
 1499 01a8 7FF636AF 		bls	.L142
 1500              	.LVL137:
 1501              	.L145:
 799:eInk Library/pervasive_eink_hardware_driver.c ****     }
 800:eInk Library/pervasive_eink_hardware_driver.c ****     
 801:eInk Library/pervasive_eink_hardware_driver.c ****     /* Perform the update operation until the total time of frames exceed stage
 802:eInk Library/pervasive_eink_hardware_driver.c ****        time */
 803:eInk Library/pervasive_eink_hardware_driver.c ****     do
 804:eInk Library/pervasive_eink_hardware_driver.c ****     {
 805:eInk Library/pervasive_eink_hardware_driver.c ****         /* Perform a line by line update */
 806:eInk Library/pervasive_eink_hardware_driver.c ****         for (y = 0; y < PV_EINK_VERTICAL_SIZE; y++)
 1502              		.loc 1 806 0 is_stmt 1
 1503 01ac 0024     		movs	r4, #0
 1504 01ae 21E0     		b	.L143
 1505              	.LVL138:
 1506              	.L144:
 807:eInk Library/pervasive_eink_hardware_driver.c ****         {
 808:eInk Library/pervasive_eink_hardware_driver.c ****             /* Send the prepared data to the E-INK display */
 809:eInk Library/pervasive_eink_hardware_driver.c ****             Pv_EINK_SendData(PV_EINK_PIXEL_DATA_COMMAND_INDEX,
 810:eInk Library/pervasive_eink_hardware_driver.c ****                             (uint8_t*) &bulkDriverPacket[y].lineBuffer,
 1507              		.loc 1 810 0 discriminator 3
 1508 01b0 C4EBC405 		rsb	r5, r4, r4, lsl #3
 1509 01b4 C4EB0515 		rsb	r5, r4, r5, lsl #4
 1510 01b8 1A4B     		ldr	r3, .L163+12
 1511 01ba 1D44     		add	r5, r5, r3
 809:eInk Library/pervasive_eink_hardware_driver.c ****                             (uint8_t*) &bulkDriverPacket[y].lineBuffer,
 1512              		.loc 1 809 0 discriminator 3
 1513 01bc 6F22     		movs	r2, #111
 1514 01be 2946     		mov	r1, r5
 1515 01c0 0A20     		movs	r0, #10
 1516 01c2 FFF7FEFF 		bl	Pv_EINK_SendData
 1517              	.LVL139:
 811:eInk Library/pervasive_eink_hardware_driver.c ****                              PV_EINK_DATA_LINE_SIZE);
 812:eInk Library/pervasive_eink_hardware_driver.c ****             /* Turn on Output Enable to latch the frame */
 813:eInk Library/pervasive_eink_hardware_driver.c ****             Pv_EINK_SendByte(PV_EINK_ENABLE_OE_COMMAND_INDEX,
 1518              		.loc 1 813 0 discriminator 3
 1519 01c6 0721     		movs	r1, #7
 1520 01c8 0220     		movs	r0, #2
 1521 01ca FFF7FEFF 		bl	Pv_EINK_SendByte
 1522              	.LVL140:
 814:eInk Library/pervasive_eink_hardware_driver.c ****                              PV_EINK_ENABLE_OE_COMMAND_DATA);
 815:eInk Library/pervasive_eink_hardware_driver.c ****             
 816:eInk Library/pervasive_eink_hardware_driver.c ****             /* Calculate the current line under scan */
 817:eInk Library/pervasive_eink_hardware_driver.c ****             scanlineNumber = PV_EINK_VERTICAL_SIZE - y;
ARM GAS  C:\Users\rober\AppData\Local\Temp\ccBlBMtt.s 			page 56


 818:eInk Library/pervasive_eink_hardware_driver.c ****             scanlineNumber--;
 1523              		.loc 1 818 0 discriminator 3
 1524 01ce C4F1AF03 		rsb	r3, r4, #175
 1525              	.LVL141:
 819:eInk Library/pervasive_eink_hardware_driver.c ****             
 820:eInk Library/pervasive_eink_hardware_driver.c ****             /* Re-initialize the scan line (extra step for partial update) */
 821:eInk Library/pervasive_eink_hardware_driver.c ****             bulkDriverPacket[y].lineDataBySize.scan[(scanlineNumber 
 822:eInk Library/pervasive_eink_hardware_driver.c ****                                                      >> PV_EINK_PIXEL_SIZE)]
 1526              		.loc 1 822 0 discriminator 3
 1527 01d2 43F38D03 		sbfx	r3, r3, #2, #14
 1528              	.LVL142:
 823:eInk Library/pervasive_eink_hardware_driver.c ****                                                      = PV_EINK_SCAN_BYTE_INIT;
 1529              		.loc 1 823 0 discriminator 3
 1530 01d6 2B44     		add	r3, r3, r5
 1531 01d8 0022     		movs	r2, #0
 1532 01da 83F82220 		strb	r2, [r3, #34]
 824:eInk Library/pervasive_eink_hardware_driver.c **** 
 825:eInk Library/pervasive_eink_hardware_driver.c ****             Pv_EINK_SendData(PV_EINK_PIXEL_DATA_COMMAND_INDEX,
 1533              		.loc 1 825 0 discriminator 3
 1534 01de 6F22     		movs	r2, #111
 1535 01e0 2946     		mov	r1, r5
 1536 01e2 0A20     		movs	r0, #10
 1537 01e4 FFF7FEFF 		bl	Pv_EINK_SendData
 1538              	.LVL143:
 826:eInk Library/pervasive_eink_hardware_driver.c ****                             (uint8_t*) &bulkDriverPacket[y].lineBuffer,
 827:eInk Library/pervasive_eink_hardware_driver.c ****                              PV_EINK_DATA_LINE_SIZE);
 828:eInk Library/pervasive_eink_hardware_driver.c ****             Pv_EINK_SendByte(PV_EINK_ENABLE_OE_COMMAND_INDEX,
 1539              		.loc 1 828 0 discriminator 3
 1540 01e8 0721     		movs	r1, #7
 1541 01ea 0220     		movs	r0, #2
 1542 01ec FFF7FEFF 		bl	Pv_EINK_SendByte
 1543              	.LVL144:
 806:eInk Library/pervasive_eink_hardware_driver.c ****         {
 1544              		.loc 1 806 0 discriminator 3
 1545 01f0 0134     		adds	r4, r4, #1
 1546              	.LVL145:
 1547 01f2 A4B2     		uxth	r4, r4
 1548              	.LVL146:
 1549              	.L143:
 806:eInk Library/pervasive_eink_hardware_driver.c ****         {
 1550              		.loc 1 806 0 is_stmt 0 discriminator 1
 1551 01f4 AF2C     		cmp	r4, #175
 1552 01f6 DBD9     		bls	.L144
 829:eInk Library/pervasive_eink_hardware_driver.c ****                              PV_EINK_ENABLE_OE_COMMAND_DATA);
 830:eInk Library/pervasive_eink_hardware_driver.c ****         }
 831:eInk Library/pervasive_eink_hardware_driver.c ****     }
 832:eInk Library/pervasive_eink_hardware_driver.c ****     /* Loop until the total time of frames exceed stage time */
 833:eInk Library/pervasive_eink_hardware_driver.c ****     while (partialUpdateTime > Cy_EINK_GetTimeTick());
 1553              		.loc 1 833 0 is_stmt 1
 1554 01f8 074B     		ldr	r3, .L163
 1555 01fa B3F87E40 		ldrh	r4, [r3, #126]
 1556              	.LVL147:
 1557 01fe FFF7FEFF 		bl	Cy_EINK_GetTimeTick
 1558              	.LVL148:
 1559 0202 8442     		cmp	r4, r0
 1560 0204 D2D8     		bhi	.L145
 834:eInk Library/pervasive_eink_hardware_driver.c ****     
ARM GAS  C:\Users\rober\AppData\Local\Temp\ccBlBMtt.s 			page 57


 835:eInk Library/pervasive_eink_hardware_driver.c ****     /* Stop system timer */
 836:eInk Library/pervasive_eink_hardware_driver.c ****     Cy_EINK_TimerStop();
 1561              		.loc 1 836 0
 1562 0206 FFF7FEFF 		bl	Cy_EINK_TimerStop
 1563              	.LVL149:
 837:eInk Library/pervasive_eink_hardware_driver.c ****     
 838:eInk Library/pervasive_eink_hardware_driver.c ****     /* Re-adjust Vcom level */
 839:eInk Library/pervasive_eink_hardware_driver.c ****     Pv_EINK_SendByte(PV_EINK_VCOM1_LEVEL_COMMAND_INDEX, 
 1564              		.loc 1 839 0
 1565 020a C221     		movs	r1, #194
 1566 020c 0920     		movs	r0, #9
 1567 020e FFF7FEFF 		bl	Pv_EINK_SendByte
 1568              	.LVL150:
 1569 0212 BDE8F087 		pop	{r4, r5, r6, r7, r8, r9, r10, pc}
 1570              	.LVL151:
 1571              	.L164:
 1572 0216 00BF     		.align	2
 1573              	.L163:
 1574 0218 00000000 		.word	.LANCHOR0
 1575 021c 03000080 		.word	-2147483645
 1576 0220 00000000 		.word	.LANCHOR1
 1577 0224 00000000 		.word	bulkDriverPacket
 1578              		.cfi_endproc
 1579              	.LFE610:
 1580              		.size	Pv_EINK_PartialStageHandler, .-Pv_EINK_PartialStageHandler
 1581              		.section	.text.Pv_EINK_NothingFrame,"ax",%progbits
 1582              		.align	2
 1583              		.global	Pv_EINK_NothingFrame
 1584              		.thumb
 1585              		.thumb_func
 1586              		.type	Pv_EINK_NothingFrame, %function
 1587              	Pv_EINK_NothingFrame:
 1588              	.LFB611:
 840:eInk Library/pervasive_eink_hardware_driver.c ****                      PV_EINK_VCOM1_LEVEL_COMMAND_DATA);
 841:eInk Library/pervasive_eink_hardware_driver.c **** }
 842:eInk Library/pervasive_eink_hardware_driver.c **** 
 843:eInk Library/pervasive_eink_hardware_driver.c **** /*******************************************************************************
 844:eInk Library/pervasive_eink_hardware_driver.c **** * Function Name:  void Pv_EINK_NothingFrame(void)
 845:eInk Library/pervasive_eink_hardware_driver.c **** ********************************************************************************
 846:eInk Library/pervasive_eink_hardware_driver.c **** *
 847:eInk Library/pervasive_eink_hardware_driver.c **** * Summary: Write a "Nothing Frame" to driver. For a "Nothing Frame",
 848:eInk Library/pervasive_eink_hardware_driver.c **** * all pixel data D(x,y) are "01".
 849:eInk Library/pervasive_eink_hardware_driver.c **** * For more details, please refer to the driver G2 document Section 6.
 850:eInk Library/pervasive_eink_hardware_driver.c **** *
 851:eInk Library/pervasive_eink_hardware_driver.c **** * Parameters:
 852:eInk Library/pervasive_eink_hardware_driver.c **** *  None
 853:eInk Library/pervasive_eink_hardware_driver.c **** *
 854:eInk Library/pervasive_eink_hardware_driver.c **** * Return:
 855:eInk Library/pervasive_eink_hardware_driver.c **** *  None
 856:eInk Library/pervasive_eink_hardware_driver.c **** *
 857:eInk Library/pervasive_eink_hardware_driver.c **** * Side Effects:
 858:eInk Library/pervasive_eink_hardware_driver.c **** *  None
 859:eInk Library/pervasive_eink_hardware_driver.c **** *******************************************************************************/
 860:eInk Library/pervasive_eink_hardware_driver.c **** void Pv_EINK_NothingFrame(void)
 861:eInk Library/pervasive_eink_hardware_driver.c **** {
 1589              		.loc 1 861 0
 1590              		.cfi_startproc
ARM GAS  C:\Users\rober\AppData\Local\Temp\ccBlBMtt.s 			page 58


 1591              		@ args = 0, pretend = 0, frame = 0
 1592              		@ frame_needed = 0, uses_anonymous_args = 0
 1593              	.LVL152:
 862:eInk Library/pervasive_eink_hardware_driver.c ****     /* Counter variable for data line bytes */
 863:eInk Library/pervasive_eink_hardware_driver.c ****     uint16_t    byteCounter;
 864:eInk Library/pervasive_eink_hardware_driver.c ****     
 865:eInk Library/pervasive_eink_hardware_driver.c ****     /* Set all Even and Odd data bytes as "Nothing" bytes */
 866:eInk Library/pervasive_eink_hardware_driver.c ****     for (byteCounter = 0; byteCounter < PV_EINK_HORIZONTAL_SIZE; byteCounter++)
 1594              		.loc 1 866 0
 1595 0000 0023     		movs	r3, #0
 1596 0002 07E0     		b	.L166
 1597              	.LVL153:
 1598              	.L167:
 867:eInk Library/pervasive_eink_hardware_driver.c ****     {
 868:eInk Library/pervasive_eink_hardware_driver.c ****         dataLineEven[byteCounter] = PV_EINK_NOTHING;
 1599              		.loc 1 868 0 discriminator 3
 1600 0004 1349     		ldr	r1, .L171
 1601 0006 086F     		ldr	r0, [r1, #112]
 1602 0008 5522     		movs	r2, #85
 1603 000a C254     		strb	r2, [r0, r3]
 869:eInk Library/pervasive_eink_hardware_driver.c ****         dataLineOdd[byteCounter] = PV_EINK_NOTHING;
 1604              		.loc 1 869 0 discriminator 3
 1605 000c 496F     		ldr	r1, [r1, #116]
 1606 000e CA54     		strb	r2, [r1, r3]
 866:eInk Library/pervasive_eink_hardware_driver.c ****     {
 1607              		.loc 1 866 0 discriminator 3
 1608 0010 0133     		adds	r3, r3, #1
 1609              	.LVL154:
 1610 0012 9BB2     		uxth	r3, r3
 1611              	.LVL155:
 1612              	.L166:
 866:eInk Library/pervasive_eink_hardware_driver.c ****     {
 1613              		.loc 1 866 0 is_stmt 0 discriminator 1
 1614 0014 202B     		cmp	r3, #32
 1615 0016 F5D9     		bls	.L167
 861:eInk Library/pervasive_eink_hardware_driver.c ****     /* Counter variable for data line bytes */
 1616              		.loc 1 861 0 is_stmt 1
 1617 0018 70B5     		push	{r4, r5, r6, lr}
 1618              		.cfi_def_cfa_offset 16
 1619              		.cfi_offset 4, -16
 1620              		.cfi_offset 5, -12
 1621              		.cfi_offset 6, -8
 1622              		.cfi_offset 14, -4
 1623 001a 0024     		movs	r4, #0
 1624 001c 16E0     		b	.L168
 1625              	.LVL156:
 1626              	.L169:
 870:eInk Library/pervasive_eink_hardware_driver.c ****     }
 871:eInk Library/pervasive_eink_hardware_driver.c ****     /* Send the same horizontal data for all vertical lines */
 872:eInk Library/pervasive_eink_hardware_driver.c ****     for (byteCounter = 0; byteCounter < PV_EINK_VERTICAL_SIZE; byteCounter++)
 873:eInk Library/pervasive_eink_hardware_driver.c ****     {
 874:eInk Library/pervasive_eink_hardware_driver.c ****         /* Scan byte shift per data line */
 875:eInk Library/pervasive_eink_hardware_driver.c ****         dataLineScan[(byteCounter >> PV_EINK_PIXEL_SIZE)] = scanTable
 1627              		.loc 1 875 0 discriminator 3
 1628 001e A608     		lsrs	r6, r4, #2
 1629 0020 0C4D     		ldr	r5, .L171
 1630 0022 AA6F     		ldr	r2, [r5, #120]
ARM GAS  C:\Users\rober\AppData\Local\Temp\ccBlBMtt.s 			page 59


 876:eInk Library/pervasive_eink_hardware_driver.c ****                             [(byteCounter % PV_EINK_SCAN_TABLE_SIZE)];
 1631              		.loc 1 876 0 discriminator 3
 1632 0024 04F00303 		and	r3, r4, #3
 1633 0028 0B49     		ldr	r1, .L171+4
 1634 002a 0B44     		add	r3, r3, r1
 1635 002c 1B7A     		ldrb	r3, [r3, #8]	@ zero_extendqisi2
 875:eInk Library/pervasive_eink_hardware_driver.c ****                             [(byteCounter % PV_EINK_SCAN_TABLE_SIZE)];
 1636              		.loc 1 875 0 discriminator 3
 1637 002e 9355     		strb	r3, [r2, r6]
 877:eInk Library/pervasive_eink_hardware_driver.c ****         
 878:eInk Library/pervasive_eink_hardware_driver.c ****         /* Send the prepared data to the E-INK display */
 879:eInk Library/pervasive_eink_hardware_driver.c ****         Pv_EINK_SendData(PV_EINK_PIXEL_DATA_COMMAND_INDEX,
 1638              		.loc 1 879 0 discriminator 3
 1639 0030 6F22     		movs	r2, #111
 1640 0032 2946     		mov	r1, r5
 1641 0034 0A20     		movs	r0, #10
 1642 0036 FFF7FEFF 		bl	Pv_EINK_SendData
 1643              	.LVL157:
 880:eInk Library/pervasive_eink_hardware_driver.c ****                         (uint8_t*) &driverPacket.lineBuffer,
 881:eInk Library/pervasive_eink_hardware_driver.c ****                          PV_EINK_DATA_LINE_SIZE);
 882:eInk Library/pervasive_eink_hardware_driver.c ****         /* Turn on Output Enable to latch the frame */
 883:eInk Library/pervasive_eink_hardware_driver.c ****         Pv_EINK_SendByte(PV_EINK_ENABLE_OE_COMMAND_INDEX, 
 1644              		.loc 1 883 0 discriminator 3
 1645 003a 0721     		movs	r1, #7
 1646 003c 0220     		movs	r0, #2
 1647 003e FFF7FEFF 		bl	Pv_EINK_SendByte
 1648              	.LVL158:
 884:eInk Library/pervasive_eink_hardware_driver.c ****                          PV_EINK_ENABLE_OE_COMMAND_DATA);
 885:eInk Library/pervasive_eink_hardware_driver.c ****         
 886:eInk Library/pervasive_eink_hardware_driver.c ****         /* Initialize the next scan byte */
 887:eInk Library/pervasive_eink_hardware_driver.c ****         dataLineScan[(byteCounter >> PV_EINK_PIXEL_SIZE)] = 0u;
 1649              		.loc 1 887 0 discriminator 3
 1650 0042 AB6F     		ldr	r3, [r5, #120]
 1651 0044 0022     		movs	r2, #0
 1652 0046 9A55     		strb	r2, [r3, r6]
 872:eInk Library/pervasive_eink_hardware_driver.c ****     {
 1653              		.loc 1 872 0 discriminator 3
 1654 0048 0134     		adds	r4, r4, #1
 1655              	.LVL159:
 1656 004a A4B2     		uxth	r4, r4
 1657              	.LVL160:
 1658              	.L168:
 872:eInk Library/pervasive_eink_hardware_driver.c ****     {
 1659              		.loc 1 872 0 is_stmt 0 discriminator 1
 1660 004c AF2C     		cmp	r4, #175
 1661 004e E6D9     		bls	.L169
 888:eInk Library/pervasive_eink_hardware_driver.c ****     }
 889:eInk Library/pervasive_eink_hardware_driver.c **** }
 1662              		.loc 1 889 0 is_stmt 1
 1663 0050 70BD     		pop	{r4, r5, r6, pc}
 1664              	.LVL161:
 1665              	.L172:
 1666 0052 00BF     		.align	2
 1667              	.L171:
 1668 0054 00000000 		.word	.LANCHOR0
 1669 0058 00000000 		.word	.LANCHOR1
 1670              		.cfi_endproc
ARM GAS  C:\Users\rober\AppData\Local\Temp\ccBlBMtt.s 			page 60


 1671              	.LFE611:
 1672              		.size	Pv_EINK_NothingFrame, .-Pv_EINK_NothingFrame
 1673              		.section	.text.Pv_EINK_DummyLine,"ax",%progbits
 1674              		.align	2
 1675              		.global	Pv_EINK_DummyLine
 1676              		.thumb
 1677              		.thumb_func
 1678              		.type	Pv_EINK_DummyLine, %function
 1679              	Pv_EINK_DummyLine:
 1680              	.LFB612:
 890:eInk Library/pervasive_eink_hardware_driver.c **** 
 891:eInk Library/pervasive_eink_hardware_driver.c **** /*******************************************************************************
 892:eInk Library/pervasive_eink_hardware_driver.c **** * Function Name:  void Pv_EINK_DummyLine(void)
 893:eInk Library/pervasive_eink_hardware_driver.c **** ********************************************************************************
 894:eInk Library/pervasive_eink_hardware_driver.c **** *
 895:eInk Library/pervasive_eink_hardware_driver.c **** * Summary: Write a "Dummy Line" to driver. For a "Dummy Line" , all pixel data
 896:eInk Library/pervasive_eink_hardware_driver.c **** * are "00". For more details, please refer to the driver G2 document Section 6.
 897:eInk Library/pervasive_eink_hardware_driver.c **** *
 898:eInk Library/pervasive_eink_hardware_driver.c **** * Parameters:
 899:eInk Library/pervasive_eink_hardware_driver.c **** *  None
 900:eInk Library/pervasive_eink_hardware_driver.c **** *
 901:eInk Library/pervasive_eink_hardware_driver.c **** * Return:
 902:eInk Library/pervasive_eink_hardware_driver.c **** *  None
 903:eInk Library/pervasive_eink_hardware_driver.c **** *
 904:eInk Library/pervasive_eink_hardware_driver.c **** * Side Effects:
 905:eInk Library/pervasive_eink_hardware_driver.c **** *  None
 906:eInk Library/pervasive_eink_hardware_driver.c **** *******************************************************************************/
 907:eInk Library/pervasive_eink_hardware_driver.c **** void Pv_EINK_DummyLine(void)
 908:eInk Library/pervasive_eink_hardware_driver.c **** {
 1681              		.loc 1 908 0
 1682              		.cfi_startproc
 1683              		@ args = 0, pretend = 0, frame = 0
 1684              		@ frame_needed = 0, uses_anonymous_args = 0
 1685 0000 08B5     		push	{r3, lr}
 1686              		.cfi_def_cfa_offset 8
 1687              		.cfi_offset 3, -8
 1688              		.cfi_offset 14, -4
 1689              	.LVL162:
 909:eInk Library/pervasive_eink_hardware_driver.c ****     /* Counter variable for data line bytes */
 910:eInk Library/pervasive_eink_hardware_driver.c ****     uint8_t byteCounter;
 911:eInk Library/pervasive_eink_hardware_driver.c ****     
 912:eInk Library/pervasive_eink_hardware_driver.c ****     /* Create a data line containing dummy bytes */
 913:eInk Library/pervasive_eink_hardware_driver.c ****     for (byteCounter = 0; byteCounter < (PV_EINK_VERTICAL_SIZE 
 1690              		.loc 1 913 0
 1691 0002 0023     		movs	r3, #0
 1692 0004 04E0     		b	.L174
 1693              	.LVL163:
 1694              	.L175:
 914:eInk Library/pervasive_eink_hardware_driver.c ****                                         / CY_EINK_BYTE_SIZE);
 915:eInk Library/pervasive_eink_hardware_driver.c ****          byteCounter++)
 916:eInk Library/pervasive_eink_hardware_driver.c ****     {
 917:eInk Library/pervasive_eink_hardware_driver.c ****         driverPacket.lineBuffer[byteCounter] = PV_EINK_DUMMY_BYTE;
 1695              		.loc 1 917 0
 1696 0006 0021     		movs	r1, #0
 1697 0008 094A     		ldr	r2, .L177
 1698 000a D154     		strb	r1, [r2, r3]
 915:eInk Library/pervasive_eink_hardware_driver.c ****     {
ARM GAS  C:\Users\rober\AppData\Local\Temp\ccBlBMtt.s 			page 61


 1699              		.loc 1 915 0
 1700 000c 0133     		adds	r3, r3, #1
 1701              	.LVL164:
 1702 000e DBB2     		uxtb	r3, r3
 1703              	.LVL165:
 1704              	.L174:
 913:eInk Library/pervasive_eink_hardware_driver.c ****                                         / CY_EINK_BYTE_SIZE);
 1705              		.loc 1 913 0 discriminator 1
 1706 0010 152B     		cmp	r3, #21
 1707 0012 F8D9     		bls	.L175
 918:eInk Library/pervasive_eink_hardware_driver.c ****     }
 919:eInk Library/pervasive_eink_hardware_driver.c ****     
 920:eInk Library/pervasive_eink_hardware_driver.c ****     /* Set charge pump voltage level to reduce voltage shift */
 921:eInk Library/pervasive_eink_hardware_driver.c ****     Pv_EINK_SendByte(PV_EINK_PWR2_SETTING_COMMAND_INDEX, 
 1708              		.loc 1 921 0
 1709 0014 0021     		movs	r1, #0
 1710 0016 0420     		movs	r0, #4
 1711 0018 FFF7FEFF 		bl	Pv_EINK_SendByte
 1712              	.LVL166:
 922:eInk Library/pervasive_eink_hardware_driver.c ****                      PV_EINK_VOLTAGE_LEVEL);
 923:eInk Library/pervasive_eink_hardware_driver.c ****     /* Send the prepared data to the E-INK display */
 924:eInk Library/pervasive_eink_hardware_driver.c ****     Pv_EINK_SendData(PV_EINK_PIXEL_DATA_COMMAND_INDEX,
 1713              		.loc 1 924 0
 1714 001c 6F22     		movs	r2, #111
 1715 001e 0449     		ldr	r1, .L177
 1716 0020 0A20     		movs	r0, #10
 1717 0022 FFF7FEFF 		bl	Pv_EINK_SendData
 1718              	.LVL167:
 925:eInk Library/pervasive_eink_hardware_driver.c ****                     (uint8_t*) &driverPacket.lineBuffer, 
 926:eInk Library/pervasive_eink_hardware_driver.c ****                      PV_EINK_DATA_LINE_SIZE);
 927:eInk Library/pervasive_eink_hardware_driver.c ****     /* Turn on Output Enable to latch the frame */
 928:eInk Library/pervasive_eink_hardware_driver.c ****     Pv_EINK_SendByte(PV_EINK_ENABLE_OE_COMMAND_INDEX, 
 1719              		.loc 1 928 0
 1720 0026 0721     		movs	r1, #7
 1721 0028 0220     		movs	r0, #2
 1722 002a FFF7FEFF 		bl	Pv_EINK_SendByte
 1723              	.LVL168:
 1724 002e 08BD     		pop	{r3, pc}
 1725              	.L178:
 1726              		.align	2
 1727              	.L177:
 1728 0030 00000000 		.word	.LANCHOR0
 1729              		.cfi_endproc
 1730              	.LFE612:
 1731              		.size	Pv_EINK_DummyLine, .-Pv_EINK_DummyLine
 1732              		.section	.text.Pv_EINK_HardwarePowerOn,"ax",%progbits
 1733              		.align	2
 1734              		.global	Pv_EINK_HardwarePowerOn
 1735              		.thumb
 1736              		.thumb_func
 1737              		.type	Pv_EINK_HardwarePowerOn, %function
 1738              	Pv_EINK_HardwarePowerOn:
 1739              	.LFB613:
 929:eInk Library/pervasive_eink_hardware_driver.c ****                      PV_EINK_ENABLE_OE_COMMAND_DATA);
 930:eInk Library/pervasive_eink_hardware_driver.c **** }
 931:eInk Library/pervasive_eink_hardware_driver.c **** 
 932:eInk Library/pervasive_eink_hardware_driver.c **** /*******************************************************************************
ARM GAS  C:\Users\rober\AppData\Local\Temp\ccBlBMtt.s 			page 62


 933:eInk Library/pervasive_eink_hardware_driver.c **** * Function Name: pv_eink_status_t Pv_EINK_HardwarePowerOn()
 934:eInk Library/pervasive_eink_hardware_driver.c **** ********************************************************************************
 935:eInk Library/pervasive_eink_hardware_driver.c **** *
 936:eInk Library/pervasive_eink_hardware_driver.c **** * Summary: Power on E-INK Driver. For detailed flow and description, please refer
 937:eInk Library/pervasive_eink_hardware_driver.c **** * to the driver G2 document Section 3.
 938:eInk Library/pervasive_eink_hardware_driver.c **** *
 939:eInk Library/pervasive_eink_hardware_driver.c **** * Parameters:
 940:eInk Library/pervasive_eink_hardware_driver.c **** *  None
 941:eInk Library/pervasive_eink_hardware_driver.c **** *
 942:eInk Library/pervasive_eink_hardware_driver.c **** * Return:
 943:eInk Library/pervasive_eink_hardware_driver.c **** *  pv_eink_status_t: Status of the power on operation
 944:eInk Library/pervasive_eink_hardware_driver.c **** *
 945:eInk Library/pervasive_eink_hardware_driver.c **** * Side Effects:
 946:eInk Library/pervasive_eink_hardware_driver.c **** *  None
 947:eInk Library/pervasive_eink_hardware_driver.c **** *******************************************************************************/
 948:eInk Library/pervasive_eink_hardware_driver.c **** pv_eink_status_t Pv_EINK_HardwarePowerOn(void)
 949:eInk Library/pervasive_eink_hardware_driver.c **** {
 1740              		.loc 1 949 0
 1741              		.cfi_startproc
 1742              		@ args = 0, pretend = 0, frame = 0
 1743              		@ frame_needed = 0, uses_anonymous_args = 0
 1744 0000 38B5     		push	{r3, r4, r5, lr}
 1745              		.cfi_def_cfa_offset 16
 1746              		.cfi_offset 3, -16
 1747              		.cfi_offset 4, -12
 1748              		.cfi_offset 5, -8
 1749              		.cfi_offset 14, -4
 1750              	.LVL169:
 1751              	.LBB86:
 1752              	.LBB87:
 1753              		.loc 2 753 0
 1754 0002 0E4C     		ldr	r4, .L181
 1755 0004 1023     		movs	r3, #16
 1756 0006 A360     		str	r3, [r4, #8]
 1757              	.LVL170:
 1758              	.LBE87:
 1759              	.LBE86:
 950:eInk Library/pervasive_eink_hardware_driver.c ****     /* Enable the load switch connected to E-INK display's Vcc, and wait till
 951:eInk Library/pervasive_eink_hardware_driver.c ****     the voltage ramps up to the level required for proper operation of E-INK */
 952:eInk Library/pervasive_eink_hardware_driver.c ****     CY_EINK_TurnOnVcc;
 953:eInk Library/pervasive_eink_hardware_driver.c ****     CY_EINK_Delay(PV_EINK_PWR_DELAY);
 1760              		.loc 1 953 0
 1761 0008 1420     		movs	r0, #20
 1762 000a FFF7FEFF 		bl	Cy_SysLib_Delay
 1763              	.LVL171:
 954:eInk Library/pervasive_eink_hardware_driver.c ****     
 955:eInk Library/pervasive_eink_hardware_driver.c ****     /* Attach PSoC's SPI hardware to E-INK driver */
 956:eInk Library/pervasive_eink_hardware_driver.c ****     Cy_EINK_AttachSPI();
 1764              		.loc 1 956 0
 1765 000e FFF7FEFF 		bl	Cy_EINK_AttachSPI
 1766              	.LVL172:
 1767              	.LBB88:
